 slrttestmdl_slrt

 Timestamp is 5b97d292 (Tue Sep 11 20:04:58 2018)

 Preferred load address is 10000000

 Start         Length     Name                   Class
 0001:00000000 00005f8eH .text                   CODE
 0001:00005f90 0005a5d4H .text$mn                CODE
 0002:00000000 00000104H .CRT$XCA                DATA
 0002:00000104 00000104H .CRT$XCZ                DATA
 0002:00000208 00000104H .CRT$XIA                DATA
 0002:0000030c 0000010eH .CRT$XIC                DATA
 0002:0000041c 00000104H .CRT$XIZ                DATA
 0002:00000520 00000104H .CRT$XPA                DATA
 0002:00000624 00000109H .CRT$XPX                DATA
 0002:00000730 00000104H .CRT$XPXA               DATA
 0002:00000834 00000104H .CRT$XPZ                DATA
 0002:00000938 00000104H .CRT$XTA                DATA
 0002:00000a3c 00000104H .CRT$XTZ                DATA
 0002:00000b40 0000cd44H .rdata                  DATA
 0002:0000d884 0000038aH .rdata$r                DATA
 0002:0000dc10 0000010eH .rdata$sxdata           DATA
 0002:0000dd20 00000113H .rdata$zETW0            DATA
 0002:0000de33 0000018eH .rdata$zETW1            DATA
 0002:0000dfc1 00000134H .rdata$zETW2            DATA
 0002:0000e0f5 00000101H .rdata$zETW9            DATA
 0002:0000e1f8 000001c0H .rdata$zzzdbg           DATA
 0002:0000e3b8 00000104H .rtc$IAA                DATA
 0002:0000e4bc 00000104H .rtc$IZZ                DATA
 0002:0000e5c0 00000104H .rtc$TAA                DATA
 0002:0000e6c4 00000104H .rtc$TZZ                DATA
 0002:0000e7c8 00000ac0H .xdata$x                DATA
 0002:0000f290 00000204H .edata                  DATA
 0003:00000000 00000fdfH .data                   DATA
 0003:00000fe0 000001d4H .data$r                 DATA
 0003:000011c0 00012f2cH .bss                    DATA
 0004:00000000 000001ecH .idata$5                DATA
 0004:000001ec 00000028H .idata$2                DATA
 0004:00000214 00000014H .idata$3                DATA
 0004:00000228 000001ecH .idata$4                DATA
 0004:00000414 0000080cH .idata$6                DATA
 0005:00000000 00000104H .00cfg                  DATA

  Address         Publics by Value              Rva+Base       Lib:Object

 0000:00000000       ___guard_fids_count        00000000     <absolute>
 0000:00000000       ___guard_fids_table        00000000     <absolute>
 0000:00000000       __except_list              00000000     <absolute>
 0000:00000003       ___safe_se_handler_count   00000003     <absolute>
 0000:00000100       ___guard_flags             00000100     <absolute>
 0000:00000000       ___ImageBase               10000000     <linker-defined>
 0001:00005c99       ?TraceLoggingRegister@__vcrt_trace_logging_provider@@YAJPBU_TlgProvider_t@1@PBU_GUID@@P6GX1KE_K2PAU_EVENT_FILTER_DESCRIPTOR@@PAX@Z4@Z 10006c99 f i libvcruntime:telemetry.obj
 0001:00005d0d       ?TraceLoggingSetInformation@__vcrt_trace_logging_provider@@YAJPBU_TlgProvider_t@1@W4_EVENT_INFO_CLASS@@PAXK@Z 10006d0d f i libvcruntime:telemetry.obj
 0001:00005d42       ?TraceLoggingUnregister@__vcrt_trace_logging_provider@@YAXPBU_TlgProvider_t@1@@Z 10006d42 f i libvcruntime:telemetry.obj
 0001:00005d68       ?_TlgCreateSz@__vcrt_trace_logging_provider@@YAXPAU_EVENT_DATA_DESCRIPTOR@@PBD@Z 10006d68 f i libvcruntime:telemetry.obj
 0001:00005dae       ?_TlgCreateWsz@__vcrt_trace_logging_provider@@YAXPAU_EVENT_DATA_DESCRIPTOR@@PB_W@Z 10006dae f i libvcruntime:telemetry.obj
 0001:00005e03       ?_TlgEnableCallback@__vcrt_trace_logging_provider@@YGXPBU_GUID@@KE_K1PAU_EVENT_FILTER_DESCRIPTOR@@PAX@Z 10006e03 f i libvcruntime:telemetry.obj
 0001:00005e99       ?_TlgKeywordOn@__vcrt_trace_logging_provider@@YAEPBU_TlgProvider_t@1@_K@Z 10006e99 f i libvcruntime:telemetry.obj
 0001:00005ee4       ?_TlgWrite@__vcrt_trace_logging_provider@@YAJPBU_TlgProvider_t@1@PBXPBU_GUID@@2IPAU_EVENT_DATA_DESCRIPTOR@@@Z 10006ee4 f i libvcruntime:telemetry.obj
 0001:00005f90       _DllMain@12                10006f90 f   xpctarget.obj
 0001:00005fa0       _SLRTSetErrorStatus        10006fa0 f   xpctarget.obj
 0001:00005fc0       _changeStepSize            10006fc0 f   xpctarget.obj
 0001:00006030       _getDLMVersion             10007030 f   xpctarget.obj
 0001:00006040       _getFullPathToRefMdl       10007040 f   xpctarget.obj
 0001:000060f0       _getRefMdlPath             100070f0 f   xpctarget.obj
 0001:00006170       _getRefMdlSignalNumber     10007170 f   xpctarget.obj
 0001:00006220       _getrlmdlinfo              10007220 f   xpctarget.obj
 0001:00006380       _slrtRegisterSignalToLoggingService 10007380 f   xpctarget.obj
 0001:000064d0       _slrttestmdl_ChangeStepSize 100074d0 f   xpctarget.obj
 0001:00006540       _updateDiscreteEvents      10007540 f   xpctarget.obj
 0001:00006550       _getNumRef                 10007550 f   appmappingData.obj
 0001:00006560       ___local_stdio_printf_options 10007560 f i legacy_stdio.obj
 0001:00006570       __vfprintf_l               10007570 f i legacy_stdio.obj
 0001:000065a0       _vprintf                   100075a0 f i legacy_stdio.obj
 0001:000065e0       __vsnprintf_l              100075e0 f i rt_logging.obj
 0001:00006620       __vsprintf_l               10007620 f i rt_logging.obj
 0001:00006660       _fprintf                   10007660 f i rt_logging.obj
 0001:00006f60       _printf                    10007f60 f i rt_logging.obj
 0001:00006fa0       _rt_CreateLogVar           10007fa0 f   rt_logging.obj
 0001:00007030       _rt_CreateLogVarWithConvert 10008030 f   rt_logging.obj
 0001:00007980       _rt_CreateStructLogVar     10008980 f   rt_logging.obj
 0001:000086e0       _rt_GetMxIdFromDTypeId     100096e0 f   rt_logging.obj
 0001:00008710       _rt_GetMxIdFromDTypeIdForRSim 10009710 f   rt_logging.obj
 0001:0000aff0       _rt_StartDataLogging       1000bff0 f   rt_logging.obj
 0001:0000b4b0       _rt_StartDataLoggingWithStartTime 1000c4b0 f   rt_logging.obj
 0001:0000be10       _rt_StopDataLogging        1000ce10 f   rt_logging.obj
 0001:0000be30       _rt_StopDataLoggingImpl    1000ce30 f   rt_logging.obj
 0001:0000c180       _rt_UpdateLogVar           1000d180 f   rt_logging.obj
 0001:0000d340       _rt_UpdateStructLogVar     1000e340 f   rt_logging.obj
 0001:0000d3d0       _rt_UpdateTXXFYLogVars     1000e3d0 f   rt_logging.obj
 0001:0000d9c0       _rt_UpdateTXYLogVars       1000e9c0 f   rt_logging.obj
 0001:0000dc10       _rt_getTempMemory          1000ec10 f   rt_logging.obj
 0001:0000dc60       _sprintf                   1000ec60 f i rt_logging.obj
 0001:0000dca0       _rtGetInf                  1000eca0 f   rtGetInf.obj
 0001:0000dcd0       _rtGetInfF                 1000ecd0 f   rtGetInf.obj
 0001:0000dcf0       _rtGetMinusInf             1000ecf0 f   rtGetInf.obj
 0001:0000dd20       _rtGetMinusInfF            1000ed20 f   rtGetInf.obj
 0001:0000dd40       _rtGetNaN                  1000ed40 f   rtGetNaN.obj
 0001:0000dd70       _rtGetNaNF                 1000ed70 f   rtGetNaN.obj
 0001:0000dd90       _rtIsInf                   1000ed90 f   rt_nonfinite.obj
 0001:0000ddd0       _rtIsInfF                  1000edd0 f   rt_nonfinite.obj
 0001:0000de10       _rtIsNaN                   1000ee10 f   rt_nonfinite.obj
 0001:0000de30       _rtIsNaNF                  1000ee30 f   rt_nonfinite.obj
 0001:0000de50       _rt_InitInfAndNaN          1000ee50 f   rt_nonfinite.obj
 0001:0000deb0       _MdlInitialize             1000eeb0 f   slrttestmdl.obj
 0001:0000dec0       _MdlInitializeSampleTimes  1000eec0 f   slrttestmdl.obj
 0001:0000ded0       _MdlInitializeSizes        1000eed0 f   slrttestmdl.obj
 0001:0000dee0       _MdlOutputs                1000eee0 f   slrttestmdl.obj
 0001:0000def0       _MdlStart                  1000eef0 f   slrttestmdl.obj
 0001:0000df20       _MdlTerminate              1000ef20 f   slrttestmdl.obj
 0001:0000df30       _MdlUpdate                 1000ef30 f   slrttestmdl.obj
 0001:0000df40       _rt_ODECreateIntegrationData 1000ef40 f   slrttestmdl.obj
 0001:0000df50       _rt_ODEDestroyIntegrationData 1000ef50 f   slrttestmdl.obj
 0001:0000df60       _rt_ODEUpdateContinuousStates 1000ef60 f   slrttestmdl.obj
 0001:0000e230       _slrttestmdl               1000f230 f   slrttestmdl.obj
 0001:0000e5f0       _slrttestmdl_derivatives   1000f5f0 f   slrttestmdl.obj
 0001:0000e620       _slrttestmdl_initialize    1000f620 f   slrttestmdl.obj
 0001:0000e650       _slrttestmdl_output        1000f650 f   slrttestmdl.obj
 0001:0000e870       _slrttestmdl_terminate     1000f870 f   slrttestmdl.obj
 0001:0000e880       _slrttestmdl_update        1000f880 f   slrttestmdl.obj
 0001:0000e950       _slrttestmdl_GetCAPIStaticMap 1000f950 f   slrttestmdl_capi.obj
 0001:0000e960       _slrttestmdl_InitializeDataMapInfo 1000f960 f   slrttestmdl_capi.obj
 0001:0000ea30       _mdlXcp_GetMdlXcpInfo      1000fa30 f   slrttestmdl_xcp.obj
 0001:0000ea40       _SLRT_update_TET           1000fa40 f   slrttestmdl_xcp_TET.obj
 0001:0000eb10       _rt_CleanUpForStateLogWithMMI 1000fb10 f   rt_logging_mmi.obj
 0001:0000ec20       _rt_FillStateSigInfoFromMMI 1000fc20 f   rt_logging_mmi.obj
 0001:0000eff0       _rtwCAPI_CountSysRan       1000fff0 f   rtw_modelmap_utils.obj
 0001:0000f090       _rtwCAPI_EncodePath        10010090 f   rtw_modelmap_utils.obj
 0001:0000f190       _rtwCAPI_FillSysRan        10010190 f   rtw_modelmap_utils.obj
 0001:0000f280       _rtwCAPI_FreeFullPaths     10010280 f   rtw_modelmap_utils.obj
 0001:0000f310       _rtwCAPI_GetFullStateBlockPath 10010310 f   rtw_modelmap_utils.obj
 0001:0000f4c0       _rtwCAPI_GetNumContStateRecords 100104c0 f   rtw_modelmap_utils.obj
 0001:0000f580       _rtwCAPI_GetNumSigLogRecords 10010580 f   rtw_modelmap_utils.obj
 0001:0000f5d0       _rtwCAPI_GetNumSigLogRecordsForRTWLogging 100105d0 f   rtw_modelmap_utils.obj
 0001:0000f660       _rtwCAPI_GetNumStateRecords 10010660 f   rtw_modelmap_utils.obj
 0001:0000f6b0       _rtwCAPI_GetNumStateRecordsForRTWLogging 100106b0 f   rtw_modelmap_utils.obj
 0001:0000f740       _rtwCAPI_GetSigAddrFromMap 10010740 f   rtw_modelmap_utils.obj
 0001:0000f800       _rtwCAPI_GetSigLogRecordInfo 10010800 f   rtw_modelmap_utils.obj
 0001:0000fc30       _rtwCAPI_GetStateRecordInfo 10010c30 f   rtw_modelmap_utils.obj
 0001:00010120       _rtwCAPI_GetStateWidth     10011120 f   rtw_modelmap_utils.obj
 0001:00010180       _rtwCAPI_HasStates         10011180 f   rtw_modelmap_utils.obj
 0001:000101f0       _rtwCAPI_UpdateFullPaths   100111f0 f   rtw_modelmap_utils.obj
 0001:000103d0       _timestamp_x86             100113d0 f   host_timer_x86.obj
 0001:000103e0       _taskTimeEnd               100113e0 f   xpc_code_profiling_utility_functions.obj
 0001:000103f0       _taskTimeEnd_              100113f0 f   xpc_code_profiling_utility_functions.obj
 0001:00010400       _taskTimeStart             10011400 f   xpc_code_profiling_utility_functions.obj
 0001:00010410       _taskTimeStart_            10011410 f   xpc_code_profiling_utility_functions.obj
 0001:00010420       _xilProfilingTimerFreeze   10011420 f   xpc_code_profiling_utility_functions.obj
 0001:00010430       _xilProfilingTimerUnFreeze 10011430 f   xpc_code_profiling_utility_functions.obj
 0001:00010440       _xilUploadProfilingData    10011440 f   xpc_code_profiling_utility_functions.obj
 0001:00010450       _GetPCIDeviceFull          10011450 f   xpcruntime:xpcimports.obj
 0001:000104a0       _GetPCIDeviceFunction      100114a0 f   xpcruntime:xpcimports.obj
 0001:000104e0       _ShowPCIDevice             100114e0 f   xpcruntime:xpcimports.obj
 0001:00010b40       _slrtGetPciConfigAtFunction 10011b40 f   xpcruntime:xpcimports.obj
 0001:00010ee0       _xpcGetPciConfigAtSlot     10011ee0 f   xpcruntime:xpcimports.obj
 0001:00010f00       _xpcInitProcs              10011f00 f   xpcruntime:xpcimports.obj
 0001:00012580       _xpceuploadevent           10013580 f   xpcruntime:xpcimports.obj
 0001:00012581       ___raise_securityfailure   10013581 f   LIBCMT:gs_report.obj
 0001:000125b3       ___report_gsfailure        100135b3 f   LIBCMT:gs_report.obj
 0001:000126ec       ___report_rangecheckfailure 100136ec f   LIBCMT:gs_report.obj
 0001:000126fb       ___report_securityfailure  100136fb f   LIBCMT:gs_report.obj
 0001:000127ff       ___report_securityfailureEx 100137ff f   LIBCMT:gs_report.obj
 0001:0001295a       @__security_check_cookie@4 1001395a f   LIBCMT:_secchk_.obj
 0001:00012970       __ftoui3                   10013970 f   LIBCMT:_ftol3_.obj
 0001:0001297f       __ftoul3                   1001397f f   LIBCMT:_ftol3_.obj
 0001:0001298e       __ftol3                    1001398e f   LIBCMT:_ftol3_.obj
 0001:0001299b       __ftol3_NaN                1001399b f   LIBCMT:_ftol3_.obj
 0001:000129b3       __ftol3_work               100139b3 f   LIBCMT:_ftol3_.obj
 0001:00012a39       __ftol3_common             10013a39 f   LIBCMT:_ftol3_.obj
 0001:00012afb       __ftol3_arg_error          10013afb f   LIBCMT:_ftol3_.obj
 0001:00012b0d       __ftol3_except             10013b0d f   LIBCMT:_ftol3_.obj
 0001:00012b51       __dtoui3                   10013b51 f   LIBCMT:_ftol3_.obj
 0001:00012b60       __dtoul3                   10013b60 f   LIBCMT:_ftol3_.obj
 0001:00012b6f       __dtol3                    10013b6f f   LIBCMT:_ftol3_.obj
 0001:00012b7c       __dtol3_NaN                10013b7c f   LIBCMT:_ftol3_.obj
 0001:00012b99       __dtol3_work               10013b99 f   LIBCMT:_ftol3_.obj
 0001:00012c80       __ultod3                   10013c80 f   LIBCMT:_ftol3_.obj
 0001:00012cc0       __ltod3                    10013cc0 f   LIBCMT:_ftol3_.obj
 0001:00012dc4       ___isa_available_init      10013dc4 f   LIBCMT:_cpu_disp_.obj
 0001:000133a5       __CRT_INIT@12              100143a5 f   LIBCMT:dll_dllmain.obj
 0001:000133b0       __DllMainCRTStartup@12     100143b0 f   LIBCMT:dll_dllmain.obj
 0001:000133db       ??$__crt_fast_decode_pointer@PAP6AXXZ@@YAPAP6AXXZQAP6AXXZ@Z 100143db f i LIBCMT:utility.obj
 0001:000133f4       ??$__crt_fast_encode_pointer@PAP6AXXZ@@YAPAP6AXXZQAP6AXXZ@Z 100143f4 f i LIBCMT:utility.obj
 0001:00013418       ?__crt_rotate_pointer_value@@YAIIH@Z 10014418 f i LIBCMT:utility.obj
 0001:000134bc       _NtCurrentTeb              100144bc f i LIBCMT:utility.obj
 0001:000134c3       ___scrt_acquire_startup_lock 100144c3 f   LIBCMT:utility.obj
 0001:00013505       ___scrt_dllmain_after_initialize_c 10014505 f   LIBCMT:utility.obj
 0001:00013523       ___scrt_dllmain_before_initialize_c 10014523 f   LIBCMT:utility.obj
 0001:00013534       ___scrt_dllmain_crt_thread_attach 10014534 f   LIBCMT:utility.obj
 0001:0001355a       ___scrt_dllmain_crt_thread_detach 1001455a f   LIBCMT:utility.obj
 0001:0001356a       ___scrt_dllmain_exception_filter 1001456a f   LIBCMT:utility.obj
 0001:000135a9       ___scrt_dllmain_uninitialize_c 100145a9 f   LIBCMT:utility.obj
 0001:000135d4       ___scrt_dllmain_uninitialize_critical 100145d4 f   LIBCMT:utility.obj
 0001:000135e4       ___scrt_initialize_crt     100145e4 f   LIBCMT:utility.obj
 0001:0001362b       ___scrt_initialize_onexit_tables 1001462b f   LIBCMT:utility.obj
 0001:000136e7       ___scrt_is_nonwritable_in_current_image 100146e7 f   LIBCMT:utility.obj
 0001:00013797       ___scrt_release_startup_lock 10014797 f   LIBCMT:utility.obj
 0001:000137bb       ___scrt_uninitialize_crt   100147bb f   LIBCMT:utility.obj
 0001:000137ed       __onexit                   100147ed f   LIBCMT:utility.obj
 0001:00013836       _at_quick_exit             10014836 f   LIBCMT:utility.obj
 0001:00013873       _atexit                    10014873 f   LIBCMT:utility.obj
 0001:0001388d       ___security_init_cookie    1001488d f   LIBCMT:gs_support.obj
 0001:00013950       ?__scrt_initialize_type_info@@YAXXZ 10014950 f   LIBCMT:tncleanup.obj
 0001:0001395f       ?__scrt_uninitialize_type_info@@YAXXZ 1001495f f   LIBCMT:tncleanup.obj
 0001:0001396e       ___local_stdio_scanf_options 1001496e f i LIBCMT:default_local_stdio_options.obj
 0001:00013974       ___scrt_initialize_default_local_stdio_options 10014974 f   LIBCMT:default_local_stdio_options.obj
 0001:00013998       ___scrt_get_dyn_tls_init_callback 10014998 f   LIBCMT:dyn_tls_init.obj
 0001:0001399e       ___scrt_fastfail           1001499e f   LIBCMT:utility_desktop.obj
 0001:00013aff       ___scrt_get_show_window_mode 10014aff f   LIBCMT:utility_desktop.obj
 0001:00013b3e       ___scrt_initialize_winrt   10014b3e f   LIBCMT:utility_desktop.obj
 0001:00013b41       ___scrt_is_managed_app     10014b41 f   LIBCMT:utility_desktop.obj
 0001:00013b96       ___scrt_set_unhandled_exception_filter 10014b96 f   LIBCMT:utility_desktop.obj
 0001:00013ba5       ___scrt_unhandled_exception_filter@4 10014ba5 f   LIBCMT:utility_desktop.obj
 0001:00013bf6       __crt_debugger_hook        10014bf6 f   LIBCMT:utility_desktop.obj
 0001:00013c00       __RTC_Initialize           10014c00 f   LIBCMT:_initsect_.obj
 0001:00013c35       __RTC_Terminate            10014c35 f   LIBCMT:_initsect_.obj
 0001:00013c6a       @_guard_check_icall@4      10014c6a f i LIBCMT:checkcfg.obj
 0001:00013c70       __SEH_prolog4              10014c70 f   LIBCMT:_sehprolg4_.obj
 0001:00013cb6       __SEH_epilog4              10014cb6 f   LIBCMT:_sehprolg4_.obj
 0001:00013ce1       ___scrt_is_ucrt_dll_in_use 10014ce1 f   LIBCMT:ucrt_detection.obj
 0001:00013cf0       @_guard_check_icall_nop@4  10014cf0 f i LIBCMT:guard_support.obj
 0001:00013cf1       __guard_icall_checks_enforced 10014cf1 f i LIBCMT:guard_support.obj
 0001:00013d08       _GetModuleHandleA@4        10014d08 f   kernel32:KERNEL32.dll
 0001:00013d0e       _GetProcAddress@8          10014d0e f   kernel32:KERNEL32.dll
 0001:00013d14       _UnhandledExceptionFilter@4 10014d14 f   kernel32:KERNEL32.dll
 0001:00013d1a       _SetUnhandledExceptionFilter@4 10014d1a f   kernel32:KERNEL32.dll
 0001:00013d20       _GetCurrentProcess@0       10014d20 f   kernel32:KERNEL32.dll
 0001:00013d26       _TerminateProcess@8        10014d26 f   kernel32:KERNEL32.dll
 0001:00013d2c       _IsProcessorFeaturePresent@4 10014d2c f   kernel32:KERNEL32.dll
 0001:00013d32       _QueryPerformanceCounter@4 10014d32 f   kernel32:KERNEL32.dll
 0001:00013d38       _GetCurrentProcessId@0     10014d38 f   kernel32:KERNEL32.dll
 0001:00013d3e       _GetCurrentThreadId@0      10014d3e f   kernel32:KERNEL32.dll
 0001:00013d44       _GetSystemTimeAsFileTime@4 10014d44 f   kernel32:KERNEL32.dll
 0001:00013d4a       _InitializeSListHead@4     10014d4a f   kernel32:KERNEL32.dll
 0001:00013d50       _IsDebuggerPresent@0       10014d50 f   kernel32:KERNEL32.dll
 0001:00013d56       _GetStartupInfoW@4         10014d56 f   kernel32:KERNEL32.dll
 0001:00013d5c       _GetModuleHandleW@4        10014d5c f   kernel32:KERNEL32.dll
 0001:00013d70       _memmove                   10014d70 f   libvcruntime:memmove.obj
 0001:00014450       _strchr                    10015450 f   libvcruntime:strchr.obj
 0001:000144be       ___from_strstr_to_strchr   100154be     libvcruntime:strchr.obj
 0001:000145d0       _memcpy                    100155d0 f   libvcruntime:memcpy.obj
 0001:00014cb0       _memset                    10015cb0 f   libvcruntime:memset.obj
 0001:00014ea9       _EventDataDescCreate       10015ea9 f i libvcruntime:telemetry.obj
 0001:00014eca       _HRESULT_FROM_WIN32        10015eca f i libvcruntime:telemetry.obj
 0001:00014ee3       ___telemetry_main_invoke_trigger 10015ee3 f   libvcruntime:telemetry.obj
 0001:00014fa6       ___telemetry_main_return_trigger 10015fa6 f   libvcruntime:telemetry.obj
 0001:00015069       ___vcrt_initialize_telemetry_provider 10016069 f   libvcruntime:telemetry.obj
 0001:00015080       ___vcrt_uninitialize_telemetry_provider 10016080 f   libvcruntime:telemetry.obj
 0001:000150d0       __except_handler4          100160d0 f   libvcruntime:_chandler4_.obj
 0001:00015280       ___vcrt_initialize         10016280 f   libvcruntime:initialization.obj
 0001:000152b9       ___vcrt_thread_attach      100162b9 f   libvcruntime:initialization.obj
 0001:000152c6       ___vcrt_thread_detach      100162c6 f   libvcruntime:initialization.obj
 0001:000152d3       ___vcrt_uninitialize       100162d3 f   libvcruntime:initialization.obj
 0001:00015300       ___vcrt_uninitialize_critical 10016300 f   libvcruntime:initialization.obj
 0001:0001531b       ??$?RD@__crt_internal_free_policy@@QBEXQBD@Z 1001631b f i libvcruntime:std_type_info.obj
 0001:0001532f       ??$?RX@__crt_internal_free_policy@@QBEXQBX@Z 1001632f f i libvcruntime:std_type_info.obj
 0001:00015343       ??$__crt_interlocked_compare_exchange_pointer@$$CBD$$T$$T@@YAPBDPDSBD$$T1@Z 10016343 f i libvcruntime:std_type_info.obj
 0001:00015359       ??$__crt_interlocked_compare_exchange_pointer@$$CBDPAD$$T@@YAPBDPDSBDQAD$$T@Z 10016359 f i libvcruntime:std_type_info.obj
 0001:0001536f       ??$__crt_interlocked_read_pointer@$$CBD@@YAPBDPDSBD@Z 1001636f f i libvcruntime:std_type_info.obj
 0001:00015383       ??0?$__crt_unique_heap_ptr@DU__crt_internal_free_policy@@@@QAE@QAD@Z 10016383 f i libvcruntime:std_type_info.obj
 0001:00015394       ??0?$__crt_unique_heap_ptr@XU__crt_internal_free_policy@@@@QAE@QAX@Z 10016394 f i libvcruntime:std_type_info.obj
 0001:000153a5       ??1?$__crt_unique_heap_ptr@DU__crt_internal_free_policy@@@@QAE@XZ 100163a5 f i libvcruntime:std_type_info.obj
 0001:000153b9       ??1?$__crt_unique_heap_ptr@XU__crt_internal_free_policy@@@@QAE@XZ 100163b9 f i libvcruntime:std_type_info.obj
 0001:000153d9       ??B?$__crt_unique_heap_ptr@DU__crt_internal_free_policy@@@@QBE_NXZ 100163d9 f i libvcruntime:std_type_info.obj
 0001:000153e3       ??B?$__crt_unique_heap_ptr@XU__crt_internal_free_policy@@@@QBE_NXZ 100163e3 f i libvcruntime:std_type_info.obj
 0001:00015415       ?detach@?$__crt_unique_heap_ptr@XU__crt_internal_free_policy@@@@QAEPAXXZ 10016415 f i libvcruntime:std_type_info.obj
 0001:0001541b       ?get@?$__crt_unique_heap_ptr@DU__crt_internal_free_policy@@@@QBEPADXZ 1001641b f i libvcruntime:std_type_info.obj
 0001:0001541e       ?get@?$__crt_unique_heap_ptr@XU__crt_internal_free_policy@@@@QBEPAXXZ 1001641e f i libvcruntime:std_type_info.obj
 0001:00015421       ?is_valid@?$__crt_unique_heap_ptr@DU__crt_internal_free_policy@@@@QBE_NXZ 10016421 f i libvcruntime:std_type_info.obj
 0001:0001542b       ?is_valid@?$__crt_unique_heap_ptr@XU__crt_internal_free_policy@@@@QBE_NXZ 1001642b f i libvcruntime:std_type_info.obj
 0001:00015435       ?release@?$__crt_unique_heap_ptr@DU__crt_internal_free_policy@@@@QAEXXZ 10016435 f i libvcruntime:std_type_info.obj
 0001:00015449       ?release@?$__crt_unique_heap_ptr@XU__crt_internal_free_policy@@@@QAEXXZ 10016449 f i libvcruntime:std_type_info.obj
 0001:0001545d       ___std_type_info_compare   1001645d f   libvcruntime:std_type_info.obj
 0001:000154a8       ___std_type_info_destroy_list 100164a8 f   libvcruntime:std_type_info.obj
 0001:000154d3       ___std_type_info_hash      100164d3 f   libvcruntime:std_type_info.obj
 0001:00015502       ___std_type_info_name      10016502 f   libvcruntime:std_type_info.obj
 0001:000155ff       ??$?BX@__crt_fast_encoded_nullptr_t@@QBEPAXXZ 100165ff f i libvcruntime:winapi_downlevel.obj
 0001:0001561d       ??$__crt_fast_decode_pointer@PAX@@YAPAXQAX@Z 1001661d f i libvcruntime:winapi_downlevel.obj
 0001:00015636       ??$__crt_fast_encode_pointer@PAX@@YAPAXQAX@Z 10016636 f i libvcruntime:winapi_downlevel.obj
 0001:0001565a       ??$__crt_interlocked_compare_exchange_pointer@UHINSTANCE__@@$$T$$T@@YAPAUHINSTANCE__@@PDSAU0@$$T1@Z 1001665a f i libvcruntime:winapi_downlevel.obj
 0001:00015670       ??$__crt_interlocked_compare_exchange_pointer@X$$T$$T@@YAPAXPDSAX$$T1@Z 10016670 f i libvcruntime:winapi_downlevel.obj
 0001:00015686       ??$__crt_interlocked_exchange_pointer@UHINSTANCE__@@PAU1@@@YAPAUHINSTANCE__@@PDSAU0@QAU0@@Z 10016686 f i libvcruntime:winapi_downlevel.obj
 0001:00015696       ??$__crt_interlocked_exchange_pointer@UHINSTANCE__@@PAX@@YAPAUHINSTANCE__@@PDSAU0@QAX@Z 10016696 f i libvcruntime:winapi_downlevel.obj
 0001:000156a6       ??$__crt_interlocked_exchange_pointer@XPAX@@YAPAXPDSAXQAX@Z 100166a6 f i libvcruntime:winapi_downlevel.obj
 0001:000156b6       ??$__crt_interlocked_read_pointer@UHINSTANCE__@@@@YAPAUHINSTANCE__@@PDSAU0@@Z 100166b6 f i libvcruntime:winapi_downlevel.obj
 0001:000156ca       ??$__crt_interlocked_read_pointer@X@@YAPAXPDSAX@Z 100166ca f i libvcruntime:winapi_downlevel.obj
 0001:000156de       ?__crt_fast_encode_pointer@@YA?AU__crt_fast_encoded_nullptr_t@@$$T@Z 100166de f i libvcruntime:winapi_downlevel.obj
 0001:00015a22       ___vcrt_EventRegister      10016a22 f   libvcruntime:winapi_downlevel.obj
 0001:00015a72       ___vcrt_EventSetInformation 10016a72 f   libvcruntime:winapi_downlevel.obj
 0001:00015ac5       ___vcrt_EventUnregister    10016ac5 f   libvcruntime:winapi_downlevel.obj
 0001:00015b0d       ___vcrt_EventWriteTransfer 10016b0d f   libvcruntime:winapi_downlevel.obj
 0001:00015b68       ___vcrt_FlsAlloc           10016b68 f   libvcruntime:winapi_downlevel.obj
 0001:00015bb0       ___vcrt_FlsFree            10016bb0 f   libvcruntime:winapi_downlevel.obj
 0001:00015bf8       ___vcrt_FlsGetValue        10016bf8 f   libvcruntime:winapi_downlevel.obj
 0001:00015c40       ___vcrt_FlsSetValue        10016c40 f   libvcruntime:winapi_downlevel.obj
 0001:00015c8c       ___vcrt_InitializeCriticalSectionEx 10016c8c f   libvcruntime:winapi_downlevel.obj
 0001:00015ce3       ___vcrt_initialize_winapi_thunks 10016ce3 f   libvcruntime:winapi_downlevel.obj
 0001:00015d10       ___vcrt_uninitialize_winapi_thunks 10016d10 f   libvcruntime:winapi_downlevel.obj
 0001:00015d50       __local_unwind4            10016d50 f   libvcruntime:_exsup4_.obj
 0001:00015e26       __seh_longjmp_unwind4@4    10016e26 f   libvcruntime:_exsup4_.obj
 0001:00015e4e       @_EH4_CallFilterFunc@8     10016e4e f   libvcruntime:_exsup4_.obj
 0001:00015e65       @_EH4_TransferToHandler@8  10016e65 f   libvcruntime:_exsup4_.obj
 0001:00015e7e       @_EH4_GlobalUnwind2@8      10016e7e f   libvcruntime:_exsup4_.obj
 0001:00015e97       @_EH4_LocalUnwind@16       10016e97 f   libvcruntime:_exsup4_.obj
 0001:00015f05       ___except_validate_context_record 10016f05 f   libvcruntime:jbcxrval.obj
 0001:00015f06       ___except_validate_jump_buffer 10016f06 f   libvcruntime:jbcxrval.obj
 0001:00015f07       ??$?RU__vcrt_ptd@@@__crt_internal_free_policy@@QBEXQBU__vcrt_ptd@@@Z 10016f07 f i libvcruntime:per_thread_data.obj
 0001:00015f1b       ??0?$__crt_unique_heap_ptr@U__vcrt_ptd@@U__crt_internal_free_policy@@@@QAE@QAU__vcrt_ptd@@@Z 10016f1b f i libvcruntime:per_thread_data.obj
 0001:00015f2c       ??1?$__crt_unique_heap_ptr@U__vcrt_ptd@@U__crt_internal_free_policy@@@@QAE@XZ 10016f2c f i libvcruntime:per_thread_data.obj
 0001:00015f40       ??B?$__crt_unique_heap_ptr@U__vcrt_ptd@@U__crt_internal_free_policy@@@@QBE_NXZ 10016f40 f i libvcruntime:per_thread_data.obj
 0001:00015f4a       ?detach@?$__crt_unique_heap_ptr@U__vcrt_ptd@@U__crt_internal_free_policy@@@@QAEPAU__vcrt_ptd@@XZ 10016f4a f i libvcruntime:per_thread_data.obj
 0001:00015f50       ?get@?$__crt_unique_heap_ptr@U__vcrt_ptd@@U__crt_internal_free_policy@@@@QBEPAU__vcrt_ptd@@XZ 10016f50 f i libvcruntime:per_thread_data.obj
 0001:00015f53       ?is_valid@?$__crt_unique_heap_ptr@U__vcrt_ptd@@U__crt_internal_free_policy@@@@QBE_NXZ 10016f53 f i libvcruntime:per_thread_data.obj
 0001:00015f5d       ?release@?$__crt_unique_heap_ptr@U__vcrt_ptd@@U__crt_internal_free_policy@@@@QAEXXZ 10016f5d f i libvcruntime:per_thread_data.obj
 0001:00015f91       ___vcrt_freefls@4          10016f91 f   libvcruntime:per_thread_data.obj
 0001:00015fb4       ___vcrt_freeptd            10016fb4 f   libvcruntime:per_thread_data.obj
 0001:00015ff7       ___vcrt_getptd             10016ff7 f   libvcruntime:per_thread_data.obj
 0001:00016008       ___vcrt_getptd_noexit      10017008 f   libvcruntime:per_thread_data.obj
 0001:0001609e       ___vcrt_initialize_ptd     1001709e f   libvcruntime:per_thread_data.obj
 0001:000160dd       ___vcrt_uninitialize_ptd   100170dd f   libvcruntime:per_thread_data.obj
 0001:000160fe       ___vcrt_initialize_locks   100170fe f   libvcruntime:locks.obj
 0001:00016149       ___vcrt_lock               10017149 f   libvcruntime:locks.obj
 0001:00016163       ___vcrt_uninitialize_locks 10017163 f   libvcruntime:locks.obj
 0001:0001619d       ___vcrt_unlock             1001719d f   libvcruntime:locks.obj
 0001:000161b7       ??$?B$$A6AXXZ@__crt_fast_encoded_nullptr_t@@QBEP6AXXZXZ 100171b7 f i libvcruntime:purevirt_data.obj
 0001:000161d5       ??$__crt_fast_encode_pointer@P6AXXZ@@YAP6AXXZQ6AXXZ@Z 100171d5 f i libvcruntime:purevirt_data.obj
 0001:000161f9       ___vcrt_initialize_pure_virtual_call_handler 100171f9 f   libvcruntime:purevirt_data.obj
 0001:0001621d       ??$__vcrt_va_start_verify_argument_type@QBD@@YAXXZ 1001721d f i libvcruntime:undname.obj
 0001:0001621e       ??0Block@_HeapManager@@QAE@XZ 1001721e f i libvcruntime:undname.obj
 0001:00016224       ??0DName@@QAE@AAPBDD@Z     10017224 f   libvcruntime:undname.obj
 0001:0001630b       ??0DName@@QAE@ABV0@@Z      1001730b f i libvcruntime:undname.obj
 0001:00016326       ??0DName@@QAE@D@Z          10017326 f   libvcruntime:undname.obj
 0001:0001635d       ??0DName@@QAE@PAV0@@Z      1001735d f   libvcruntime:undname.obj
 0001:000163bd       ??0DName@@QAE@PBD@Z        100173bd f   libvcruntime:undname.obj
 0001:00016405       ??0DName@@QAE@W4DNameStatus@@@Z 10017405 f   libvcruntime:undname.obj
 0001:00016458       ??0DName@@QAE@XZ           10017458 f i libvcruntime:undname.obj
 0001:0001646d       ??0DName@@QAE@_J@Z         1001746d f   libvcruntime:undname.obj
 0001:00016527       ??0DName@@QAE@_K@Z         10017527 f   libvcruntime:undname.obj
 0001:000165b1       ??0DNameNode@@IAE@XZ       100175b1 f   libvcruntime:undname.obj
 0001:000165bc       ??0DNameStatusNode@@AAE@W4DNameStatus@@@Z 100175bc f   libvcruntime:undname.obj
 0001:000165e7       ??0Replicator@@QAE@XZ      100175e7 f i libvcruntime:undname.obj
 0001:000165ed       ??0UnDecorator@@QAE@PADPBDHP6APADJ@ZK@Z 100175ed f i libvcruntime:undname.obj
 0001:00016670       ??0charNode@@QAE@D@Z       10017670 f   libvcruntime:undname.obj
 0001:0001668a       ??0pDNameNode@@QAE@PAVDName@@@Z 1001768a f   libvcruntime:undname.obj
 0001:000166bc       ??0pairNode@@QAE@PAVDNameNode@@0@Z 100176bc f   libvcruntime:undname.obj
 0001:000166e2       ??0pcharNode@@QAE@PBDH@Z   100176e2 f   libvcruntime:undname.obj
 0001:00016751       ??2@YAPAXIAAV_HeapManager@@H@Z 10017751 f i libvcruntime:undname.obj
 0001:0001676b       ??4DName@@QAEAAV0@ABV0@@Z  1001776b f   libvcruntime:undname.obj
 0001:00016786       ??4DName@@QAEAAV0@D@Z      10017786 f i libvcruntime:undname.obj
 0001:000167bd       ??4DName@@QAEAAV0@PAV0@@Z  100177bd f   libvcruntime:undname.obj
 0001:00016818       ??4DName@@QAEAAV0@PBD@Z    10017818 f   libvcruntime:undname.obj
 0001:00016856       ??4DName@@QAEAAV0@W4DNameStatus@@@Z 10017856 f   libvcruntime:undname.obj
 0001:00016898       ??AReplicator@@QBE?AVDName@@H@Z 10017898 f   libvcruntime:undname.obj
 0001:000168e3       ??BUnDecorator@@QAEPADXZ   100178e3 f i libvcruntime:undname.obj
 0001:00016abc       ??H@YA?AVDName@@DABV0@@Z   10017abc f i libvcruntime:undname.obj
 0001:00016ae9       ??H@YA?AVDName@@PBDABV0@@Z 10017ae9 f i libvcruntime:undname.obj
 0001:00016b16       ??H@YA?AVDName@@W4DNameStatus@@ABV0@@Z 10017b16 f i libvcruntime:undname.obj
 0001:00016b43       ??HDName@@QBE?AV0@ABV0@@Z  10017b43 f   libvcruntime:undname.obj
 0001:00016b6d       ??HDName@@QBE?AV0@D@Z      10017b6d f   libvcruntime:undname.obj
 0001:00016b97       ??HDName@@QBE?AV0@PAV0@@Z  10017b97 f   libvcruntime:undname.obj
 0001:00016bc1       ??HDName@@QBE?AV0@PBD@Z    10017bc1 f   libvcruntime:undname.obj
 0001:00016beb       ??HDName@@QBE?AV0@W4DNameStatus@@@Z 10017beb f   libvcruntime:undname.obj
 0001:00016c15       ??YDName@@QAEAAV0@ABV0@@Z  10017c15 f   libvcruntime:undname.obj
 0001:00016c68       ??YDName@@QAEAAV0@D@Z      10017c68 f   libvcruntime:undname.obj
 0001:00016ccc       ??YDName@@QAEAAV0@PAV0@@Z  10017ccc f   libvcruntime:undname.obj
 0001:00016d4a       ??YDName@@QAEAAV0@PBD@Z    10017d4a f   libvcruntime:undname.obj
 0001:00016dc3       ??YDName@@QAEAAV0@W4DNameStatus@@@Z 10017dc3 f   libvcruntime:undname.obj
 0001:00016e13       ??YReplicator@@QAEAAV0@ABVDName@@@Z 10017e13 f   libvcruntime:undname.obj
 0001:00016e6f       ??_5DName@@QAEAAV0@ABV0@@Z 10017e6f f   libvcruntime:undname.obj
 0001:00016e92       ?Constructor@_HeapManager@@QAEXP6APAXI@ZP6AXPAX@Z@Z 10017e92 f i libvcruntime:undname.obj
 0001:00016eb6       ?Destructor@_HeapManager@@QAEXXZ 10017eb6 f i libvcruntime:undname.obj
 0001:00016efd       ?UScore@UnDecorator@@SAPBDW4Tokens@@@Z 10017efd f   libvcruntime:undname.obj
 0001:00016f21       ?append@DName@@AAEXPAVDNameNode@@@Z 10017f21 f   libvcruntime:undname.obj
 0001:00016f78       ?composeDeclaration@UnDecorator@@CA?AVDName@@ABV2@@Z 10017f78 f i libvcruntime:undname.obj
 0001:00017fe2       ?doAccessSpecifiers@UnDecorator@@SAHXZ 10018fe2 f i libvcruntime:undname.obj
 0001:00017ff3       ?doAllocationLanguage@UnDecorator@@SAHXZ 10018ff3 f i libvcruntime:undname.obj
 0001:00018004       ?doAllocationModel@UnDecorator@@SAHXZ 10019004 f i libvcruntime:undname.obj
 0001:00018015       ?doEcsu@UnDecorator@@SAHXZ 10019015 f i libvcruntime:undname.obj
 0001:00018026       ?doEllipsis@UnDecorator@@SAHXZ 10019026 f i libvcruntime:undname.obj
 0001:00018037       ?doFunctionReturns@UnDecorator@@SAHXZ 10019037 f i libvcruntime:undname.obj
 0001:00018048       ?doMSKeywords@UnDecorator@@SAHXZ 10019048 f i libvcruntime:undname.obj
 0001:00018058       ?doMemberTypes@UnDecorator@@SAHXZ 10019058 f i libvcruntime:undname.obj
 0001:00018069       ?doNameOnly@UnDecorator@@SAHXZ 10019069 f i libvcruntime:undname.obj
 0001:00018076       ?doNoIdentCharCheck@UnDecorator@@SAHXZ 10019076 f i libvcruntime:undname.obj
 0001:00018083       ?doPchar@DName@@AAEXPBDH@Z 10019083 f   libvcruntime:undname.obj
 0001:0001812f       ?doPtr64@UnDecorator@@SAHXZ 1001912f f i libvcruntime:undname.obj
 0001:00018140       ?doRestrictionSpec@UnDecorator@@SAHXZ 10019140 f i libvcruntime:undname.obj
 0001:00018151       ?doThisTypes@UnDecorator@@SAHXZ 10019151 f i libvcruntime:undname.obj
 0001:00018167       ?doThrowTypes@UnDecorator@@SAHXZ 10019167 f i libvcruntime:undname.obj
 0001:00018178       ?doTypeOnly@UnDecorator@@SAHXZ 10019178 f i libvcruntime:undname.obj
 0001:00018185       ?doUnderScore@UnDecorator@@SAHXZ 10019185 f i libvcruntime:undname.obj
 0001:00018192       ?getArgumentList@UnDecorator@@CA?AVDName@@XZ 10019192 f   libvcruntime:undname.obj
 0001:000182e1       ?getArgumentTypes@UnDecorator@@CA?AVDName@@XZ 100192e1 f   libvcruntime:undname.obj
 0001:000183f9       ?getArrayType@UnDecorator@@CA?AVDName@@ABV2@@Z 100193f9 f i libvcruntime:undname.obj
 0001:0001867b       ?getBasedType@UnDecorator@@CA?AVDName@@XZ 1001967b f   libvcruntime:undname.obj
 0001:0001873a       ?getBasicDataType@UnDecorator@@CA?AVDName@@ABV2@@Z 1001973a f   libvcruntime:undname.obj
 0001:00018c1f       ?getCallIndex@UnDecorator@@CA?AVDName@@XZ 10019c1f f i libvcruntime:undname.obj
 0001:00018c38       ?getCallingConvention@UnDecorator@@CA?AVDName@@XZ 10019c38 f   libvcruntime:undname.obj
 0001:00018d26       ?getDataIndirectType@UnDecorator@@CA?AVDName@@ABV2@PBD0H@Z 10019d26 f   libvcruntime:undname.obj
 0001:000194d0       ?getDataIndirectType@UnDecorator@@CA?AVDName@@XZ 1001a4d0 f i libvcruntime:undname.obj
 0001:00019517       ?getDataType@UnDecorator@@CA?AVDName@@PAV2@@Z 1001a517 f   libvcruntime:undname.obj
 0001:0001961d       ?getDecoratedName@UnDecorator@@CA?AVDName@@XZ 1001a61d f   libvcruntime:undname.obj
 0001:000198fc       ?getDimension@UnDecorator@@CA?AVDName@@_N@Z 1001a8fc f   libvcruntime:undname.obj
 0001:00019a80       ?getDispatchTarget@UnDecorator@@CA?AVDName@@XZ 1001aa80 f   libvcruntime:undname.obj
 0001:00019af1       ?getDisplacement@UnDecorator@@CA?AVDName@@XZ 1001aaf1 f i libvcruntime:undname.obj
 0001:00019b0a       ?getECSUDataType@UnDecorator@@CA?AVDName@@XZ 1001ab0a f   libvcruntime:undname.obj
 0001:00019c6e       ?getECSUName@UnDecorator@@CA?AVDName@@XZ 1001ac6e f i libvcruntime:undname.obj
 0001:00019c83       ?getEnumType@UnDecorator@@CA?AVDName@@XZ 1001ac83 f i libvcruntime:undname.obj
 0001:00019daa       ?getExtendedDataIndirectType@UnDecorator@@CA?AVDName@@AAPBDAA_NH@Z 1001adaa f   libvcruntime:undname.obj
 0001:00019fbd       ?getExternalDataType@UnDecorator@@CA?AVDName@@ABV2@@Z 1001afbd f i libvcruntime:undname.obj
 0001:0001a054       ?getFunctionIndirectType@UnDecorator@@CA?AVDName@@ABV2@@Z 1001b054 f   libvcruntime:undname.obj
 0001:0001a55f       ?getGuardNumber@UnDecorator@@CA?AVDName@@XZ 1001b55f f i libvcruntime:undname.obj
 0001:0001a578       ?getLastChar@DName@@QBEDXZ 1001b578 f i libvcruntime:undname.obj
 0001:0001a59e       ?getLastChar@DNameStatusNode@@UBEDXZ 1001b59e f i libvcruntime:undname.obj
 0001:0001a5ad       ?getLastChar@charNode@@UBEDXZ 1001b5ad f i libvcruntime:undname.obj
 0001:0001a5b1       ?getLastChar@pDNameNode@@UBEDXZ 1001b5b1 f i libvcruntime:undname.obj
 0001:0001a5c2       ?getLastChar@pairNode@@UBEDXZ 1001b5c2 f i libvcruntime:undname.obj
 0001:0001a601       ?getLastChar@pcharNode@@UBEDXZ 1001b601 f i libvcruntime:undname.obj
 0001:0001a617       ?getLexicalFrame@UnDecorator@@CA?AVDName@@XZ 1001b617 f i libvcruntime:undname.obj
 0001:0001a663       ?getMemory@_HeapManager@@QAEPAXIH@Z 1001b663 f   libvcruntime:undname.obj
 0001:0001a714       ?getNumberOfDimensions@UnDecorator@@CAHXZ 1001b714 f   libvcruntime:undname.obj
 0001:0001a78d       ?getOperatorName@UnDecorator@@CA?AVDName@@_NPA_N@Z 1001b78d f i libvcruntime:undname.obj
 0001:0001af3c       ?getPointerType@UnDecorator@@CA?AVDName@@ABV2@0@Z 1001bf3c f i libvcruntime:undname.obj
 0001:0001af61       ?getPointerTypeArray@UnDecorator@@CA?AVDName@@ABV2@0@Z 1001bf61 f i libvcruntime:undname.obj
 0001:0001af86       ?getPrimaryDataType@UnDecorator@@CA?AVDName@@ABV2@@Z 1001bf86 f   libvcruntime:undname.obj
 0001:0001b1d7       ?getPtrRefDataType@UnDecorator@@CA?AVDName@@ABV2@H@Z 1001c1d7 f   libvcruntime:undname.obj
 0001:0001b319       ?getPtrRefType@UnDecorator@@CA?AVDName@@ABV2@0PBD@Z 1001c319 f   libvcruntime:undname.obj
 0001:0001b454       ?getReferenceType@UnDecorator@@CA?AVDName@@ABV2@0PBD@Z 1001c454 f i libvcruntime:undname.obj
 0001:0001b477       ?getRestrictionSpec@UnDecorator@@CA?AVDName@@XZ 1001c477 f   libvcruntime:undname.obj
 0001:0001b5a5       ?getReturnType@UnDecorator@@CA?AVDName@@PAV2@@Z 1001c5a5 f   libvcruntime:undname.obj
 0001:0001b5df       ?getScope@UnDecorator@@CA?AVDName@@XZ 1001c5df f   libvcruntime:undname.obj
 0001:0001bab4       ?getScopedName@UnDecorator@@CA?AVDName@@XZ 1001cab4 f   libvcruntime:undname.obj
 0001:0001bbed       ?getSignedDimension@UnDecorator@@CA?AVDName@@XZ 1001cbed f   libvcruntime:undname.obj
 0001:0001bc54       ?getStorageConvention@UnDecorator@@CA?AVDName@@XZ 1001cc54 f i libvcruntime:undname.obj
 0001:0001bc69       ?getString@DName@@QBEPADPAD0@Z 1001cc69 f i libvcruntime:undname.obj
 0001:0001bca0       ?getString@DName@@QBEPADPADH@Z 1001cca0 f i libvcruntime:undname.obj
 0001:0001bd0b       ?getString@DNameStatusNode@@UBEPADPAD0@Z 1001cd0b f i libvcruntime:undname.obj
 0001:0001bd3b       ?getString@charNode@@UBEPADPAD0@Z 1001cd3b f i libvcruntime:undname.obj
 0001:0001bd55       ?getString@pDNameNode@@UBEPADPAD0@Z 1001cd55 f i libvcruntime:undname.obj
 0001:0001bd71       ?getString@pairNode@@UBEPADPAD0@Z 1001cd71 f i libvcruntime:undname.obj
 0001:0001bdc6       ?getString@pcharNode@@UBEPADPAD0@Z 1001cdc6 f i libvcruntime:undname.obj
 0001:0001bde7       ?getStringEncoding@UnDecorator@@CA?AVDName@@PADH@Z 1001cde7 f   libvcruntime:undname.obj
 0001:0001beb2       ?getStringHelper@@YAPADPAD00H@Z 1001ceb2 f i libvcruntime:undname.obj
 0001:0001bef6       ?getSymbolName@UnDecorator@@CA?AVDName@@XZ 1001cef6 f i libvcruntime:undname.obj
 0001:0001bf50       ?getTemplateArgumentList@UnDecorator@@CA?AVDName@@XZ 1001cf50 f   libvcruntime:undname.obj
 0001:0001c2a8       ?getTemplateConstant@UnDecorator@@CA?AVDName@@XZ 1001d2a8 f   libvcruntime:undname.obj
 0001:0001c6bd       ?getTemplateName@UnDecorator@@CA?AVDName@@_N@Z 1001d6bd f   libvcruntime:undname.obj
 0001:0001c868       ?getThisType@UnDecorator@@CA?AVDName@@XZ 1001d868 f i libvcruntime:undname.obj
 0001:0001c8b0       ?getThrowTypes@UnDecorator@@CA?AVDName@@XZ 1001d8b0 f   libvcruntime:undname.obj
 0001:0001c95c       ?getTypeEncoding@UnDecorator@@CAHXZ 1001d95c f i libvcruntime:undname.obj
 0001:0001cf9c       ?getVCallThunkType@UnDecorator@@CA?AVDName@@XZ 1001df9c f i libvcruntime:undname.obj
 0001:0001cfe5       ?getVbTableType@UnDecorator@@CA?AVDName@@ABV2@@Z 1001dfe5 f i libvcruntime:undname.obj
 0001:0001cfff       ?getVdispMapType@UnDecorator@@CA?AVDName@@ABV2@@Z 1001dfff f i libvcruntime:undname.obj
 0001:0001d06a       ?getVfTableType@UnDecorator@@CA?AVDName@@ABV2@@Z 1001e06a f i libvcruntime:undname.obj
 0001:0001d228       ?getZName@UnDecorator@@CA?AVDName@@_N0@Z 1001e228 f   libvcruntime:undname.obj
 0001:0001d4f8       ?haveTemplateParameters@UnDecorator@@SAHXZ 1001e4f8 f i libvcruntime:undname.obj
 0001:0001d505       ?isArray@DName@@QBEHXZ     1001e505 f i libvcruntime:undname.obj
 0001:0001d511       ?isComArray@DName@@QBEHXZ  1001e511 f i libvcruntime:undname.obj
 0001:0001d51d       ?isEmpty@DName@@QBEHXZ     1001e51d f i libvcruntime:undname.obj
 0001:0001d527       ?isFull@Replicator@@QBEHXZ 1001e527 f i libvcruntime:undname.obj
 0001:0001d532       ?isNoTE@DName@@QBEHXZ      1001e532 f i libvcruntime:undname.obj
 0001:0001d53e       ?isPinPtr@DName@@QBEHXZ    1001e53e f i libvcruntime:undname.obj
 0001:0001d54a       ?isPtrRef@DName@@QBEHXZ    1001e54a f i libvcruntime:undname.obj
 0001:0001d556       ?isUDC@DName@@QBEHXZ       1001e556 f i libvcruntime:undname.obj
 0001:0001d56b       ?isUDTThunk@DName@@QBEHXZ  1001e56b f i libvcruntime:undname.obj
 0001:0001d580       ?isVCallThunk@DName@@QBEHXZ 1001e580 f i libvcruntime:undname.obj
 0001:0001d58c       ?isValid@DName@@QBEHXZ     1001e58c f i libvcruntime:undname.obj
 0001:0001d598       ?length@DName@@QBEHXZ      1001e598 f i libvcruntime:undname.obj
 0001:0001d5bd       ?length@DNameStatusNode@@UBEHXZ 1001e5bd f i libvcruntime:undname.obj
 0001:0001d5c1       ?length@charNode@@UBEHXZ   1001e5c1 f i libvcruntime:undname.obj
 0001:0001d5c5       ?length@pDNameNode@@UBEHXZ 1001e5c5 f i libvcruntime:undname.obj
 0001:0001d5d6       ?length@pairNode@@UBEHXZ   1001e5d6 f i libvcruntime:undname.obj
 0001:0001d632       ?length@pcharNode@@UBEHXZ  1001e632 f i libvcruntime:undname.obj
 0001:0001d636       ?make@DNameStatusNode@@SAPAV1@W4DNameStatus@@@Z 1001e636 f i libvcruntime:undname.obj
 0001:0001d6dd       ?setIsArray@DName@@QAEXXZ  1001e6dd f i libvcruntime:undname.obj
 0001:0001d6e7       ?setIsComArray@DName@@QAEXXZ 1001e6e7 f i libvcruntime:undname.obj
 0001:0001d6f1       ?setIsNoTE@DName@@QAEXXZ   1001e6f1 f i libvcruntime:undname.obj
 0001:0001d6fb       ?setIsPinPtr@DName@@QAEXXZ 1001e6fb f i libvcruntime:undname.obj
 0001:0001d705       ?setIsUDC@DName@@QAEXXZ    1001e705 f i libvcruntime:undname.obj
 0001:0001d715       ?setIsVCallThunk@DName@@QAEXXZ 1001e715 f i libvcruntime:undname.obj
 0001:0001d71f       ?setPtrRef@DName@@QAEAAV1@XZ 1001e71f f i libvcruntime:undname.obj
 0001:0001d72b       ?status@DName@@QBE?AW4DNameStatus@@XZ 1001e72b f i libvcruntime:undname.obj
 0001:0001d7b0       ___unDName                 1001e7b0 f   libvcruntime:undname.obj
 0001:0001d86a       ___unDNameEx               1001e86a f   libvcruntime:undname.obj
 0001:0001d924       __vsprintf_s_l             1001e924 f i libvcruntime:undname.obj
 0001:0001d95c       _sprintf_s                 1001e95c f i libvcruntime:undname.obj
 0001:0001d980       __global_unwind2           1001e980 f   libvcruntime:_exsup_.obj
 0001:0001d9e5       __local_unwind2            1001e9e5 f   libvcruntime:_exsup_.obj
 0001:0001da69       __abnormal_termination     1001ea69 f   libvcruntime:_exsup_.obj
 0001:0001da8c       __NLG_Notify1              1001ea8c f   libvcruntime:_exsup_.obj
 0001:0001da95       __NLG_Notify               1001ea95 f   libvcruntime:_exsup_.obj
 0001:0001daac       __NLG_Dispatch             1001eaac     libvcruntime:_exsup_.obj
 0001:0001daac       __NLG_Dispatch2            1001eaac     libvcruntime:_exsup_.obj
 0001:0001dab4       __NLG_Call                 1001eab4 f   libvcruntime:_exsup_.obj
 0001:0001dab6       __NLG_Return2              1001eab6     libvcruntime:_exsup_.obj
 0001:0001db04       ??$__crt_fast_decode_pointer@P6AXXZ@@YAP6AXXZQ6AXXZ@Z 1001eb04 f i libvcruntime:purevirt.obj
 0001:0001db1d       ??$__crt_interlocked_compare_exchange_pointer@$$A6AXXZ$$T$$T@@YAP6AXXZPDS6AXXZ$$T1@Z 1001eb1d f i libvcruntime:purevirt.obj
 0001:0001db33       ??$__crt_interlocked_exchange_pointer@$$A6AXXZP6AXXZ@@YAP6AXXZPDS6AXXZQ6AXXZ@Z 1001eb33 f i libvcruntime:purevirt.obj
 0001:0001db43       ??$__crt_interlocked_read_pointer@$$A6AXXZ@@YAP6AXXZPDS6AXXZ@Z 1001eb43 f i libvcruntime:purevirt.obj
 0001:0001db57       __get_purecall_handler     1001eb57 f   libvcruntime:purevirt.obj
 0001:0001db7d       __purecall                 1001eb7d f   libvcruntime:purevirt.obj
 0001:0001db9e       __set_purecall_handler     1001eb9e f   libvcruntime:purevirt.obj
 0001:0001dbcc       _malloc                    1001ebcc f   libucrt:malloc.obj
 0001:0001dbd9       _free                      1001ebd9 f   libucrt:free.obj
 0001:0001dbde       ??$?RPAU__crt_stdio_stream_data@@@__crt_internal_free_policy@@QBEXQBQAU__crt_stdio_stream_data@@@Z 1001ebde f i libucrt:_file.obj
 0001:0001dbf4       ??0?$__crt_unique_heap_ptr@PAU__crt_stdio_stream_data@@U__crt_internal_free_policy@@@@QAE@QAPAU__crt_stdio_stream_data@@@Z 1001ebf4 f i libucrt:_file.obj
 0001:0001dc08       ??0__crt_stdio_stream@@QAE@QAU_iobuf@@@Z 1001ec08 f i libucrt:_file.obj
 0001:0001dc1c       ??1?$__crt_unique_heap_ptr@PAU__crt_stdio_stream_data@@U__crt_internal_free_policy@@@@QAE@XZ 1001ec1c f i libucrt:_file.obj
 0001:0001dc32       ??C__crt_stdio_stream@@QBEPAU__crt_stdio_stream_data@@XZ 1001ec32 f i libucrt:_file.obj
 0001:0001dc35       ?detach@?$__crt_unique_heap_ptr@PAU__crt_stdio_stream_data@@U__crt_internal_free_policy@@@@QAEPAPAU__crt_stdio_stream_data@@XZ 1001ec35 f i libucrt:_file.obj
 0001:0001dc3b       ?release@?$__crt_unique_heap_ptr@PAU__crt_stdio_stream_data@@U__crt_internal_free_policy@@@@QAEXXZ 1001ec3b f i libucrt:_file.obj
 0001:0001dc51       ___acrt_initialize_stdio   1001ec51 f   libucrt:_file.obj
 0001:0001dd4b       ___acrt_iob_func           1001ed4b f   libucrt:_file.obj
 0001:0001dd5f       ___acrt_uninitialize_stdio 1001ed5f f   libucrt:_file.obj
 0001:0001ddbe       __get_stream_buffer_pointers 1001edbe f   libucrt:_file.obj
 0001:0001de15       __lock_file                1001ee15 f   libucrt:_file.obj
 0001:0001de2e       __unlock_file              1001ee2e f   libucrt:_file.obj
 0001:0001de47       ??$?0ABV?$stream_output_adapter@D@__crt_stdio_output@@AB_KABQBDABQAU__crt_locale_pointers@@ABQAD@?$format_validation_base@DV?$stream_output_adapter@D@__crt_stdio_output@@@__crt_stdio_output@@IAE@ABV?$stream_output_adapter@D@1@AB_KABQBDABQAU__crt_locale_pointers@@ABQAD@Z 1001ee47 f i libucrt:output.obj
 0001:0001de72       ??$?0ABV?$stream_output_adapter@D@__crt_stdio_output@@AB_KABQBDABQAU__crt_locale_pointers@@ABQAD@?$positional_parameter_base@DV?$stream_output_adapter@D@__crt_stdio_output@@@__crt_stdio_output@@IAE@ABV?$stream_output_adapter@D@1@AB_KABQBDABQAU__crt_locale_pointers@@ABQAD@Z 1001ee72 f i libucrt:output.obj
 0001:0001decc       ??$?0ABV?$stream_output_adapter@D@__crt_stdio_output@@AB_KABQBDABQAU__crt_locale_pointers@@ABQAD@?$standard_base@DV?$stream_output_adapter@D@__crt_stdio_output@@@__crt_stdio_output@@IAE@ABV?$stream_output_adapter@D@1@AB_KABQBDABQAU__crt_locale_pointers@@ABQAD@Z 1001eecc f i libucrt:output.obj
 0001:0001df0e       ??$?0ABV?$stream_output_adapter@_W@__crt_stdio_output@@AB_KABQB_WABQAU__crt_locale_pointers@@ABQAD@?$format_validation_base@_WV?$stream_output_adapter@_W@__crt_stdio_output@@@__crt_stdio_output@@IAE@ABV?$stream_output_adapter@_W@1@AB_KABQB_WABQAU__crt_locale_pointers@@ABQAD@Z 1001ef0e f i libucrt:output.obj
 0001:0001df39       ??$?0ABV?$stream_output_adapter@_W@__crt_stdio_output@@AB_KABQB_WABQAU__crt_locale_pointers@@ABQAD@?$positional_parameter_base@_WV?$stream_output_adapter@_W@__crt_stdio_output@@@__crt_stdio_output@@IAE@ABV?$stream_output_adapter@_W@1@AB_KABQB_WABQAU__crt_locale_pointers@@ABQAD@Z 1001ef39 f i libucrt:output.obj
 0001:0001df93       ??$?0ABV?$stream_output_adapter@_W@__crt_stdio_output@@AB_KABQB_WABQAU__crt_locale_pointers@@ABQAD@?$standard_base@_WV?$stream_output_adapter@_W@__crt_stdio_output@@@__crt_stdio_output@@IAE@ABV?$stream_output_adapter@_W@1@AB_KABQB_WABQAU__crt_locale_pointers@@ABQAD@Z 1001ef93 f i libucrt:output.obj
 0001:0001dfd5       ??$?0ABV?$string_output_adapter@D@__crt_stdio_output@@AB_KABQBDABQAU__crt_locale_pointers@@ABQAD@?$format_validation_base@DV?$string_output_adapter@D@__crt_stdio_output@@@__crt_stdio_output@@IAE@ABV?$string_output_adapter@D@1@AB_KABQBDABQAU__crt_locale_pointers@@ABQAD@Z 1001efd5 f i libucrt:output.obj
 0001:0001e000       ??$?0ABV?$string_output_adapter@D@__crt_stdio_output@@AB_KABQBDABQAU__crt_locale_pointers@@ABQAD@?$positional_parameter_base@DV?$string_output_adapter@D@__crt_stdio_output@@@__crt_stdio_output@@IAE@ABV?$string_output_adapter@D@1@AB_KABQBDABQAU__crt_locale_pointers@@ABQAD@Z 1001f000 f i libucrt:output.obj
 0001:0001e05a       ??$?0ABV?$string_output_adapter@D@__crt_stdio_output@@AB_KABQBDABQAU__crt_locale_pointers@@ABQAD@?$standard_base@DV?$string_output_adapter@D@__crt_stdio_output@@@__crt_stdio_output@@IAE@ABV?$string_output_adapter@D@1@AB_KABQBDABQAU__crt_locale_pointers@@ABQAD@Z 1001f05a f i libucrt:output.obj
 0001:0001e09c       ??$?0ABV?$string_output_adapter@_W@__crt_stdio_output@@AB_KABQB_WABQAU__crt_locale_pointers@@ABQAD@?$format_validation_base@_WV?$string_output_adapter@_W@__crt_stdio_output@@@__crt_stdio_output@@IAE@ABV?$string_output_adapter@_W@1@AB_KABQB_WABQAU__crt_locale_pointers@@ABQAD@Z 1001f09c f i libucrt:output.obj
 0001:0001e0c7       ??$?0ABV?$string_output_adapter@_W@__crt_stdio_output@@AB_KABQB_WABQAU__crt_locale_pointers@@ABQAD@?$positional_parameter_base@_WV?$string_output_adapter@_W@__crt_stdio_output@@@__crt_stdio_output@@IAE@ABV?$string_output_adapter@_W@1@AB_KABQB_WABQAU__crt_locale_pointers@@ABQAD@Z 1001f0c7 f i libucrt:output.obj
 0001:0001e121       ??$?0ABV?$string_output_adapter@_W@__crt_stdio_output@@AB_KABQB_WABQAU__crt_locale_pointers@@ABQAD@?$standard_base@_WV?$string_output_adapter@_W@__crt_stdio_output@@@__crt_stdio_output@@IAE@ABV?$string_output_adapter@_W@1@AB_KABQB_WABQAU__crt_locale_pointers@@ABQAD@Z 1001f121 f i libucrt:output.obj
 0001:0001e163       ??$?RV<lambda_2293f24e3ce1ad6fe22ccfb9dec07671>@@AAV<lambda_2565fc715a641e539f44ad02d6823606>@@V<lambda_d3217f279b832965d9ca670dc2993570>@@@?$__crt_seh_guarded_call@H@@QAEH$$QAV<lambda_2293f24e3ce1ad6fe22ccfb9dec07671>@@AAV<lambda_2565fc715a641e539f44ad02d6823606>@@$$QAV<lambda_d3217f279b832965d9ca670dc2993570>@@@Z 1001f163 f i libucrt:output.obj
 0001:0001e1c8       ??$?RV<lambda_4d4ac866be0fa3c441830420fabdd2cb>@@AAV<lambda_63a10c2dc8dbb9e4dd1890be52af7c93>@@V<lambda_002af9fa0f8fe472b648c51882d4fc32>@@@?$__crt_seh_guarded_call@H@@QAEH$$QAV<lambda_4d4ac866be0fa3c441830420fabdd2cb>@@AAV<lambda_63a10c2dc8dbb9e4dd1890be52af7c93>@@$$QAV<lambda_002af9fa0f8fe472b648c51882d4fc32>@@@Z 1001f1c8 f i libucrt:output.obj
 0001:0001e22d       ??$?RV<lambda_5be909dfbae0a631386585770cd7b676>@@AAV<lambda_e516058a9c289d98c8ca9fea99247804>@@V<lambda_afe2e0cdc5e0ecf6f0d6f5e2f8985e38>@@@?$__crt_seh_guarded_call@H@@QAEH$$QAV<lambda_5be909dfbae0a631386585770cd7b676>@@AAV<lambda_e516058a9c289d98c8ca9fea99247804>@@$$QAV<lambda_afe2e0cdc5e0ecf6f0d6f5e2f8985e38>@@@Z 1001f22d f i libucrt:output.obj
 0001:0001e292       ??$?RV<lambda_823d65812123d985753d53e2a8c25d20>@@AAV<lambda_0a97c9e57da7be065955385c79108ff2>@@V<lambda_4d2973f3ad2d226f00468307185dca1b>@@@?$__crt_seh_guarded_call@H@@QAEH$$QAV<lambda_823d65812123d985753d53e2a8c25d20>@@AAV<lambda_0a97c9e57da7be065955385c79108ff2>@@$$QAV<lambda_4d2973f3ad2d226f00468307185dca1b>@@@Z 1001f292 f i libucrt:output.obj
 0001:0001e2f7       ??$?RV<lambda_ab9923ffb5d694ec0d78876dd103e44f>@@AAV<lambda_481dd5778c961fbcd3b60b650e9b9dc4>@@V<lambda_7923d86c9e3f319b415918ec4b39749c>@@@?$__crt_seh_guarded_call@H@@QAEH$$QAV<lambda_ab9923ffb5d694ec0d78876dd103e44f>@@AAV<lambda_481dd5778c961fbcd3b60b650e9b9dc4>@@$$QAV<lambda_7923d86c9e3f319b415918ec4b39749c>@@@Z 1001f2f7 f i libucrt:output.obj
 0001:0001e35c       ??$?RV<lambda_db08b09ef7aa9d4f8620ce68402612bc>@@AAV<lambda_4f2c1eaeead2a5fc776db5b62ea0fb9b>@@V<lambda_3ae262bc35d4ba6a3825c4f6bcaaf95c>@@@?$__crt_seh_guarded_call@H@@QAEH$$QAV<lambda_db08b09ef7aa9d4f8620ce68402612bc>@@AAV<lambda_4f2c1eaeead2a5fc776db5b62ea0fb9b>@@$$QAV<lambda_3ae262bc35d4ba6a3825c4f6bcaaf95c>@@@Z 1001f35c f i libucrt:output.obj
 0001:0001e3c1       ??$__acrt_lock_stream_and_call@V<lambda_0a97c9e57da7be065955385c79108ff2>@@@@YAHQAU_iobuf@@$$QAV<lambda_0a97c9e57da7be065955385c79108ff2>@@@Z 1001f3c1 f i libucrt:output.obj
 0001:0001e3f3       ??$__acrt_lock_stream_and_call@V<lambda_2565fc715a641e539f44ad02d6823606>@@@@YAHQAU_iobuf@@$$QAV<lambda_2565fc715a641e539f44ad02d6823606>@@@Z 1001f3f3 f i libucrt:output.obj
 0001:0001e425       ??$__acrt_lock_stream_and_call@V<lambda_481dd5778c961fbcd3b60b650e9b9dc4>@@@@YAHQAU_iobuf@@$$QAV<lambda_481dd5778c961fbcd3b60b650e9b9dc4>@@@Z 1001f425 f i libucrt:output.obj
 0001:0001e457       ??$__acrt_lock_stream_and_call@V<lambda_4f2c1eaeead2a5fc776db5b62ea0fb9b>@@@@YAHQAU_iobuf@@$$QAV<lambda_4f2c1eaeead2a5fc776db5b62ea0fb9b>@@@Z 1001f457 f i libucrt:output.obj
 0001:0001e489       ??$__acrt_lock_stream_and_call@V<lambda_63a10c2dc8dbb9e4dd1890be52af7c93>@@@@YAHQAU_iobuf@@$$QAV<lambda_63a10c2dc8dbb9e4dd1890be52af7c93>@@@Z 1001f489 f i libucrt:output.obj
 0001:0001e4bb       ??$__acrt_lock_stream_and_call@V<lambda_e516058a9c289d98c8ca9fea99247804>@@@@YAHQAU_iobuf@@$$QAV<lambda_e516058a9c289d98c8ca9fea99247804>@@@Z 1001f4bb f i libucrt:output.obj
 0001:0001e4ed       ??$__crt_interlocked_read@J@@YAJPDJ@Z 1001f4ed f i libucrt:output.obj
 0001:0001f738       ??$count@D@formatting_buffer@__crt_stdio_output@@QBEIXZ 10020738 f i libucrt:output.obj
 0001:0001f756       ??$data@D@formatting_buffer@__crt_stdio_output@@QAEPADXZ 10020756 f i libucrt:output.obj
 0001:0001f766       ??$data@_W@formatting_buffer@__crt_stdio_output@@QAEPA_WXZ 10020766 f i libucrt:output.obj
 0001:0001f776       ??$ensure_buffer_is_big_enough@D@formatting_buffer@__crt_stdio_output@@QAE_NI@Z 10020776 f i libucrt:output.obj
 0001:0001f81d       ??$extract_argument_from_va_list@C_J@?$positional_parameter_base@DV?$stream_output_adapter@D@__crt_stdio_output@@@__crt_stdio_output@@IAE_NAA_J@Z 1002081d f i libucrt:output.obj
 0001:0001f8bb       ??$extract_argument_from_va_list@C_J@?$positional_parameter_base@DV?$string_output_adapter@D@__crt_stdio_output@@@__crt_stdio_output@@IAE_NAA_J@Z 100208bb f i libucrt:output.obj
 0001:0001f959       ??$extract_argument_from_va_list@C_J@?$positional_parameter_base@_WV?$stream_output_adapter@_W@__crt_stdio_output@@@__crt_stdio_output@@IAE_NAA_J@Z 10020959 f i libucrt:output.obj
 0001:0001f9f7       ??$extract_argument_from_va_list@C_J@?$positional_parameter_base@_WV?$string_output_adapter@_W@__crt_stdio_output@@@__crt_stdio_output@@IAE_NAA_J@Z 100209f7 f i libucrt:output.obj
 0001:0001fa95       ??$extract_argument_from_va_list@C_J@?$standard_base@DV?$stream_output_adapter@D@__crt_stdio_output@@@__crt_stdio_output@@IAE_NAA_J@Z 10020a95 f i libucrt:output.obj
 0001:0001fabb       ??$extract_argument_from_va_list@C_J@?$standard_base@DV?$string_output_adapter@D@__crt_stdio_output@@@__crt_stdio_output@@IAE_NAA_J@Z 10020abb f i libucrt:output.obj
 0001:0001fae1       ??$extract_argument_from_va_list@C_J@?$standard_base@_WV?$stream_output_adapter@_W@__crt_stdio_output@@@__crt_stdio_output@@IAE_NAA_J@Z 10020ae1 f i libucrt:output.obj
 0001:0001fb07       ??$extract_argument_from_va_list@C_J@?$standard_base@_WV?$string_output_adapter@_W@__crt_stdio_output@@@__crt_stdio_output@@IAE_NAA_J@Z 10020b07 f i libucrt:output.obj
 0001:0001fb2d       ??$extract_argument_from_va_list@E_J@?$positional_parameter_base@DV?$stream_output_adapter@D@__crt_stdio_output@@@__crt_stdio_output@@IAE_NAA_J@Z 10020b2d f i libucrt:output.obj
 0001:0001fbcb       ??$extract_argument_from_va_list@E_J@?$positional_parameter_base@DV?$string_output_adapter@D@__crt_stdio_output@@@__crt_stdio_output@@IAE_NAA_J@Z 10020bcb f i libucrt:output.obj
 0001:0001fc69       ??$extract_argument_from_va_list@E_J@?$positional_parameter_base@_WV?$stream_output_adapter@_W@__crt_stdio_output@@@__crt_stdio_output@@IAE_NAA_J@Z 10020c69 f i libucrt:output.obj
 0001:0001fd07       ??$extract_argument_from_va_list@E_J@?$positional_parameter_base@_WV?$string_output_adapter@_W@__crt_stdio_output@@@__crt_stdio_output@@IAE_NAA_J@Z 10020d07 f i libucrt:output.obj
 0001:0001fda5       ??$extract_argument_from_va_list@E_J@?$standard_base@DV?$stream_output_adapter@D@__crt_stdio_output@@@__crt_stdio_output@@IAE_NAA_J@Z 10020da5 f i libucrt:output.obj
 0001:0001fdcb       ??$extract_argument_from_va_list@E_J@?$standard_base@DV?$string_output_adapter@D@__crt_stdio_output@@@__crt_stdio_output@@IAE_NAA_J@Z 10020dcb f i libucrt:output.obj
 0001:0001fdf1       ??$extract_argument_from_va_list@E_J@?$standard_base@_WV?$stream_output_adapter@_W@__crt_stdio_output@@@__crt_stdio_output@@IAE_NAA_J@Z 10020df1 f i libucrt:output.obj
 0001:0001fe17       ??$extract_argument_from_va_list@E_J@?$standard_base@_WV?$string_output_adapter@_W@__crt_stdio_output@@@__crt_stdio_output@@IAE_NAA_J@Z 10020e17 f i libucrt:output.obj
 0001:0001fe3d       ??$extract_argument_from_va_list@F_J@?$positional_parameter_base@DV?$stream_output_adapter@D@__crt_stdio_output@@@__crt_stdio_output@@IAE_NAA_J@Z 10020e3d f i libucrt:output.obj
 0001:0001fedb       ??$extract_argument_from_va_list@F_J@?$positional_parameter_base@DV?$string_output_adapter@D@__crt_stdio_output@@@__crt_stdio_output@@IAE_NAA_J@Z 10020edb f i libucrt:output.obj
 0001:0001ff79       ??$extract_argument_from_va_list@F_J@?$positional_parameter_base@_WV?$stream_output_adapter@_W@__crt_stdio_output@@@__crt_stdio_output@@IAE_NAA_J@Z 10020f79 f i libucrt:output.obj
 0001:00020017       ??$extract_argument_from_va_list@F_J@?$positional_parameter_base@_WV?$string_output_adapter@_W@__crt_stdio_output@@@__crt_stdio_output@@IAE_NAA_J@Z 10021017 f i libucrt:output.obj
 0001:000200b5       ??$extract_argument_from_va_list@F_J@?$standard_base@DV?$stream_output_adapter@D@__crt_stdio_output@@@__crt_stdio_output@@IAE_NAA_J@Z 100210b5 f i libucrt:output.obj
 0001:000200db       ??$extract_argument_from_va_list@F_J@?$standard_base@DV?$string_output_adapter@D@__crt_stdio_output@@@__crt_stdio_output@@IAE_NAA_J@Z 100210db f i libucrt:output.obj
 0001:00020101       ??$extract_argument_from_va_list@F_J@?$standard_base@_WV?$stream_output_adapter@_W@__crt_stdio_output@@@__crt_stdio_output@@IAE_NAA_J@Z 10021101 f i libucrt:output.obj
 0001:00020127       ??$extract_argument_from_va_list@F_J@?$standard_base@_WV?$string_output_adapter@_W@__crt_stdio_output@@@__crt_stdio_output@@IAE_NAA_J@Z 10021127 f i libucrt:output.obj
 0001:0002014d       ??$extract_argument_from_va_list@GD@?$positional_parameter_base@DV?$stream_output_adapter@D@__crt_stdio_output@@@__crt_stdio_output@@IAE_NAAD@Z 1002114d f i libucrt:output.obj
 0001:000201ea       ??$extract_argument_from_va_list@GD@?$positional_parameter_base@DV?$string_output_adapter@D@__crt_stdio_output@@@__crt_stdio_output@@IAE_NAAD@Z 100211ea f i libucrt:output.obj
 0001:00020287       ??$extract_argument_from_va_list@GD@?$standard_base@DV?$stream_output_adapter@D@__crt_stdio_output@@@__crt_stdio_output@@IAE_NAAD@Z 10021287 f i libucrt:output.obj
 0001:000202a7       ??$extract_argument_from_va_list@GD@?$standard_base@DV?$string_output_adapter@D@__crt_stdio_output@@@__crt_stdio_output@@IAE_NAAD@Z 100212a7 f i libucrt:output.obj
 0001:000202c7       ??$extract_argument_from_va_list@G_J@?$positional_parameter_base@DV?$stream_output_adapter@D@__crt_stdio_output@@@__crt_stdio_output@@IAE_NAA_J@Z 100212c7 f i libucrt:output.obj
 0001:00020365       ??$extract_argument_from_va_list@G_J@?$positional_parameter_base@DV?$string_output_adapter@D@__crt_stdio_output@@@__crt_stdio_output@@IAE_NAA_J@Z 10021365 f i libucrt:output.obj
 0001:00020403       ??$extract_argument_from_va_list@G_J@?$positional_parameter_base@_WV?$stream_output_adapter@_W@__crt_stdio_output@@@__crt_stdio_output@@IAE_NAA_J@Z 10021403 f i libucrt:output.obj
 0001:000204a1       ??$extract_argument_from_va_list@G_J@?$positional_parameter_base@_WV?$string_output_adapter@_W@__crt_stdio_output@@@__crt_stdio_output@@IAE_NAA_J@Z 100214a1 f i libucrt:output.obj
 0001:0002053f       ??$extract_argument_from_va_list@G_J@?$standard_base@DV?$stream_output_adapter@D@__crt_stdio_output@@@__crt_stdio_output@@IAE_NAA_J@Z 1002153f f i libucrt:output.obj
 0001:00020565       ??$extract_argument_from_va_list@G_J@?$standard_base@DV?$string_output_adapter@D@__crt_stdio_output@@@__crt_stdio_output@@IAE_NAA_J@Z 10021565 f i libucrt:output.obj
 0001:0002058b       ??$extract_argument_from_va_list@G_J@?$standard_base@_WV?$stream_output_adapter@_W@__crt_stdio_output@@@__crt_stdio_output@@IAE_NAA_J@Z 1002158b f i libucrt:output.obj
 0001:000205b1       ??$extract_argument_from_va_list@G_J@?$standard_base@_WV?$string_output_adapter@_W@__crt_stdio_output@@@__crt_stdio_output@@IAE_NAA_J@Z 100215b1 f i libucrt:output.obj
 0001:000205d7       ??$extract_argument_from_va_list@H_J@?$positional_parameter_base@DV?$stream_output_adapter@D@__crt_stdio_output@@@__crt_stdio_output@@IAE_NAA_J@Z 100215d7 f i libucrt:output.obj
 0001:00020673       ??$extract_argument_from_va_list@H_J@?$positional_parameter_base@DV?$string_output_adapter@D@__crt_stdio_output@@@__crt_stdio_output@@IAE_NAA_J@Z 10021673 f i libucrt:output.obj
 0001:0002070f       ??$extract_argument_from_va_list@H_J@?$positional_parameter_base@_WV?$stream_output_adapter@_W@__crt_stdio_output@@@__crt_stdio_output@@IAE_NAA_J@Z 1002170f f i libucrt:output.obj
 0001:000207ab       ??$extract_argument_from_va_list@H_J@?$positional_parameter_base@_WV?$string_output_adapter@_W@__crt_stdio_output@@@__crt_stdio_output@@IAE_NAA_J@Z 100217ab f i libucrt:output.obj
 0001:00020847       ??$extract_argument_from_va_list@H_J@?$standard_base@DV?$stream_output_adapter@D@__crt_stdio_output@@@__crt_stdio_output@@IAE_NAA_J@Z 10021847 f i libucrt:output.obj
 0001:0002086c       ??$extract_argument_from_va_list@H_J@?$standard_base@DV?$string_output_adapter@D@__crt_stdio_output@@@__crt_stdio_output@@IAE_NAA_J@Z 1002186c f i libucrt:output.obj
 0001:00020891       ??$extract_argument_from_va_list@H_J@?$standard_base@_WV?$stream_output_adapter@_W@__crt_stdio_output@@@__crt_stdio_output@@IAE_NAA_J@Z 10021891 f i libucrt:output.obj
 0001:000208b6       ??$extract_argument_from_va_list@H_J@?$standard_base@_WV?$string_output_adapter@_W@__crt_stdio_output@@@__crt_stdio_output@@IAE_NAA_J@Z 100218b6 f i libucrt:output.obj
 0001:000208db       ??$extract_argument_from_va_list@I_J@?$positional_parameter_base@DV?$stream_output_adapter@D@__crt_stdio_output@@@__crt_stdio_output@@IAE_NAA_J@Z 100218db f i libucrt:output.obj
 0001:00020982       ??$extract_argument_from_va_list@I_J@?$positional_parameter_base@DV?$string_output_adapter@D@__crt_stdio_output@@@__crt_stdio_output@@IAE_NAA_J@Z 10021982 f i libucrt:output.obj
 0001:00020a29       ??$extract_argument_from_va_list@I_J@?$positional_parameter_base@_WV?$stream_output_adapter@_W@__crt_stdio_output@@@__crt_stdio_output@@IAE_NAA_J@Z 10021a29 f i libucrt:output.obj
 0001:00020ad0       ??$extract_argument_from_va_list@I_J@?$positional_parameter_base@_WV?$string_output_adapter@_W@__crt_stdio_output@@@__crt_stdio_output@@IAE_NAA_J@Z 10021ad0 f i libucrt:output.obj
 0001:00020b77       ??$extract_argument_from_va_list@I_J@?$standard_base@DV?$stream_output_adapter@D@__crt_stdio_output@@@__crt_stdio_output@@IAE_NAA_J@Z 10021b77 f i libucrt:output.obj
 0001:00020b9c       ??$extract_argument_from_va_list@I_J@?$standard_base@DV?$string_output_adapter@D@__crt_stdio_output@@@__crt_stdio_output@@IAE_NAA_J@Z 10021b9c f i libucrt:output.obj
 0001:00020bc1       ??$extract_argument_from_va_list@I_J@?$standard_base@_WV?$stream_output_adapter@_W@__crt_stdio_output@@@__crt_stdio_output@@IAE_NAA_J@Z 10021bc1 f i libucrt:output.obj
 0001:00020be6       ??$extract_argument_from_va_list@I_J@?$standard_base@_WV?$string_output_adapter@_W@__crt_stdio_output@@@__crt_stdio_output@@IAE_NAA_J@Z 10021be6 f i libucrt:output.obj
 0001:00020c0b       ??$extract_argument_from_va_list@PADPAD@?$positional_parameter_base@DV?$stream_output_adapter@D@__crt_stdio_output@@@__crt_stdio_output@@IAE_NAAPAD@Z 10021c0b f i libucrt:output.obj
 0001:00020ca8       ??$extract_argument_from_va_list@PADPAD@?$positional_parameter_base@DV?$string_output_adapter@D@__crt_stdio_output@@@__crt_stdio_output@@IAE_NAAPAD@Z 10021ca8 f i libucrt:output.obj
 0001:00020d45       ??$extract_argument_from_va_list@PADPAD@?$positional_parameter_base@_WV?$stream_output_adapter@_W@__crt_stdio_output@@@__crt_stdio_output@@IAE_NAAPAD@Z 10021d45 f i libucrt:output.obj
 0001:00020de2       ??$extract_argument_from_va_list@PADPAD@?$positional_parameter_base@_WV?$string_output_adapter@_W@__crt_stdio_output@@@__crt_stdio_output@@IAE_NAAPAD@Z 10021de2 f i libucrt:output.obj
 0001:00020e7f       ??$extract_argument_from_va_list@PADPAD@?$standard_base@DV?$stream_output_adapter@D@__crt_stdio_output@@@__crt_stdio_output@@IAE_NAAPAD@Z 10021e7f f i libucrt:output.obj
 0001:00020e9f       ??$extract_argument_from_va_list@PADPAD@?$standard_base@DV?$string_output_adapter@D@__crt_stdio_output@@@__crt_stdio_output@@IAE_NAAPAD@Z 10021e9f f i libucrt:output.obj
 0001:00020ebf       ??$extract_argument_from_va_list@PADPAD@?$standard_base@_WV?$stream_output_adapter@_W@__crt_stdio_output@@@__crt_stdio_output@@IAE_NAAPAD@Z 10021ebf f i libucrt:output.obj
 0001:00020edf       ??$extract_argument_from_va_list@PADPAD@?$standard_base@_WV?$string_output_adapter@_W@__crt_stdio_output@@@__crt_stdio_output@@IAE_NAAPAD@Z 10021edf f i libucrt:output.obj
 0001:00020eff       ??$extract_argument_from_va_list@PAUansi_string@?1??type_case_Z@?$output_processor@DV?$stream_output_adapter@D@__crt_stdio_output@@V?$format_validation_base@DV?$stream_output_adapter@D@__crt_stdio_output@@@2@@__crt_stdio_output@@AAE_NXZ@PAU1?1??234@AAE_NXZ@@?$standard_base@DV?$stream_output_adapter@D@__crt_stdio_output@@@__crt_stdio_output@@IAE_NAAPAUansi_string@?1??type_case_Z@?$output_processor@DV?$stream_output_adapter@D@__crt_stdio_output@@V?$format_validation_base@DV?$stream_output_adapter@D@__crt_stdio_output@@@2@@1@AAE_NXZ@@Z 10021eff f i libucrt:output.obj
 0001:00020f1f       ??$extract_argument_from_va_list@PAUansi_string@?1??type_case_Z@?$output_processor@DV?$stream_output_adapter@D@__crt_stdio_output@@V?$positional_parameter_base@DV?$stream_output_adapter@D@__crt_stdio_output@@@2@@__crt_stdio_output@@AAE_NXZ@PAU1?1??234@AAE_NXZ@@?$positional_parameter_base@DV?$stream_output_adapter@D@__crt_stdio_output@@@__crt_stdio_output@@IAE_NAAPAUansi_string@?1??type_case_Z@?$output_processor@DV?$stream_output_adapter@D@__crt_stdio_output@@V?$positional_parameter_base@DV?$stream_output_adapter@D@__crt_stdio_output@@@2@@1@AAE_NXZ@@Z 10021f1f f i libucrt:output.obj
 0001:00020fbc       ??$extract_argument_from_va_list@PAUansi_string@?1??type_case_Z@?$output_processor@DV?$stream_output_adapter@D@__crt_stdio_output@@V?$positional_parameter_base@DV?$stream_output_adapter@D@__crt_stdio_output@@@2@@__crt_stdio_output@@AAE_NXZ@PAU1?1??234@AAE_NXZ@@?$standard_base@DV?$stream_output_adapter@D@__crt_stdio_output@@@__crt_stdio_output@@IAE_NAAPAUansi_string@?1??type_case_Z@?$output_processor@DV?$stream_output_adapter@D@__crt_stdio_output@@V?$positional_parameter_base@DV?$stream_output_adapter@D@__crt_stdio_output@@@2@@1@AAE_NXZ@@Z 10021fbc f i libucrt:output.obj
 0001:00020fdc       ??$extract_argument_from_va_list@PAUansi_string@?1??type_case_Z@?$output_processor@DV?$stream_output_adapter@D@__crt_stdio_output@@V?$standard_base@DV?$stream_output_adapter@D@__crt_stdio_output@@@2@@__crt_stdio_output@@AAE_NXZ@PAU1?1??234@AAE_NXZ@@?$standard_base@DV?$stream_output_adapter@D@__crt_stdio_output@@@__crt_stdio_output@@IAE_NAAPAUansi_string@?1??type_case_Z@?$output_processor@DV?$stream_output_adapter@D@__crt_stdio_output@@V?$standard_base@DV?$stream_output_adapter@D@__crt_stdio_output@@@2@@1@AAE_NXZ@@Z 10021fdc f i libucrt:output.obj
 0001:00020ffc       ??$extract_argument_from_va_list@PAUansi_string@?1??type_case_Z@?$output_processor@DV?$string_output_adapter@D@__crt_stdio_output@@V?$format_validation_base@DV?$string_output_adapter@D@__crt_stdio_output@@@2@@__crt_stdio_output@@AAE_NXZ@PAU1?1??234@AAE_NXZ@@?$standard_base@DV?$string_output_adapter@D@__crt_stdio_output@@@__crt_stdio_output@@IAE_NAAPAUansi_string@?1??type_case_Z@?$output_processor@DV?$string_output_adapter@D@__crt_stdio_output@@V?$format_validation_base@DV?$string_output_adapter@D@__crt_stdio_output@@@2@@1@AAE_NXZ@@Z 10021ffc f i libucrt:output.obj
 0001:0002101c       ??$extract_argument_from_va_list@PAUansi_string@?1??type_case_Z@?$output_processor@DV?$string_output_adapter@D@__crt_stdio_output@@V?$positional_parameter_base@DV?$string_output_adapter@D@__crt_stdio_output@@@2@@__crt_stdio_output@@AAE_NXZ@PAU1?1??234@AAE_NXZ@@?$positional_parameter_base@DV?$string_output_adapter@D@__crt_stdio_output@@@__crt_stdio_output@@IAE_NAAPAUansi_string@?1??type_case_Z@?$output_processor@DV?$string_output_adapter@D@__crt_stdio_output@@V?$positional_parameter_base@DV?$string_output_adapter@D@__crt_stdio_output@@@2@@1@AAE_NXZ@@Z 1002201c f i libucrt:output.obj
 0001:000210b9       ??$extract_argument_from_va_list@PAUansi_string@?1??type_case_Z@?$output_processor@DV?$string_output_adapter@D@__crt_stdio_output@@V?$positional_parameter_base@DV?$string_output_adapter@D@__crt_stdio_output@@@2@@__crt_stdio_output@@AAE_NXZ@PAU1?1??234@AAE_NXZ@@?$standard_base@DV?$string_output_adapter@D@__crt_stdio_output@@@__crt_stdio_output@@IAE_NAAPAUansi_string@?1??type_case_Z@?$output_processor@DV?$string_output_adapter@D@__crt_stdio_output@@V?$positional_parameter_base@DV?$string_output_adapter@D@__crt_stdio_output@@@2@@1@AAE_NXZ@@Z 100220b9 f i libucrt:output.obj
 0001:000210d9       ??$extract_argument_from_va_list@PAUansi_string@?1??type_case_Z@?$output_processor@DV?$string_output_adapter@D@__crt_stdio_output@@V?$standard_base@DV?$string_output_adapter@D@__crt_stdio_output@@@2@@__crt_stdio_output@@AAE_NXZ@PAU1?1??234@AAE_NXZ@@?$standard_base@DV?$string_output_adapter@D@__crt_stdio_output@@@__crt_stdio_output@@IAE_NAAPAUansi_string@?1??type_case_Z@?$output_processor@DV?$string_output_adapter@D@__crt_stdio_output@@V?$standard_base@DV?$string_output_adapter@D@__crt_stdio_output@@@2@@1@AAE_NXZ@@Z 100220d9 f i libucrt:output.obj
 0001:000210f9       ??$extract_argument_from_va_list@PAUansi_string@?1??type_case_Z@?$output_processor@_WV?$stream_output_adapter@_W@__crt_stdio_output@@V?$format_validation_base@_WV?$stream_output_adapter@_W@__crt_stdio_output@@@2@@__crt_stdio_output@@AAE_NXZ@PAU1?1??234@AAE_NXZ@@?$standard_base@_WV?$stream_output_adapter@_W@__crt_stdio_output@@@__crt_stdio_output@@IAE_NAAPAUansi_string@?1??type_case_Z@?$output_processor@_WV?$stream_output_adapter@_W@__crt_stdio_output@@V?$format_validation_base@_WV?$stream_output_adapter@_W@__crt_stdio_output@@@2@@1@AAE_NXZ@@Z 100220f9 f i libucrt:output.obj
 0001:00021119       ??$extract_argument_from_va_list@PAUansi_string@?1??type_case_Z@?$output_processor@_WV?$stream_output_adapter@_W@__crt_stdio_output@@V?$positional_parameter_base@_WV?$stream_output_adapter@_W@__crt_stdio_output@@@2@@__crt_stdio_output@@AAE_NXZ@PAU1?1??234@AAE_NXZ@@?$positional_parameter_base@_WV?$stream_output_adapter@_W@__crt_stdio_output@@@__crt_stdio_output@@IAE_NAAPAUansi_string@?1??type_case_Z@?$output_processor@_WV?$stream_output_adapter@_W@__crt_stdio_output@@V?$positional_parameter_base@_WV?$stream_output_adapter@_W@__crt_stdio_output@@@2@@1@AAE_NXZ@@Z 10022119 f i libucrt:output.obj
 0001:000211b6       ??$extract_argument_from_va_list@PAUansi_string@?1??type_case_Z@?$output_processor@_WV?$stream_output_adapter@_W@__crt_stdio_output@@V?$positional_parameter_base@_WV?$stream_output_adapter@_W@__crt_stdio_output@@@2@@__crt_stdio_output@@AAE_NXZ@PAU1?1??234@AAE_NXZ@@?$standard_base@_WV?$stream_output_adapter@_W@__crt_stdio_output@@@__crt_stdio_output@@IAE_NAAPAUansi_string@?1??type_case_Z@?$output_processor@_WV?$stream_output_adapter@_W@__crt_stdio_output@@V?$positional_parameter_base@_WV?$stream_output_adapter@_W@__crt_stdio_output@@@2@@1@AAE_NXZ@@Z 100221b6 f i libucrt:output.obj
 0001:000211d6       ??$extract_argument_from_va_list@PAUansi_string@?1??type_case_Z@?$output_processor@_WV?$stream_output_adapter@_W@__crt_stdio_output@@V?$standard_base@_WV?$stream_output_adapter@_W@__crt_stdio_output@@@2@@__crt_stdio_output@@AAE_NXZ@PAU1?1??234@AAE_NXZ@@?$standard_base@_WV?$stream_output_adapter@_W@__crt_stdio_output@@@__crt_stdio_output@@IAE_NAAPAUansi_string@?1??type_case_Z@?$output_processor@_WV?$stream_output_adapter@_W@__crt_stdio_output@@V?$standard_base@_WV?$stream_output_adapter@_W@__crt_stdio_output@@@2@@1@AAE_NXZ@@Z 100221d6 f i libucrt:output.obj
 0001:000211f6       ??$extract_argument_from_va_list@PAUansi_string@?1??type_case_Z@?$output_processor@_WV?$string_output_adapter@_W@__crt_stdio_output@@V?$format_validation_base@_WV?$string_output_adapter@_W@__crt_stdio_output@@@2@@__crt_stdio_output@@AAE_NXZ@PAU1?1??234@AAE_NXZ@@?$standard_base@_WV?$string_output_adapter@_W@__crt_stdio_output@@@__crt_stdio_output@@IAE_NAAPAUansi_string@?1??type_case_Z@?$output_processor@_WV?$string_output_adapter@_W@__crt_stdio_output@@V?$format_validation_base@_WV?$string_output_adapter@_W@__crt_stdio_output@@@2@@1@AAE_NXZ@@Z 100221f6 f i libucrt:output.obj
 0001:00021216       ??$extract_argument_from_va_list@PAUansi_string@?1??type_case_Z@?$output_processor@_WV?$string_output_adapter@_W@__crt_stdio_output@@V?$positional_parameter_base@_WV?$string_output_adapter@_W@__crt_stdio_output@@@2@@__crt_stdio_output@@AAE_NXZ@PAU1?1??234@AAE_NXZ@@?$positional_parameter_base@_WV?$string_output_adapter@_W@__crt_stdio_output@@@__crt_stdio_output@@IAE_NAAPAUansi_string@?1??type_case_Z@?$output_processor@_WV?$string_output_adapter@_W@__crt_stdio_output@@V?$positional_parameter_base@_WV?$string_output_adapter@_W@__crt_stdio_output@@@2@@1@AAE_NXZ@@Z 10022216 f i libucrt:output.obj
 0001:000212b3       ??$extract_argument_from_va_list@PAUansi_string@?1??type_case_Z@?$output_processor@_WV?$string_output_adapter@_W@__crt_stdio_output@@V?$positional_parameter_base@_WV?$string_output_adapter@_W@__crt_stdio_output@@@2@@__crt_stdio_output@@AAE_NXZ@PAU1?1??234@AAE_NXZ@@?$standard_base@_WV?$string_output_adapter@_W@__crt_stdio_output@@@__crt_stdio_output@@IAE_NAAPAUansi_string@?1??type_case_Z@?$output_processor@_WV?$string_output_adapter@_W@__crt_stdio_output@@V?$positional_parameter_base@_WV?$string_output_adapter@_W@__crt_stdio_output@@@2@@1@AAE_NXZ@@Z 100222b3 f i libucrt:output.obj
 0001:000212d3       ??$extract_argument_from_va_list@PAUansi_string@?1??type_case_Z@?$output_processor@_WV?$string_output_adapter@_W@__crt_stdio_output@@V?$standard_base@_WV?$string_output_adapter@_W@__crt_stdio_output@@@2@@__crt_stdio_output@@AAE_NXZ@PAU1?1??234@AAE_NXZ@@?$standard_base@_WV?$string_output_adapter@_W@__crt_stdio_output@@@__crt_stdio_output@@IAE_NAAPAUansi_string@?1??type_case_Z@?$output_processor@_WV?$string_output_adapter@_W@__crt_stdio_output@@V?$standard_base@_WV?$string_output_adapter@_W@__crt_stdio_output@@@2@@1@AAE_NXZ@@Z 100222d3 f i libucrt:output.obj
 0001:000212f3       ??$extract_argument_from_va_list@PAXPAX@?$positional_parameter_base@DV?$stream_output_adapter@D@__crt_stdio_output@@@__crt_stdio_output@@IAE_NAAPAX@Z 100222f3 f i libucrt:output.obj
 0001:00021390       ??$extract_argument_from_va_list@PAXPAX@?$positional_parameter_base@DV?$string_output_adapter@D@__crt_stdio_output@@@__crt_stdio_output@@IAE_NAAPAX@Z 10022390 f i libucrt:output.obj
 0001:0002142d       ??$extract_argument_from_va_list@PAXPAX@?$positional_parameter_base@_WV?$stream_output_adapter@_W@__crt_stdio_output@@@__crt_stdio_output@@IAE_NAAPAX@Z 1002242d f i libucrt:output.obj
 0001:000214ca       ??$extract_argument_from_va_list@PAXPAX@?$positional_parameter_base@_WV?$string_output_adapter@_W@__crt_stdio_output@@@__crt_stdio_output@@IAE_NAAPAX@Z 100224ca f i libucrt:output.obj
 0001:00021567       ??$extract_argument_from_va_list@PAXPAX@?$standard_base@DV?$stream_output_adapter@D@__crt_stdio_output@@@__crt_stdio_output@@IAE_NAAPAX@Z 10022567 f i libucrt:output.obj
 0001:00021587       ??$extract_argument_from_va_list@PAXPAX@?$standard_base@DV?$string_output_adapter@D@__crt_stdio_output@@@__crt_stdio_output@@IAE_NAAPAX@Z 10022587 f i libucrt:output.obj
 0001:000215a7       ??$extract_argument_from_va_list@PAXPAX@?$standard_base@_WV?$stream_output_adapter@_W@__crt_stdio_output@@@__crt_stdio_output@@IAE_NAAPAX@Z 100225a7 f i libucrt:output.obj
 0001:000215c7       ??$extract_argument_from_va_list@PAXPAX@?$standard_base@_WV?$string_output_adapter@_W@__crt_stdio_output@@@__crt_stdio_output@@IAE_NAAPAX@Z 100225c7 f i libucrt:output.obj
 0001:000215e7       ??$extract_argument_from_va_list@U_CRT_DOUBLE@@U1@@?$positional_parameter_base@DV?$stream_output_adapter@D@__crt_stdio_output@@@__crt_stdio_output@@IAE_NAAU_CRT_DOUBLE@@@Z 100225e7 f i libucrt:output.obj
 0001:00021698       ??$extract_argument_from_va_list@U_CRT_DOUBLE@@U1@@?$positional_parameter_base@DV?$string_output_adapter@D@__crt_stdio_output@@@__crt_stdio_output@@IAE_NAAU_CRT_DOUBLE@@@Z 10022698 f i libucrt:output.obj
 0001:00021749       ??$extract_argument_from_va_list@U_CRT_DOUBLE@@U1@@?$positional_parameter_base@_WV?$stream_output_adapter@_W@__crt_stdio_output@@@__crt_stdio_output@@IAE_NAAU_CRT_DOUBLE@@@Z 10022749 f i libucrt:output.obj
 0001:000217fa       ??$extract_argument_from_va_list@U_CRT_DOUBLE@@U1@@?$positional_parameter_base@_WV?$string_output_adapter@_W@__crt_stdio_output@@@__crt_stdio_output@@IAE_NAAU_CRT_DOUBLE@@@Z 100227fa f i libucrt:output.obj
 0001:000218ab       ??$extract_argument_from_va_list@U_CRT_DOUBLE@@U1@@?$standard_base@DV?$stream_output_adapter@D@__crt_stdio_output@@@__crt_stdio_output@@IAE_NAAU_CRT_DOUBLE@@@Z 100228ab f i libucrt:output.obj
 0001:000218d3       ??$extract_argument_from_va_list@U_CRT_DOUBLE@@U1@@?$standard_base@DV?$string_output_adapter@D@__crt_stdio_output@@@__crt_stdio_output@@IAE_NAAU_CRT_DOUBLE@@@Z 100228d3 f i libucrt:output.obj
 0001:000218fb       ??$extract_argument_from_va_list@U_CRT_DOUBLE@@U1@@?$standard_base@_WV?$stream_output_adapter@_W@__crt_stdio_output@@@__crt_stdio_output@@IAE_NAAU_CRT_DOUBLE@@@Z 100228fb f i libucrt:output.obj
 0001:00021923       ??$extract_argument_from_va_list@U_CRT_DOUBLE@@U1@@?$standard_base@_WV?$string_output_adapter@_W@__crt_stdio_output@@@__crt_stdio_output@@IAE_NAAU_CRT_DOUBLE@@@Z 10022923 f i libucrt:output.obj
 0001:0002194b       ??$extract_argument_from_va_list@_J_J@?$positional_parameter_base@DV?$stream_output_adapter@D@__crt_stdio_output@@@__crt_stdio_output@@IAE_NAA_J@Z 1002294b f i libucrt:output.obj
 0001:000219fc       ??$extract_argument_from_va_list@_J_J@?$positional_parameter_base@DV?$string_output_adapter@D@__crt_stdio_output@@@__crt_stdio_output@@IAE_NAA_J@Z 100229fc f i libucrt:output.obj
 0001:00021aad       ??$extract_argument_from_va_list@_J_J@?$positional_parameter_base@_WV?$stream_output_adapter@_W@__crt_stdio_output@@@__crt_stdio_output@@IAE_NAA_J@Z 10022aad f i libucrt:output.obj
 0001:00021b5e       ??$extract_argument_from_va_list@_J_J@?$positional_parameter_base@_WV?$string_output_adapter@_W@__crt_stdio_output@@@__crt_stdio_output@@IAE_NAA_J@Z 10022b5e f i libucrt:output.obj
 0001:00021c0f       ??$extract_argument_from_va_list@_J_J@?$standard_base@DV?$stream_output_adapter@D@__crt_stdio_output@@@__crt_stdio_output@@IAE_NAA_J@Z 10022c0f f i libucrt:output.obj
 0001:00021c37       ??$extract_argument_from_va_list@_J_J@?$standard_base@DV?$string_output_adapter@D@__crt_stdio_output@@@__crt_stdio_output@@IAE_NAA_J@Z 10022c37 f i libucrt:output.obj
 0001:00021c5f       ??$extract_argument_from_va_list@_J_J@?$standard_base@_WV?$stream_output_adapter@_W@__crt_stdio_output@@@__crt_stdio_output@@IAE_NAA_J@Z 10022c5f f i libucrt:output.obj
 0001:00021c87       ??$extract_argument_from_va_list@_J_J@?$standard_base@_WV?$string_output_adapter@_W@__crt_stdio_output@@@__crt_stdio_output@@IAE_NAA_J@Z 10022c87 f i libucrt:output.obj
 0001:00021caf       ??$extract_argument_from_va_list@_K_J@?$positional_parameter_base@DV?$stream_output_adapter@D@__crt_stdio_output@@@__crt_stdio_output@@IAE_NAA_J@Z 10022caf f i libucrt:output.obj
 0001:00021d60       ??$extract_argument_from_va_list@_K_J@?$positional_parameter_base@DV?$string_output_adapter@D@__crt_stdio_output@@@__crt_stdio_output@@IAE_NAA_J@Z 10022d60 f i libucrt:output.obj
 0001:00021e11       ??$extract_argument_from_va_list@_K_J@?$positional_parameter_base@_WV?$stream_output_adapter@_W@__crt_stdio_output@@@__crt_stdio_output@@IAE_NAA_J@Z 10022e11 f i libucrt:output.obj
 0001:00021ec2       ??$extract_argument_from_va_list@_K_J@?$positional_parameter_base@_WV?$string_output_adapter@_W@__crt_stdio_output@@@__crt_stdio_output@@IAE_NAA_J@Z 10022ec2 f i libucrt:output.obj
 0001:00021f73       ??$extract_argument_from_va_list@_K_J@?$standard_base@DV?$stream_output_adapter@D@__crt_stdio_output@@@__crt_stdio_output@@IAE_NAA_J@Z 10022f73 f i libucrt:output.obj
 0001:00021f9b       ??$extract_argument_from_va_list@_K_J@?$standard_base@DV?$string_output_adapter@D@__crt_stdio_output@@@__crt_stdio_output@@IAE_NAA_J@Z 10022f9b f i libucrt:output.obj
 0001:00021fc3       ??$extract_argument_from_va_list@_K_J@?$standard_base@_WV?$stream_output_adapter@_W@__crt_stdio_output@@@__crt_stdio_output@@IAE_NAA_J@Z 10022fc3 f i libucrt:output.obj
 0001:00021feb       ??$extract_argument_from_va_list@_K_J@?$standard_base@_WV?$string_output_adapter@_W@__crt_stdio_output@@@__crt_stdio_output@@IAE_NAA_J@Z 10022feb f i libucrt:output.obj
 0001:00022013       ??$extract_argument_from_va_list@_W_W@?$positional_parameter_base@DV?$stream_output_adapter@D@__crt_stdio_output@@@__crt_stdio_output@@IAE_NAA_W@Z 10023013 f i libucrt:output.obj
 0001:000220b5       ??$extract_argument_from_va_list@_W_W@?$positional_parameter_base@DV?$string_output_adapter@D@__crt_stdio_output@@@__crt_stdio_output@@IAE_NAA_W@Z 100230b5 f i libucrt:output.obj
 0001:00022157       ??$extract_argument_from_va_list@_W_W@?$positional_parameter_base@_WV?$stream_output_adapter@_W@__crt_stdio_output@@@__crt_stdio_output@@IAE_NAA_W@Z 10023157 f i libucrt:output.obj
 0001:000221f9       ??$extract_argument_from_va_list@_W_W@?$positional_parameter_base@_WV?$string_output_adapter@_W@__crt_stdio_output@@@__crt_stdio_output@@IAE_NAA_W@Z 100231f9 f i libucrt:output.obj
 0001:0002229b       ??$extract_argument_from_va_list@_W_W@?$standard_base@DV?$stream_output_adapter@D@__crt_stdio_output@@@__crt_stdio_output@@IAE_NAA_W@Z 1002329b f i libucrt:output.obj
 0001:000222be       ??$extract_argument_from_va_list@_W_W@?$standard_base@DV?$string_output_adapter@D@__crt_stdio_output@@@__crt_stdio_output@@IAE_NAA_W@Z 100232be f i libucrt:output.obj
 0001:000222e1       ??$extract_argument_from_va_list@_W_W@?$standard_base@_WV?$stream_output_adapter@_W@__crt_stdio_output@@@__crt_stdio_output@@IAE_NAA_W@Z 100232e1 f i libucrt:output.obj
 0001:00022304       ??$extract_argument_from_va_list@_W_W@?$standard_base@_WV?$string_output_adapter@_W@__crt_stdio_output@@@__crt_stdio_output@@IAE_NAA_W@Z 10023304 f i libucrt:output.obj
 0001:00022327       ??$get_parameter_type@D@?$positional_parameter_base@DV?$stream_output_adapter@D@__crt_stdio_output@@@__crt_stdio_output@@CA?AW4parameter_type@01@PAD@Z 10023327 f i libucrt:output.obj
 0001:0002232b       ??$get_parameter_type@D@?$positional_parameter_base@DV?$string_output_adapter@D@__crt_stdio_output@@@__crt_stdio_output@@CA?AW4parameter_type@01@PAD@Z 1002332b f i libucrt:output.obj
 0001:0002232f       ??$get_parameter_type@D@?$positional_parameter_base@_WV?$stream_output_adapter@_W@__crt_stdio_output@@@__crt_stdio_output@@CA?AW4parameter_type@01@PAD@Z 1002332f f i libucrt:output.obj
 0001:00022333       ??$get_parameter_type@D@?$positional_parameter_base@_WV?$string_output_adapter@_W@__crt_stdio_output@@@__crt_stdio_output@@CA?AW4parameter_type@01@PAD@Z 10023333 f i libucrt:output.obj
 0001:00022337       ??$get_parameter_type@Uansi_string@?1??type_case_Z@?$output_processor@DV?$stream_output_adapter@D@__crt_stdio_output@@V?$positional_parameter_base@DV?$stream_output_adapter@D@__crt_stdio_output@@@2@@__crt_stdio_output@@AAE_NXZ@@?$positional_parameter_base@DV?$stream_output_adapter@D@__crt_stdio_output@@@__crt_stdio_output@@CA?AW4parameter_type@01@PAUansi_string@?1??type_case_Z@?$output_processor@DV?$stream_output_adapter@D@__crt_stdio_output@@V?$positional_parameter_base@DV?$stream_output_adapter@D@__crt_stdio_output@@@2@@1@AAE_NXZ@@Z 10023337 f i libucrt:output.obj
 0001:0002233b       ??$get_parameter_type@Uansi_string@?1??type_case_Z@?$output_processor@DV?$string_output_adapter@D@__crt_stdio_output@@V?$positional_parameter_base@DV?$string_output_adapter@D@__crt_stdio_output@@@2@@__crt_stdio_output@@AAE_NXZ@@?$positional_parameter_base@DV?$string_output_adapter@D@__crt_stdio_output@@@__crt_stdio_output@@CA?AW4parameter_type@01@PAUansi_string@?1??type_case_Z@?$output_processor@DV?$string_output_adapter@D@__crt_stdio_output@@V?$positional_parameter_base@DV?$string_output_adapter@D@__crt_stdio_output@@@2@@1@AAE_NXZ@@Z 1002333b f i libucrt:output.obj
 0001:0002233f       ??$get_parameter_type@Uansi_string@?1??type_case_Z@?$output_processor@_WV?$stream_output_adapter@_W@__crt_stdio_output@@V?$positional_parameter_base@_WV?$stream_output_adapter@_W@__crt_stdio_output@@@2@@__crt_stdio_output@@AAE_NXZ@@?$positional_parameter_base@_WV?$stream_output_adapter@_W@__crt_stdio_output@@@__crt_stdio_output@@CA?AW4parameter_type@01@PAUansi_string@?1??type_case_Z@?$output_processor@_WV?$stream_output_adapter@_W@__crt_stdio_output@@V?$positional_parameter_base@_WV?$stream_output_adapter@_W@__crt_stdio_output@@@2@@1@AAE_NXZ@@Z 1002333f f i libucrt:output.obj
 0001:00022343       ??$get_parameter_type@Uansi_string@?1??type_case_Z@?$output_processor@_WV?$string_output_adapter@_W@__crt_stdio_output@@V?$positional_parameter_base@_WV?$string_output_adapter@_W@__crt_stdio_output@@@2@@__crt_stdio_output@@AAE_NXZ@@?$positional_parameter_base@_WV?$string_output_adapter@_W@__crt_stdio_output@@@__crt_stdio_output@@CA?AW4parameter_type@01@PAUansi_string@?1??type_case_Z@?$output_processor@_WV?$string_output_adapter@_W@__crt_stdio_output@@V?$positional_parameter_base@_WV?$string_output_adapter@_W@__crt_stdio_output@@@2@@1@AAE_NXZ@@Z 10023343 f i libucrt:output.obj
 0001:00022347       ??$get_parameter_type@X@?$positional_parameter_base@DV?$stream_output_adapter@D@__crt_stdio_output@@@__crt_stdio_output@@CA?AW4parameter_type@01@PAX@Z 10023347 f i libucrt:output.obj
 0001:0002234b       ??$get_parameter_type@X@?$positional_parameter_base@DV?$string_output_adapter@D@__crt_stdio_output@@@__crt_stdio_output@@CA?AW4parameter_type@01@PAX@Z 1002334b f i libucrt:output.obj
 0001:0002234f       ??$get_parameter_type@X@?$positional_parameter_base@_WV?$stream_output_adapter@_W@__crt_stdio_output@@@__crt_stdio_output@@CA?AW4parameter_type@01@PAX@Z 1002334f f i libucrt:output.obj
 0001:00022353       ??$get_parameter_type@X@?$positional_parameter_base@_WV?$string_output_adapter@_W@__crt_stdio_output@@@__crt_stdio_output@@CA?AW4parameter_type@01@PAX@Z 10023353 f i libucrt:output.obj
 0001:00022357       ??$is_character_specifier@D@?$positional_parameter_base@DV?$stream_output_adapter@D@__crt_stdio_output@@@__crt_stdio_output@@CA_ND@Z 10023357 f i libucrt:output.obj
 0001:00022376       ??$is_character_specifier@D@?$positional_parameter_base@DV?$string_output_adapter@D@__crt_stdio_output@@@__crt_stdio_output@@CA_ND@Z 10023376 f i libucrt:output.obj
 0001:00022395       ??$is_character_specifier@_W@?$positional_parameter_base@_WV?$stream_output_adapter@_W@__crt_stdio_output@@@__crt_stdio_output@@CA_N_W@Z 10023395 f i libucrt:output.obj
 0001:000223b8       ??$is_character_specifier@_W@?$positional_parameter_base@_WV?$string_output_adapter@_W@__crt_stdio_output@@@__crt_stdio_output@@CA_N_W@Z 100233b8 f i libucrt:output.obj
 0001:000223db       ??$is_integral_specifier@D@?$positional_parameter_base@DV?$stream_output_adapter@D@__crt_stdio_output@@@__crt_stdio_output@@CA_ND@Z 100233db f i libucrt:output.obj
 0001:00022413       ??$is_integral_specifier@D@?$positional_parameter_base@DV?$string_output_adapter@D@__crt_stdio_output@@@__crt_stdio_output@@CA_ND@Z 10023413 f i libucrt:output.obj
 0001:0002244b       ??$is_integral_specifier@_W@?$positional_parameter_base@_WV?$stream_output_adapter@_W@__crt_stdio_output@@@__crt_stdio_output@@CA_N_W@Z 1002344b f i libucrt:output.obj
 0001:00022496       ??$is_integral_specifier@_W@?$positional_parameter_base@_WV?$string_output_adapter@_W@__crt_stdio_output@@@__crt_stdio_output@@CA_N_W@Z 10023496 f i libucrt:output.obj
 0001:000224e1       ??$is_pointer_specifier@D@?$positional_parameter_base@DV?$stream_output_adapter@D@__crt_stdio_output@@@__crt_stdio_output@@CA_ND@Z 100234e1 f i libucrt:output.obj
 0001:000224f5       ??$is_pointer_specifier@D@?$positional_parameter_base@DV?$string_output_adapter@D@__crt_stdio_output@@@__crt_stdio_output@@CA_ND@Z 100234f5 f i libucrt:output.obj
 0001:00022509       ??$is_pointer_specifier@_W@?$positional_parameter_base@_WV?$stream_output_adapter@_W@__crt_stdio_output@@@__crt_stdio_output@@CA_N_W@Z 10023509 f i libucrt:output.obj
 0001:0002251e       ??$is_pointer_specifier@_W@?$positional_parameter_base@_WV?$string_output_adapter@_W@__crt_stdio_output@@@__crt_stdio_output@@CA_N_W@Z 1002351e f i libucrt:output.obj
 0001:00022533       ??$is_string_specifier@D@?$positional_parameter_base@DV?$stream_output_adapter@D@__crt_stdio_output@@@__crt_stdio_output@@CA_ND@Z 10023533 f i libucrt:output.obj
 0001:00022552       ??$is_string_specifier@D@?$positional_parameter_base@DV?$string_output_adapter@D@__crt_stdio_output@@@__crt_stdio_output@@CA_ND@Z 10023552 f i libucrt:output.obj
 0001:00022571       ??$is_string_specifier@_W@?$positional_parameter_base@_WV?$stream_output_adapter@_W@__crt_stdio_output@@@__crt_stdio_output@@CA_N_W@Z 10023571 f i libucrt:output.obj
 0001:00022594       ??$is_string_specifier@_W@?$positional_parameter_base@_WV?$string_output_adapter@_W@__crt_stdio_output@@@__crt_stdio_output@@CA_N_W@Z 10023594 f i libucrt:output.obj
 0001:000225b7       ??$is_wide_character_specifier@D@__crt_stdio_output@@YA_N_KDW4length_modifier@0@@Z 100235b7 f i libucrt:output.obj
 0001:00022607       ??$is_wide_character_specifier@_W@__crt_stdio_output@@YA_N_K_WW4length_modifier@0@@Z 10023607 f i libucrt:output.obj
 0001:00022669       ??$peek_va_arg@C@__crt_stdio_output@@YACPAD@Z 10023669 f i libucrt:output.obj
 0001:00022678       ??$peek_va_arg@E@__crt_stdio_output@@YAEPAD@Z 10023678 f i libucrt:output.obj
 0001:00022687       ??$peek_va_arg@F@__crt_stdio_output@@YAFPAD@Z 10023687 f i libucrt:output.obj
 0001:00022697       ??$peek_va_arg@G@__crt_stdio_output@@YAGPAD@Z 10023697 f i libucrt:output.obj
 0001:000226a7       ??$peek_va_arg@H@__crt_stdio_output@@YAHPAD@Z 100236a7 f i libucrt:output.obj
 0001:000226b6       ??$peek_va_arg@I@__crt_stdio_output@@YAIPAD@Z 100236b6 f i libucrt:output.obj
 0001:000226c5       ??$peek_va_arg@PAD@__crt_stdio_output@@YAPADPAD@Z 100236c5 f i libucrt:output.obj
 0001:000226d4       ??$peek_va_arg@PAUansi_string@?1??type_case_Z@?$output_processor@DV?$stream_output_adapter@D@__crt_stdio_output@@V?$positional_parameter_base@DV?$stream_output_adapter@D@__crt_stdio_output@@@2@@__crt_stdio_output@@AAE_NXZ@@__crt_stdio_output@@YAPAUansi_string@?1??type_case_Z@?$output_processor@DV?$stream_output_adapter@D@__crt_stdio_output@@V?$positional_parameter_base@DV?$stream_output_adapter@D@__crt_stdio_output@@@2@@0@AAE_NXZ@PAD@Z 100236d4 f i libucrt:output.obj
 0001:000226e3       ??$peek_va_arg@PAUansi_string@?1??type_case_Z@?$output_processor@DV?$string_output_adapter@D@__crt_stdio_output@@V?$positional_parameter_base@DV?$string_output_adapter@D@__crt_stdio_output@@@2@@__crt_stdio_output@@AAE_NXZ@@__crt_stdio_output@@YAPAUansi_string@?1??type_case_Z@?$output_processor@DV?$string_output_adapter@D@__crt_stdio_output@@V?$positional_parameter_base@DV?$string_output_adapter@D@__crt_stdio_output@@@2@@0@AAE_NXZ@PAD@Z 100236e3 f i libucrt:output.obj
 0001:000226f2       ??$peek_va_arg@PAUansi_string@?1??type_case_Z@?$output_processor@_WV?$stream_output_adapter@_W@__crt_stdio_output@@V?$positional_parameter_base@_WV?$stream_output_adapter@_W@__crt_stdio_output@@@2@@__crt_stdio_output@@AAE_NXZ@@__crt_stdio_output@@YAPAUansi_string@?1??type_case_Z@?$output_processor@_WV?$stream_output_adapter@_W@__crt_stdio_output@@V?$positional_parameter_base@_WV?$stream_output_adapter@_W@__crt_stdio_output@@@2@@0@AAE_NXZ@PAD@Z 100236f2 f i libucrt:output.obj
 0001:00022701       ??$peek_va_arg@PAUansi_string@?1??type_case_Z@?$output_processor@_WV?$string_output_adapter@_W@__crt_stdio_output@@V?$positional_parameter_base@_WV?$string_output_adapter@_W@__crt_stdio_output@@@2@@__crt_stdio_output@@AAE_NXZ@@__crt_stdio_output@@YAPAUansi_string@?1??type_case_Z@?$output_processor@_WV?$string_output_adapter@_W@__crt_stdio_output@@V?$positional_parameter_base@_WV?$string_output_adapter@_W@__crt_stdio_output@@@2@@0@AAE_NXZ@PAD@Z 10023701 f i libucrt:output.obj
 0001:00022710       ??$peek_va_arg@PAX@__crt_stdio_output@@YAPAXPAD@Z 10023710 f i libucrt:output.obj
 0001:0002271f       ??$peek_va_arg@U_CRT_DOUBLE@@@__crt_stdio_output@@YA?AU_CRT_DOUBLE@@PAD@Z 1002371f f i libucrt:output.obj
 0001:00022731       ??$peek_va_arg@_J@__crt_stdio_output@@YA_JPAD@Z 10023731 f i libucrt:output.obj
 0001:00022743       ??$peek_va_arg@_K@__crt_stdio_output@@YA_KPAD@Z 10023743 f i libucrt:output.obj
 0001:00022755       ??$peek_va_arg@_W@__crt_stdio_output@@YA_WPAD@Z 10023755 f i libucrt:output.obj
 0001:00022765       ??$puttc_nolock@ABDPAU_iobuf@@@?$__crt_char_traits@D@@SAHABD$$QAPAU_iobuf@@@Z 10023765 f i libucrt:output.obj
 0001:00022785       ??$puttc_nolock@AB_WPAU_iobuf@@@?$__crt_char_traits@_W@@SAGAB_W$$QAPAU_iobuf@@@Z 10023785 f i libucrt:output.obj
 0001:000227a5       ??$read_va_arg@C@__crt_stdio_output@@YACAAPAD@Z 100237a5 f i libucrt:output.obj
 0001:000227bb       ??$read_va_arg@E@__crt_stdio_output@@YAEAAPAD@Z 100237bb f i libucrt:output.obj
 0001:000227d1       ??$read_va_arg@F@__crt_stdio_output@@YAFAAPAD@Z 100237d1 f i libucrt:output.obj
 0001:000227e8       ??$read_va_arg@G@__crt_stdio_output@@YAGAAPAD@Z 100237e8 f i libucrt:output.obj
 0001:000227ff       ??$read_va_arg@H@__crt_stdio_output@@YAHAAPAD@Z 100237ff f i libucrt:output.obj
 0001:00022815       ??$read_va_arg@I@__crt_stdio_output@@YAIAAPAD@Z 10023815 f i libucrt:output.obj
 0001:0002282b       ??$read_va_arg@PAD@__crt_stdio_output@@YAPADAAPAD@Z 1002382b f i libucrt:output.obj
 0001:00022841       ??$read_va_arg@PAUansi_string@?1??type_case_Z@?$output_processor@DV?$stream_output_adapter@D@__crt_stdio_output@@V?$format_validation_base@DV?$stream_output_adapter@D@__crt_stdio_output@@@2@@__crt_stdio_output@@AAE_NXZ@@__crt_stdio_output@@YAPAUansi_string@?1??type_case_Z@?$output_processor@DV?$stream_output_adapter@D@__crt_stdio_output@@V?$format_validation_base@DV?$stream_output_adapter@D@__crt_stdio_output@@@2@@0@AAE_NXZ@AAPAD@Z 10023841 f i libucrt:output.obj
 0001:00022857       ??$read_va_arg@PAUansi_string@?1??type_case_Z@?$output_processor@DV?$stream_output_adapter@D@__crt_stdio_output@@V?$positional_parameter_base@DV?$stream_output_adapter@D@__crt_stdio_output@@@2@@__crt_stdio_output@@AAE_NXZ@@__crt_stdio_output@@YAPAUansi_string@?1??type_case_Z@?$output_processor@DV?$stream_output_adapter@D@__crt_stdio_output@@V?$positional_parameter_base@DV?$stream_output_adapter@D@__crt_stdio_output@@@2@@0@AAE_NXZ@AAPAD@Z 10023857 f i libucrt:output.obj
 0001:0002286d       ??$read_va_arg@PAUansi_string@?1??type_case_Z@?$output_processor@DV?$stream_output_adapter@D@__crt_stdio_output@@V?$standard_base@DV?$stream_output_adapter@D@__crt_stdio_output@@@2@@__crt_stdio_output@@AAE_NXZ@@__crt_stdio_output@@YAPAUansi_string@?1??type_case_Z@?$output_processor@DV?$stream_output_adapter@D@__crt_stdio_output@@V?$standard_base@DV?$stream_output_adapter@D@__crt_stdio_output@@@2@@0@AAE_NXZ@AAPAD@Z 1002386d f i libucrt:output.obj
 0001:00022883       ??$read_va_arg@PAUansi_string@?1??type_case_Z@?$output_processor@DV?$string_output_adapter@D@__crt_stdio_output@@V?$format_validation_base@DV?$string_output_adapter@D@__crt_stdio_output@@@2@@__crt_stdio_output@@AAE_NXZ@@__crt_stdio_output@@YAPAUansi_string@?1??type_case_Z@?$output_processor@DV?$string_output_adapter@D@__crt_stdio_output@@V?$format_validation_base@DV?$string_output_adapter@D@__crt_stdio_output@@@2@@0@AAE_NXZ@AAPAD@Z 10023883 f i libucrt:output.obj
 0001:00022899       ??$read_va_arg@PAUansi_string@?1??type_case_Z@?$output_processor@DV?$string_output_adapter@D@__crt_stdio_output@@V?$positional_parameter_base@DV?$string_output_adapter@D@__crt_stdio_output@@@2@@__crt_stdio_output@@AAE_NXZ@@__crt_stdio_output@@YAPAUansi_string@?1??type_case_Z@?$output_processor@DV?$string_output_adapter@D@__crt_stdio_output@@V?$positional_parameter_base@DV?$string_output_adapter@D@__crt_stdio_output@@@2@@0@AAE_NXZ@AAPAD@Z 10023899 f i libucrt:output.obj
 0001:000228af       ??$read_va_arg@PAUansi_string@?1??type_case_Z@?$output_processor@DV?$string_output_adapter@D@__crt_stdio_output@@V?$standard_base@DV?$string_output_adapter@D@__crt_stdio_output@@@2@@__crt_stdio_output@@AAE_NXZ@@__crt_stdio_output@@YAPAUansi_string@?1??type_case_Z@?$output_processor@DV?$string_output_adapter@D@__crt_stdio_output@@V?$standard_base@DV?$string_output_adapter@D@__crt_stdio_output@@@2@@0@AAE_NXZ@AAPAD@Z 100238af f i libucrt:output.obj
 0001:000228c5       ??$read_va_arg@PAUansi_string@?1??type_case_Z@?$output_processor@_WV?$stream_output_adapter@_W@__crt_stdio_output@@V?$format_validation_base@_WV?$stream_output_adapter@_W@__crt_stdio_output@@@2@@__crt_stdio_output@@AAE_NXZ@@__crt_stdio_output@@YAPAUansi_string@?1??type_case_Z@?$output_processor@_WV?$stream_output_adapter@_W@__crt_stdio_output@@V?$format_validation_base@_WV?$stream_output_adapter@_W@__crt_stdio_output@@@2@@0@AAE_NXZ@AAPAD@Z 100238c5 f i libucrt:output.obj
 0001:000228db       ??$read_va_arg@PAUansi_string@?1??type_case_Z@?$output_processor@_WV?$stream_output_adapter@_W@__crt_stdio_output@@V?$positional_parameter_base@_WV?$stream_output_adapter@_W@__crt_stdio_output@@@2@@__crt_stdio_output@@AAE_NXZ@@__crt_stdio_output@@YAPAUansi_string@?1??type_case_Z@?$output_processor@_WV?$stream_output_adapter@_W@__crt_stdio_output@@V?$positional_parameter_base@_WV?$stream_output_adapter@_W@__crt_stdio_output@@@2@@0@AAE_NXZ@AAPAD@Z 100238db f i libucrt:output.obj
 0001:000228f1       ??$read_va_arg@PAUansi_string@?1??type_case_Z@?$output_processor@_WV?$stream_output_adapter@_W@__crt_stdio_output@@V?$standard_base@_WV?$stream_output_adapter@_W@__crt_stdio_output@@@2@@__crt_stdio_output@@AAE_NXZ@@__crt_stdio_output@@YAPAUansi_string@?1??type_case_Z@?$output_processor@_WV?$stream_output_adapter@_W@__crt_stdio_output@@V?$standard_base@_WV?$stream_output_adapter@_W@__crt_stdio_output@@@2@@0@AAE_NXZ@AAPAD@Z 100238f1 f i libucrt:output.obj
 0001:00022907       ??$read_va_arg@PAUansi_string@?1??type_case_Z@?$output_processor@_WV?$string_output_adapter@_W@__crt_stdio_output@@V?$format_validation_base@_WV?$string_output_adapter@_W@__crt_stdio_output@@@2@@__crt_stdio_output@@AAE_NXZ@@__crt_stdio_output@@YAPAUansi_string@?1??type_case_Z@?$output_processor@_WV?$string_output_adapter@_W@__crt_stdio_output@@V?$format_validation_base@_WV?$string_output_adapter@_W@__crt_stdio_output@@@2@@0@AAE_NXZ@AAPAD@Z 10023907 f i libucrt:output.obj
 0001:0002291d       ??$read_va_arg@PAUansi_string@?1??type_case_Z@?$output_processor@_WV?$string_output_adapter@_W@__crt_stdio_output@@V?$positional_parameter_base@_WV?$string_output_adapter@_W@__crt_stdio_output@@@2@@__crt_stdio_output@@AAE_NXZ@@__crt_stdio_output@@YAPAUansi_string@?1??type_case_Z@?$output_processor@_WV?$string_output_adapter@_W@__crt_stdio_output@@V?$positional_parameter_base@_WV?$string_output_adapter@_W@__crt_stdio_output@@@2@@0@AAE_NXZ@AAPAD@Z 1002391d f i libucrt:output.obj
 0001:00022933       ??$read_va_arg@PAUansi_string@?1??type_case_Z@?$output_processor@_WV?$string_output_adapter@_W@__crt_stdio_output@@V?$standard_base@_WV?$string_output_adapter@_W@__crt_stdio_output@@@2@@__crt_stdio_output@@AAE_NXZ@@__crt_stdio_output@@YAPAUansi_string@?1??type_case_Z@?$output_processor@_WV?$string_output_adapter@_W@__crt_stdio_output@@V?$standard_base@_WV?$string_output_adapter@_W@__crt_stdio_output@@@2@@0@AAE_NXZ@AAPAD@Z 10023933 f i libucrt:output.obj
 0001:00022949       ??$read_va_arg@PAX@__crt_stdio_output@@YAPAXAAPAD@Z 10023949 f i libucrt:output.obj
 0001:0002295f       ??$read_va_arg@U_CRT_DOUBLE@@@__crt_stdio_output@@YA?AU_CRT_DOUBLE@@AAPAD@Z 1002395f f i libucrt:output.obj
 0001:00022979       ??$read_va_arg@_J@__crt_stdio_output@@YA_JAAPAD@Z 10023979 f i libucrt:output.obj
 0001:00022993       ??$read_va_arg@_K@__crt_stdio_output@@YA_KAAPAD@Z 10023993 f i libucrt:output.obj
 0001:000229ad       ??$read_va_arg@_W@__crt_stdio_output@@YA_WAAPAD@Z 100239ad f i libucrt:output.obj
 0001:000229c4       ??$scratch_count@D@formatting_buffer@__crt_stdio_output@@QBEIXZ 100239c4 f i libucrt:output.obj
 0001:000229c9       ??$scratch_data@D@formatting_buffer@__crt_stdio_output@@QAEPADXZ 100239c9 f i libucrt:output.obj
 0001:000229ee       ??$tcstol@AAPBDPAPADH@?$__crt_char_traits@D@@SAJAAPBD$$QAPAPAD$$QAH@Z 100239ee f i libucrt:output.obj
 0001:00022a13       ??$tcstol@AAPB_WPAPA_WH@?$__crt_char_traits@_W@@SAJAAPB_W$$QAPAPA_W$$QAH@Z 10023a13 f i libucrt:output.obj
 0001:00022a38       ??$tcstol@PBDPAPADH@?$__crt_char_traits@D@@SAJ$$QAPBD$$QAPAPAD$$QAH@Z 10023a38 f i libucrt:output.obj
 0001:00022a5d       ??$tcstol@PB_WPAPA_WH@?$__crt_char_traits@_W@@SAJ$$QAPB_W$$QAPAPA_W$$QAH@Z 10023a5d f i libucrt:output.obj
 0001:00022a82       ??$type_case_integer_parse_into_buffer@I@?$output_processor@DV?$stream_output_adapter@D@__crt_stdio_output@@V?$format_validation_base@DV?$stream_output_adapter@D@__crt_stdio_output@@@2@@__crt_stdio_output@@AAEXII_N@Z 10023a82 f i libucrt:output.obj
 0001:00022b14       ??$type_case_integer_parse_into_buffer@I@?$output_processor@DV?$stream_output_adapter@D@__crt_stdio_output@@V?$positional_parameter_base@DV?$stream_output_adapter@D@__crt_stdio_output@@@2@@__crt_stdio_output@@AAEXII_N@Z 10023b14 f i libucrt:output.obj
 0001:00022ba6       ??$type_case_integer_parse_into_buffer@I@?$output_processor@DV?$stream_output_adapter@D@__crt_stdio_output@@V?$standard_base@DV?$stream_output_adapter@D@__crt_stdio_output@@@2@@__crt_stdio_output@@AAEXII_N@Z 10023ba6 f i libucrt:output.obj
 0001:00022c38       ??$type_case_integer_parse_into_buffer@I@?$output_processor@DV?$string_output_adapter@D@__crt_stdio_output@@V?$format_validation_base@DV?$string_output_adapter@D@__crt_stdio_output@@@2@@__crt_stdio_output@@AAEXII_N@Z 10023c38 f i libucrt:output.obj
 0001:00022cca       ??$type_case_integer_parse_into_buffer@I@?$output_processor@DV?$string_output_adapter@D@__crt_stdio_output@@V?$positional_parameter_base@DV?$string_output_adapter@D@__crt_stdio_output@@@2@@__crt_stdio_output@@AAEXII_N@Z 10023cca f i libucrt:output.obj
 0001:00022d5c       ??$type_case_integer_parse_into_buffer@I@?$output_processor@DV?$string_output_adapter@D@__crt_stdio_output@@V?$standard_base@DV?$string_output_adapter@D@__crt_stdio_output@@@2@@__crt_stdio_output@@AAEXII_N@Z 10023d5c f i libucrt:output.obj
 0001:00022dee       ??$type_case_integer_parse_into_buffer@I@?$output_processor@_WV?$stream_output_adapter@_W@__crt_stdio_output@@V?$format_validation_base@_WV?$stream_output_adapter@_W@__crt_stdio_output@@@2@@__crt_stdio_output@@AAEXII_N@Z 10023dee f i libucrt:output.obj
 0001:00022e80       ??$type_case_integer_parse_into_buffer@I@?$output_processor@_WV?$stream_output_adapter@_W@__crt_stdio_output@@V?$positional_parameter_base@_WV?$stream_output_adapter@_W@__crt_stdio_output@@@2@@__crt_stdio_output@@AAEXII_N@Z 10023e80 f i libucrt:output.obj
 0001:00022f12       ??$type_case_integer_parse_into_buffer@I@?$output_processor@_WV?$stream_output_adapter@_W@__crt_stdio_output@@V?$standard_base@_WV?$stream_output_adapter@_W@__crt_stdio_output@@@2@@__crt_stdio_output@@AAEXII_N@Z 10023f12 f i libucrt:output.obj
 0001:00022fa4       ??$type_case_integer_parse_into_buffer@I@?$output_processor@_WV?$string_output_adapter@_W@__crt_stdio_output@@V?$format_validation_base@_WV?$string_output_adapter@_W@__crt_stdio_output@@@2@@__crt_stdio_output@@AAEXII_N@Z 10023fa4 f i libucrt:output.obj
 0001:00023036       ??$type_case_integer_parse_into_buffer@I@?$output_processor@_WV?$string_output_adapter@_W@__crt_stdio_output@@V?$positional_parameter_base@_WV?$string_output_adapter@_W@__crt_stdio_output@@@2@@__crt_stdio_output@@AAEXII_N@Z 10024036 f i libucrt:output.obj
 0001:000230c8       ??$type_case_integer_parse_into_buffer@I@?$output_processor@_WV?$string_output_adapter@_W@__crt_stdio_output@@V?$standard_base@_WV?$string_output_adapter@_W@__crt_stdio_output@@@2@@__crt_stdio_output@@AAEXII_N@Z 100240c8 f i libucrt:output.obj
 0001:0002315a       ??$type_case_integer_parse_into_buffer@_K@?$output_processor@DV?$stream_output_adapter@D@__crt_stdio_output@@V?$format_validation_base@DV?$stream_output_adapter@D@__crt_stdio_output@@@2@@__crt_stdio_output@@AAEX_KI_N@Z 1002415a f i libucrt:output.obj
 0001:00023204       ??$type_case_integer_parse_into_buffer@_K@?$output_processor@DV?$stream_output_adapter@D@__crt_stdio_output@@V?$positional_parameter_base@DV?$stream_output_adapter@D@__crt_stdio_output@@@2@@__crt_stdio_output@@AAEX_KI_N@Z 10024204 f i libucrt:output.obj
 0001:000232ae       ??$type_case_integer_parse_into_buffer@_K@?$output_processor@DV?$stream_output_adapter@D@__crt_stdio_output@@V?$standard_base@DV?$stream_output_adapter@D@__crt_stdio_output@@@2@@__crt_stdio_output@@AAEX_KI_N@Z 100242ae f i libucrt:output.obj
 0001:00023358       ??$type_case_integer_parse_into_buffer@_K@?$output_processor@DV?$string_output_adapter@D@__crt_stdio_output@@V?$format_validation_base@DV?$string_output_adapter@D@__crt_stdio_output@@@2@@__crt_stdio_output@@AAEX_KI_N@Z 10024358 f i libucrt:output.obj
 0001:00023402       ??$type_case_integer_parse_into_buffer@_K@?$output_processor@DV?$string_output_adapter@D@__crt_stdio_output@@V?$positional_parameter_base@DV?$string_output_adapter@D@__crt_stdio_output@@@2@@__crt_stdio_output@@AAEX_KI_N@Z 10024402 f i libucrt:output.obj
 0001:000234ac       ??$type_case_integer_parse_into_buffer@_K@?$output_processor@DV?$string_output_adapter@D@__crt_stdio_output@@V?$standard_base@DV?$string_output_adapter@D@__crt_stdio_output@@@2@@__crt_stdio_output@@AAEX_KI_N@Z 100244ac f i libucrt:output.obj
 0001:00023556       ??$type_case_integer_parse_into_buffer@_K@?$output_processor@_WV?$stream_output_adapter@_W@__crt_stdio_output@@V?$format_validation_base@_WV?$stream_output_adapter@_W@__crt_stdio_output@@@2@@__crt_stdio_output@@AAEX_KI_N@Z 10024556 f i libucrt:output.obj
 0001:00023600       ??$type_case_integer_parse_into_buffer@_K@?$output_processor@_WV?$stream_output_adapter@_W@__crt_stdio_output@@V?$positional_parameter_base@_WV?$stream_output_adapter@_W@__crt_stdio_output@@@2@@__crt_stdio_output@@AAEX_KI_N@Z 10024600 f i libucrt:output.obj
 0001:000236aa       ??$type_case_integer_parse_into_buffer@_K@?$output_processor@_WV?$stream_output_adapter@_W@__crt_stdio_output@@V?$standard_base@_WV?$stream_output_adapter@_W@__crt_stdio_output@@@2@@__crt_stdio_output@@AAEX_KI_N@Z 100246aa f i libucrt:output.obj
 0001:00023754       ??$type_case_integer_parse_into_buffer@_K@?$output_processor@_WV?$string_output_adapter@_W@__crt_stdio_output@@V?$format_validation_base@_WV?$string_output_adapter@_W@__crt_stdio_output@@@2@@__crt_stdio_output@@AAEX_KI_N@Z 10024754 f i libucrt:output.obj
 0001:000237fe       ??$type_case_integer_parse_into_buffer@_K@?$output_processor@_WV?$string_output_adapter@_W@__crt_stdio_output@@V?$positional_parameter_base@_WV?$string_output_adapter@_W@__crt_stdio_output@@@2@@__crt_stdio_output@@AAEX_KI_N@Z 100247fe f i libucrt:output.obj
 0001:000238a8       ??$type_case_integer_parse_into_buffer@_K@?$output_processor@_WV?$string_output_adapter@_W@__crt_stdio_output@@V?$standard_base@_WV?$string_output_adapter@_W@__crt_stdio_output@@@2@@__crt_stdio_output@@AAEX_KI_N@Z 100248a8 f i libucrt:output.obj
 0001:00023952       ??$write_multiple_characters@V?$stream_output_adapter@D@__crt_stdio_output@@D@__crt_stdio_output@@YAXABV?$stream_output_adapter@D@0@DHQAH@Z 10024952 f i libucrt:output.obj
 0001:00023989       ??$write_multiple_characters@V?$stream_output_adapter@_W@__crt_stdio_output@@D@__crt_stdio_output@@YAXABV?$stream_output_adapter@_W@0@DHQAH@Z 10024989 f i libucrt:output.obj
 0001:000239c6       ??$write_multiple_characters@V?$string_output_adapter@D@__crt_stdio_output@@D@__crt_stdio_output@@YAXABV?$string_output_adapter@D@0@DHQAH@Z 100249c6 f i libucrt:output.obj
 0001:000239fd       ??$write_multiple_characters@V?$string_output_adapter@_W@__crt_stdio_output@@D@__crt_stdio_output@@YAXABV?$string_output_adapter@_W@0@DHQAH@Z 100249fd f i libucrt:output.obj
 0001:00023c6e       ??0?$common_data@D@__crt_stdio_output@@IAE@XZ 10024c6e f i libucrt:output.obj
 0001:00023cc6       ??0?$common_data@_W@__crt_stdio_output@@IAE@XZ 10024cc6 f i libucrt:output.obj
 0001:00023d25       ??0?$output_adapter_data@DV?$stream_output_adapter@D@__crt_stdio_output@@@__crt_stdio_output@@IAE@ABV?$stream_output_adapter@D@1@_KQBDQAU__crt_locale_pointers@@QAD@Z 10024d25 f i libucrt:output.obj
 0001:00023d70       ??0?$output_adapter_data@DV?$string_output_adapter@D@__crt_stdio_output@@@__crt_stdio_output@@IAE@ABV?$string_output_adapter@D@1@_KQBDQAU__crt_locale_pointers@@QAD@Z 10024d70 f i libucrt:output.obj
 0001:00023dbb       ??0?$output_adapter_data@_WV?$stream_output_adapter@_W@__crt_stdio_output@@@__crt_stdio_output@@IAE@ABV?$stream_output_adapter@_W@1@_KQB_WQAU__crt_locale_pointers@@QAD@Z 10024dbb f i libucrt:output.obj
 0001:00023e06       ??0?$output_adapter_data@_WV?$string_output_adapter@_W@__crt_stdio_output@@@__crt_stdio_output@@IAE@ABV?$string_output_adapter@_W@1@_KQB_WQAU__crt_locale_pointers@@QAD@Z 10024e06 f i libucrt:output.obj
 0001:00023e51       ??0?$output_processor@DV?$stream_output_adapter@D@__crt_stdio_output@@V?$format_validation_base@DV?$stream_output_adapter@D@__crt_stdio_output@@@2@@__crt_stdio_output@@QAE@ABV?$stream_output_adapter@D@1@_KQBDQAU__crt_locale_pointers@@QAD@Z 10024e51 f i libucrt:output.obj
 0001:00023e93       ??0?$output_processor@DV?$stream_output_adapter@D@__crt_stdio_output@@V?$positional_parameter_base@DV?$stream_output_adapter@D@__crt_stdio_output@@@2@@__crt_stdio_output@@QAE@ABV?$stream_output_adapter@D@1@_KQBDQAU__crt_locale_pointers@@QAD@Z 10024e93 f i libucrt:output.obj
 0001:00023ecd       ??0?$output_processor@DV?$stream_output_adapter@D@__crt_stdio_output@@V?$standard_base@DV?$stream_output_adapter@D@__crt_stdio_output@@@2@@__crt_stdio_output@@QAE@ABV?$stream_output_adapter@D@1@_KQBDQAU__crt_locale_pointers@@QAD@Z 10024ecd f i libucrt:output.obj
 0001:00023f0f       ??0?$output_processor@DV?$string_output_adapter@D@__crt_stdio_output@@V?$format_validation_base@DV?$string_output_adapter@D@__crt_stdio_output@@@2@@__crt_stdio_output@@QAE@ABV?$string_output_adapter@D@1@_KQBDQAU__crt_locale_pointers@@QAD@Z 10024f0f f i libucrt:output.obj
 0001:00023f51       ??0?$output_processor@DV?$string_output_adapter@D@__crt_stdio_output@@V?$positional_parameter_base@DV?$string_output_adapter@D@__crt_stdio_output@@@2@@__crt_stdio_output@@QAE@ABV?$string_output_adapter@D@1@_KQBDQAU__crt_locale_pointers@@QAD@Z 10024f51 f i libucrt:output.obj
 0001:00023f8b       ??0?$output_processor@DV?$string_output_adapter@D@__crt_stdio_output@@V?$standard_base@DV?$string_output_adapter@D@__crt_stdio_output@@@2@@__crt_stdio_output@@QAE@ABV?$string_output_adapter@D@1@_KQBDQAU__crt_locale_pointers@@QAD@Z 10024f8b f i libucrt:output.obj
 0001:00023fcd       ??0?$output_processor@_WV?$stream_output_adapter@_W@__crt_stdio_output@@V?$format_validation_base@_WV?$stream_output_adapter@_W@__crt_stdio_output@@@2@@__crt_stdio_output@@QAE@ABV?$stream_output_adapter@_W@1@_KQB_WQAU__crt_locale_pointers@@QAD@Z 10024fcd f i libucrt:output.obj
 0001:0002400f       ??0?$output_processor@_WV?$stream_output_adapter@_W@__crt_stdio_output@@V?$positional_parameter_base@_WV?$stream_output_adapter@_W@__crt_stdio_output@@@2@@__crt_stdio_output@@QAE@ABV?$stream_output_adapter@_W@1@_KQB_WQAU__crt_locale_pointers@@QAD@Z 1002500f f i libucrt:output.obj
 0001:00024049       ??0?$output_processor@_WV?$stream_output_adapter@_W@__crt_stdio_output@@V?$standard_base@_WV?$stream_output_adapter@_W@__crt_stdio_output@@@2@@__crt_stdio_output@@QAE@ABV?$stream_output_adapter@_W@1@_KQB_WQAU__crt_locale_pointers@@QAD@Z 10025049 f i libucrt:output.obj
 0001:0002408b       ??0?$output_processor@_WV?$string_output_adapter@_W@__crt_stdio_output@@V?$format_validation_base@_WV?$string_output_adapter@_W@__crt_stdio_output@@@2@@__crt_stdio_output@@QAE@ABV?$string_output_adapter@_W@1@_KQB_WQAU__crt_locale_pointers@@QAD@Z 1002508b f i libucrt:output.obj
 0001:000240cd       ??0?$output_processor@_WV?$string_output_adapter@_W@__crt_stdio_output@@V?$positional_parameter_base@_WV?$string_output_adapter@_W@__crt_stdio_output@@@2@@__crt_stdio_output@@QAE@ABV?$string_output_adapter@_W@1@_KQB_WQAU__crt_locale_pointers@@QAD@Z 100250cd f i libucrt:output.obj
 0001:00024107       ??0?$output_processor@_WV?$string_output_adapter@_W@__crt_stdio_output@@V?$standard_base@_WV?$string_output_adapter@_W@__crt_stdio_output@@@2@@__crt_stdio_output@@QAE@ABV?$string_output_adapter@_W@1@_KQB_WQAU__crt_locale_pointers@@QAD@Z 10025107 f i libucrt:output.obj
 0001:00024149       ??0?$stream_output_adapter@D@__crt_stdio_output@@QAE@QAU_iobuf@@@Z 10025149 f i libucrt:output.obj
 0001:0002415d       ??0?$stream_output_adapter@_W@__crt_stdio_output@@QAE@QAU_iobuf@@@Z 1002515d f i libucrt:output.obj
 0001:00024171       ??0?$string_output_adapter@D@__crt_stdio_output@@QAE@QAU?$string_output_adapter_context@D@1@@Z 10025171 f i libucrt:output.obj
 0001:00024185       ??0?$string_output_adapter@_W@__crt_stdio_output@@QAE@QAU?$string_output_adapter_context@_W@1@@Z 10025185 f i libucrt:output.obj
 0001:00024199       ??0_LocaleUpdate@@QAE@QAU__crt_locale_pointers@@@Z 10025199 f i libucrt:output.obj
 0001:0002423c       ??0__acrt_stdio_temporary_buffering_guard@@QAE@QAU_iobuf@@@Z 1002523c f i libucrt:output.obj
 0001:00024261       ??0__crt_errno_guard@@QAE@QAH@Z 10025261 f i libucrt:output.obj
 0001:0002427f       ??0formatting_buffer@__crt_stdio_output@@QAE@XZ 1002527f f i libucrt:output.obj
 0001:00024294       ??1?$common_data@D@__crt_stdio_output@@QAE@XZ 10025294 f i libucrt:output.obj
 0001:0002429e       ??1?$common_data@_W@__crt_stdio_output@@QAE@XZ 1002529e f i libucrt:output.obj
 0001:000242a8       ??1?$format_validation_base@DV?$stream_output_adapter@D@__crt_stdio_output@@@__crt_stdio_output@@QAE@XZ 100252a8 f i libucrt:output.obj
 0001:000242b2       ??1?$format_validation_base@DV?$string_output_adapter@D@__crt_stdio_output@@@__crt_stdio_output@@QAE@XZ 100252b2 f i libucrt:output.obj
 0001:000242bc       ??1?$format_validation_base@_WV?$stream_output_adapter@_W@__crt_stdio_output@@@__crt_stdio_output@@QAE@XZ 100252bc f i libucrt:output.obj
 0001:000242c6       ??1?$format_validation_base@_WV?$string_output_adapter@_W@__crt_stdio_output@@@__crt_stdio_output@@QAE@XZ 100252c6 f i libucrt:output.obj
 0001:000242d0       ??1?$output_adapter_data@DV?$stream_output_adapter@D@__crt_stdio_output@@@__crt_stdio_output@@QAE@XZ 100252d0 f i libucrt:output.obj
 0001:000242da       ??1?$output_adapter_data@DV?$string_output_adapter@D@__crt_stdio_output@@@__crt_stdio_output@@QAE@XZ 100252da f i libucrt:output.obj
 0001:000242e4       ??1?$output_adapter_data@_WV?$stream_output_adapter@_W@__crt_stdio_output@@@__crt_stdio_output@@QAE@XZ 100252e4 f i libucrt:output.obj
 0001:000242ee       ??1?$output_adapter_data@_WV?$string_output_adapter@_W@__crt_stdio_output@@@__crt_stdio_output@@QAE@XZ 100252ee f i libucrt:output.obj
 0001:000242f8       ??1?$output_processor@DV?$stream_output_adapter@D@__crt_stdio_output@@V?$format_validation_base@DV?$stream_output_adapter@D@__crt_stdio_output@@@2@@__crt_stdio_output@@QAE@XZ 100252f8 f i libucrt:output.obj
 0001:00024302       ??1?$output_processor@DV?$stream_output_adapter@D@__crt_stdio_output@@V?$positional_parameter_base@DV?$stream_output_adapter@D@__crt_stdio_output@@@2@@__crt_stdio_output@@QAE@XZ 10025302 f i libucrt:output.obj
 0001:0002430c       ??1?$output_processor@DV?$stream_output_adapter@D@__crt_stdio_output@@V?$standard_base@DV?$stream_output_adapter@D@__crt_stdio_output@@@2@@__crt_stdio_output@@QAE@XZ 1002530c f i libucrt:output.obj
 0001:00024316       ??1?$output_processor@DV?$string_output_adapter@D@__crt_stdio_output@@V?$format_validation_base@DV?$string_output_adapter@D@__crt_stdio_output@@@2@@__crt_stdio_output@@QAE@XZ 10025316 f i libucrt:output.obj
 0001:00024320       ??1?$output_processor@DV?$string_output_adapter@D@__crt_stdio_output@@V?$positional_parameter_base@DV?$string_output_adapter@D@__crt_stdio_output@@@2@@__crt_stdio_output@@QAE@XZ 10025320 f i libucrt:output.obj
 0001:0002432a       ??1?$output_processor@DV?$string_output_adapter@D@__crt_stdio_output@@V?$standard_base@DV?$string_output_adapter@D@__crt_stdio_output@@@2@@__crt_stdio_output@@QAE@XZ 1002532a f i libucrt:output.obj
 0001:00024334       ??1?$output_processor@_WV?$stream_output_adapter@_W@__crt_stdio_output@@V?$format_validation_base@_WV?$stream_output_adapter@_W@__crt_stdio_output@@@2@@__crt_stdio_output@@QAE@XZ 10025334 f i libucrt:output.obj
 0001:0002433e       ??1?$output_processor@_WV?$stream_output_adapter@_W@__crt_stdio_output@@V?$positional_parameter_base@_WV?$stream_output_adapter@_W@__crt_stdio_output@@@2@@__crt_stdio_output@@QAE@XZ 1002533e f i libucrt:output.obj
 0001:00024348       ??1?$output_processor@_WV?$stream_output_adapter@_W@__crt_stdio_output@@V?$standard_base@_WV?$stream_output_adapter@_W@__crt_stdio_output@@@2@@__crt_stdio_output@@QAE@XZ 10025348 f i libucrt:output.obj
 0001:00024352       ??1?$output_processor@_WV?$string_output_adapter@_W@__crt_stdio_output@@V?$format_validation_base@_WV?$string_output_adapter@_W@__crt_stdio_output@@@2@@__crt_stdio_output@@QAE@XZ 10025352 f i libucrt:output.obj
 0001:0002435c       ??1?$output_processor@_WV?$string_output_adapter@_W@__crt_stdio_output@@V?$positional_parameter_base@_WV?$string_output_adapter@_W@__crt_stdio_output@@@2@@__crt_stdio_output@@QAE@XZ 1002535c f i libucrt:output.obj
 0001:00024366       ??1?$output_processor@_WV?$string_output_adapter@_W@__crt_stdio_output@@V?$standard_base@_WV?$string_output_adapter@_W@__crt_stdio_output@@@2@@__crt_stdio_output@@QAE@XZ 10025366 f i libucrt:output.obj
 0001:00024370       ??1?$positional_parameter_base@DV?$stream_output_adapter@D@__crt_stdio_output@@@__crt_stdio_output@@QAE@XZ 10025370 f i libucrt:output.obj
 0001:0002437a       ??1?$positional_parameter_base@DV?$string_output_adapter@D@__crt_stdio_output@@@__crt_stdio_output@@QAE@XZ 1002537a f i libucrt:output.obj
 0001:00024384       ??1?$positional_parameter_base@_WV?$stream_output_adapter@_W@__crt_stdio_output@@@__crt_stdio_output@@QAE@XZ 10025384 f i libucrt:output.obj
 0001:0002438e       ??1?$positional_parameter_base@_WV?$string_output_adapter@_W@__crt_stdio_output@@@__crt_stdio_output@@QAE@XZ 1002538e f i libucrt:output.obj
 0001:00024398       ??1?$standard_base@DV?$stream_output_adapter@D@__crt_stdio_output@@@__crt_stdio_output@@QAE@XZ 10025398 f i libucrt:output.obj
 0001:000243a2       ??1?$standard_base@DV?$string_output_adapter@D@__crt_stdio_output@@@__crt_stdio_output@@QAE@XZ 100253a2 f i libucrt:output.obj
 0001:000243ac       ??1?$standard_base@_WV?$stream_output_adapter@_W@__crt_stdio_output@@@__crt_stdio_output@@QAE@XZ 100253ac f i libucrt:output.obj
 0001:000243b6       ??1?$standard_base@_WV?$string_output_adapter@_W@__crt_stdio_output@@@__crt_stdio_output@@QAE@XZ 100253b6 f i libucrt:output.obj
 0001:000243c0       ??1_LocaleUpdate@@QAE@XZ   100253c0 f i libucrt:output.obj
 0001:000243d4       ??1__acrt_stdio_temporary_buffering_guard@@QAE@XZ 100253d4 f i libucrt:output.obj
 0001:000243e6       ??1__crt_errno_guard@@QAE@XZ 100253e6 f i libucrt:output.obj
 0001:000243fb       ??1formatting_buffer@__crt_stdio_output@@QAE@XZ 100253fb f i libucrt:output.obj
 0001:0002441b       ??4?$__crt_unique_heap_ptr@DU__crt_internal_free_policy@@@@QAEAAV0@$$QAV0@@Z 1002541b f i libucrt:output.obj
 0001:00024afe       ?GetLocaleT@_LocaleUpdate@@QAEPAU__crt_locale_pointers@@XZ 10025afe f i libucrt:output.obj
 0001:00024b02       ?__crt_interlocked_read_32@@YAHPDH@Z 10025b02 f i libucrt:output.obj
 0001:00024b11       ?adjust_hexit@?$output_processor@DV?$stream_output_adapter@D@__crt_stdio_output@@V?$format_validation_base@DV?$stream_output_adapter@D@__crt_stdio_output@@@2@@__crt_stdio_output@@CADH_N@Z 10025b11 f i libucrt:output.obj
 0001:00024b36       ?adjust_hexit@?$output_processor@DV?$stream_output_adapter@D@__crt_stdio_output@@V?$positional_parameter_base@DV?$stream_output_adapter@D@__crt_stdio_output@@@2@@__crt_stdio_output@@CADH_N@Z 10025b36 f i libucrt:output.obj
 0001:00024b5b       ?adjust_hexit@?$output_processor@DV?$stream_output_adapter@D@__crt_stdio_output@@V?$standard_base@DV?$stream_output_adapter@D@__crt_stdio_output@@@2@@__crt_stdio_output@@CADH_N@Z 10025b5b f i libucrt:output.obj
 0001:00024b80       ?adjust_hexit@?$output_processor@DV?$string_output_adapter@D@__crt_stdio_output@@V?$format_validation_base@DV?$string_output_adapter@D@__crt_stdio_output@@@2@@__crt_stdio_output@@CADH_N@Z 10025b80 f i libucrt:output.obj
 0001:00024ba5       ?adjust_hexit@?$output_processor@DV?$string_output_adapter@D@__crt_stdio_output@@V?$positional_parameter_base@DV?$string_output_adapter@D@__crt_stdio_output@@@2@@__crt_stdio_output@@CADH_N@Z 10025ba5 f i libucrt:output.obj
 0001:00024bca       ?adjust_hexit@?$output_processor@DV?$string_output_adapter@D@__crt_stdio_output@@V?$standard_base@DV?$string_output_adapter@D@__crt_stdio_output@@@2@@__crt_stdio_output@@CADH_N@Z 10025bca f i libucrt:output.obj
 0001:00024bef       ?adjust_hexit@?$output_processor@_WV?$stream_output_adapter@_W@__crt_stdio_output@@V?$format_validation_base@_WV?$stream_output_adapter@_W@__crt_stdio_output@@@2@@__crt_stdio_output@@CADH_N@Z 10025bef f i libucrt:output.obj
 0001:00024c14       ?adjust_hexit@?$output_processor@_WV?$stream_output_adapter@_W@__crt_stdio_output@@V?$positional_parameter_base@_WV?$stream_output_adapter@_W@__crt_stdio_output@@@2@@__crt_stdio_output@@CADH_N@Z 10025c14 f i libucrt:output.obj
 0001:00024c39       ?adjust_hexit@?$output_processor@_WV?$stream_output_adapter@_W@__crt_stdio_output@@V?$standard_base@_WV?$stream_output_adapter@_W@__crt_stdio_output@@@2@@__crt_stdio_output@@CADH_N@Z 10025c39 f i libucrt:output.obj
 0001:00024c5e       ?adjust_hexit@?$output_processor@_WV?$string_output_adapter@_W@__crt_stdio_output@@V?$format_validation_base@_WV?$string_output_adapter@_W@__crt_stdio_output@@@2@@__crt_stdio_output@@CADH_N@Z 10025c5e f i libucrt:output.obj
 0001:00024c83       ?adjust_hexit@?$output_processor@_WV?$string_output_adapter@_W@__crt_stdio_output@@V?$positional_parameter_base@_WV?$string_output_adapter@_W@__crt_stdio_output@@@2@@__crt_stdio_output@@CADH_N@Z 10025c83 f i libucrt:output.obj
 0001:00024ca8       ?adjust_hexit@?$output_processor@_WV?$string_output_adapter@_W@__crt_stdio_output@@V?$standard_base@_WV?$string_output_adapter@_W@__crt_stdio_output@@@2@@__crt_stdio_output@@CADH_N@Z 10025ca8 f i libucrt:output.obj
 0001:00024ccd       ?advance_to_next_pass@?$positional_parameter_base@DV?$stream_output_adapter@D@__crt_stdio_output@@@__crt_stdio_output@@IAE_NXZ 10025ccd f i libucrt:output.obj
 0001:00024d2c       ?advance_to_next_pass@?$positional_parameter_base@DV?$string_output_adapter@D@__crt_stdio_output@@@__crt_stdio_output@@IAE_NXZ 10025d2c f i libucrt:output.obj
 0001:00024d8b       ?advance_to_next_pass@?$positional_parameter_base@_WV?$stream_output_adapter@_W@__crt_stdio_output@@@__crt_stdio_output@@IAE_NXZ 10025d8b f i libucrt:output.obj
 0001:00024dea       ?advance_to_next_pass@?$positional_parameter_base@_WV?$string_output_adapter@_W@__crt_stdio_output@@@__crt_stdio_output@@IAE_NXZ 10025dea f i libucrt:output.obj
 0001:00024e49       ?advance_to_next_pass@?$standard_base@DV?$stream_output_adapter@D@__crt_stdio_output@@@__crt_stdio_output@@IAE_NXZ 10025e49 f i libucrt:output.obj
 0001:00024e60       ?advance_to_next_pass@?$standard_base@DV?$string_output_adapter@D@__crt_stdio_output@@@__crt_stdio_output@@IAE_NXZ 10025e60 f i libucrt:output.obj
 0001:00024e77       ?advance_to_next_pass@?$standard_base@_WV?$stream_output_adapter@_W@__crt_stdio_output@@@__crt_stdio_output@@IAE_NXZ 10025e77 f i libucrt:output.obj
 0001:00024e8e       ?advance_to_next_pass@?$standard_base@_WV?$string_output_adapter@_W@__crt_stdio_output@@@__crt_stdio_output@@IAE_NXZ 10025e8e f i libucrt:output.obj
 0001:00024ea5       ?crop_zeroes@__crt_stdio_output@@YAXPADQAU__crt_locale_pointers@@@Z 10025ea5 f i libucrt:output.obj
 0001:00024f11       ?find_next_state@?$output_processor@DV?$stream_output_adapter@D@__crt_stdio_output@@V?$format_validation_base@DV?$stream_output_adapter@D@__crt_stdio_output@@@2@@__crt_stdio_output@@ABE?AW4state@2@DW432@@Z 10025f11 f i libucrt:output.obj
 0001:00024f53       ?find_next_state@?$output_processor@DV?$stream_output_adapter@D@__crt_stdio_output@@V?$positional_parameter_base@DV?$stream_output_adapter@D@__crt_stdio_output@@@2@@__crt_stdio_output@@ABE?AW4state@2@DW432@@Z 10025f53 f i libucrt:output.obj
 0001:00024f95       ?find_next_state@?$output_processor@DV?$stream_output_adapter@D@__crt_stdio_output@@V?$standard_base@DV?$stream_output_adapter@D@__crt_stdio_output@@@2@@__crt_stdio_output@@ABE?AW4state@2@DW432@@Z 10025f95 f i libucrt:output.obj
 0001:00024fd3       ?find_next_state@?$output_processor@DV?$string_output_adapter@D@__crt_stdio_output@@V?$format_validation_base@DV?$string_output_adapter@D@__crt_stdio_output@@@2@@__crt_stdio_output@@ABE?AW4state@2@DW432@@Z 10025fd3 f i libucrt:output.obj
 0001:00025015       ?find_next_state@?$output_processor@DV?$string_output_adapter@D@__crt_stdio_output@@V?$positional_parameter_base@DV?$string_output_adapter@D@__crt_stdio_output@@@2@@__crt_stdio_output@@ABE?AW4state@2@DW432@@Z 10026015 f i libucrt:output.obj
 0001:00025057       ?find_next_state@?$output_processor@DV?$string_output_adapter@D@__crt_stdio_output@@V?$standard_base@DV?$string_output_adapter@D@__crt_stdio_output@@@2@@__crt_stdio_output@@ABE?AW4state@2@DW432@@Z 10026057 f i libucrt:output.obj
 0001:00025095       ?find_next_state@?$output_processor@_WV?$stream_output_adapter@_W@__crt_stdio_output@@V?$format_validation_base@_WV?$stream_output_adapter@_W@__crt_stdio_output@@@2@@__crt_stdio_output@@ABE?AW4state@2@_WW432@@Z 10026095 f i libucrt:output.obj
 0001:000250d9       ?find_next_state@?$output_processor@_WV?$stream_output_adapter@_W@__crt_stdio_output@@V?$positional_parameter_base@_WV?$stream_output_adapter@_W@__crt_stdio_output@@@2@@__crt_stdio_output@@ABE?AW4state@2@_WW432@@Z 100260d9 f i libucrt:output.obj
 0001:0002511d       ?find_next_state@?$output_processor@_WV?$stream_output_adapter@_W@__crt_stdio_output@@V?$standard_base@_WV?$stream_output_adapter@_W@__crt_stdio_output@@@2@@__crt_stdio_output@@ABE?AW4state@2@_WW432@@Z 1002611d f i libucrt:output.obj
 0001:0002515e       ?find_next_state@?$output_processor@_WV?$string_output_adapter@_W@__crt_stdio_output@@V?$format_validation_base@_WV?$string_output_adapter@_W@__crt_stdio_output@@@2@@__crt_stdio_output@@ABE?AW4state@2@_WW432@@Z 1002615e f i libucrt:output.obj
 0001:000251a2       ?find_next_state@?$output_processor@_WV?$string_output_adapter@_W@__crt_stdio_output@@V?$positional_parameter_base@_WV?$string_output_adapter@_W@__crt_stdio_output@@@2@@__crt_stdio_output@@ABE?AW4state@2@_WW432@@Z 100261a2 f i libucrt:output.obj
 0001:000251e6       ?find_next_state@?$output_processor@_WV?$string_output_adapter@_W@__crt_stdio_output@@V?$standard_base@_WV?$string_output_adapter@_W@__crt_stdio_output@@@2@@__crt_stdio_output@@ABE?AW4state@2@_WW432@@Z 100261e6 f i libucrt:output.obj
 0001:00025227       ?force_decimal_point@__crt_stdio_output@@YAXPADQAU__crt_locale_pointers@@@Z 10026227 f i libucrt:output.obj
 0001:0002529a       ?get_flags@__crt_stdio_stream@@QBEJXZ 1002629a f i libucrt:output.obj
 0001:000252a0       ?get_parameter_type@?$positional_parameter_base@DV?$stream_output_adapter@D@__crt_stdio_output@@@__crt_stdio_output@@CA?AW4parameter_type@12@F@Z 100262a0 f i libucrt:output.obj
 0001:000252a4       ?get_parameter_type@?$positional_parameter_base@DV?$stream_output_adapter@D@__crt_stdio_output@@@__crt_stdio_output@@CA?AW4parameter_type@12@G@Z 100262a4 f i libucrt:output.obj
 0001:000252a8       ?get_parameter_type@?$positional_parameter_base@DV?$stream_output_adapter@D@__crt_stdio_output@@@__crt_stdio_output@@CA?AW4parameter_type@12@H@Z 100262a8 f i libucrt:output.obj
 0001:000252ac       ?get_parameter_type@?$positional_parameter_base@DV?$stream_output_adapter@D@__crt_stdio_output@@@__crt_stdio_output@@CA?AW4parameter_type@12@I@Z 100262ac f i libucrt:output.obj
 0001:000252b0       ?get_parameter_type@?$positional_parameter_base@DV?$stream_output_adapter@D@__crt_stdio_output@@@__crt_stdio_output@@CA?AW4parameter_type@12@U_CRT_DOUBLE@@@Z 100262b0 f i libucrt:output.obj
 0001:000252b4       ?get_parameter_type@?$positional_parameter_base@DV?$stream_output_adapter@D@__crt_stdio_output@@@__crt_stdio_output@@CA?AW4parameter_type@12@_J@Z 100262b4 f i libucrt:output.obj
 0001:000252b8       ?get_parameter_type@?$positional_parameter_base@DV?$stream_output_adapter@D@__crt_stdio_output@@@__crt_stdio_output@@CA?AW4parameter_type@12@_K@Z 100262b8 f i libucrt:output.obj
 0001:000252bc       ?get_parameter_type@?$positional_parameter_base@DV?$stream_output_adapter@D@__crt_stdio_output@@@__crt_stdio_output@@CA?AW4parameter_type@12@_W@Z 100262bc f i libucrt:output.obj
 0001:000252c0       ?get_parameter_type@?$positional_parameter_base@DV?$string_output_adapter@D@__crt_stdio_output@@@__crt_stdio_output@@CA?AW4parameter_type@12@F@Z 100262c0 f i libucrt:output.obj
 0001:000252c4       ?get_parameter_type@?$positional_parameter_base@DV?$string_output_adapter@D@__crt_stdio_output@@@__crt_stdio_output@@CA?AW4parameter_type@12@G@Z 100262c4 f i libucrt:output.obj
 0001:000252c8       ?get_parameter_type@?$positional_parameter_base@DV?$string_output_adapter@D@__crt_stdio_output@@@__crt_stdio_output@@CA?AW4parameter_type@12@H@Z 100262c8 f i libucrt:output.obj
 0001:000252cc       ?get_parameter_type@?$positional_parameter_base@DV?$string_output_adapter@D@__crt_stdio_output@@@__crt_stdio_output@@CA?AW4parameter_type@12@I@Z 100262cc f i libucrt:output.obj
 0001:000252d0       ?get_parameter_type@?$positional_parameter_base@DV?$string_output_adapter@D@__crt_stdio_output@@@__crt_stdio_output@@CA?AW4parameter_type@12@U_CRT_DOUBLE@@@Z 100262d0 f i libucrt:output.obj
 0001:000252d4       ?get_parameter_type@?$positional_parameter_base@DV?$string_output_adapter@D@__crt_stdio_output@@@__crt_stdio_output@@CA?AW4parameter_type@12@_J@Z 100262d4 f i libucrt:output.obj
 0001:000252d8       ?get_parameter_type@?$positional_parameter_base@DV?$string_output_adapter@D@__crt_stdio_output@@@__crt_stdio_output@@CA?AW4parameter_type@12@_K@Z 100262d8 f i libucrt:output.obj
 0001:000252dc       ?get_parameter_type@?$positional_parameter_base@DV?$string_output_adapter@D@__crt_stdio_output@@@__crt_stdio_output@@CA?AW4parameter_type@12@_W@Z 100262dc f i libucrt:output.obj
 0001:000252e0       ?get_parameter_type@?$positional_parameter_base@_WV?$stream_output_adapter@_W@__crt_stdio_output@@@__crt_stdio_output@@CA?AW4parameter_type@12@F@Z 100262e0 f i libucrt:output.obj
 0001:000252e4       ?get_parameter_type@?$positional_parameter_base@_WV?$stream_output_adapter@_W@__crt_stdio_output@@@__crt_stdio_output@@CA?AW4parameter_type@12@G@Z 100262e4 f i libucrt:output.obj
 0001:000252e8       ?get_parameter_type@?$positional_parameter_base@_WV?$stream_output_adapter@_W@__crt_stdio_output@@@__crt_stdio_output@@CA?AW4parameter_type@12@H@Z 100262e8 f i libucrt:output.obj
 0001:000252ec       ?get_parameter_type@?$positional_parameter_base@_WV?$stream_output_adapter@_W@__crt_stdio_output@@@__crt_stdio_output@@CA?AW4parameter_type@12@I@Z 100262ec f i libucrt:output.obj
 0001:000252f0       ?get_parameter_type@?$positional_parameter_base@_WV?$stream_output_adapter@_W@__crt_stdio_output@@@__crt_stdio_output@@CA?AW4parameter_type@12@U_CRT_DOUBLE@@@Z 100262f0 f i libucrt:output.obj
 0001:000252f4       ?get_parameter_type@?$positional_parameter_base@_WV?$stream_output_adapter@_W@__crt_stdio_output@@@__crt_stdio_output@@CA?AW4parameter_type@12@_J@Z 100262f4 f i libucrt:output.obj
 0001:000252f8       ?get_parameter_type@?$positional_parameter_base@_WV?$stream_output_adapter@_W@__crt_stdio_output@@@__crt_stdio_output@@CA?AW4parameter_type@12@_K@Z 100262f8 f i libucrt:output.obj
 0001:000252fc       ?get_parameter_type@?$positional_parameter_base@_WV?$stream_output_adapter@_W@__crt_stdio_output@@@__crt_stdio_output@@CA?AW4parameter_type@12@_W@Z 100262fc f i libucrt:output.obj
 0001:00025300       ?get_parameter_type@?$positional_parameter_base@_WV?$string_output_adapter@_W@__crt_stdio_output@@@__crt_stdio_output@@CA?AW4parameter_type@12@F@Z 10026300 f i libucrt:output.obj
 0001:00025304       ?get_parameter_type@?$positional_parameter_base@_WV?$string_output_adapter@_W@__crt_stdio_output@@@__crt_stdio_output@@CA?AW4parameter_type@12@G@Z 10026304 f i libucrt:output.obj
 0001:00025308       ?get_parameter_type@?$positional_parameter_base@_WV?$string_output_adapter@_W@__crt_stdio_output@@@__crt_stdio_output@@CA?AW4parameter_type@12@H@Z 10026308 f i libucrt:output.obj
 0001:0002530c       ?get_parameter_type@?$positional_parameter_base@_WV?$string_output_adapter@_W@__crt_stdio_output@@@__crt_stdio_output@@CA?AW4parameter_type@12@I@Z 1002630c f i libucrt:output.obj
 0001:00025310       ?get_parameter_type@?$positional_parameter_base@_WV?$string_output_adapter@_W@__crt_stdio_output@@@__crt_stdio_output@@CA?AW4parameter_type@12@U_CRT_DOUBLE@@@Z 10026310 f i libucrt:output.obj
 0001:00025314       ?get_parameter_type@?$positional_parameter_base@_WV?$string_output_adapter@_W@__crt_stdio_output@@@__crt_stdio_output@@CA?AW4parameter_type@12@_J@Z 10026314 f i libucrt:output.obj
 0001:00025318       ?get_parameter_type@?$positional_parameter_base@_WV?$string_output_adapter@_W@__crt_stdio_output@@@__crt_stdio_output@@CA?AW4parameter_type@12@_K@Z 10026318 f i libucrt:output.obj
 0001:0002531c       ?get_parameter_type@?$positional_parameter_base@_WV?$string_output_adapter@_W@__crt_stdio_output@@@__crt_stdio_output@@CA?AW4parameter_type@12@_W@Z 1002631c f i libucrt:output.obj
 0001:00025320       ?has_flag@?$output_processor@DV?$stream_output_adapter@D@__crt_stdio_output@@V?$format_validation_base@DV?$stream_output_adapter@D@__crt_stdio_output@@@2@@__crt_stdio_output@@ABE_NI@Z 10026320 f i libucrt:output.obj
 0001:0002533a       ?has_flag@?$output_processor@DV?$stream_output_adapter@D@__crt_stdio_output@@V?$positional_parameter_base@DV?$stream_output_adapter@D@__crt_stdio_output@@@2@@__crt_stdio_output@@ABE_NI@Z 1002633a f i libucrt:output.obj
 0001:00025354       ?has_flag@?$output_processor@DV?$stream_output_adapter@D@__crt_stdio_output@@V?$standard_base@DV?$stream_output_adapter@D@__crt_stdio_output@@@2@@__crt_stdio_output@@ABE_NI@Z 10026354 f i libucrt:output.obj
 0001:0002536e       ?has_flag@?$output_processor@DV?$string_output_adapter@D@__crt_stdio_output@@V?$format_validation_base@DV?$string_output_adapter@D@__crt_stdio_output@@@2@@__crt_stdio_output@@ABE_NI@Z 1002636e f i libucrt:output.obj
 0001:00025388       ?has_flag@?$output_processor@DV?$string_output_adapter@D@__crt_stdio_output@@V?$positional_parameter_base@DV?$string_output_adapter@D@__crt_stdio_output@@@2@@__crt_stdio_output@@ABE_NI@Z 10026388 f i libucrt:output.obj
 0001:000253a2       ?has_flag@?$output_processor@DV?$string_output_adapter@D@__crt_stdio_output@@V?$standard_base@DV?$string_output_adapter@D@__crt_stdio_output@@@2@@__crt_stdio_output@@ABE_NI@Z 100263a2 f i libucrt:output.obj
 0001:000253bc       ?has_flag@?$output_processor@_WV?$stream_output_adapter@_W@__crt_stdio_output@@V?$format_validation_base@_WV?$stream_output_adapter@_W@__crt_stdio_output@@@2@@__crt_stdio_output@@ABE_NI@Z 100263bc f i libucrt:output.obj
 0001:000253d6       ?has_flag@?$output_processor@_WV?$stream_output_adapter@_W@__crt_stdio_output@@V?$positional_parameter_base@_WV?$stream_output_adapter@_W@__crt_stdio_output@@@2@@__crt_stdio_output@@ABE_NI@Z 100263d6 f i libucrt:output.obj
 0001:000253f0       ?has_flag@?$output_processor@_WV?$stream_output_adapter@_W@__crt_stdio_output@@V?$standard_base@_WV?$stream_output_adapter@_W@__crt_stdio_output@@@2@@__crt_stdio_output@@ABE_NI@Z 100263f0 f i libucrt:output.obj
 0001:0002540a       ?has_flag@?$output_processor@_WV?$string_output_adapter@_W@__crt_stdio_output@@V?$format_validation_base@_WV?$string_output_adapter@_W@__crt_stdio_output@@@2@@__crt_stdio_output@@ABE_NI@Z 1002640a f i libucrt:output.obj
 0001:00025424       ?has_flag@?$output_processor@_WV?$string_output_adapter@_W@__crt_stdio_output@@V?$positional_parameter_base@_WV?$string_output_adapter@_W@__crt_stdio_output@@@2@@__crt_stdio_output@@ABE_NI@Z 10026424 f i libucrt:output.obj
 0001:0002543e       ?has_flag@?$output_processor@_WV?$string_output_adapter@_W@__crt_stdio_output@@V?$standard_base@_WV?$string_output_adapter@_W@__crt_stdio_output@@@2@@__crt_stdio_output@@ABE_NI@Z 1002643e f i libucrt:output.obj
 0001:00025458       ?is_positional_parameter_reappearance_consistent@?$positional_parameter_base@DV?$stream_output_adapter@D@__crt_stdio_output@@@__crt_stdio_output@@AAE_NABUparameter_data@12@W4parameter_type@12@DW4length_modifier@2@@Z 10026458 f i libucrt:output.obj
 0001:000255d1       ?is_positional_parameter_reappearance_consistent@?$positional_parameter_base@DV?$string_output_adapter@D@__crt_stdio_output@@@__crt_stdio_output@@AAE_NABUparameter_data@12@W4parameter_type@12@DW4length_modifier@2@@Z 100265d1 f i libucrt:output.obj
 0001:0002574a       ?is_positional_parameter_reappearance_consistent@?$positional_parameter_base@_WV?$stream_output_adapter@_W@__crt_stdio_output@@@__crt_stdio_output@@AAE_NABUparameter_data@12@W4parameter_type@12@_WW4length_modifier@2@@Z 1002674a f i libucrt:output.obj
 0001:000258b5       ?is_positional_parameter_reappearance_consistent@?$positional_parameter_base@_WV?$string_output_adapter@_W@__crt_stdio_output@@@__crt_stdio_output@@AAE_NABUparameter_data@12@W4parameter_type@12@_WW4length_modifier@2@@Z 100268b5 f i libucrt:output.obj
 0001:00025a20       ?is_string_backed@__crt_stdio_stream@@QBE_NXZ 10026a20 f i libucrt:output.obj
 0001:00025a2f       ?narrow_null_string@?$output_processor@DV?$stream_output_adapter@D@__crt_stdio_output@@V?$format_validation_base@DV?$stream_output_adapter@D@__crt_stdio_output@@@2@@__crt_stdio_output@@CAPADXZ 10026a2f f i libucrt:output.obj
 0001:00025a35       ?narrow_null_string@?$output_processor@DV?$stream_output_adapter@D@__crt_stdio_output@@V?$positional_parameter_base@DV?$stream_output_adapter@D@__crt_stdio_output@@@2@@__crt_stdio_output@@CAPADXZ 10026a35 f i libucrt:output.obj
 0001:00025a3b       ?narrow_null_string@?$output_processor@DV?$stream_output_adapter@D@__crt_stdio_output@@V?$standard_base@DV?$stream_output_adapter@D@__crt_stdio_output@@@2@@__crt_stdio_output@@CAPADXZ 10026a3b f i libucrt:output.obj
 0001:00025a41       ?narrow_null_string@?$output_processor@DV?$string_output_adapter@D@__crt_stdio_output@@V?$format_validation_base@DV?$string_output_adapter@D@__crt_stdio_output@@@2@@__crt_stdio_output@@CAPADXZ 10026a41 f i libucrt:output.obj
 0001:00025a47       ?narrow_null_string@?$output_processor@DV?$string_output_adapter@D@__crt_stdio_output@@V?$positional_parameter_base@DV?$string_output_adapter@D@__crt_stdio_output@@@2@@__crt_stdio_output@@CAPADXZ 10026a47 f i libucrt:output.obj
 0001:00025a4d       ?narrow_null_string@?$output_processor@DV?$string_output_adapter@D@__crt_stdio_output@@V?$standard_base@DV?$string_output_adapter@D@__crt_stdio_output@@@2@@__crt_stdio_output@@CAPADXZ 10026a4d f i libucrt:output.obj
 0001:00025a53       ?narrow_null_string@?$output_processor@_WV?$stream_output_adapter@_W@__crt_stdio_output@@V?$format_validation_base@_WV?$stream_output_adapter@_W@__crt_stdio_output@@@2@@__crt_stdio_output@@CAPADXZ 10026a53 f i libucrt:output.obj
 0001:00025a59       ?narrow_null_string@?$output_processor@_WV?$stream_output_adapter@_W@__crt_stdio_output@@V?$positional_parameter_base@_WV?$stream_output_adapter@_W@__crt_stdio_output@@@2@@__crt_stdio_output@@CAPADXZ 10026a59 f i libucrt:output.obj
 0001:00025a5f       ?narrow_null_string@?$output_processor@_WV?$stream_output_adapter@_W@__crt_stdio_output@@V?$standard_base@_WV?$stream_output_adapter@_W@__crt_stdio_output@@@2@@__crt_stdio_output@@CAPADXZ 10026a5f f i libucrt:output.obj
 0001:00025a65       ?narrow_null_string@?$output_processor@_WV?$string_output_adapter@_W@__crt_stdio_output@@V?$format_validation_base@_WV?$string_output_adapter@_W@__crt_stdio_output@@@2@@__crt_stdio_output@@CAPADXZ 10026a65 f i libucrt:output.obj
 0001:00025a6b       ?narrow_null_string@?$output_processor@_WV?$string_output_adapter@_W@__crt_stdio_output@@V?$positional_parameter_base@_WV?$string_output_adapter@_W@__crt_stdio_output@@@2@@__crt_stdio_output@@CAPADXZ 10026a6b f i libucrt:output.obj
 0001:00025a71       ?narrow_null_string@?$output_processor@_WV?$string_output_adapter@_W@__crt_stdio_output@@V?$standard_base@_WV?$string_output_adapter@_W@__crt_stdio_output@@@2@@__crt_stdio_output@@CAPADXZ 10026a71 f i libucrt:output.obj
 0001:00025a77       ?parse_int_from_format_string@?$output_processor@DV?$stream_output_adapter@D@__crt_stdio_output@@V?$format_validation_base@DV?$stream_output_adapter@D@__crt_stdio_output@@@2@@__crt_stdio_output@@AAE_NQAH@Z 10026a77 f i libucrt:output.obj
 0001:00025aea       ?parse_int_from_format_string@?$output_processor@DV?$stream_output_adapter@D@__crt_stdio_output@@V?$positional_parameter_base@DV?$stream_output_adapter@D@__crt_stdio_output@@@2@@__crt_stdio_output@@AAE_NQAH@Z 10026aea f i libucrt:output.obj
 0001:00025b5d       ?parse_int_from_format_string@?$output_processor@DV?$stream_output_adapter@D@__crt_stdio_output@@V?$standard_base@DV?$stream_output_adapter@D@__crt_stdio_output@@@2@@__crt_stdio_output@@AAE_NQAH@Z 10026b5d f i libucrt:output.obj
 0001:00025bd0       ?parse_int_from_format_string@?$output_processor@DV?$string_output_adapter@D@__crt_stdio_output@@V?$format_validation_base@DV?$string_output_adapter@D@__crt_stdio_output@@@2@@__crt_stdio_output@@AAE_NQAH@Z 10026bd0 f i libucrt:output.obj
 0001:00025c43       ?parse_int_from_format_string@?$output_processor@DV?$string_output_adapter@D@__crt_stdio_output@@V?$positional_parameter_base@DV?$string_output_adapter@D@__crt_stdio_output@@@2@@__crt_stdio_output@@AAE_NQAH@Z 10026c43 f i libucrt:output.obj
 0001:00025cb6       ?parse_int_from_format_string@?$output_processor@DV?$string_output_adapter@D@__crt_stdio_output@@V?$standard_base@DV?$string_output_adapter@D@__crt_stdio_output@@@2@@__crt_stdio_output@@AAE_NQAH@Z 10026cb6 f i libucrt:output.obj
 0001:00025d29       ?parse_int_from_format_string@?$output_processor@_WV?$stream_output_adapter@_W@__crt_stdio_output@@V?$format_validation_base@_WV?$stream_output_adapter@_W@__crt_stdio_output@@@2@@__crt_stdio_output@@AAE_NQAH@Z 10026d29 f i libucrt:output.obj
 0001:00025d9e       ?parse_int_from_format_string@?$output_processor@_WV?$stream_output_adapter@_W@__crt_stdio_output@@V?$positional_parameter_base@_WV?$stream_output_adapter@_W@__crt_stdio_output@@@2@@__crt_stdio_output@@AAE_NQAH@Z 10026d9e f i libucrt:output.obj
 0001:00025e13       ?parse_int_from_format_string@?$output_processor@_WV?$stream_output_adapter@_W@__crt_stdio_output@@V?$standard_base@_WV?$stream_output_adapter@_W@__crt_stdio_output@@@2@@__crt_stdio_output@@AAE_NQAH@Z 10026e13 f i libucrt:output.obj
 0001:00025e88       ?parse_int_from_format_string@?$output_processor@_WV?$string_output_adapter@_W@__crt_stdio_output@@V?$format_validation_base@_WV?$string_output_adapter@_W@__crt_stdio_output@@@2@@__crt_stdio_output@@AAE_NQAH@Z 10026e88 f i libucrt:output.obj
 0001:00025efd       ?parse_int_from_format_string@?$output_processor@_WV?$string_output_adapter@_W@__crt_stdio_output@@V?$positional_parameter_base@_WV?$string_output_adapter@_W@__crt_stdio_output@@@2@@__crt_stdio_output@@AAE_NQAH@Z 10026efd f i libucrt:output.obj
 0001:00025f72       ?parse_int_from_format_string@?$output_processor@_WV?$string_output_adapter@_W@__crt_stdio_output@@V?$standard_base@_WV?$string_output_adapter@_W@__crt_stdio_output@@@2@@__crt_stdio_output@@AAE_NQAH@Z 10026f72 f i libucrt:output.obj
 0001:00025fe7       ?process@?$output_processor@DV?$stream_output_adapter@D@__crt_stdio_output@@V?$format_validation_base@DV?$stream_output_adapter@D@__crt_stdio_output@@@2@@__crt_stdio_output@@QAEHXZ 10026fe7 f i libucrt:output.obj
 0001:00026159       ?process@?$output_processor@DV?$stream_output_adapter@D@__crt_stdio_output@@V?$positional_parameter_base@DV?$stream_output_adapter@D@__crt_stdio_output@@@2@@__crt_stdio_output@@QAEHXZ 10027159 f i libucrt:output.obj
 0001:0002630c       ?process@?$output_processor@DV?$stream_output_adapter@D@__crt_stdio_output@@V?$standard_base@DV?$stream_output_adapter@D@__crt_stdio_output@@@2@@__crt_stdio_output@@QAEHXZ 1002730c f i libucrt:output.obj
 0001:0002646f       ?process@?$output_processor@DV?$string_output_adapter@D@__crt_stdio_output@@V?$format_validation_base@DV?$string_output_adapter@D@__crt_stdio_output@@@2@@__crt_stdio_output@@QAEHXZ 1002746f f i libucrt:output.obj
 0001:000265e1       ?process@?$output_processor@DV?$string_output_adapter@D@__crt_stdio_output@@V?$positional_parameter_base@DV?$string_output_adapter@D@__crt_stdio_output@@@2@@__crt_stdio_output@@QAEHXZ 100275e1 f i libucrt:output.obj
 0001:00026794       ?process@?$output_processor@DV?$string_output_adapter@D@__crt_stdio_output@@V?$standard_base@DV?$string_output_adapter@D@__crt_stdio_output@@@2@@__crt_stdio_output@@QAEHXZ 10027794 f i libucrt:output.obj
 0001:000268f7       ?process@?$output_processor@_WV?$stream_output_adapter@_W@__crt_stdio_output@@V?$format_validation_base@_WV?$stream_output_adapter@_W@__crt_stdio_output@@@2@@__crt_stdio_output@@QAEHXZ 100278f7 f i libucrt:output.obj
 0001:00026a73       ?process@?$output_processor@_WV?$stream_output_adapter@_W@__crt_stdio_output@@V?$positional_parameter_base@_WV?$stream_output_adapter@_W@__crt_stdio_output@@@2@@__crt_stdio_output@@QAEHXZ 10027a73 f i libucrt:output.obj
 0001:00026c2b       ?process@?$output_processor@_WV?$stream_output_adapter@_W@__crt_stdio_output@@V?$standard_base@_WV?$stream_output_adapter@_W@__crt_stdio_output@@@2@@__crt_stdio_output@@QAEHXZ 10027c2b f i libucrt:output.obj
 0001:00026d93       ?process@?$output_processor@_WV?$string_output_adapter@_W@__crt_stdio_output@@V?$format_validation_base@_WV?$string_output_adapter@_W@__crt_stdio_output@@@2@@__crt_stdio_output@@QAEHXZ 10027d93 f i libucrt:output.obj
 0001:00026f0f       ?process@?$output_processor@_WV?$string_output_adapter@_W@__crt_stdio_output@@V?$positional_parameter_base@_WV?$string_output_adapter@_W@__crt_stdio_output@@@2@@__crt_stdio_output@@QAEHXZ 10027f0f f i libucrt:output.obj
 0001:000270c7       ?process@?$output_processor@_WV?$string_output_adapter@_W@__crt_stdio_output@@V?$standard_base@_WV?$string_output_adapter@_W@__crt_stdio_output@@@2@@__crt_stdio_output@@QAEHXZ 100280c7 f i libucrt:output.obj
 0001:0002722f       ?public_stream@__crt_stdio_stream@@QBEPAU_iobuf@@XZ 1002822f f i libucrt:output.obj
 0001:00027232       ?set_flag@?$output_processor@DV?$stream_output_adapter@D@__crt_stdio_output@@V?$format_validation_base@DV?$stream_output_adapter@D@__crt_stdio_output@@@2@@__crt_stdio_output@@AAEXI@Z 10028232 f i libucrt:output.obj
 0001:00027244       ?set_flag@?$output_processor@DV?$stream_output_adapter@D@__crt_stdio_output@@V?$positional_parameter_base@DV?$stream_output_adapter@D@__crt_stdio_output@@@2@@__crt_stdio_output@@AAEXI@Z 10028244 f i libucrt:output.obj
 0001:00027256       ?set_flag@?$output_processor@DV?$stream_output_adapter@D@__crt_stdio_output@@V?$standard_base@DV?$stream_output_adapter@D@__crt_stdio_output@@@2@@__crt_stdio_output@@AAEXI@Z 10028256 f i libucrt:output.obj
 0001:00027268       ?set_flag@?$output_processor@DV?$string_output_adapter@D@__crt_stdio_output@@V?$format_validation_base@DV?$string_output_adapter@D@__crt_stdio_output@@@2@@__crt_stdio_output@@AAEXI@Z 10028268 f i libucrt:output.obj
 0001:0002727a       ?set_flag@?$output_processor@DV?$string_output_adapter@D@__crt_stdio_output@@V?$positional_parameter_base@DV?$string_output_adapter@D@__crt_stdio_output@@@2@@__crt_stdio_output@@AAEXI@Z 1002827a f i libucrt:output.obj
 0001:0002728c       ?set_flag@?$output_processor@DV?$string_output_adapter@D@__crt_stdio_output@@V?$standard_base@DV?$string_output_adapter@D@__crt_stdio_output@@@2@@__crt_stdio_output@@AAEXI@Z 1002828c f i libucrt:output.obj
 0001:0002729e       ?set_flag@?$output_processor@_WV?$stream_output_adapter@_W@__crt_stdio_output@@V?$format_validation_base@_WV?$stream_output_adapter@_W@__crt_stdio_output@@@2@@__crt_stdio_output@@AAEXI@Z 1002829e f i libucrt:output.obj
 0001:000272b0       ?set_flag@?$output_processor@_WV?$stream_output_adapter@_W@__crt_stdio_output@@V?$positional_parameter_base@_WV?$stream_output_adapter@_W@__crt_stdio_output@@@2@@__crt_stdio_output@@AAEXI@Z 100282b0 f i libucrt:output.obj
 0001:000272c2       ?set_flag@?$output_processor@_WV?$stream_output_adapter@_W@__crt_stdio_output@@V?$standard_base@_WV?$stream_output_adapter@_W@__crt_stdio_output@@@2@@__crt_stdio_output@@AAEXI@Z 100282c2 f i libucrt:output.obj
 0001:000272d4       ?set_flag@?$output_processor@_WV?$string_output_adapter@_W@__crt_stdio_output@@V?$format_validation_base@_WV?$string_output_adapter@_W@__crt_stdio_output@@@2@@__crt_stdio_output@@AAEXI@Z 100282d4 f i libucrt:output.obj
 0001:000272e6       ?set_flag@?$output_processor@_WV?$string_output_adapter@_W@__crt_stdio_output@@V?$positional_parameter_base@_WV?$string_output_adapter@_W@__crt_stdio_output@@@2@@__crt_stdio_output@@AAEXI@Z 100282e6 f i libucrt:output.obj
 0001:000272f8       ?set_flag@?$output_processor@_WV?$string_output_adapter@_W@__crt_stdio_output@@V?$standard_base@_WV?$string_output_adapter@_W@__crt_stdio_output@@@2@@__crt_stdio_output@@AAEXI@Z 100282f8 f i libucrt:output.obj
 0001:0002730a       ?should_format@?$positional_parameter_base@DV?$stream_output_adapter@D@__crt_stdio_output@@@__crt_stdio_output@@IAE_NXZ 1002830a f i libucrt:output.obj
 0001:00027325       ?should_format@?$positional_parameter_base@DV?$string_output_adapter@D@__crt_stdio_output@@@__crt_stdio_output@@IAE_NXZ 10028325 f i libucrt:output.obj
 0001:00027340       ?should_format@?$positional_parameter_base@_WV?$stream_output_adapter@_W@__crt_stdio_output@@@__crt_stdio_output@@IAE_NXZ 10028340 f i libucrt:output.obj
 0001:0002735b       ?should_format@?$positional_parameter_base@_WV?$string_output_adapter@_W@__crt_stdio_output@@@__crt_stdio_output@@IAE_NXZ 1002835b f i libucrt:output.obj
 0001:00027376       ?should_format@?$standard_base@DV?$stream_output_adapter@D@__crt_stdio_output@@@__crt_stdio_output@@IAE_NXZ 10028376 f i libucrt:output.obj
 0001:00027379       ?should_format@?$standard_base@DV?$string_output_adapter@D@__crt_stdio_output@@@__crt_stdio_output@@IAE_NXZ 10028379 f i libucrt:output.obj
 0001:0002737c       ?should_format@?$standard_base@_WV?$stream_output_adapter@_W@__crt_stdio_output@@@__crt_stdio_output@@IAE_NXZ 1002837c f i libucrt:output.obj
 0001:0002737f       ?should_format@?$standard_base@_WV?$string_output_adapter@_W@__crt_stdio_output@@@__crt_stdio_output@@IAE_NXZ 1002837f f i libucrt:output.obj
 0001:00027382       ?should_skip_normal_state_processing@?$positional_parameter_base@DV?$stream_output_adapter@D@__crt_stdio_output@@@__crt_stdio_output@@IAE_NXZ 10028382 f i libucrt:output.obj
 0001:000273b4       ?should_skip_normal_state_processing@?$positional_parameter_base@DV?$string_output_adapter@D@__crt_stdio_output@@@__crt_stdio_output@@IAE_NXZ 100283b4 f i libucrt:output.obj
 0001:000273e6       ?should_skip_normal_state_processing@?$positional_parameter_base@_WV?$stream_output_adapter@_W@__crt_stdio_output@@@__crt_stdio_output@@IAE_NXZ 100283e6 f i libucrt:output.obj
 0001:00027418       ?should_skip_normal_state_processing@?$positional_parameter_base@_WV?$string_output_adapter@_W@__crt_stdio_output@@@__crt_stdio_output@@IAE_NXZ 10028418 f i libucrt:output.obj
 0001:0002744a       ?should_skip_normal_state_processing@?$standard_base@DV?$stream_output_adapter@D@__crt_stdio_output@@@__crt_stdio_output@@IAE_NXZ 1002844a f i libucrt:output.obj
 0001:0002744d       ?should_skip_normal_state_processing@?$standard_base@DV?$string_output_adapter@D@__crt_stdio_output@@@__crt_stdio_output@@IAE_NXZ 1002844d f i libucrt:output.obj
 0001:00027450       ?should_skip_normal_state_processing@?$standard_base@_WV?$stream_output_adapter@_W@__crt_stdio_output@@@__crt_stdio_output@@IAE_NXZ 10028450 f i libucrt:output.obj
 0001:00027453       ?should_skip_normal_state_processing@?$standard_base@_WV?$string_output_adapter@_W@__crt_stdio_output@@@__crt_stdio_output@@IAE_NXZ 10028453 f i libucrt:output.obj
 0001:00027456       ?should_skip_type_state_output@?$positional_parameter_base@DV?$stream_output_adapter@D@__crt_stdio_output@@@__crt_stdio_output@@IBE_NXZ 10028456 f i libucrt:output.obj
 0001:00027472       ?should_skip_type_state_output@?$positional_parameter_base@DV?$string_output_adapter@D@__crt_stdio_output@@@__crt_stdio_output@@IBE_NXZ 10028472 f i libucrt:output.obj
 0001:0002748e       ?should_skip_type_state_output@?$positional_parameter_base@_WV?$stream_output_adapter@_W@__crt_stdio_output@@@__crt_stdio_output@@IBE_NXZ 1002848e f i libucrt:output.obj
 0001:000274aa       ?should_skip_type_state_output@?$positional_parameter_base@_WV?$string_output_adapter@_W@__crt_stdio_output@@@__crt_stdio_output@@IBE_NXZ 100284aa f i libucrt:output.obj
 0001:000274c6       ?should_skip_type_state_output@?$standard_base@DV?$stream_output_adapter@D@__crt_stdio_output@@@__crt_stdio_output@@IBE_NXZ 100284c6 f i libucrt:output.obj
 0001:000274c9       ?should_skip_type_state_output@?$standard_base@DV?$string_output_adapter@D@__crt_stdio_output@@@__crt_stdio_output@@IBE_NXZ 100284c9 f i libucrt:output.obj
 0001:000274cc       ?should_skip_type_state_output@?$standard_base@_WV?$stream_output_adapter@_W@__crt_stdio_output@@@__crt_stdio_output@@IBE_NXZ 100284cc f i libucrt:output.obj
 0001:000274cf       ?should_skip_type_state_output@?$standard_base@_WV?$string_output_adapter@_W@__crt_stdio_output@@@__crt_stdio_output@@IBE_NXZ 100284cf f i libucrt:output.obj
 0001:000274d2       ?state_case_dot@?$output_processor@DV?$stream_output_adapter@D@__crt_stdio_output@@V?$format_validation_base@DV?$stream_output_adapter@D@__crt_stdio_output@@@2@@__crt_stdio_output@@AAE_NXZ 100284d2 f i libucrt:output.obj
 0001:000274d9       ?state_case_dot@?$output_processor@DV?$stream_output_adapter@D@__crt_stdio_output@@V?$positional_parameter_base@DV?$stream_output_adapter@D@__crt_stdio_output@@@2@@__crt_stdio_output@@AAE_NXZ 100284d9 f i libucrt:output.obj
 0001:000274e0       ?state_case_dot@?$output_processor@DV?$stream_output_adapter@D@__crt_stdio_output@@V?$standard_base@DV?$stream_output_adapter@D@__crt_stdio_output@@@2@@__crt_stdio_output@@AAE_NXZ 100284e0 f i libucrt:output.obj
 0001:000274e7       ?state_case_dot@?$output_processor@DV?$string_output_adapter@D@__crt_stdio_output@@V?$format_validation_base@DV?$string_output_adapter@D@__crt_stdio_output@@@2@@__crt_stdio_output@@AAE_NXZ 100284e7 f i libucrt:output.obj
 0001:000274ee       ?state_case_dot@?$output_processor@DV?$string_output_adapter@D@__crt_stdio_output@@V?$positional_parameter_base@DV?$string_output_adapter@D@__crt_stdio_output@@@2@@__crt_stdio_output@@AAE_NXZ 100284ee f i libucrt:output.obj
 0001:000274f5       ?state_case_dot@?$output_processor@DV?$string_output_adapter@D@__crt_stdio_output@@V?$standard_base@DV?$string_output_adapter@D@__crt_stdio_output@@@2@@__crt_stdio_output@@AAE_NXZ 100284f5 f i libucrt:output.obj
 0001:000274fc       ?state_case_dot@?$output_processor@_WV?$stream_output_adapter@_W@__crt_stdio_output@@V?$format_validation_base@_WV?$stream_output_adapter@_W@__crt_stdio_output@@@2@@__crt_stdio_output@@AAE_NXZ 100284fc f i libucrt:output.obj
 0001:00027503       ?state_case_dot@?$output_processor@_WV?$stream_output_adapter@_W@__crt_stdio_output@@V?$positional_parameter_base@_WV?$stream_output_adapter@_W@__crt_stdio_output@@@2@@__crt_stdio_output@@AAE_NXZ 10028503 f i libucrt:output.obj
 0001:0002750a       ?state_case_dot@?$output_processor@_WV?$stream_output_adapter@_W@__crt_stdio_output@@V?$standard_base@_WV?$stream_output_adapter@_W@__crt_stdio_output@@@2@@__crt_stdio_output@@AAE_NXZ 1002850a f i libucrt:output.obj
 0001:00027511       ?state_case_dot@?$output_processor@_WV?$string_output_adapter@_W@__crt_stdio_output@@V?$format_validation_base@_WV?$string_output_adapter@_W@__crt_stdio_output@@@2@@__crt_stdio_output@@AAE_NXZ 10028511 f i libucrt:output.obj
 0001:00027518       ?state_case_dot@?$output_processor@_WV?$string_output_adapter@_W@__crt_stdio_output@@V?$positional_parameter_base@_WV?$string_output_adapter@_W@__crt_stdio_output@@@2@@__crt_stdio_output@@AAE_NXZ 10028518 f i libucrt:output.obj
 0001:0002751f       ?state_case_dot@?$output_processor@_WV?$string_output_adapter@_W@__crt_stdio_output@@V?$standard_base@_WV?$string_output_adapter@_W@__crt_stdio_output@@@2@@__crt_stdio_output@@AAE_NXZ 1002851f f i libucrt:output.obj
 0001:00027526       ?state_case_flag@?$output_processor@DV?$stream_output_adapter@D@__crt_stdio_output@@V?$format_validation_base@DV?$stream_output_adapter@D@__crt_stdio_output@@@2@@__crt_stdio_output@@AAE_NXZ 10028526 f i libucrt:output.obj
 0001:00027572       ?state_case_flag@?$output_processor@DV?$stream_output_adapter@D@__crt_stdio_output@@V?$positional_parameter_base@DV?$stream_output_adapter@D@__crt_stdio_output@@@2@@__crt_stdio_output@@AAE_NXZ 10028572 f i libucrt:output.obj
 0001:000275be       ?state_case_flag@?$output_processor@DV?$stream_output_adapter@D@__crt_stdio_output@@V?$standard_base@DV?$stream_output_adapter@D@__crt_stdio_output@@@2@@__crt_stdio_output@@AAE_NXZ 100285be f i libucrt:output.obj
 0001:0002760a       ?state_case_flag@?$output_processor@DV?$string_output_adapter@D@__crt_stdio_output@@V?$format_validation_base@DV?$string_output_adapter@D@__crt_stdio_output@@@2@@__crt_stdio_output@@AAE_NXZ 1002860a f i libucrt:output.obj
 0001:00027656       ?state_case_flag@?$output_processor@DV?$string_output_adapter@D@__crt_stdio_output@@V?$positional_parameter_base@DV?$string_output_adapter@D@__crt_stdio_output@@@2@@__crt_stdio_output@@AAE_NXZ 10028656 f i libucrt:output.obj
 0001:000276a2       ?state_case_flag@?$output_processor@DV?$string_output_adapter@D@__crt_stdio_output@@V?$standard_base@DV?$string_output_adapter@D@__crt_stdio_output@@@2@@__crt_stdio_output@@AAE_NXZ 100286a2 f i libucrt:output.obj
 0001:000276ee       ?state_case_flag@?$output_processor@_WV?$stream_output_adapter@_W@__crt_stdio_output@@V?$format_validation_base@_WV?$stream_output_adapter@_W@__crt_stdio_output@@@2@@__crt_stdio_output@@AAE_NXZ 100286ee f i libucrt:output.obj
 0001:0002773a       ?state_case_flag@?$output_processor@_WV?$stream_output_adapter@_W@__crt_stdio_output@@V?$positional_parameter_base@_WV?$stream_output_adapter@_W@__crt_stdio_output@@@2@@__crt_stdio_output@@AAE_NXZ 1002873a f i libucrt:output.obj
 0001:00027786       ?state_case_flag@?$output_processor@_WV?$stream_output_adapter@_W@__crt_stdio_output@@V?$standard_base@_WV?$stream_output_adapter@_W@__crt_stdio_output@@@2@@__crt_stdio_output@@AAE_NXZ 10028786 f i libucrt:output.obj
 0001:000277d2       ?state_case_flag@?$output_processor@_WV?$string_output_adapter@_W@__crt_stdio_output@@V?$format_validation_base@_WV?$string_output_adapter@_W@__crt_stdio_output@@@2@@__crt_stdio_output@@AAE_NXZ 100287d2 f i libucrt:output.obj
 0001:0002781e       ?state_case_flag@?$output_processor@_WV?$string_output_adapter@_W@__crt_stdio_output@@V?$positional_parameter_base@_WV?$string_output_adapter@_W@__crt_stdio_output@@@2@@__crt_stdio_output@@AAE_NXZ 1002881e f i libucrt:output.obj
 0001:0002786a       ?state_case_flag@?$output_processor@_WV?$string_output_adapter@_W@__crt_stdio_output@@V?$standard_base@_WV?$string_output_adapter@_W@__crt_stdio_output@@@2@@__crt_stdio_output@@AAE_NXZ 1002886a f i libucrt:output.obj
 0001:000278b6       ?state_case_normal@?$output_processor@DV?$stream_output_adapter@D@__crt_stdio_output@@V?$format_validation_base@DV?$stream_output_adapter@D@__crt_stdio_output@@@2@@__crt_stdio_output@@AAE_NXZ 100288b6 f i libucrt:output.obj
 0001:000278dc       ?state_case_normal@?$output_processor@DV?$stream_output_adapter@D@__crt_stdio_output@@V?$positional_parameter_base@DV?$stream_output_adapter@D@__crt_stdio_output@@@2@@__crt_stdio_output@@AAE_NXZ 100288dc f i libucrt:output.obj
 0001:00027919       ?state_case_normal@?$output_processor@DV?$stream_output_adapter@D@__crt_stdio_output@@V?$standard_base@DV?$stream_output_adapter@D@__crt_stdio_output@@@2@@__crt_stdio_output@@AAE_NXZ 10028919 f i libucrt:output.obj
 0001:0002793f       ?state_case_normal@?$output_processor@DV?$string_output_adapter@D@__crt_stdio_output@@V?$format_validation_base@DV?$string_output_adapter@D@__crt_stdio_output@@@2@@__crt_stdio_output@@AAE_NXZ 1002893f f i libucrt:output.obj
 0001:00027965       ?state_case_normal@?$output_processor@DV?$string_output_adapter@D@__crt_stdio_output@@V?$positional_parameter_base@DV?$string_output_adapter@D@__crt_stdio_output@@@2@@__crt_stdio_output@@AAE_NXZ 10028965 f i libucrt:output.obj
 0001:000279a2       ?state_case_normal@?$output_processor@DV?$string_output_adapter@D@__crt_stdio_output@@V?$standard_base@DV?$string_output_adapter@D@__crt_stdio_output@@@2@@__crt_stdio_output@@AAE_NXZ 100289a2 f i libucrt:output.obj
 0001:000279c8       ?state_case_normal@?$output_processor@_WV?$stream_output_adapter@_W@__crt_stdio_output@@V?$format_validation_base@_WV?$stream_output_adapter@_W@__crt_stdio_output@@@2@@__crt_stdio_output@@AAE_NXZ 100289c8 f i libucrt:output.obj
 0001:000279ee       ?state_case_normal@?$output_processor@_WV?$stream_output_adapter@_W@__crt_stdio_output@@V?$positional_parameter_base@_WV?$stream_output_adapter@_W@__crt_stdio_output@@@2@@__crt_stdio_output@@AAE_NXZ 100289ee f i libucrt:output.obj
 0001:00027a2b       ?state_case_normal@?$output_processor@_WV?$stream_output_adapter@_W@__crt_stdio_output@@V?$standard_base@_WV?$stream_output_adapter@_W@__crt_stdio_output@@@2@@__crt_stdio_output@@AAE_NXZ 10028a2b f i libucrt:output.obj
 0001:00027a51       ?state_case_normal@?$output_processor@_WV?$string_output_adapter@_W@__crt_stdio_output@@V?$format_validation_base@_WV?$string_output_adapter@_W@__crt_stdio_output@@@2@@__crt_stdio_output@@AAE_NXZ 10028a51 f i libucrt:output.obj
 0001:00027a77       ?state_case_normal@?$output_processor@_WV?$string_output_adapter@_W@__crt_stdio_output@@V?$positional_parameter_base@_WV?$string_output_adapter@_W@__crt_stdio_output@@@2@@__crt_stdio_output@@AAE_NXZ 10028a77 f i libucrt:output.obj
 0001:00027ab4       ?state_case_normal@?$output_processor@_WV?$string_output_adapter@_W@__crt_stdio_output@@V?$standard_base@_WV?$string_output_adapter@_W@__crt_stdio_output@@@2@@__crt_stdio_output@@AAE_NXZ 10028ab4 f i libucrt:output.obj
 0001:00027ada       ?state_case_normal_common@?$output_processor@DV?$stream_output_adapter@D@__crt_stdio_output@@V?$format_validation_base@DV?$stream_output_adapter@D@__crt_stdio_output@@@2@@__crt_stdio_output@@AAE_NXZ 10028ada f i libucrt:output.obj
 0001:00027b0e       ?state_case_normal_common@?$output_processor@DV?$stream_output_adapter@D@__crt_stdio_output@@V?$positional_parameter_base@DV?$stream_output_adapter@D@__crt_stdio_output@@@2@@__crt_stdio_output@@AAE_NXZ 10028b0e f i libucrt:output.obj
 0001:00027b42       ?state_case_normal_common@?$output_processor@DV?$stream_output_adapter@D@__crt_stdio_output@@V?$standard_base@DV?$stream_output_adapter@D@__crt_stdio_output@@@2@@__crt_stdio_output@@AAE_NXZ 10028b42 f i libucrt:output.obj
 0001:00027b76       ?state_case_normal_common@?$output_processor@DV?$string_output_adapter@D@__crt_stdio_output@@V?$format_validation_base@DV?$string_output_adapter@D@__crt_stdio_output@@@2@@__crt_stdio_output@@AAE_NXZ 10028b76 f i libucrt:output.obj
 0001:00027baa       ?state_case_normal_common@?$output_processor@DV?$string_output_adapter@D@__crt_stdio_output@@V?$positional_parameter_base@DV?$string_output_adapter@D@__crt_stdio_output@@@2@@__crt_stdio_output@@AAE_NXZ 10028baa f i libucrt:output.obj
 0001:00027bde       ?state_case_normal_common@?$output_processor@DV?$string_output_adapter@D@__crt_stdio_output@@V?$standard_base@DV?$string_output_adapter@D@__crt_stdio_output@@@2@@__crt_stdio_output@@AAE_NXZ 10028bde f i libucrt:output.obj
 0001:00027c12       ?state_case_normal_common@?$output_processor@_WV?$stream_output_adapter@_W@__crt_stdio_output@@V?$format_validation_base@_WV?$stream_output_adapter@_W@__crt_stdio_output@@@2@@__crt_stdio_output@@AAE_NXZ 10028c12 f i libucrt:output.obj
 0001:00027c33       ?state_case_normal_common@?$output_processor@_WV?$stream_output_adapter@_W@__crt_stdio_output@@V?$positional_parameter_base@_WV?$stream_output_adapter@_W@__crt_stdio_output@@@2@@__crt_stdio_output@@AAE_NXZ 10028c33 f i libucrt:output.obj
 0001:00027c54       ?state_case_normal_common@?$output_processor@_WV?$stream_output_adapter@_W@__crt_stdio_output@@V?$standard_base@_WV?$stream_output_adapter@_W@__crt_stdio_output@@@2@@__crt_stdio_output@@AAE_NXZ 10028c54 f i libucrt:output.obj
 0001:00027c75       ?state_case_normal_common@?$output_processor@_WV?$string_output_adapter@_W@__crt_stdio_output@@V?$format_validation_base@_WV?$string_output_adapter@_W@__crt_stdio_output@@@2@@__crt_stdio_output@@AAE_NXZ 10028c75 f i libucrt:output.obj
 0001:00027c96       ?state_case_normal_common@?$output_processor@_WV?$string_output_adapter@_W@__crt_stdio_output@@V?$positional_parameter_base@_WV?$string_output_adapter@_W@__crt_stdio_output@@@2@@__crt_stdio_output@@AAE_NXZ 10028c96 f i libucrt:output.obj
 0001:00027cb7       ?state_case_normal_common@?$output_processor@_WV?$string_output_adapter@_W@__crt_stdio_output@@V?$standard_base@_WV?$string_output_adapter@_W@__crt_stdio_output@@@2@@__crt_stdio_output@@AAE_NXZ 10028cb7 f i libucrt:output.obj
 0001:00027cd8       ?state_case_normal_tchar@?$output_processor@DV?$stream_output_adapter@D@__crt_stdio_output@@V?$format_validation_base@DV?$stream_output_adapter@D@__crt_stdio_output@@@2@@__crt_stdio_output@@AAE_ND@Z 10028cd8 f i libucrt:output.obj
 0001:00027d51       ?state_case_normal_tchar@?$output_processor@DV?$stream_output_adapter@D@__crt_stdio_output@@V?$positional_parameter_base@DV?$stream_output_adapter@D@__crt_stdio_output@@@2@@__crt_stdio_output@@AAE_ND@Z 10028d51 f i libucrt:output.obj
 0001:00027dca       ?state_case_normal_tchar@?$output_processor@DV?$stream_output_adapter@D@__crt_stdio_output@@V?$standard_base@DV?$stream_output_adapter@D@__crt_stdio_output@@@2@@__crt_stdio_output@@AAE_ND@Z 10028dca f i libucrt:output.obj
 0001:00027e43       ?state_case_normal_tchar@?$output_processor@DV?$string_output_adapter@D@__crt_stdio_output@@V?$format_validation_base@DV?$string_output_adapter@D@__crt_stdio_output@@@2@@__crt_stdio_output@@AAE_ND@Z 10028e43 f i libucrt:output.obj
 0001:00027ebc       ?state_case_normal_tchar@?$output_processor@DV?$string_output_adapter@D@__crt_stdio_output@@V?$positional_parameter_base@DV?$string_output_adapter@D@__crt_stdio_output@@@2@@__crt_stdio_output@@AAE_ND@Z 10028ebc f i libucrt:output.obj
 0001:00027f35       ?state_case_normal_tchar@?$output_processor@DV?$string_output_adapter@D@__crt_stdio_output@@V?$standard_base@DV?$string_output_adapter@D@__crt_stdio_output@@@2@@__crt_stdio_output@@AAE_ND@Z 10028f35 f i libucrt:output.obj
 0001:00027fae       ?state_case_normal_tchar@?$output_processor@_WV?$stream_output_adapter@_W@__crt_stdio_output@@V?$format_validation_base@_WV?$stream_output_adapter@_W@__crt_stdio_output@@@2@@__crt_stdio_output@@AAE_N_W@Z 10028fae f i libucrt:output.obj
 0001:00027fb9       ?state_case_normal_tchar@?$output_processor@_WV?$stream_output_adapter@_W@__crt_stdio_output@@V?$positional_parameter_base@_WV?$stream_output_adapter@_W@__crt_stdio_output@@@2@@__crt_stdio_output@@AAE_N_W@Z 10028fb9 f i libucrt:output.obj
 0001:00027fc4       ?state_case_normal_tchar@?$output_processor@_WV?$stream_output_adapter@_W@__crt_stdio_output@@V?$standard_base@_WV?$stream_output_adapter@_W@__crt_stdio_output@@@2@@__crt_stdio_output@@AAE_N_W@Z 10028fc4 f i libucrt:output.obj
 0001:00027fcf       ?state_case_normal_tchar@?$output_processor@_WV?$string_output_adapter@_W@__crt_stdio_output@@V?$format_validation_base@_WV?$string_output_adapter@_W@__crt_stdio_output@@@2@@__crt_stdio_output@@AAE_N_W@Z 10028fcf f i libucrt:output.obj
 0001:00027fda       ?state_case_normal_tchar@?$output_processor@_WV?$string_output_adapter@_W@__crt_stdio_output@@V?$positional_parameter_base@_WV?$string_output_adapter@_W@__crt_stdio_output@@@2@@__crt_stdio_output@@AAE_N_W@Z 10028fda f i libucrt:output.obj
 0001:00027fe5       ?state_case_normal_tchar@?$output_processor@_WV?$string_output_adapter@_W@__crt_stdio_output@@V?$standard_base@_WV?$string_output_adapter@_W@__crt_stdio_output@@@2@@__crt_stdio_output@@AAE_N_W@Z 10028fe5 f i libucrt:output.obj
 0001:00027ff0       ?state_case_percent@?$output_processor@DV?$stream_output_adapter@D@__crt_stdio_output@@V?$format_validation_base@DV?$stream_output_adapter@D@__crt_stdio_output@@@2@@__crt_stdio_output@@AAE_NXZ 10028ff0 f i libucrt:output.obj
 0001:0002800e       ?state_case_percent@?$output_processor@DV?$stream_output_adapter@D@__crt_stdio_output@@V?$positional_parameter_base@DV?$stream_output_adapter@D@__crt_stdio_output@@@2@@__crt_stdio_output@@AAE_NXZ 1002900e f i libucrt:output.obj
 0001:0002802c       ?state_case_percent@?$output_processor@DV?$stream_output_adapter@D@__crt_stdio_output@@V?$standard_base@DV?$stream_output_adapter@D@__crt_stdio_output@@@2@@__crt_stdio_output@@AAE_NXZ 1002902c f i libucrt:output.obj
 0001:0002804a       ?state_case_percent@?$output_processor@DV?$string_output_adapter@D@__crt_stdio_output@@V?$format_validation_base@DV?$string_output_adapter@D@__crt_stdio_output@@@2@@__crt_stdio_output@@AAE_NXZ 1002904a f i libucrt:output.obj
 0001:00028068       ?state_case_percent@?$output_processor@DV?$string_output_adapter@D@__crt_stdio_output@@V?$positional_parameter_base@DV?$string_output_adapter@D@__crt_stdio_output@@@2@@__crt_stdio_output@@AAE_NXZ 10029068 f i libucrt:output.obj
 0001:00028086       ?state_case_percent@?$output_processor@DV?$string_output_adapter@D@__crt_stdio_output@@V?$standard_base@DV?$string_output_adapter@D@__crt_stdio_output@@@2@@__crt_stdio_output@@AAE_NXZ 10029086 f i libucrt:output.obj
 0001:000280a4       ?state_case_percent@?$output_processor@_WV?$stream_output_adapter@_W@__crt_stdio_output@@V?$format_validation_base@_WV?$stream_output_adapter@_W@__crt_stdio_output@@@2@@__crt_stdio_output@@AAE_NXZ 100290a4 f i libucrt:output.obj
 0001:000280c2       ?state_case_percent@?$output_processor@_WV?$stream_output_adapter@_W@__crt_stdio_output@@V?$positional_parameter_base@_WV?$stream_output_adapter@_W@__crt_stdio_output@@@2@@__crt_stdio_output@@AAE_NXZ 100290c2 f i libucrt:output.obj
 0001:000280e0       ?state_case_percent@?$output_processor@_WV?$stream_output_adapter@_W@__crt_stdio_output@@V?$standard_base@_WV?$stream_output_adapter@_W@__crt_stdio_output@@@2@@__crt_stdio_output@@AAE_NXZ 100290e0 f i libucrt:output.obj
 0001:000280fe       ?state_case_percent@?$output_processor@_WV?$string_output_adapter@_W@__crt_stdio_output@@V?$format_validation_base@_WV?$string_output_adapter@_W@__crt_stdio_output@@@2@@__crt_stdio_output@@AAE_NXZ 100290fe f i libucrt:output.obj
 0001:0002811c       ?state_case_percent@?$output_processor@_WV?$string_output_adapter@_W@__crt_stdio_output@@V?$positional_parameter_base@_WV?$string_output_adapter@_W@__crt_stdio_output@@@2@@__crt_stdio_output@@AAE_NXZ 1002911c f i libucrt:output.obj
 0001:0002813a       ?state_case_percent@?$output_processor@_WV?$string_output_adapter@_W@__crt_stdio_output@@V?$standard_base@_WV?$string_output_adapter@_W@__crt_stdio_output@@@2@@__crt_stdio_output@@AAE_NXZ 1002913a f i libucrt:output.obj
 0001:00028158       ?state_case_precision@?$output_processor@DV?$stream_output_adapter@D@__crt_stdio_output@@V?$format_validation_base@DV?$stream_output_adapter@D@__crt_stdio_output@@@2@@__crt_stdio_output@@AAE_NXZ 10029158 f i libucrt:output.obj
 0001:0002818a       ?state_case_precision@?$output_processor@DV?$stream_output_adapter@D@__crt_stdio_output@@V?$positional_parameter_base@DV?$stream_output_adapter@D@__crt_stdio_output@@@2@@__crt_stdio_output@@AAE_NXZ 1002918a f i libucrt:output.obj
 0001:000281d2       ?state_case_precision@?$output_processor@DV?$stream_output_adapter@D@__crt_stdio_output@@V?$standard_base@DV?$stream_output_adapter@D@__crt_stdio_output@@@2@@__crt_stdio_output@@AAE_NXZ 100291d2 f i libucrt:output.obj
 0001:00028204       ?state_case_precision@?$output_processor@DV?$string_output_adapter@D@__crt_stdio_output@@V?$format_validation_base@DV?$string_output_adapter@D@__crt_stdio_output@@@2@@__crt_stdio_output@@AAE_NXZ 10029204 f i libucrt:output.obj
 0001:00028236       ?state_case_precision@?$output_processor@DV?$string_output_adapter@D@__crt_stdio_output@@V?$positional_parameter_base@DV?$string_output_adapter@D@__crt_stdio_output@@@2@@__crt_stdio_output@@AAE_NXZ 10029236 f i libucrt:output.obj
 0001:0002827e       ?state_case_precision@?$output_processor@DV?$string_output_adapter@D@__crt_stdio_output@@V?$standard_base@DV?$string_output_adapter@D@__crt_stdio_output@@@2@@__crt_stdio_output@@AAE_NXZ 1002927e f i libucrt:output.obj
 0001:000282b0       ?state_case_precision@?$output_processor@_WV?$stream_output_adapter@_W@__crt_stdio_output@@V?$format_validation_base@_WV?$stream_output_adapter@_W@__crt_stdio_output@@@2@@__crt_stdio_output@@AAE_NXZ 100292b0 f i libucrt:output.obj
 0001:000282e3       ?state_case_precision@?$output_processor@_WV?$stream_output_adapter@_W@__crt_stdio_output@@V?$positional_parameter_base@_WV?$stream_output_adapter@_W@__crt_stdio_output@@@2@@__crt_stdio_output@@AAE_NXZ 100292e3 f i libucrt:output.obj
 0001:0002832c       ?state_case_precision@?$output_processor@_WV?$stream_output_adapter@_W@__crt_stdio_output@@V?$standard_base@_WV?$stream_output_adapter@_W@__crt_stdio_output@@@2@@__crt_stdio_output@@AAE_NXZ 1002932c f i libucrt:output.obj
 0001:0002835f       ?state_case_precision@?$output_processor@_WV?$string_output_adapter@_W@__crt_stdio_output@@V?$format_validation_base@_WV?$string_output_adapter@_W@__crt_stdio_output@@@2@@__crt_stdio_output@@AAE_NXZ 1002935f f i libucrt:output.obj
 0001:00028392       ?state_case_precision@?$output_processor@_WV?$string_output_adapter@_W@__crt_stdio_output@@V?$positional_parameter_base@_WV?$string_output_adapter@_W@__crt_stdio_output@@@2@@__crt_stdio_output@@AAE_NXZ 10029392 f i libucrt:output.obj
 0001:000283db       ?state_case_precision@?$output_processor@_WV?$string_output_adapter@_W@__crt_stdio_output@@V?$standard_base@_WV?$string_output_adapter@_W@__crt_stdio_output@@@2@@__crt_stdio_output@@AAE_NXZ 100293db f i libucrt:output.obj
 0001:0002840e       ?state_case_size@?$output_processor@DV?$stream_output_adapter@D@__crt_stdio_output@@V?$format_validation_base@DV?$stream_output_adapter@D@__crt_stdio_output@@@2@@__crt_stdio_output@@AAE_NXZ 1002940e f i libucrt:output.obj
 0001:000285d1       ?state_case_size@?$output_processor@DV?$stream_output_adapter@D@__crt_stdio_output@@V?$positional_parameter_base@DV?$stream_output_adapter@D@__crt_stdio_output@@@2@@__crt_stdio_output@@AAE_NXZ 100295d1 f i libucrt:output.obj
 0001:00028794       ?state_case_size@?$output_processor@DV?$stream_output_adapter@D@__crt_stdio_output@@V?$standard_base@DV?$stream_output_adapter@D@__crt_stdio_output@@@2@@__crt_stdio_output@@AAE_NXZ 10029794 f i libucrt:output.obj
 0001:00028957       ?state_case_size@?$output_processor@DV?$string_output_adapter@D@__crt_stdio_output@@V?$format_validation_base@DV?$string_output_adapter@D@__crt_stdio_output@@@2@@__crt_stdio_output@@AAE_NXZ 10029957 f i libucrt:output.obj
 0001:00028b1a       ?state_case_size@?$output_processor@DV?$string_output_adapter@D@__crt_stdio_output@@V?$positional_parameter_base@DV?$string_output_adapter@D@__crt_stdio_output@@@2@@__crt_stdio_output@@AAE_NXZ 10029b1a f i libucrt:output.obj
 0001:00028cdd       ?state_case_size@?$output_processor@DV?$string_output_adapter@D@__crt_stdio_output@@V?$standard_base@DV?$string_output_adapter@D@__crt_stdio_output@@@2@@__crt_stdio_output@@AAE_NXZ 10029cdd f i libucrt:output.obj
 0001:00028ea0       ?state_case_size@?$output_processor@_WV?$stream_output_adapter@_W@__crt_stdio_output@@V?$format_validation_base@_WV?$stream_output_adapter@_W@__crt_stdio_output@@@2@@__crt_stdio_output@@AAE_NXZ 10029ea0 f i libucrt:output.obj
 0001:0002907b       ?state_case_size@?$output_processor@_WV?$stream_output_adapter@_W@__crt_stdio_output@@V?$positional_parameter_base@_WV?$stream_output_adapter@_W@__crt_stdio_output@@@2@@__crt_stdio_output@@AAE_NXZ 1002a07b f i libucrt:output.obj
 0001:00029256       ?state_case_size@?$output_processor@_WV?$stream_output_adapter@_W@__crt_stdio_output@@V?$standard_base@_WV?$stream_output_adapter@_W@__crt_stdio_output@@@2@@__crt_stdio_output@@AAE_NXZ 1002a256 f i libucrt:output.obj
 0001:00029431       ?state_case_size@?$output_processor@_WV?$string_output_adapter@_W@__crt_stdio_output@@V?$format_validation_base@_WV?$string_output_adapter@_W@__crt_stdio_output@@@2@@__crt_stdio_output@@AAE_NXZ 1002a431 f i libucrt:output.obj
 0001:0002960c       ?state_case_size@?$output_processor@_WV?$string_output_adapter@_W@__crt_stdio_output@@V?$positional_parameter_base@_WV?$string_output_adapter@_W@__crt_stdio_output@@@2@@__crt_stdio_output@@AAE_NXZ 1002a60c f i libucrt:output.obj
 0001:000297e7       ?state_case_size@?$output_processor@_WV?$string_output_adapter@_W@__crt_stdio_output@@V?$standard_base@_WV?$string_output_adapter@_W@__crt_stdio_output@@@2@@__crt_stdio_output@@AAE_NXZ 1002a7e7 f i libucrt:output.obj
 0001:000299c2       ?state_case_type@?$output_processor@DV?$stream_output_adapter@D@__crt_stdio_output@@V?$format_validation_base@DV?$stream_output_adapter@D@__crt_stdio_output@@@2@@__crt_stdio_output@@AAE_NXZ 1002a9c2 f i libucrt:output.obj
 0001:00029c7c       ?state_case_type@?$output_processor@DV?$stream_output_adapter@D@__crt_stdio_output@@V?$positional_parameter_base@DV?$stream_output_adapter@D@__crt_stdio_output@@@2@@__crt_stdio_output@@AAE_NXZ 1002ac7c f i libucrt:output.obj
 0001:00029f44       ?state_case_type@?$output_processor@DV?$stream_output_adapter@D@__crt_stdio_output@@V?$standard_base@DV?$stream_output_adapter@D@__crt_stdio_output@@@2@@__crt_stdio_output@@AAE_NXZ 1002af44 f i libucrt:output.obj
 0001:0002a1fe       ?state_case_type@?$output_processor@DV?$string_output_adapter@D@__crt_stdio_output@@V?$format_validation_base@DV?$string_output_adapter@D@__crt_stdio_output@@@2@@__crt_stdio_output@@AAE_NXZ 1002b1fe f i libucrt:output.obj
 0001:0002a4b8       ?state_case_type@?$output_processor@DV?$string_output_adapter@D@__crt_stdio_output@@V?$positional_parameter_base@DV?$string_output_adapter@D@__crt_stdio_output@@@2@@__crt_stdio_output@@AAE_NXZ 1002b4b8 f i libucrt:output.obj
 0001:0002a780       ?state_case_type@?$output_processor@DV?$string_output_adapter@D@__crt_stdio_output@@V?$standard_base@DV?$string_output_adapter@D@__crt_stdio_output@@@2@@__crt_stdio_output@@AAE_NXZ 1002b780 f i libucrt:output.obj
 0001:0002aa3a       ?state_case_type@?$output_processor@_WV?$stream_output_adapter@_W@__crt_stdio_output@@V?$format_validation_base@_WV?$stream_output_adapter@_W@__crt_stdio_output@@@2@@__crt_stdio_output@@AAE_NXZ 1002ba3a f i libucrt:output.obj
 0001:0002ad2e       ?state_case_type@?$output_processor@_WV?$stream_output_adapter@_W@__crt_stdio_output@@V?$positional_parameter_base@_WV?$stream_output_adapter@_W@__crt_stdio_output@@@2@@__crt_stdio_output@@AAE_NXZ 1002bd2e f i libucrt:output.obj
 0001:0002b035       ?state_case_type@?$output_processor@_WV?$stream_output_adapter@_W@__crt_stdio_output@@V?$standard_base@_WV?$stream_output_adapter@_W@__crt_stdio_output@@@2@@__crt_stdio_output@@AAE_NXZ 1002c035 f i libucrt:output.obj
 0001:0002b329       ?state_case_type@?$output_processor@_WV?$string_output_adapter@_W@__crt_stdio_output@@V?$format_validation_base@_WV?$string_output_adapter@_W@__crt_stdio_output@@@2@@__crt_stdio_output@@AAE_NXZ 1002c329 f i libucrt:output.obj
 0001:0002b61d       ?state_case_type@?$output_processor@_WV?$string_output_adapter@_W@__crt_stdio_output@@V?$positional_parameter_base@_WV?$string_output_adapter@_W@__crt_stdio_output@@@2@@__crt_stdio_output@@AAE_NXZ 1002c61d f i libucrt:output.obj
 0001:0002b924       ?state_case_type@?$output_processor@_WV?$string_output_adapter@_W@__crt_stdio_output@@V?$standard_base@_WV?$string_output_adapter@_W@__crt_stdio_output@@@2@@__crt_stdio_output@@AAE_NXZ 1002c924 f i libucrt:output.obj
 0001:0002bc18       ?state_case_width@?$output_processor@DV?$stream_output_adapter@D@__crt_stdio_output@@V?$format_validation_base@DV?$stream_output_adapter@D@__crt_stdio_output@@@2@@__crt_stdio_output@@AAE_NXZ 1002cc18 f i libucrt:output.obj
 0001:0002bc4d       ?state_case_width@?$output_processor@DV?$stream_output_adapter@D@__crt_stdio_output@@V?$positional_parameter_base@DV?$stream_output_adapter@D@__crt_stdio_output@@@2@@__crt_stdio_output@@AAE_NXZ 1002cc4d f i libucrt:output.obj
 0001:0002bc9d       ?state_case_width@?$output_processor@DV?$stream_output_adapter@D@__crt_stdio_output@@V?$standard_base@DV?$stream_output_adapter@D@__crt_stdio_output@@@2@@__crt_stdio_output@@AAE_NXZ 1002cc9d f i libucrt:output.obj
 0001:0002bcd2       ?state_case_width@?$output_processor@DV?$string_output_adapter@D@__crt_stdio_output@@V?$format_validation_base@DV?$string_output_adapter@D@__crt_stdio_output@@@2@@__crt_stdio_output@@AAE_NXZ 1002ccd2 f i libucrt:output.obj
 0001:0002bd07       ?state_case_width@?$output_processor@DV?$string_output_adapter@D@__crt_stdio_output@@V?$positional_parameter_base@DV?$string_output_adapter@D@__crt_stdio_output@@@2@@__crt_stdio_output@@AAE_NXZ 1002cd07 f i libucrt:output.obj
 0001:0002bd57       ?state_case_width@?$output_processor@DV?$string_output_adapter@D@__crt_stdio_output@@V?$standard_base@DV?$string_output_adapter@D@__crt_stdio_output@@@2@@__crt_stdio_output@@AAE_NXZ 1002cd57 f i libucrt:output.obj
 0001:0002bd8c       ?state_case_width@?$output_processor@_WV?$stream_output_adapter@_W@__crt_stdio_output@@V?$format_validation_base@_WV?$stream_output_adapter@_W@__crt_stdio_output@@@2@@__crt_stdio_output@@AAE_NXZ 1002cd8c f i libucrt:output.obj
 0001:0002bdc3       ?state_case_width@?$output_processor@_WV?$stream_output_adapter@_W@__crt_stdio_output@@V?$positional_parameter_base@_WV?$stream_output_adapter@_W@__crt_stdio_output@@@2@@__crt_stdio_output@@AAE_NXZ 1002cdc3 f i libucrt:output.obj
 0001:0002be14       ?state_case_width@?$output_processor@_WV?$stream_output_adapter@_W@__crt_stdio_output@@V?$standard_base@_WV?$stream_output_adapter@_W@__crt_stdio_output@@@2@@__crt_stdio_output@@AAE_NXZ 1002ce14 f i libucrt:output.obj
 0001:0002be4b       ?state_case_width@?$output_processor@_WV?$string_output_adapter@_W@__crt_stdio_output@@V?$format_validation_base@_WV?$string_output_adapter@_W@__crt_stdio_output@@@2@@__crt_stdio_output@@AAE_NXZ 1002ce4b f i libucrt:output.obj
 0001:0002be82       ?state_case_width@?$output_processor@_WV?$string_output_adapter@_W@__crt_stdio_output@@V?$positional_parameter_base@_WV?$string_output_adapter@_W@__crt_stdio_output@@@2@@__crt_stdio_output@@AAE_NXZ 1002ce82 f i libucrt:output.obj
 0001:0002bed3       ?state_case_width@?$output_processor@_WV?$string_output_adapter@_W@__crt_stdio_output@@V?$standard_base@_WV?$string_output_adapter@_W@__crt_stdio_output@@@2@@__crt_stdio_output@@AAE_NXZ 1002ced3 f i libucrt:output.obj
 0001:0002bf0a       ?state_count@?$format_validation_base@DV?$stream_output_adapter@D@__crt_stdio_output@@@__crt_stdio_output@@KAIXZ 1002cf0a f i libucrt:output.obj
 0001:0002bf0e       ?state_count@?$format_validation_base@DV?$string_output_adapter@D@__crt_stdio_output@@@__crt_stdio_output@@KAIXZ 1002cf0e f i libucrt:output.obj
 0001:0002bf12       ?state_count@?$format_validation_base@_WV?$stream_output_adapter@_W@__crt_stdio_output@@@__crt_stdio_output@@KAIXZ 1002cf12 f i libucrt:output.obj
 0001:0002bf16       ?state_count@?$format_validation_base@_WV?$string_output_adapter@_W@__crt_stdio_output@@@__crt_stdio_output@@KAIXZ 1002cf16 f i libucrt:output.obj
 0001:0002bf1a       ?state_count@?$standard_base@DV?$stream_output_adapter@D@__crt_stdio_output@@@__crt_stdio_output@@KAIXZ 1002cf1a f i libucrt:output.obj
 0001:0002bf1e       ?state_count@?$standard_base@DV?$string_output_adapter@D@__crt_stdio_output@@@__crt_stdio_output@@KAIXZ 1002cf1e f i libucrt:output.obj
 0001:0002bf22       ?state_count@?$standard_base@_WV?$stream_output_adapter@_W@__crt_stdio_output@@@__crt_stdio_output@@KAIXZ 1002cf22 f i libucrt:output.obj
 0001:0002bf26       ?state_count@?$standard_base@_WV?$string_output_adapter@_W@__crt_stdio_output@@@__crt_stdio_output@@KAIXZ 1002cf26 f i libucrt:output.obj
 0001:0002bf2a       ?state_transition_table@?$format_validation_base@DV?$stream_output_adapter@D@__crt_stdio_output@@@__crt_stdio_output@@KAPBEXZ 1002cf2a f i libucrt:output.obj
 0001:0002bf30       ?state_transition_table@?$format_validation_base@DV?$string_output_adapter@D@__crt_stdio_output@@@__crt_stdio_output@@KAPBEXZ 1002cf30 f i libucrt:output.obj
 0001:0002bf36       ?state_transition_table@?$format_validation_base@_WV?$stream_output_adapter@_W@__crt_stdio_output@@@__crt_stdio_output@@KAPBEXZ 1002cf36 f i libucrt:output.obj
 0001:0002bf3c       ?state_transition_table@?$format_validation_base@_WV?$string_output_adapter@_W@__crt_stdio_output@@@__crt_stdio_output@@KAPBEXZ 1002cf3c f i libucrt:output.obj
 0001:0002bf42       ?state_transition_table@?$standard_base@DV?$stream_output_adapter@D@__crt_stdio_output@@@__crt_stdio_output@@KAPBEXZ 1002cf42 f i libucrt:output.obj
 0001:0002bf48       ?state_transition_table@?$standard_base@DV?$string_output_adapter@D@__crt_stdio_output@@@__crt_stdio_output@@KAPBEXZ 1002cf48 f i libucrt:output.obj
 0001:0002bf4e       ?state_transition_table@?$standard_base@_WV?$stream_output_adapter@_W@__crt_stdio_output@@@__crt_stdio_output@@KAPBEXZ 1002cf4e f i libucrt:output.obj
 0001:0002bf54       ?state_transition_table@?$standard_base@_WV?$string_output_adapter@_W@__crt_stdio_output@@@__crt_stdio_output@@KAPBEXZ 1002cf54 f i libucrt:output.obj
 0001:0002bf5a       ?to_integer_size@__crt_stdio_output@@YAIW4length_modifier@1@@Z 1002cf5a f i libucrt:output.obj
 0001:0002bfcd       ?type_case_X@?$output_processor@DV?$stream_output_adapter@D@__crt_stdio_output@@V?$format_validation_base@DV?$stream_output_adapter@D@__crt_stdio_output@@@2@@__crt_stdio_output@@AAE_NXZ 1002cfcd f i libucrt:output.obj
 0001:0002bfd9       ?type_case_X@?$output_processor@DV?$stream_output_adapter@D@__crt_stdio_output@@V?$positional_parameter_base@DV?$stream_output_adapter@D@__crt_stdio_output@@@2@@__crt_stdio_output@@AAE_NXZ 1002cfd9 f i libucrt:output.obj
 0001:0002bfe5       ?type_case_X@?$output_processor@DV?$stream_output_adapter@D@__crt_stdio_output@@V?$standard_base@DV?$stream_output_adapter@D@__crt_stdio_output@@@2@@__crt_stdio_output@@AAE_NXZ 1002cfe5 f i libucrt:output.obj
 0001:0002bff1       ?type_case_X@?$output_processor@DV?$string_output_adapter@D@__crt_stdio_output@@V?$format_validation_base@DV?$string_output_adapter@D@__crt_stdio_output@@@2@@__crt_stdio_output@@AAE_NXZ 1002cff1 f i libucrt:output.obj
 0001:0002bffd       ?type_case_X@?$output_processor@DV?$string_output_adapter@D@__crt_stdio_output@@V?$positional_parameter_base@DV?$string_output_adapter@D@__crt_stdio_output@@@2@@__crt_stdio_output@@AAE_NXZ 1002cffd f i libucrt:output.obj
 0001:0002c009       ?type_case_X@?$output_processor@DV?$string_output_adapter@D@__crt_stdio_output@@V?$standard_base@DV?$string_output_adapter@D@__crt_stdio_output@@@2@@__crt_stdio_output@@AAE_NXZ 1002d009 f i libucrt:output.obj
 0001:0002c015       ?type_case_X@?$output_processor@_WV?$stream_output_adapter@_W@__crt_stdio_output@@V?$format_validation_base@_WV?$stream_output_adapter@_W@__crt_stdio_output@@@2@@__crt_stdio_output@@AAE_NXZ 1002d015 f i libucrt:output.obj
 0001:0002c021       ?type_case_X@?$output_processor@_WV?$stream_output_adapter@_W@__crt_stdio_output@@V?$positional_parameter_base@_WV?$stream_output_adapter@_W@__crt_stdio_output@@@2@@__crt_stdio_output@@AAE_NXZ 1002d021 f i libucrt:output.obj
 0001:0002c02d       ?type_case_X@?$output_processor@_WV?$stream_output_adapter@_W@__crt_stdio_output@@V?$standard_base@_WV?$stream_output_adapter@_W@__crt_stdio_output@@@2@@__crt_stdio_output@@AAE_NXZ 1002d02d f i libucrt:output.obj
 0001:0002c039       ?type_case_X@?$output_processor@_WV?$string_output_adapter@_W@__crt_stdio_output@@V?$format_validation_base@_WV?$string_output_adapter@_W@__crt_stdio_output@@@2@@__crt_stdio_output@@AAE_NXZ 1002d039 f i libucrt:output.obj
 0001:0002c045       ?type_case_X@?$output_processor@_WV?$string_output_adapter@_W@__crt_stdio_output@@V?$positional_parameter_base@_WV?$string_output_adapter@_W@__crt_stdio_output@@@2@@__crt_stdio_output@@AAE_NXZ 1002d045 f i libucrt:output.obj
 0001:0002c051       ?type_case_X@?$output_processor@_WV?$string_output_adapter@_W@__crt_stdio_output@@V?$standard_base@_WV?$string_output_adapter@_W@__crt_stdio_output@@@2@@__crt_stdio_output@@AAE_NXZ 1002d051 f i libucrt:output.obj
 0001:0002c05d       ?type_case_Z@?$output_processor@DV?$stream_output_adapter@D@__crt_stdio_output@@V?$format_validation_base@DV?$stream_output_adapter@D@__crt_stdio_output@@@2@@__crt_stdio_output@@AAE_NXZ 1002d05d f i libucrt:output.obj
 0001:0002c0d8       ?type_case_Z@?$output_processor@DV?$stream_output_adapter@D@__crt_stdio_output@@V?$positional_parameter_base@DV?$stream_output_adapter@D@__crt_stdio_output@@@2@@__crt_stdio_output@@AAE_NXZ 1002d0d8 f i libucrt:output.obj
 0001:0002c176       ?type_case_Z@?$output_processor@DV?$stream_output_adapter@D@__crt_stdio_output@@V?$standard_base@DV?$stream_output_adapter@D@__crt_stdio_output@@@2@@__crt_stdio_output@@AAE_NXZ 1002d176 f i libucrt:output.obj
 0001:0002c1f1       ?type_case_Z@?$output_processor@DV?$string_output_adapter@D@__crt_stdio_output@@V?$format_validation_base@DV?$string_output_adapter@D@__crt_stdio_output@@@2@@__crt_stdio_output@@AAE_NXZ 1002d1f1 f i libucrt:output.obj
 0001:0002c26c       ?type_case_Z@?$output_processor@DV?$string_output_adapter@D@__crt_stdio_output@@V?$positional_parameter_base@DV?$string_output_adapter@D@__crt_stdio_output@@@2@@__crt_stdio_output@@AAE_NXZ 1002d26c f i libucrt:output.obj
 0001:0002c30a       ?type_case_Z@?$output_processor@DV?$string_output_adapter@D@__crt_stdio_output@@V?$standard_base@DV?$string_output_adapter@D@__crt_stdio_output@@@2@@__crt_stdio_output@@AAE_NXZ 1002d30a f i libucrt:output.obj
 0001:0002c385       ?type_case_Z@?$output_processor@_WV?$stream_output_adapter@_W@__crt_stdio_output@@V?$format_validation_base@_WV?$stream_output_adapter@_W@__crt_stdio_output@@@2@@__crt_stdio_output@@AAE_NXZ 1002d385 f i libucrt:output.obj
 0001:0002c400       ?type_case_Z@?$output_processor@_WV?$stream_output_adapter@_W@__crt_stdio_output@@V?$positional_parameter_base@_WV?$stream_output_adapter@_W@__crt_stdio_output@@@2@@__crt_stdio_output@@AAE_NXZ 1002d400 f i libucrt:output.obj
 0001:0002c49e       ?type_case_Z@?$output_processor@_WV?$stream_output_adapter@_W@__crt_stdio_output@@V?$standard_base@_WV?$stream_output_adapter@_W@__crt_stdio_output@@@2@@__crt_stdio_output@@AAE_NXZ 1002d49e f i libucrt:output.obj
 0001:0002c519       ?type_case_Z@?$output_processor@_WV?$string_output_adapter@_W@__crt_stdio_output@@V?$format_validation_base@_WV?$string_output_adapter@_W@__crt_stdio_output@@@2@@__crt_stdio_output@@AAE_NXZ 1002d519 f i libucrt:output.obj
 0001:0002c594       ?type_case_Z@?$output_processor@_WV?$string_output_adapter@_W@__crt_stdio_output@@V?$positional_parameter_base@_WV?$string_output_adapter@_W@__crt_stdio_output@@@2@@__crt_stdio_output@@AAE_NXZ 1002d594 f i libucrt:output.obj
 0001:0002c632       ?type_case_Z@?$output_processor@_WV?$string_output_adapter@_W@__crt_stdio_output@@V?$standard_base@_WV?$string_output_adapter@_W@__crt_stdio_output@@@2@@__crt_stdio_output@@AAE_NXZ 1002d632 f i libucrt:output.obj
 0001:0002c6ad       ?type_case_a@?$output_processor@DV?$stream_output_adapter@D@__crt_stdio_output@@V?$format_validation_base@DV?$stream_output_adapter@D@__crt_stdio_output@@@2@@__crt_stdio_output@@AAE_NXZ 1002d6ad f i libucrt:output.obj
 0001:0002c85d       ?type_case_a@?$output_processor@DV?$stream_output_adapter@D@__crt_stdio_output@@V?$positional_parameter_base@DV?$stream_output_adapter@D@__crt_stdio_output@@@2@@__crt_stdio_output@@AAE_NXZ 1002d85d f i libucrt:output.obj
 0001:0002ca34       ?type_case_a@?$output_processor@DV?$stream_output_adapter@D@__crt_stdio_output@@V?$standard_base@DV?$stream_output_adapter@D@__crt_stdio_output@@@2@@__crt_stdio_output@@AAE_NXZ 1002da34 f i libucrt:output.obj
 0001:0002cbe4       ?type_case_a@?$output_processor@DV?$string_output_adapter@D@__crt_stdio_output@@V?$format_validation_base@DV?$string_output_adapter@D@__crt_stdio_output@@@2@@__crt_stdio_output@@AAE_NXZ 1002dbe4 f i libucrt:output.obj
 0001:0002cd94       ?type_case_a@?$output_processor@DV?$string_output_adapter@D@__crt_stdio_output@@V?$positional_parameter_base@DV?$string_output_adapter@D@__crt_stdio_output@@@2@@__crt_stdio_output@@AAE_NXZ 1002dd94 f i libucrt:output.obj
 0001:0002cf6b       ?type_case_a@?$output_processor@DV?$string_output_adapter@D@__crt_stdio_output@@V?$standard_base@DV?$string_output_adapter@D@__crt_stdio_output@@@2@@__crt_stdio_output@@AAE_NXZ 1002df6b f i libucrt:output.obj
 0001:0002d11b       ?type_case_a@?$output_processor@_WV?$stream_output_adapter@_W@__crt_stdio_output@@V?$format_validation_base@_WV?$stream_output_adapter@_W@__crt_stdio_output@@@2@@__crt_stdio_output@@AAE_NXZ 1002e11b f i libucrt:output.obj
 0001:0002d2e9       ?type_case_a@?$output_processor@_WV?$stream_output_adapter@_W@__crt_stdio_output@@V?$positional_parameter_base@_WV?$stream_output_adapter@_W@__crt_stdio_output@@@2@@__crt_stdio_output@@AAE_NXZ 1002e2e9 f i libucrt:output.obj
 0001:0002d4de       ?type_case_a@?$output_processor@_WV?$stream_output_adapter@_W@__crt_stdio_output@@V?$standard_base@_WV?$stream_output_adapter@_W@__crt_stdio_output@@@2@@__crt_stdio_output@@AAE_NXZ 1002e4de f i libucrt:output.obj
 0001:0002d6ac       ?type_case_a@?$output_processor@_WV?$string_output_adapter@_W@__crt_stdio_output@@V?$format_validation_base@_WV?$string_output_adapter@_W@__crt_stdio_output@@@2@@__crt_stdio_output@@AAE_NXZ 1002e6ac f i libucrt:output.obj
 0001:0002d87a       ?type_case_a@?$output_processor@_WV?$string_output_adapter@_W@__crt_stdio_output@@V?$positional_parameter_base@_WV?$string_output_adapter@_W@__crt_stdio_output@@@2@@__crt_stdio_output@@AAE_NXZ 1002e87a f i libucrt:output.obj
 0001:0002da6f       ?type_case_a@?$output_processor@_WV?$string_output_adapter@_W@__crt_stdio_output@@V?$standard_base@_WV?$string_output_adapter@_W@__crt_stdio_output@@@2@@__crt_stdio_output@@AAE_NXZ 1002ea6f f i libucrt:output.obj
 0001:0002dc3d       ?type_case_c@?$output_processor@DV?$stream_output_adapter@D@__crt_stdio_output@@V?$format_validation_base@DV?$stream_output_adapter@D@__crt_stdio_output@@@2@@__crt_stdio_output@@AAE_NXZ 1002ec3d f i libucrt:output.obj
 0001:0002dc47       ?type_case_c@?$output_processor@DV?$stream_output_adapter@D@__crt_stdio_output@@V?$positional_parameter_base@DV?$stream_output_adapter@D@__crt_stdio_output@@@2@@__crt_stdio_output@@AAE_NXZ 1002ec47 f i libucrt:output.obj
 0001:0002dc51       ?type_case_c@?$output_processor@DV?$stream_output_adapter@D@__crt_stdio_output@@V?$standard_base@DV?$stream_output_adapter@D@__crt_stdio_output@@@2@@__crt_stdio_output@@AAE_NXZ 1002ec51 f i libucrt:output.obj
 0001:0002dc5b       ?type_case_c@?$output_processor@DV?$string_output_adapter@D@__crt_stdio_output@@V?$format_validation_base@DV?$string_output_adapter@D@__crt_stdio_output@@@2@@__crt_stdio_output@@AAE_NXZ 1002ec5b f i libucrt:output.obj
 0001:0002dc65       ?type_case_c@?$output_processor@DV?$string_output_adapter@D@__crt_stdio_output@@V?$positional_parameter_base@DV?$string_output_adapter@D@__crt_stdio_output@@@2@@__crt_stdio_output@@AAE_NXZ 1002ec65 f i libucrt:output.obj
 0001:0002dc6f       ?type_case_c@?$output_processor@DV?$string_output_adapter@D@__crt_stdio_output@@V?$standard_base@DV?$string_output_adapter@D@__crt_stdio_output@@@2@@__crt_stdio_output@@AAE_NXZ 1002ec6f f i libucrt:output.obj
 0001:0002dc79       ?type_case_c@?$output_processor@_WV?$stream_output_adapter@_W@__crt_stdio_output@@V?$format_validation_base@_WV?$stream_output_adapter@_W@__crt_stdio_output@@@2@@__crt_stdio_output@@AAE_NXZ 1002ec79 f i libucrt:output.obj
 0001:0002dc83       ?type_case_c@?$output_processor@_WV?$stream_output_adapter@_W@__crt_stdio_output@@V?$positional_parameter_base@_WV?$stream_output_adapter@_W@__crt_stdio_output@@@2@@__crt_stdio_output@@AAE_NXZ 1002ec83 f i libucrt:output.obj
 0001:0002dc8d       ?type_case_c@?$output_processor@_WV?$stream_output_adapter@_W@__crt_stdio_output@@V?$standard_base@_WV?$stream_output_adapter@_W@__crt_stdio_output@@@2@@__crt_stdio_output@@AAE_NXZ 1002ec8d f i libucrt:output.obj
 0001:0002dc97       ?type_case_c@?$output_processor@_WV?$string_output_adapter@_W@__crt_stdio_output@@V?$format_validation_base@_WV?$string_output_adapter@_W@__crt_stdio_output@@@2@@__crt_stdio_output@@AAE_NXZ 1002ec97 f i libucrt:output.obj
 0001:0002dca1       ?type_case_c@?$output_processor@_WV?$string_output_adapter@_W@__crt_stdio_output@@V?$positional_parameter_base@_WV?$string_output_adapter@_W@__crt_stdio_output@@@2@@__crt_stdio_output@@AAE_NXZ 1002eca1 f i libucrt:output.obj
 0001:0002dcab       ?type_case_c@?$output_processor@_WV?$string_output_adapter@_W@__crt_stdio_output@@V?$standard_base@_WV?$string_output_adapter@_W@__crt_stdio_output@@@2@@__crt_stdio_output@@AAE_NXZ 1002ecab f i libucrt:output.obj
 0001:0002dcb5       ?type_case_c_tchar@?$output_processor@DV?$stream_output_adapter@D@__crt_stdio_output@@V?$format_validation_base@DV?$stream_output_adapter@D@__crt_stdio_output@@@2@@__crt_stdio_output@@AAE_ND@Z 1002ecb5 f i libucrt:output.obj
 0001:0002dd69       ?type_case_c_tchar@?$output_processor@DV?$stream_output_adapter@D@__crt_stdio_output@@V?$positional_parameter_base@DV?$stream_output_adapter@D@__crt_stdio_output@@@2@@__crt_stdio_output@@AAE_ND@Z 1002ed69 f i libucrt:output.obj
 0001:0002de59       ?type_case_c_tchar@?$output_processor@DV?$stream_output_adapter@D@__crt_stdio_output@@V?$standard_base@DV?$stream_output_adapter@D@__crt_stdio_output@@@2@@__crt_stdio_output@@AAE_ND@Z 1002ee59 f i libucrt:output.obj
 0001:0002df0d       ?type_case_c_tchar@?$output_processor@DV?$string_output_adapter@D@__crt_stdio_output@@V?$format_validation_base@DV?$string_output_adapter@D@__crt_stdio_output@@@2@@__crt_stdio_output@@AAE_ND@Z 1002ef0d f i libucrt:output.obj
 0001:0002dfc1       ?type_case_c_tchar@?$output_processor@DV?$string_output_adapter@D@__crt_stdio_output@@V?$positional_parameter_base@DV?$string_output_adapter@D@__crt_stdio_output@@@2@@__crt_stdio_output@@AAE_ND@Z 1002efc1 f i libucrt:output.obj
 0001:0002e0b1       ?type_case_c_tchar@?$output_processor@DV?$string_output_adapter@D@__crt_stdio_output@@V?$standard_base@DV?$string_output_adapter@D@__crt_stdio_output@@@2@@__crt_stdio_output@@AAE_ND@Z 1002f0b1 f i libucrt:output.obj
 0001:0002e165       ?type_case_c_tchar@?$output_processor@_WV?$stream_output_adapter@_W@__crt_stdio_output@@V?$format_validation_base@_WV?$stream_output_adapter@_W@__crt_stdio_output@@@2@@__crt_stdio_output@@AAE_N_W@Z 1002f165 f i libucrt:output.obj
 0001:0002e223       ?type_case_c_tchar@?$output_processor@_WV?$stream_output_adapter@_W@__crt_stdio_output@@V?$positional_parameter_base@_WV?$stream_output_adapter@_W@__crt_stdio_output@@@2@@__crt_stdio_output@@AAE_N_W@Z 1002f223 f i libucrt:output.obj
 0001:0002e2fd       ?type_case_c_tchar@?$output_processor@_WV?$stream_output_adapter@_W@__crt_stdio_output@@V?$standard_base@_WV?$stream_output_adapter@_W@__crt_stdio_output@@@2@@__crt_stdio_output@@AAE_N_W@Z 1002f2fd f i libucrt:output.obj
 0001:0002e3bb       ?type_case_c_tchar@?$output_processor@_WV?$string_output_adapter@_W@__crt_stdio_output@@V?$format_validation_base@_WV?$string_output_adapter@_W@__crt_stdio_output@@@2@@__crt_stdio_output@@AAE_N_W@Z 1002f3bb f i libucrt:output.obj
 0001:0002e479       ?type_case_c_tchar@?$output_processor@_WV?$string_output_adapter@_W@__crt_stdio_output@@V?$positional_parameter_base@_WV?$string_output_adapter@_W@__crt_stdio_output@@@2@@__crt_stdio_output@@AAE_N_W@Z 1002f479 f i libucrt:output.obj
 0001:0002e553       ?type_case_c_tchar@?$output_processor@_WV?$string_output_adapter@_W@__crt_stdio_output@@V?$standard_base@_WV?$string_output_adapter@_W@__crt_stdio_output@@@2@@__crt_stdio_output@@AAE_N_W@Z 1002f553 f i libucrt:output.obj
 0001:0002e611       ?type_case_d@?$output_processor@DV?$stream_output_adapter@D@__crt_stdio_output@@V?$format_validation_base@DV?$stream_output_adapter@D@__crt_stdio_output@@@2@@__crt_stdio_output@@AAE_NXZ 1002f611 f i libucrt:output.obj
 0001:0002e622       ?type_case_d@?$output_processor@DV?$stream_output_adapter@D@__crt_stdio_output@@V?$positional_parameter_base@DV?$stream_output_adapter@D@__crt_stdio_output@@@2@@__crt_stdio_output@@AAE_NXZ 1002f622 f i libucrt:output.obj
 0001:0002e633       ?type_case_d@?$output_processor@DV?$stream_output_adapter@D@__crt_stdio_output@@V?$standard_base@DV?$stream_output_adapter@D@__crt_stdio_output@@@2@@__crt_stdio_output@@AAE_NXZ 1002f633 f i libucrt:output.obj
 0001:0002e644       ?type_case_d@?$output_processor@DV?$string_output_adapter@D@__crt_stdio_output@@V?$format_validation_base@DV?$string_output_adapter@D@__crt_stdio_output@@@2@@__crt_stdio_output@@AAE_NXZ 1002f644 f i libucrt:output.obj
 0001:0002e655       ?type_case_d@?$output_processor@DV?$string_output_adapter@D@__crt_stdio_output@@V?$positional_parameter_base@DV?$string_output_adapter@D@__crt_stdio_output@@@2@@__crt_stdio_output@@AAE_NXZ 1002f655 f i libucrt:output.obj
 0001:0002e666       ?type_case_d@?$output_processor@DV?$string_output_adapter@D@__crt_stdio_output@@V?$standard_base@DV?$string_output_adapter@D@__crt_stdio_output@@@2@@__crt_stdio_output@@AAE_NXZ 1002f666 f i libucrt:output.obj
 0001:0002e677       ?type_case_d@?$output_processor@_WV?$stream_output_adapter@_W@__crt_stdio_output@@V?$format_validation_base@_WV?$stream_output_adapter@_W@__crt_stdio_output@@@2@@__crt_stdio_output@@AAE_NXZ 1002f677 f i libucrt:output.obj
 0001:0002e688       ?type_case_d@?$output_processor@_WV?$stream_output_adapter@_W@__crt_stdio_output@@V?$positional_parameter_base@_WV?$stream_output_adapter@_W@__crt_stdio_output@@@2@@__crt_stdio_output@@AAE_NXZ 1002f688 f i libucrt:output.obj
 0001:0002e699       ?type_case_d@?$output_processor@_WV?$stream_output_adapter@_W@__crt_stdio_output@@V?$standard_base@_WV?$stream_output_adapter@_W@__crt_stdio_output@@@2@@__crt_stdio_output@@AAE_NXZ 1002f699 f i libucrt:output.obj
 0001:0002e6aa       ?type_case_d@?$output_processor@_WV?$string_output_adapter@_W@__crt_stdio_output@@V?$format_validation_base@_WV?$string_output_adapter@_W@__crt_stdio_output@@@2@@__crt_stdio_output@@AAE_NXZ 1002f6aa f i libucrt:output.obj
 0001:0002e6bb       ?type_case_d@?$output_processor@_WV?$string_output_adapter@_W@__crt_stdio_output@@V?$positional_parameter_base@_WV?$string_output_adapter@_W@__crt_stdio_output@@@2@@__crt_stdio_output@@AAE_NXZ 1002f6bb f i libucrt:output.obj
 0001:0002e6cc       ?type_case_d@?$output_processor@_WV?$string_output_adapter@_W@__crt_stdio_output@@V?$standard_base@_WV?$string_output_adapter@_W@__crt_stdio_output@@@2@@__crt_stdio_output@@AAE_NXZ 1002f6cc f i libucrt:output.obj
 0001:0002e6dd       ?type_case_integer@?$output_processor@DV?$stream_output_adapter@D@__crt_stdio_output@@V?$format_validation_base@DV?$stream_output_adapter@D@__crt_stdio_output@@@2@@__crt_stdio_output@@AAE_NI_N@Z 1002f6dd f i libucrt:output.obj
 0001:0002e879       ?type_case_integer@?$output_processor@DV?$stream_output_adapter@D@__crt_stdio_output@@V?$positional_parameter_base@DV?$stream_output_adapter@D@__crt_stdio_output@@@2@@__crt_stdio_output@@AAE_NI_N@Z 1002f879 f i libucrt:output.obj
 0001:0002ea56       ?type_case_integer@?$output_processor@DV?$stream_output_adapter@D@__crt_stdio_output@@V?$standard_base@DV?$stream_output_adapter@D@__crt_stdio_output@@@2@@__crt_stdio_output@@AAE_NI_N@Z 1002fa56 f i libucrt:output.obj
 0001:0002ebf2       ?type_case_integer@?$output_processor@DV?$string_output_adapter@D@__crt_stdio_output@@V?$format_validation_base@DV?$string_output_adapter@D@__crt_stdio_output@@@2@@__crt_stdio_output@@AAE_NI_N@Z 1002fbf2 f i libucrt:output.obj
 0001:0002ed8e       ?type_case_integer@?$output_processor@DV?$string_output_adapter@D@__crt_stdio_output@@V?$positional_parameter_base@DV?$string_output_adapter@D@__crt_stdio_output@@@2@@__crt_stdio_output@@AAE_NI_N@Z 1002fd8e f i libucrt:output.obj
 0001:0002ef6b       ?type_case_integer@?$output_processor@DV?$string_output_adapter@D@__crt_stdio_output@@V?$standard_base@DV?$string_output_adapter@D@__crt_stdio_output@@@2@@__crt_stdio_output@@AAE_NI_N@Z 1002ff6b f i libucrt:output.obj
 0001:0002f107       ?type_case_integer@?$output_processor@_WV?$stream_output_adapter@_W@__crt_stdio_output@@V?$format_validation_base@_WV?$stream_output_adapter@_W@__crt_stdio_output@@@2@@__crt_stdio_output@@AAE_NI_N@Z 10030107 f i libucrt:output.obj
 0001:0002f2a3       ?type_case_integer@?$output_processor@_WV?$stream_output_adapter@_W@__crt_stdio_output@@V?$positional_parameter_base@_WV?$stream_output_adapter@_W@__crt_stdio_output@@@2@@__crt_stdio_output@@AAE_NI_N@Z 100302a3 f i libucrt:output.obj
 0001:0002f480       ?type_case_integer@?$output_processor@_WV?$stream_output_adapter@_W@__crt_stdio_output@@V?$standard_base@_WV?$stream_output_adapter@_W@__crt_stdio_output@@@2@@__crt_stdio_output@@AAE_NI_N@Z 10030480 f i libucrt:output.obj
 0001:0002f61c       ?type_case_integer@?$output_processor@_WV?$string_output_adapter@_W@__crt_stdio_output@@V?$format_validation_base@_WV?$string_output_adapter@_W@__crt_stdio_output@@@2@@__crt_stdio_output@@AAE_NI_N@Z 1003061c f i libucrt:output.obj
 0001:0002f7b8       ?type_case_integer@?$output_processor@_WV?$string_output_adapter@_W@__crt_stdio_output@@V?$positional_parameter_base@_WV?$string_output_adapter@_W@__crt_stdio_output@@@2@@__crt_stdio_output@@AAE_NI_N@Z 100307b8 f i libucrt:output.obj
 0001:0002f995       ?type_case_integer@?$output_processor@_WV?$string_output_adapter@_W@__crt_stdio_output@@V?$standard_base@_WV?$string_output_adapter@_W@__crt_stdio_output@@@2@@__crt_stdio_output@@AAE_NI_N@Z 10030995 f i libucrt:output.obj
 0001:0002fb31       ?type_case_n@?$output_processor@DV?$stream_output_adapter@D@__crt_stdio_output@@V?$format_validation_base@DV?$stream_output_adapter@D@__crt_stdio_output@@@2@@__crt_stdio_output@@AAE_NXZ 10030b31 f i libucrt:output.obj
 0001:0002fbc2       ?type_case_n@?$output_processor@DV?$stream_output_adapter@D@__crt_stdio_output@@V?$positional_parameter_base@DV?$stream_output_adapter@D@__crt_stdio_output@@@2@@__crt_stdio_output@@AAE_NXZ 10030bc2 f i libucrt:output.obj
 0001:0002fc81       ?type_case_n@?$output_processor@DV?$stream_output_adapter@D@__crt_stdio_output@@V?$standard_base@DV?$stream_output_adapter@D@__crt_stdio_output@@@2@@__crt_stdio_output@@AAE_NXZ 10030c81 f i libucrt:output.obj
 0001:0002fd12       ?type_case_n@?$output_processor@DV?$string_output_adapter@D@__crt_stdio_output@@V?$format_validation_base@DV?$string_output_adapter@D@__crt_stdio_output@@@2@@__crt_stdio_output@@AAE_NXZ 10030d12 f i libucrt:output.obj
 0001:0002fda3       ?type_case_n@?$output_processor@DV?$string_output_adapter@D@__crt_stdio_output@@V?$positional_parameter_base@DV?$string_output_adapter@D@__crt_stdio_output@@@2@@__crt_stdio_output@@AAE_NXZ 10030da3 f i libucrt:output.obj
 0001:0002fe62       ?type_case_n@?$output_processor@DV?$string_output_adapter@D@__crt_stdio_output@@V?$standard_base@DV?$string_output_adapter@D@__crt_stdio_output@@@2@@__crt_stdio_output@@AAE_NXZ 10030e62 f i libucrt:output.obj
 0001:0002fef3       ?type_case_n@?$output_processor@_WV?$stream_output_adapter@_W@__crt_stdio_output@@V?$format_validation_base@_WV?$stream_output_adapter@_W@__crt_stdio_output@@@2@@__crt_stdio_output@@AAE_NXZ 10030ef3 f i libucrt:output.obj
 0001:0002ff84       ?type_case_n@?$output_processor@_WV?$stream_output_adapter@_W@__crt_stdio_output@@V?$positional_parameter_base@_WV?$stream_output_adapter@_W@__crt_stdio_output@@@2@@__crt_stdio_output@@AAE_NXZ 10030f84 f i libucrt:output.obj
 0001:00030043       ?type_case_n@?$output_processor@_WV?$stream_output_adapter@_W@__crt_stdio_output@@V?$standard_base@_WV?$stream_output_adapter@_W@__crt_stdio_output@@@2@@__crt_stdio_output@@AAE_NXZ 10031043 f i libucrt:output.obj
 0001:000300d4       ?type_case_n@?$output_processor@_WV?$string_output_adapter@_W@__crt_stdio_output@@V?$format_validation_base@_WV?$string_output_adapter@_W@__crt_stdio_output@@@2@@__crt_stdio_output@@AAE_NXZ 100310d4 f i libucrt:output.obj
 0001:00030165       ?type_case_n@?$output_processor@_WV?$string_output_adapter@_W@__crt_stdio_output@@V?$positional_parameter_base@_WV?$string_output_adapter@_W@__crt_stdio_output@@@2@@__crt_stdio_output@@AAE_NXZ 10031165 f i libucrt:output.obj
 0001:00030224       ?type_case_n@?$output_processor@_WV?$string_output_adapter@_W@__crt_stdio_output@@V?$standard_base@_WV?$string_output_adapter@_W@__crt_stdio_output@@@2@@__crt_stdio_output@@AAE_NXZ 10031224 f i libucrt:output.obj
 0001:000302b5       ?type_case_o@?$output_processor@DV?$stream_output_adapter@D@__crt_stdio_output@@V?$format_validation_base@DV?$stream_output_adapter@D@__crt_stdio_output@@@2@@__crt_stdio_output@@AAE_NXZ 100312b5 f i libucrt:output.obj
 0001:000302db       ?type_case_o@?$output_processor@DV?$stream_output_adapter@D@__crt_stdio_output@@V?$positional_parameter_base@DV?$stream_output_adapter@D@__crt_stdio_output@@@2@@__crt_stdio_output@@AAE_NXZ 100312db f i libucrt:output.obj
 0001:00030301       ?type_case_o@?$output_processor@DV?$stream_output_adapter@D@__crt_stdio_output@@V?$standard_base@DV?$stream_output_adapter@D@__crt_stdio_output@@@2@@__crt_stdio_output@@AAE_NXZ 10031301 f i libucrt:output.obj
 0001:00030327       ?type_case_o@?$output_processor@DV?$string_output_adapter@D@__crt_stdio_output@@V?$format_validation_base@DV?$string_output_adapter@D@__crt_stdio_output@@@2@@__crt_stdio_output@@AAE_NXZ 10031327 f i libucrt:output.obj
 0001:0003034d       ?type_case_o@?$output_processor@DV?$string_output_adapter@D@__crt_stdio_output@@V?$positional_parameter_base@DV?$string_output_adapter@D@__crt_stdio_output@@@2@@__crt_stdio_output@@AAE_NXZ 1003134d f i libucrt:output.obj
 0001:00030373       ?type_case_o@?$output_processor@DV?$string_output_adapter@D@__crt_stdio_output@@V?$standard_base@DV?$string_output_adapter@D@__crt_stdio_output@@@2@@__crt_stdio_output@@AAE_NXZ 10031373 f i libucrt:output.obj
 0001:00030399       ?type_case_o@?$output_processor@_WV?$stream_output_adapter@_W@__crt_stdio_output@@V?$format_validation_base@_WV?$stream_output_adapter@_W@__crt_stdio_output@@@2@@__crt_stdio_output@@AAE_NXZ 10031399 f i libucrt:output.obj
 0001:000303bf       ?type_case_o@?$output_processor@_WV?$stream_output_adapter@_W@__crt_stdio_output@@V?$positional_parameter_base@_WV?$stream_output_adapter@_W@__crt_stdio_output@@@2@@__crt_stdio_output@@AAE_NXZ 100313bf f i libucrt:output.obj
 0001:000303e5       ?type_case_o@?$output_processor@_WV?$stream_output_adapter@_W@__crt_stdio_output@@V?$standard_base@_WV?$stream_output_adapter@_W@__crt_stdio_output@@@2@@__crt_stdio_output@@AAE_NXZ 100313e5 f i libucrt:output.obj
 0001:0003040b       ?type_case_o@?$output_processor@_WV?$string_output_adapter@_W@__crt_stdio_output@@V?$format_validation_base@_WV?$string_output_adapter@_W@__crt_stdio_output@@@2@@__crt_stdio_output@@AAE_NXZ 1003140b f i libucrt:output.obj
 0001:00030431       ?type_case_o@?$output_processor@_WV?$string_output_adapter@_W@__crt_stdio_output@@V?$positional_parameter_base@_WV?$string_output_adapter@_W@__crt_stdio_output@@@2@@__crt_stdio_output@@AAE_NXZ 10031431 f i libucrt:output.obj
 0001:00030457       ?type_case_o@?$output_processor@_WV?$string_output_adapter@_W@__crt_stdio_output@@V?$standard_base@_WV?$string_output_adapter@_W@__crt_stdio_output@@@2@@__crt_stdio_output@@AAE_NXZ 10031457 f i libucrt:output.obj
 0001:0003047d       ?type_case_p@?$output_processor@DV?$stream_output_adapter@D@__crt_stdio_output@@V?$format_validation_base@DV?$stream_output_adapter@D@__crt_stdio_output@@@2@@__crt_stdio_output@@AAE_NXZ 1003147d f i libucrt:output.obj
 0001:0003049b       ?type_case_p@?$output_processor@DV?$stream_output_adapter@D@__crt_stdio_output@@V?$positional_parameter_base@DV?$stream_output_adapter@D@__crt_stdio_output@@@2@@__crt_stdio_output@@AAE_NXZ 1003149b f i libucrt:output.obj
 0001:000304b9       ?type_case_p@?$output_processor@DV?$stream_output_adapter@D@__crt_stdio_output@@V?$standard_base@DV?$stream_output_adapter@D@__crt_stdio_output@@@2@@__crt_stdio_output@@AAE_NXZ 100314b9 f i libucrt:output.obj
 0001:000304d7       ?type_case_p@?$output_processor@DV?$string_output_adapter@D@__crt_stdio_output@@V?$format_validation_base@DV?$string_output_adapter@D@__crt_stdio_output@@@2@@__crt_stdio_output@@AAE_NXZ 100314d7 f i libucrt:output.obj
 0001:000304f5       ?type_case_p@?$output_processor@DV?$string_output_adapter@D@__crt_stdio_output@@V?$positional_parameter_base@DV?$string_output_adapter@D@__crt_stdio_output@@@2@@__crt_stdio_output@@AAE_NXZ 100314f5 f i libucrt:output.obj
 0001:00030513       ?type_case_p@?$output_processor@DV?$string_output_adapter@D@__crt_stdio_output@@V?$standard_base@DV?$string_output_adapter@D@__crt_stdio_output@@@2@@__crt_stdio_output@@AAE_NXZ 10031513 f i libucrt:output.obj
 0001:00030531       ?type_case_p@?$output_processor@_WV?$stream_output_adapter@_W@__crt_stdio_output@@V?$format_validation_base@_WV?$stream_output_adapter@_W@__crt_stdio_output@@@2@@__crt_stdio_output@@AAE_NXZ 10031531 f i libucrt:output.obj
 0001:0003054f       ?type_case_p@?$output_processor@_WV?$stream_output_adapter@_W@__crt_stdio_output@@V?$positional_parameter_base@_WV?$stream_output_adapter@_W@__crt_stdio_output@@@2@@__crt_stdio_output@@AAE_NXZ 1003154f f i libucrt:output.obj
 0001:0003056d       ?type_case_p@?$output_processor@_WV?$stream_output_adapter@_W@__crt_stdio_output@@V?$standard_base@_WV?$stream_output_adapter@_W@__crt_stdio_output@@@2@@__crt_stdio_output@@AAE_NXZ 1003156d f i libucrt:output.obj
 0001:0003058b       ?type_case_p@?$output_processor@_WV?$string_output_adapter@_W@__crt_stdio_output@@V?$format_validation_base@_WV?$string_output_adapter@_W@__crt_stdio_output@@@2@@__crt_stdio_output@@AAE_NXZ 1003158b f i libucrt:output.obj
 0001:000305a9       ?type_case_p@?$output_processor@_WV?$string_output_adapter@_W@__crt_stdio_output@@V?$positional_parameter_base@_WV?$string_output_adapter@_W@__crt_stdio_output@@@2@@__crt_stdio_output@@AAE_NXZ 100315a9 f i libucrt:output.obj
 0001:000305c7       ?type_case_p@?$output_processor@_WV?$string_output_adapter@_W@__crt_stdio_output@@V?$standard_base@_WV?$string_output_adapter@_W@__crt_stdio_output@@@2@@__crt_stdio_output@@AAE_NXZ 100315c7 f i libucrt:output.obj
 0001:000305e5       ?type_case_s@?$output_processor@DV?$stream_output_adapter@D@__crt_stdio_output@@V?$format_validation_base@DV?$stream_output_adapter@D@__crt_stdio_output@@@2@@__crt_stdio_output@@AAE_NXZ 100315e5 f i libucrt:output.obj
 0001:00030674       ?type_case_s@?$output_processor@DV?$stream_output_adapter@D@__crt_stdio_output@@V?$positional_parameter_base@DV?$stream_output_adapter@D@__crt_stdio_output@@@2@@__crt_stdio_output@@AAE_NXZ 10031674 f i libucrt:output.obj
 0001:0003070f       ?type_case_s@?$output_processor@DV?$stream_output_adapter@D@__crt_stdio_output@@V?$standard_base@DV?$stream_output_adapter@D@__crt_stdio_output@@@2@@__crt_stdio_output@@AAE_NXZ 1003170f f i libucrt:output.obj
 0001:0003079e       ?type_case_s@?$output_processor@DV?$string_output_adapter@D@__crt_stdio_output@@V?$format_validation_base@DV?$string_output_adapter@D@__crt_stdio_output@@@2@@__crt_stdio_output@@AAE_NXZ 1003179e f i libucrt:output.obj
 0001:0003082d       ?type_case_s@?$output_processor@DV?$string_output_adapter@D@__crt_stdio_output@@V?$positional_parameter_base@DV?$string_output_adapter@D@__crt_stdio_output@@@2@@__crt_stdio_output@@AAE_NXZ 1003182d f i libucrt:output.obj
 0001:000308c8       ?type_case_s@?$output_processor@DV?$string_output_adapter@D@__crt_stdio_output@@V?$standard_base@DV?$string_output_adapter@D@__crt_stdio_output@@@2@@__crt_stdio_output@@AAE_NXZ 100318c8 f i libucrt:output.obj
 0001:00030957       ?type_case_s@?$output_processor@_WV?$stream_output_adapter@_W@__crt_stdio_output@@V?$format_validation_base@_WV?$stream_output_adapter@_W@__crt_stdio_output@@@2@@__crt_stdio_output@@AAE_NXZ 10031957 f i libucrt:output.obj
 0001:000309e8       ?type_case_s@?$output_processor@_WV?$stream_output_adapter@_W@__crt_stdio_output@@V?$positional_parameter_base@_WV?$stream_output_adapter@_W@__crt_stdio_output@@@2@@__crt_stdio_output@@AAE_NXZ 100319e8 f i libucrt:output.obj
 0001:00030a85       ?type_case_s@?$output_processor@_WV?$stream_output_adapter@_W@__crt_stdio_output@@V?$standard_base@_WV?$stream_output_adapter@_W@__crt_stdio_output@@@2@@__crt_stdio_output@@AAE_NXZ 10031a85 f i libucrt:output.obj
 0001:00030b16       ?type_case_s@?$output_processor@_WV?$string_output_adapter@_W@__crt_stdio_output@@V?$format_validation_base@_WV?$string_output_adapter@_W@__crt_stdio_output@@@2@@__crt_stdio_output@@AAE_NXZ 10031b16 f i libucrt:output.obj
 0001:00030ba7       ?type_case_s@?$output_processor@_WV?$string_output_adapter@_W@__crt_stdio_output@@V?$positional_parameter_base@_WV?$string_output_adapter@_W@__crt_stdio_output@@@2@@__crt_stdio_output@@AAE_NXZ 10031ba7 f i libucrt:output.obj
 0001:00030c44       ?type_case_s@?$output_processor@_WV?$string_output_adapter@_W@__crt_stdio_output@@V?$standard_base@_WV?$string_output_adapter@_W@__crt_stdio_output@@@2@@__crt_stdio_output@@AAE_NXZ 10031c44 f i libucrt:output.obj
 0001:00030cd5       ?type_case_s_compute_narrow_string_length@?$output_processor@DV?$stream_output_adapter@D@__crt_stdio_output@@V?$format_validation_base@DV?$stream_output_adapter@D@__crt_stdio_output@@@2@@__crt_stdio_output@@ABEHHD@Z 10031cd5 f i libucrt:output.obj
 0001:00030cf0       ?type_case_s_compute_narrow_string_length@?$output_processor@DV?$stream_output_adapter@D@__crt_stdio_output@@V?$positional_parameter_base@DV?$stream_output_adapter@D@__crt_stdio_output@@@2@@__crt_stdio_output@@ABEHHD@Z 10031cf0 f i libucrt:output.obj
 0001:00030d0b       ?type_case_s_compute_narrow_string_length@?$output_processor@DV?$stream_output_adapter@D@__crt_stdio_output@@V?$standard_base@DV?$stream_output_adapter@D@__crt_stdio_output@@@2@@__crt_stdio_output@@ABEHHD@Z 10031d0b f i libucrt:output.obj
 0001:00030d26       ?type_case_s_compute_narrow_string_length@?$output_processor@DV?$string_output_adapter@D@__crt_stdio_output@@V?$format_validation_base@DV?$string_output_adapter@D@__crt_stdio_output@@@2@@__crt_stdio_output@@ABEHHD@Z 10031d26 f i libucrt:output.obj
 0001:00030d41       ?type_case_s_compute_narrow_string_length@?$output_processor@DV?$string_output_adapter@D@__crt_stdio_output@@V?$positional_parameter_base@DV?$string_output_adapter@D@__crt_stdio_output@@@2@@__crt_stdio_output@@ABEHHD@Z 10031d41 f i libucrt:output.obj
 0001:00030d5c       ?type_case_s_compute_narrow_string_length@?$output_processor@DV?$string_output_adapter@D@__crt_stdio_output@@V?$standard_base@DV?$string_output_adapter@D@__crt_stdio_output@@@2@@__crt_stdio_output@@ABEHHD@Z 10031d5c f i libucrt:output.obj
 0001:00030d77       ?type_case_s_compute_narrow_string_length@?$output_processor@_WV?$stream_output_adapter@_W@__crt_stdio_output@@V?$format_validation_base@_WV?$stream_output_adapter@_W@__crt_stdio_output@@@2@@__crt_stdio_output@@ABEHH_W@Z 10031d77 f i libucrt:output.obj
 0001:00030dc7       ?type_case_s_compute_narrow_string_length@?$output_processor@_WV?$stream_output_adapter@_W@__crt_stdio_output@@V?$positional_parameter_base@_WV?$stream_output_adapter@_W@__crt_stdio_output@@@2@@__crt_stdio_output@@ABEHH_W@Z 10031dc7 f i libucrt:output.obj
 0001:00030e17       ?type_case_s_compute_narrow_string_length@?$output_processor@_WV?$stream_output_adapter@_W@__crt_stdio_output@@V?$standard_base@_WV?$stream_output_adapter@_W@__crt_stdio_output@@@2@@__crt_stdio_output@@ABEHH_W@Z 10031e17 f i libucrt:output.obj
 0001:00030e67       ?type_case_s_compute_narrow_string_length@?$output_processor@_WV?$string_output_adapter@_W@__crt_stdio_output@@V?$format_validation_base@_WV?$string_output_adapter@_W@__crt_stdio_output@@@2@@__crt_stdio_output@@ABEHH_W@Z 10031e67 f i libucrt:output.obj
 0001:00030eb7       ?type_case_s_compute_narrow_string_length@?$output_processor@_WV?$string_output_adapter@_W@__crt_stdio_output@@V?$positional_parameter_base@_WV?$string_output_adapter@_W@__crt_stdio_output@@@2@@__crt_stdio_output@@ABEHH_W@Z 10031eb7 f i libucrt:output.obj
 0001:00030f07       ?type_case_s_compute_narrow_string_length@?$output_processor@_WV?$string_output_adapter@_W@__crt_stdio_output@@V?$standard_base@_WV?$string_output_adapter@_W@__crt_stdio_output@@@2@@__crt_stdio_output@@ABEHH_W@Z 10031f07 f i libucrt:output.obj
 0001:00030f57       ?type_case_u@?$output_processor@DV?$stream_output_adapter@D@__crt_stdio_output@@V?$format_validation_base@DV?$stream_output_adapter@D@__crt_stdio_output@@@2@@__crt_stdio_output@@AAE_NXZ 10031f57 f i libucrt:output.obj
 0001:00030f63       ?type_case_u@?$output_processor@DV?$stream_output_adapter@D@__crt_stdio_output@@V?$positional_parameter_base@DV?$stream_output_adapter@D@__crt_stdio_output@@@2@@__crt_stdio_output@@AAE_NXZ 10031f63 f i libucrt:output.obj
 0001:00030f6f       ?type_case_u@?$output_processor@DV?$stream_output_adapter@D@__crt_stdio_output@@V?$standard_base@DV?$stream_output_adapter@D@__crt_stdio_output@@@2@@__crt_stdio_output@@AAE_NXZ 10031f6f f i libucrt:output.obj
 0001:00030f7b       ?type_case_u@?$output_processor@DV?$string_output_adapter@D@__crt_stdio_output@@V?$format_validation_base@DV?$string_output_adapter@D@__crt_stdio_output@@@2@@__crt_stdio_output@@AAE_NXZ 10031f7b f i libucrt:output.obj
 0001:00030f87       ?type_case_u@?$output_processor@DV?$string_output_adapter@D@__crt_stdio_output@@V?$positional_parameter_base@DV?$string_output_adapter@D@__crt_stdio_output@@@2@@__crt_stdio_output@@AAE_NXZ 10031f87 f i libucrt:output.obj
 0001:00030f93       ?type_case_u@?$output_processor@DV?$string_output_adapter@D@__crt_stdio_output@@V?$standard_base@DV?$string_output_adapter@D@__crt_stdio_output@@@2@@__crt_stdio_output@@AAE_NXZ 10031f93 f i libucrt:output.obj
 0001:00030f9f       ?type_case_u@?$output_processor@_WV?$stream_output_adapter@_W@__crt_stdio_output@@V?$format_validation_base@_WV?$stream_output_adapter@_W@__crt_stdio_output@@@2@@__crt_stdio_output@@AAE_NXZ 10031f9f f i libucrt:output.obj
 0001:00030fab       ?type_case_u@?$output_processor@_WV?$stream_output_adapter@_W@__crt_stdio_output@@V?$positional_parameter_base@_WV?$stream_output_adapter@_W@__crt_stdio_output@@@2@@__crt_stdio_output@@AAE_NXZ 10031fab f i libucrt:output.obj
 0001:00030fb7       ?type_case_u@?$output_processor@_WV?$stream_output_adapter@_W@__crt_stdio_output@@V?$standard_base@_WV?$stream_output_adapter@_W@__crt_stdio_output@@@2@@__crt_stdio_output@@AAE_NXZ 10031fb7 f i libucrt:output.obj
 0001:00030fc3       ?type_case_u@?$output_processor@_WV?$string_output_adapter@_W@__crt_stdio_output@@V?$format_validation_base@_WV?$string_output_adapter@_W@__crt_stdio_output@@@2@@__crt_stdio_output@@AAE_NXZ 10031fc3 f i libucrt:output.obj
 0001:00030fcf       ?type_case_u@?$output_processor@_WV?$string_output_adapter@_W@__crt_stdio_output@@V?$positional_parameter_base@_WV?$string_output_adapter@_W@__crt_stdio_output@@@2@@__crt_stdio_output@@AAE_NXZ 10031fcf f i libucrt:output.obj
 0001:00030fdb       ?type_case_u@?$output_processor@_WV?$string_output_adapter@_W@__crt_stdio_output@@V?$standard_base@_WV?$string_output_adapter@_W@__crt_stdio_output@@@2@@__crt_stdio_output@@AAE_NXZ 10031fdb f i libucrt:output.obj
 0001:00030fe7       ?type_case_x@?$output_processor@DV?$stream_output_adapter@D@__crt_stdio_output@@V?$format_validation_base@DV?$stream_output_adapter@D@__crt_stdio_output@@@2@@__crt_stdio_output@@AAE_NXZ 10031fe7 f i libucrt:output.obj
 0001:00030ff3       ?type_case_x@?$output_processor@DV?$stream_output_adapter@D@__crt_stdio_output@@V?$positional_parameter_base@DV?$stream_output_adapter@D@__crt_stdio_output@@@2@@__crt_stdio_output@@AAE_NXZ 10031ff3 f i libucrt:output.obj
 0001:00030fff       ?type_case_x@?$output_processor@DV?$stream_output_adapter@D@__crt_stdio_output@@V?$standard_base@DV?$stream_output_adapter@D@__crt_stdio_output@@@2@@__crt_stdio_output@@AAE_NXZ 10031fff f i libucrt:output.obj
 0001:0003100b       ?type_case_x@?$output_processor@DV?$string_output_adapter@D@__crt_stdio_output@@V?$format_validation_base@DV?$string_output_adapter@D@__crt_stdio_output@@@2@@__crt_stdio_output@@AAE_NXZ 1003200b f i libucrt:output.obj
 0001:00031017       ?type_case_x@?$output_processor@DV?$string_output_adapter@D@__crt_stdio_output@@V?$positional_parameter_base@DV?$string_output_adapter@D@__crt_stdio_output@@@2@@__crt_stdio_output@@AAE_NXZ 10032017 f i libucrt:output.obj
 0001:00031023       ?type_case_x@?$output_processor@DV?$string_output_adapter@D@__crt_stdio_output@@V?$standard_base@DV?$string_output_adapter@D@__crt_stdio_output@@@2@@__crt_stdio_output@@AAE_NXZ 10032023 f i libucrt:output.obj
 0001:0003102f       ?type_case_x@?$output_processor@_WV?$stream_output_adapter@_W@__crt_stdio_output@@V?$format_validation_base@_WV?$stream_output_adapter@_W@__crt_stdio_output@@@2@@__crt_stdio_output@@AAE_NXZ 1003202f f i libucrt:output.obj
 0001:0003103b       ?type_case_x@?$output_processor@_WV?$stream_output_adapter@_W@__crt_stdio_output@@V?$positional_parameter_base@_WV?$stream_output_adapter@_W@__crt_stdio_output@@@2@@__crt_stdio_output@@AAE_NXZ 1003203b f i libucrt:output.obj
 0001:00031047       ?type_case_x@?$output_processor@_WV?$stream_output_adapter@_W@__crt_stdio_output@@V?$standard_base@_WV?$stream_output_adapter@_W@__crt_stdio_output@@@2@@__crt_stdio_output@@AAE_NXZ 10032047 f i libucrt:output.obj
 0001:00031053       ?type_case_x@?$output_processor@_WV?$string_output_adapter@_W@__crt_stdio_output@@V?$format_validation_base@_WV?$string_output_adapter@_W@__crt_stdio_output@@@2@@__crt_stdio_output@@AAE_NXZ 10032053 f i libucrt:output.obj
 0001:0003105f       ?type_case_x@?$output_processor@_WV?$string_output_adapter@_W@__crt_stdio_output@@V?$positional_parameter_base@_WV?$string_output_adapter@_W@__crt_stdio_output@@@2@@__crt_stdio_output@@AAE_NXZ 1003205f f i libucrt:output.obj
 0001:0003106b       ?type_case_x@?$output_processor@_WV?$string_output_adapter@_W@__crt_stdio_output@@V?$standard_base@_WV?$string_output_adapter@_W@__crt_stdio_output@@@2@@__crt_stdio_output@@AAE_NXZ 1003206b f i libucrt:output.obj
 0001:00031077       ?unset_flag@?$output_processor@DV?$stream_output_adapter@D@__crt_stdio_output@@V?$format_validation_base@DV?$stream_output_adapter@D@__crt_stdio_output@@@2@@__crt_stdio_output@@AAEXI@Z 10032077 f i libucrt:output.obj
 0001:0003108c       ?unset_flag@?$output_processor@DV?$stream_output_adapter@D@__crt_stdio_output@@V?$positional_parameter_base@DV?$stream_output_adapter@D@__crt_stdio_output@@@2@@__crt_stdio_output@@AAEXI@Z 1003208c f i libucrt:output.obj
 0001:000310a1       ?unset_flag@?$output_processor@DV?$stream_output_adapter@D@__crt_stdio_output@@V?$standard_base@DV?$stream_output_adapter@D@__crt_stdio_output@@@2@@__crt_stdio_output@@AAEXI@Z 100320a1 f i libucrt:output.obj
 0001:000310b6       ?unset_flag@?$output_processor@DV?$string_output_adapter@D@__crt_stdio_output@@V?$format_validation_base@DV?$string_output_adapter@D@__crt_stdio_output@@@2@@__crt_stdio_output@@AAEXI@Z 100320b6 f i libucrt:output.obj
 0001:000310cb       ?unset_flag@?$output_processor@DV?$string_output_adapter@D@__crt_stdio_output@@V?$positional_parameter_base@DV?$string_output_adapter@D@__crt_stdio_output@@@2@@__crt_stdio_output@@AAEXI@Z 100320cb f i libucrt:output.obj
 0001:000310e0       ?unset_flag@?$output_processor@DV?$string_output_adapter@D@__crt_stdio_output@@V?$standard_base@DV?$string_output_adapter@D@__crt_stdio_output@@@2@@__crt_stdio_output@@AAEXI@Z 100320e0 f i libucrt:output.obj
 0001:000310f5       ?unset_flag@?$output_processor@_WV?$stream_output_adapter@_W@__crt_stdio_output@@V?$format_validation_base@_WV?$stream_output_adapter@_W@__crt_stdio_output@@@2@@__crt_stdio_output@@AAEXI@Z 100320f5 f i libucrt:output.obj
 0001:0003110a       ?unset_flag@?$output_processor@_WV?$stream_output_adapter@_W@__crt_stdio_output@@V?$positional_parameter_base@_WV?$stream_output_adapter@_W@__crt_stdio_output@@@2@@__crt_stdio_output@@AAEXI@Z 1003210a f i libucrt:output.obj
 0001:0003111f       ?unset_flag@?$output_processor@_WV?$stream_output_adapter@_W@__crt_stdio_output@@V?$standard_base@_WV?$stream_output_adapter@_W@__crt_stdio_output@@@2@@__crt_stdio_output@@AAEXI@Z 1003211f f i libucrt:output.obj
 0001:00031134       ?unset_flag@?$output_processor@_WV?$string_output_adapter@_W@__crt_stdio_output@@V?$format_validation_base@_WV?$string_output_adapter@_W@__crt_stdio_output@@@2@@__crt_stdio_output@@AAEXI@Z 10032134 f i libucrt:output.obj
 0001:00031149       ?unset_flag@?$output_processor@_WV?$string_output_adapter@_W@__crt_stdio_output@@V?$positional_parameter_base@_WV?$string_output_adapter@_W@__crt_stdio_output@@@2@@__crt_stdio_output@@AAEXI@Z 10032149 f i libucrt:output.obj
 0001:0003115e       ?unset_flag@?$output_processor@_WV?$string_output_adapter@_W@__crt_stdio_output@@V?$standard_base@_WV?$string_output_adapter@_W@__crt_stdio_output@@@2@@__crt_stdio_output@@AAEXI@Z 1003215e f i libucrt:output.obj
 0001:00031173       ?update_field_width@?$positional_parameter_base@DV?$stream_output_adapter@D@__crt_stdio_output@@@__crt_stdio_output@@IAE_NXZ 10032173 f i libucrt:output.obj
 0001:00031256       ?update_field_width@?$positional_parameter_base@DV?$string_output_adapter@D@__crt_stdio_output@@@__crt_stdio_output@@IAE_NXZ 10032256 f i libucrt:output.obj
 0001:00031339       ?update_field_width@?$positional_parameter_base@_WV?$stream_output_adapter@_W@__crt_stdio_output@@@__crt_stdio_output@@IAE_NXZ 10032339 f i libucrt:output.obj
 0001:0003141d       ?update_field_width@?$positional_parameter_base@_WV?$string_output_adapter@_W@__crt_stdio_output@@@__crt_stdio_output@@IAE_NXZ 1003241d f i libucrt:output.obj
 0001:00031501       ?update_field_width@?$standard_base@DV?$stream_output_adapter@D@__crt_stdio_output@@@__crt_stdio_output@@IAE_NXZ 10032501 f i libucrt:output.obj
 0001:00031515       ?update_field_width@?$standard_base@DV?$string_output_adapter@D@__crt_stdio_output@@@__crt_stdio_output@@IAE_NXZ 10032515 f i libucrt:output.obj
 0001:00031529       ?update_field_width@?$standard_base@_WV?$stream_output_adapter@_W@__crt_stdio_output@@@__crt_stdio_output@@IAE_NXZ 10032529 f i libucrt:output.obj
 0001:0003153d       ?update_field_width@?$standard_base@_WV?$string_output_adapter@_W@__crt_stdio_output@@@__crt_stdio_output@@IAE_NXZ 1003253d f i libucrt:output.obj
 0001:00031551       ?update_precision@?$positional_parameter_base@DV?$stream_output_adapter@D@__crt_stdio_output@@@__crt_stdio_output@@IAE_NXZ 10032551 f i libucrt:output.obj
 0001:00031634       ?update_precision@?$positional_parameter_base@DV?$string_output_adapter@D@__crt_stdio_output@@@__crt_stdio_output@@IAE_NXZ 10032634 f i libucrt:output.obj
 0001:00031717       ?update_precision@?$positional_parameter_base@_WV?$stream_output_adapter@_W@__crt_stdio_output@@@__crt_stdio_output@@IAE_NXZ 10032717 f i libucrt:output.obj
 0001:000317fb       ?update_precision@?$positional_parameter_base@_WV?$string_output_adapter@_W@__crt_stdio_output@@@__crt_stdio_output@@IAE_NXZ 100327fb f i libucrt:output.obj
 0001:000318df       ?update_precision@?$standard_base@DV?$stream_output_adapter@D@__crt_stdio_output@@@__crt_stdio_output@@IAE_NXZ 100328df f i libucrt:output.obj
 0001:000318f3       ?update_precision@?$standard_base@DV?$string_output_adapter@D@__crt_stdio_output@@@__crt_stdio_output@@IAE_NXZ 100328f3 f i libucrt:output.obj
 0001:00031907       ?update_precision@?$standard_base@_WV?$stream_output_adapter@_W@__crt_stdio_output@@@__crt_stdio_output@@IAE_NXZ 10032907 f i libucrt:output.obj
 0001:0003191b       ?update_precision@?$standard_base@_WV?$string_output_adapter@_W@__crt_stdio_output@@@__crt_stdio_output@@IAE_NXZ 1003291b f i libucrt:output.obj
 0001:0003192f       ?valid@__crt_stdio_stream@@QBE_NXZ 1003292f f i libucrt:output.obj
 0001:00031939       ?validate@?$stream_output_adapter@D@__crt_stdio_output@@QBE_NXZ 10032939 f i libucrt:output.obj
 0001:00031962       ?validate@?$stream_output_adapter@_W@__crt_stdio_output@@QBE_NXZ 10032962 f i libucrt:output.obj
 0001:00031983       ?validate@?$string_output_adapter@D@__crt_stdio_output@@QBE_NXZ 10032983 f i libucrt:output.obj
 0001:000319a4       ?validate@?$string_output_adapter@_W@__crt_stdio_output@@QBE_NXZ 100329a4 f i libucrt:output.obj
 0001:000319c5       ?validate_and_store_parameter_data@?$positional_parameter_base@DV?$stream_output_adapter@D@__crt_stdio_output@@@__crt_stdio_output@@AAE_NAAUparameter_data@12@W4parameter_type@12@DW4length_modifier@2@@Z 100329c5 f i libucrt:output.obj
 0001:00031a22       ?validate_and_store_parameter_data@?$positional_parameter_base@DV?$string_output_adapter@D@__crt_stdio_output@@@__crt_stdio_output@@AAE_NAAUparameter_data@12@W4parameter_type@12@DW4length_modifier@2@@Z 10032a22 f i libucrt:output.obj
 0001:00031a7f       ?validate_and_store_parameter_data@?$positional_parameter_base@_WV?$stream_output_adapter@_W@__crt_stdio_output@@@__crt_stdio_output@@AAE_NAAUparameter_data@12@W4parameter_type@12@_WW4length_modifier@2@@Z 10032a7f f i libucrt:output.obj
 0001:00031adf       ?validate_and_store_parameter_data@?$positional_parameter_base@_WV?$string_output_adapter@_W@__crt_stdio_output@@@__crt_stdio_output@@AAE_NAAUparameter_data@12@W4parameter_type@12@_WW4length_modifier@2@@Z 10032adf f i libucrt:output.obj
 0001:00031b3f       ?validate_and_update_state_at_beginning_of_format_character@?$positional_parameter_base@DV?$stream_output_adapter@D@__crt_stdio_output@@@__crt_stdio_output@@IAE_NXZ 10032b3f f i libucrt:output.obj
 0001:00031c75       ?validate_and_update_state_at_beginning_of_format_character@?$positional_parameter_base@DV?$string_output_adapter@D@__crt_stdio_output@@@__crt_stdio_output@@IAE_NXZ 10032c75 f i libucrt:output.obj
 0001:00031dab       ?validate_and_update_state_at_beginning_of_format_character@?$positional_parameter_base@_WV?$stream_output_adapter@_W@__crt_stdio_output@@@__crt_stdio_output@@IAE_NXZ 10032dab f i libucrt:output.obj
 0001:00031eed       ?validate_and_update_state_at_beginning_of_format_character@?$positional_parameter_base@_WV?$string_output_adapter@_W@__crt_stdio_output@@@__crt_stdio_output@@IAE_NXZ 10032eed f i libucrt:output.obj
 0001:0003202f       ?validate_and_update_state_at_beginning_of_format_character@?$standard_base@DV?$stream_output_adapter@D@__crt_stdio_output@@@__crt_stdio_output@@IAE_NXZ 1003302f f i libucrt:output.obj
 0001:00032032       ?validate_and_update_state_at_beginning_of_format_character@?$standard_base@DV?$string_output_adapter@D@__crt_stdio_output@@@__crt_stdio_output@@IAE_NXZ 10033032 f i libucrt:output.obj
 0001:00032035       ?validate_and_update_state_at_beginning_of_format_character@?$standard_base@_WV?$stream_output_adapter@_W@__crt_stdio_output@@@__crt_stdio_output@@IAE_NXZ 10033035 f i libucrt:output.obj
 0001:00032038       ?validate_and_update_state_at_beginning_of_format_character@?$standard_base@_WV?$string_output_adapter@_W@__crt_stdio_output@@@__crt_stdio_output@@IAE_NXZ 10033038 f i libucrt:output.obj
 0001:0003203b       ?validate_and_update_state_at_end_of_format_string@?$format_validation_base@DV?$stream_output_adapter@D@__crt_stdio_output@@@__crt_stdio_output@@IBE_NXZ 1003303b f i libucrt:output.obj
 0001:00032065       ?validate_and_update_state_at_end_of_format_string@?$format_validation_base@DV?$string_output_adapter@D@__crt_stdio_output@@@__crt_stdio_output@@IBE_NXZ 10033065 f i libucrt:output.obj
 0001:0003208f       ?validate_and_update_state_at_end_of_format_string@?$format_validation_base@_WV?$stream_output_adapter@_W@__crt_stdio_output@@@__crt_stdio_output@@IBE_NXZ 1003308f f i libucrt:output.obj
 0001:000320b9       ?validate_and_update_state_at_end_of_format_string@?$format_validation_base@_WV?$string_output_adapter@_W@__crt_stdio_output@@@__crt_stdio_output@@IBE_NXZ 100330b9 f i libucrt:output.obj
 0001:000320e3       ?validate_and_update_state_at_end_of_format_string@?$positional_parameter_base@DV?$stream_output_adapter@D@__crt_stdio_output@@@__crt_stdio_output@@IAE_NXZ 100330e3 f i libucrt:output.obj
 0001:00032183       ?validate_and_update_state_at_end_of_format_string@?$positional_parameter_base@DV?$string_output_adapter@D@__crt_stdio_output@@@__crt_stdio_output@@IAE_NXZ 10033183 f i libucrt:output.obj
 0001:00032223       ?validate_and_update_state_at_end_of_format_string@?$positional_parameter_base@_WV?$stream_output_adapter@_W@__crt_stdio_output@@@__crt_stdio_output@@IAE_NXZ 10033223 f i libucrt:output.obj
 0001:000322c3       ?validate_and_update_state_at_end_of_format_string@?$positional_parameter_base@_WV?$string_output_adapter@_W@__crt_stdio_output@@@__crt_stdio_output@@IAE_NXZ 100332c3 f i libucrt:output.obj
 0001:00032363       ?validate_and_update_state_at_end_of_format_string@?$standard_base@DV?$stream_output_adapter@D@__crt_stdio_output@@@__crt_stdio_output@@IBE_NXZ 10033363 f i libucrt:output.obj
 0001:00032366       ?validate_and_update_state_at_end_of_format_string@?$standard_base@DV?$string_output_adapter@D@__crt_stdio_output@@@__crt_stdio_output@@IBE_NXZ 10033366 f i libucrt:output.obj
 0001:00032369       ?validate_and_update_state_at_end_of_format_string@?$standard_base@_WV?$stream_output_adapter@_W@__crt_stdio_output@@@__crt_stdio_output@@IBE_NXZ 10033369 f i libucrt:output.obj
 0001:0003236c       ?validate_and_update_state_at_end_of_format_string@?$standard_base@_WV?$string_output_adapter@_W@__crt_stdio_output@@@__crt_stdio_output@@IBE_NXZ 1003336c f i libucrt:output.obj
 0001:0003236f       ?validate_state_for_type_case_a@?$positional_parameter_base@DV?$stream_output_adapter@D@__crt_stdio_output@@@__crt_stdio_output@@IAE_NXZ 1003336f f i libucrt:output.obj
 0001:000323d6       ?validate_state_for_type_case_a@?$positional_parameter_base@DV?$string_output_adapter@D@__crt_stdio_output@@@__crt_stdio_output@@IAE_NXZ 100333d6 f i libucrt:output.obj
 0001:0003243d       ?validate_state_for_type_case_a@?$positional_parameter_base@_WV?$stream_output_adapter@_W@__crt_stdio_output@@@__crt_stdio_output@@IAE_NXZ 1003343d f i libucrt:output.obj
 0001:000324a4       ?validate_state_for_type_case_a@?$positional_parameter_base@_WV?$string_output_adapter@_W@__crt_stdio_output@@@__crt_stdio_output@@IAE_NXZ 100334a4 f i libucrt:output.obj
 0001:0003250b       ?validate_state_for_type_case_a@?$standard_base@DV?$stream_output_adapter@D@__crt_stdio_output@@@__crt_stdio_output@@IBE_NXZ 1003350b f i libucrt:output.obj
 0001:0003250e       ?validate_state_for_type_case_a@?$standard_base@DV?$string_output_adapter@D@__crt_stdio_output@@@__crt_stdio_output@@IBE_NXZ 1003350e f i libucrt:output.obj
 0001:00032511       ?validate_state_for_type_case_a@?$standard_base@_WV?$stream_output_adapter@_W@__crt_stdio_output@@@__crt_stdio_output@@IBE_NXZ 10033511 f i libucrt:output.obj
 0001:00032514       ?validate_state_for_type_case_a@?$standard_base@_WV?$string_output_adapter@_W@__crt_stdio_output@@@__crt_stdio_output@@IBE_NXZ 10033514 f i libucrt:output.obj
 0001:00032517       ?validate_stream_is_ansi_if_required@?$__acrt_stdio_char_traits@D@@SA_NQAU_iobuf@@@Z 10033517 f i libucrt:output.obj
 0001:000325b9       ?validate_stream_is_ansi_if_required@?$__acrt_stdio_char_traits@_W@@SA_NQAU_iobuf@@@Z 100335b9 f i libucrt:output.obj
 0001:000325bc       ?wide_null_string@?$output_processor@DV?$stream_output_adapter@D@__crt_stdio_output@@V?$format_validation_base@DV?$stream_output_adapter@D@__crt_stdio_output@@@2@@__crt_stdio_output@@CAPA_WXZ 100335bc f i libucrt:output.obj
 0001:000325c2       ?wide_null_string@?$output_processor@DV?$stream_output_adapter@D@__crt_stdio_output@@V?$positional_parameter_base@DV?$stream_output_adapter@D@__crt_stdio_output@@@2@@__crt_stdio_output@@CAPA_WXZ 100335c2 f i libucrt:output.obj
 0001:000325c8       ?wide_null_string@?$output_processor@DV?$stream_output_adapter@D@__crt_stdio_output@@V?$standard_base@DV?$stream_output_adapter@D@__crt_stdio_output@@@2@@__crt_stdio_output@@CAPA_WXZ 100335c8 f i libucrt:output.obj
 0001:000325ce       ?wide_null_string@?$output_processor@DV?$string_output_adapter@D@__crt_stdio_output@@V?$format_validation_base@DV?$string_output_adapter@D@__crt_stdio_output@@@2@@__crt_stdio_output@@CAPA_WXZ 100335ce f i libucrt:output.obj
 0001:000325d4       ?wide_null_string@?$output_processor@DV?$string_output_adapter@D@__crt_stdio_output@@V?$positional_parameter_base@DV?$string_output_adapter@D@__crt_stdio_output@@@2@@__crt_stdio_output@@CAPA_WXZ 100335d4 f i libucrt:output.obj
 0001:000325da       ?wide_null_string@?$output_processor@DV?$string_output_adapter@D@__crt_stdio_output@@V?$standard_base@DV?$string_output_adapter@D@__crt_stdio_output@@@2@@__crt_stdio_output@@CAPA_WXZ 100335da f i libucrt:output.obj
 0001:000325e0       ?wide_null_string@?$output_processor@_WV?$stream_output_adapter@_W@__crt_stdio_output@@V?$format_validation_base@_WV?$stream_output_adapter@_W@__crt_stdio_output@@@2@@__crt_stdio_output@@CAPA_WXZ 100335e0 f i libucrt:output.obj
 0001:000325e6       ?wide_null_string@?$output_processor@_WV?$stream_output_adapter@_W@__crt_stdio_output@@V?$positional_parameter_base@_WV?$stream_output_adapter@_W@__crt_stdio_output@@@2@@__crt_stdio_output@@CAPA_WXZ 100335e6 f i libucrt:output.obj
 0001:000325ec       ?wide_null_string@?$output_processor@_WV?$stream_output_adapter@_W@__crt_stdio_output@@V?$standard_base@_WV?$stream_output_adapter@_W@__crt_stdio_output@@@2@@__crt_stdio_output@@CAPA_WXZ 100335ec f i libucrt:output.obj
 0001:000325f2       ?wide_null_string@?$output_processor@_WV?$string_output_adapter@_W@__crt_stdio_output@@V?$format_validation_base@_WV?$string_output_adapter@_W@__crt_stdio_output@@@2@@__crt_stdio_output@@CAPA_WXZ 100335f2 f i libucrt:output.obj
 0001:000325f8       ?wide_null_string@?$output_processor@_WV?$string_output_adapter@_W@__crt_stdio_output@@V?$positional_parameter_base@_WV?$string_output_adapter@_W@__crt_stdio_output@@@2@@__crt_stdio_output@@CAPA_WXZ 100335f8 f i libucrt:output.obj
 0001:000325fe       ?wide_null_string@?$output_processor@_WV?$string_output_adapter@_W@__crt_stdio_output@@V?$standard_base@_WV?$string_output_adapter@_W@__crt_stdio_output@@@2@@__crt_stdio_output@@CAPA_WXZ 100335fe f i libucrt:output.obj
 0001:00032604       ?write_character@?$stream_output_adapter@D@__crt_stdio_output@@QBEXDQAH@Z 10033604 f i libucrt:output.obj
 0001:00032650       ?write_character@?$stream_output_adapter@_W@__crt_stdio_output@@QBEX_WQAH@Z 10033650 f i libucrt:output.obj
 0001:000326a0       ?write_character@?$string_output_adapter@D@__crt_stdio_output@@QBE_NDQAH@Z 100336a0 f i libucrt:output.obj
 0001:000326f2       ?write_character@?$string_output_adapter@_W@__crt_stdio_output@@QBE_N_WQAH@Z 100336f2 f i libucrt:output.obj
 0001:00032748       ?write_stored_string_tchar@?$output_processor@DV?$stream_output_adapter@D@__crt_stdio_output@@V?$format_validation_base@DV?$stream_output_adapter@D@__crt_stdio_output@@@2@@__crt_stdio_output@@AAE_ND@Z 10033748 f i libucrt:output.obj
 0001:00032818       ?write_stored_string_tchar@?$output_processor@DV?$stream_output_adapter@D@__crt_stdio_output@@V?$positional_parameter_base@DV?$stream_output_adapter@D@__crt_stdio_output@@@2@@__crt_stdio_output@@AAE_ND@Z 10033818 f i libucrt:output.obj
 0001:000328e8       ?write_stored_string_tchar@?$output_processor@DV?$stream_output_adapter@D@__crt_stdio_output@@V?$standard_base@DV?$stream_output_adapter@D@__crt_stdio_output@@@2@@__crt_stdio_output@@AAE_ND@Z 100338e8 f i libucrt:output.obj
 0001:000329b8       ?write_stored_string_tchar@?$output_processor@DV?$string_output_adapter@D@__crt_stdio_output@@V?$format_validation_base@DV?$string_output_adapter@D@__crt_stdio_output@@@2@@__crt_stdio_output@@AAE_ND@Z 100339b8 f i libucrt:output.obj
 0001:00032a88       ?write_stored_string_tchar@?$output_processor@DV?$string_output_adapter@D@__crt_stdio_output@@V?$positional_parameter_base@DV?$string_output_adapter@D@__crt_stdio_output@@@2@@__crt_stdio_output@@AAE_ND@Z 10033a88 f i libucrt:output.obj
 0001:00032b58       ?write_stored_string_tchar@?$output_processor@DV?$string_output_adapter@D@__crt_stdio_output@@V?$standard_base@DV?$string_output_adapter@D@__crt_stdio_output@@@2@@__crt_stdio_output@@AAE_ND@Z 10033b58 f i libucrt:output.obj
 0001:00032c28       ?write_stored_string_tchar@?$output_processor@_WV?$stream_output_adapter@_W@__crt_stdio_output@@V?$format_validation_base@_WV?$stream_output_adapter@_W@__crt_stdio_output@@@2@@__crt_stdio_output@@AAE_N_W@Z 10033c28 f i libucrt:output.obj
 0001:00032cd5       ?write_stored_string_tchar@?$output_processor@_WV?$stream_output_adapter@_W@__crt_stdio_output@@V?$positional_parameter_base@_WV?$stream_output_adapter@_W@__crt_stdio_output@@@2@@__crt_stdio_output@@AAE_N_W@Z 10033cd5 f i libucrt:output.obj
 0001:00032d82       ?write_stored_string_tchar@?$output_processor@_WV?$stream_output_adapter@_W@__crt_stdio_output@@V?$standard_base@_WV?$stream_output_adapter@_W@__crt_stdio_output@@@2@@__crt_stdio_output@@AAE_N_W@Z 10033d82 f i libucrt:output.obj
 0001:00032e2f       ?write_stored_string_tchar@?$output_processor@_WV?$string_output_adapter@_W@__crt_stdio_output@@V?$format_validation_base@_WV?$string_output_adapter@_W@__crt_stdio_output@@@2@@__crt_stdio_output@@AAE_N_W@Z 10033e2f f i libucrt:output.obj
 0001:00032edc       ?write_stored_string_tchar@?$output_processor@_WV?$string_output_adapter@_W@__crt_stdio_output@@V?$positional_parameter_base@_WV?$string_output_adapter@_W@__crt_stdio_output@@@2@@__crt_stdio_output@@AAE_N_W@Z 10033edc f i libucrt:output.obj
 0001:00032f89       ?write_stored_string_tchar@?$output_processor@_WV?$string_output_adapter@_W@__crt_stdio_output@@V?$standard_base@_WV?$string_output_adapter@_W@__crt_stdio_output@@@2@@__crt_stdio_output@@AAE_N_W@Z 10033f89 f i libucrt:output.obj
 0001:00033036       ?write_string@?$stream_output_adapter@D@__crt_stdio_output@@QBEXQBDHQAH1@Z 10034036 f i libucrt:output.obj
 0001:000330e2       ?write_string@?$stream_output_adapter@_W@__crt_stdio_output@@QBEXQB_WHQAH1@Z 100340e2 f i libucrt:output.obj
 0001:00033192       ?write_string@?$string_output_adapter@D@__crt_stdio_output@@QBEXQBDHQAH1@Z 10034192 f i libucrt:output.obj
 0001:00033249       ?write_string@?$string_output_adapter@_W@__crt_stdio_output@@QBEXQB_WHQAH1@Z 10034249 f i libucrt:output.obj
 0001:00033309       ___acrt_isleadbyte_l_noupdate 10034309 f i libucrt:output.obj
 0001:0003332a       ___acrt_locale_changed     1003432a f i libucrt:output.obj
 0001:0003333b       ___stdio_common_vfprintf   1003433b f   libucrt:output.obj
 0001:000333cf       ___stdio_common_vfprintf_p 100343cf f   libucrt:output.obj
 0001:00033463       ___stdio_common_vfprintf_s 10034463 f   libucrt:output.obj
 0001:000334f7       ___stdio_common_vfwprintf  100344f7 f   libucrt:output.obj
 0001:0003358b       ___stdio_common_vfwprintf_p 1003458b f   libucrt:output.obj
 0001:0003361f       ___stdio_common_vfwprintf_s 1003461f f   libucrt:output.obj
 0001:000336b3       ___stdio_common_vsnprintf_s 100346b3 f   libucrt:output.obj
 0001:000336e3       ___stdio_common_vsnwprintf_s 100346e3 f   libucrt:output.obj
 0001:00033713       ___stdio_common_vsprintf   10034713 f   libucrt:output.obj
 0001:00033740       ___stdio_common_vsprintf_p 10034740 f   libucrt:output.obj
 0001:0003376d       ___stdio_common_vsprintf_s 1003476d f   libucrt:output.obj
 0001:0003379a       ___stdio_common_vswprintf  1003479a f   libucrt:output.obj
 0001:000337c7       ___stdio_common_vswprintf_p 100347c7 f   libucrt:output.obj
 0001:000337f4       ___stdio_common_vswprintf_s 100347f4 f   libucrt:output.obj
 0001:00033821       _calloc                    10034821 f   libucrt:calloc.obj
 0001:0003382e       _realloc                   1003482e f   libucrt:realloc.obj
 0001:0003383b       ??$?B$$A6GXPAXK0@Z@__crt_fast_encoded_nullptr_t@@QBEP6GXPAXK0@ZXZ 1003483b f i libucrt:exit.obj
 0001:00033859       ??$__crt_fast_decode_pointer@P6GXPAXK0@Z@@YAP6GXPAXK0@ZQ6GX0K0@Z@Z 10034859 f i libucrt:exit.obj
 0001:00033874       ??$__crt_fast_encode_pointer@P6GXPAXK0@Z@@YAP6GXPAXK0@ZQ6GX0K0@Z@Z 10034874 f i libucrt:exit.obj
 0001:0003389a       ??$__crt_get_proc_address@P6GXI@Z@@YAP6GXI@ZQAUHINSTANCE__@@QBD@Z 1003489a f i libucrt:exit.obj
 0001:000338b1       ??0?$__crt_unique_handle_t@U__crt_hmodule_traits@@@@QAE@QAUHINSTANCE__@@@Z 100348b1 f i libucrt:exit.obj
 0001:000338c5       ??1?$__crt_unique_handle_t@U__crt_hmodule_traits@@@@QAE@XZ 100348c5 f i libucrt:exit.obj
 0001:000338f8       ?close@?$__crt_unique_handle_t@U__crt_hmodule_traits@@@@QAEXXZ 100348f8 f i libucrt:exit.obj
 0001:00033914       ?close@__crt_hmodule_traits@@SA_NPAUHINSTANCE__@@@Z 10034914 f i libucrt:exit.obj
 0001:00033adf       ?get@?$__crt_unique_handle_t@U__crt_hmodule_traits@@@@QBEPAUHINSTANCE__@@XZ 10034adf f i libucrt:exit.obj
 0001:00033ae2       ?get_address_of@?$__crt_unique_handle_t@U__crt_hmodule_traits@@@@QAEPAPAUHINSTANCE__@@XZ 10034ae2 f i libucrt:exit.obj
 0001:00033ae5       ?get_invalid_value@__crt_hmodule_traits@@SAPAUHINSTANCE__@@XZ 10034ae5 f i libucrt:exit.obj
 0001:00033be2       __Exit                     10034be2 f   libucrt:exit.obj
 0001:00033bfd       ___acrt_initialize_thread_local_exit_callback 10034bfd f   libucrt:exit.obj
 0001:00033c0f       __c_exit                   10034c0f f   libucrt:exit.obj
 0001:00033c21       __cexit                    10034c21 f   libucrt:exit.obj
 0001:00033c33       __exit                     10034c33 f   libucrt:exit.obj
 0001:00033c4e       __is_c_termination_complete 10034c4e f   libucrt:exit.obj
 0001:00033c54       __register_thread_local_exe_atexit_callback 10034c54 f   libucrt:exit.obj
 0001:00033c9a       _exit                      10034c9a f   libucrt:exit.obj
 0001:00033cb5       _quick_exit                10034cb5 f   libucrt:exit.obj
 0001:00033cd0       _strncat                   10034cd0 f   libucrt:strncat.obj
 0001:00033e60       _strncpy                   10034e60 f   libucrt:strncpy.obj
 0001:00033fcd       ?is_in_use@__crt_stdio_stream@@QBE_NXZ 10034fcd f i libucrt:fclose.obj
 0001:00033fdc       __fclose_nolock            10034fdc f   libucrt:fclose.obj
 0001:0003406f       _fclose                    1003506f f   libucrt:fclose.obj
 0001:000343a1       ??$open_file@ABQBDABQBDABHPAU_iobuf@@@?$__crt_char_traits@D@@SAPAU_iobuf@@ABQBD0ABH$$QAPAU1@@Z 100353a1 f i libucrt:fopen.obj
 0001:000343cc       ??$open_file@ABQB_WABQB_WABHPAU_iobuf@@@?$__crt_char_traits@_W@@SAPAU_iobuf@@ABQB_W0ABH$$QAPAU1@@Z 100353cc f i libucrt:fopen.obj
 0001:000343f7       ?unlock@__crt_stdio_stream@@QBEXXZ 100353f7 f i libucrt:fopen.obj
 0001:00034402       __fsopen                   10035402 f   libucrt:fopen.obj
 0001:0003440f       __wfopen                   1003540f f   libucrt:fopen.obj
 0001:0003442b       __wfopen_s                 1003542b f   libucrt:fopen.obj
 0001:00034483       __wfsopen                  10035483 f   libucrt:fopen.obj
 0001:00034490       _fopen                     10035490 f   libucrt:fopen.obj
 0001:000344ac       _fopen_s                   100354ac f   libucrt:fopen.obj
 0001:00034504       ?has_any_buffer@__crt_stdio_stream@@QBE_NXZ 10035504 f i libucrt:fread.obj
 0001:00034519       ?has_any_of@__crt_stdio_stream@@QBE_NJ@Z 10035519 f i libucrt:fread.obj
 0001:00034535       ?set_flags@__crt_stdio_stream@@QBE_NJ@Z 10035535 f i libucrt:fread.obj
 0001:00034565       __fread_nolock             10035565 f   libucrt:fread.obj
 0001:00034589       __fread_nolock_s           10035589 f   libucrt:fread.obj
 0001:000347c8       _fread                     100357c8 f   libucrt:fread.obj
 0001:000347ec       _fread_s                   100357ec f   libucrt:fread.obj
 0001:00034944       ??$?RV<lambda_11b4f7b0d3157825a5656a18eba1ae27>@@AAV<lambda_b51c0495177f500e782686251704ae76>@@V<lambda_cf89b47920b5017557bfe891e78aca36>@@@?$__crt_seh_guarded_call@I@@QAEI$$QAV<lambda_11b4f7b0d3157825a5656a18eba1ae27>@@AAV<lambda_b51c0495177f500e782686251704ae76>@@$$QAV<lambda_cf89b47920b5017557bfe891e78aca36>@@@Z 10035944 f i libucrt:fwrite.obj
 0001:000349a9       ??$__acrt_lock_stream_and_call@V<lambda_b51c0495177f500e782686251704ae76>@@@@YAIQAU_iobuf@@$$QAV<lambda_b51c0495177f500e782686251704ae76>@@@Z 100359a9 f i libucrt:fwrite.obj
 0001:00034a9e       ?has_big_buffer@__crt_stdio_stream@@QBE_NXZ 10035a9e f i libucrt:fwrite.obj
 0001:00034aaf       __fwrite_nolock            10035aaf f   libucrt:fwrite.obj
 0001:00034c86       _fwrite                    10035c86 f   libucrt:fwrite.obj
 0001:00034cf4       ??$?R_W@__crt_internal_free_policy@@QBEXQB_W@Z 10035cf4 f i libucrt:unlink.obj
 0001:00034d0a       ??0?$__crt_unique_heap_ptr@_WU__crt_internal_free_policy@@@@QAE@QA_W@Z 10035d0a f i libucrt:unlink.obj
 0001:00034d1e       ??1?$__crt_unique_heap_ptr@_WU__crt_internal_free_policy@@@@QAE@XZ 10035d1e f i libucrt:unlink.obj
 0001:00034d34       ?get@?$__crt_unique_heap_ptr@_WU__crt_internal_free_policy@@@@QBEPA_WXZ 10035d34 f i libucrt:unlink.obj
 0001:00034d37       ?get_address_of@?$__crt_unique_heap_ptr@_WU__crt_internal_free_policy@@@@QAEPAPA_WXZ 10035d37 f i libucrt:unlink.obj
 0001:00034d3a       ?release@?$__crt_unique_heap_ptr@_WU__crt_internal_free_policy@@@@QAEXXZ 10035d3a f i libucrt:unlink.obj
 0001:00034d50       __unlink                   10035d50 f   libucrt:unlink.obj
 0001:00034d5d       _remove                    10035d5d f   libucrt:unlink.obj
 0001:00034dbd       ?__acrt_stdio_reset_buffer@@YAXV__crt_stdio_stream@@@Z 10035dbd f i libucrt:rewind.obj
 0001:00034dd8       ?has_all_of@__crt_stdio_stream@@QBE_NJ@Z 10035dd8 f i libucrt:rewind.obj
 0001:00034df7       ?unset_flags@__crt_stdio_stream@@QBE_NJ@Z 10035df7 f i libucrt:rewind.obj
 0001:00034e2b       _rewind                    10035e2b f   libucrt:rewind.obj
 0001:00034f2c       _ldexp                     10035f2c f   libucrt:ldexp.obj
 0001:0003518c       ??$__vcrt_va_start_verify_argument_type@QB_W@@YAXXZ 1003618c f i libucrt:assert.obj
 0001:00036129       ??$ftprintf@PAU_iobuf@@PBDABQBDABQBDABI@?$__crt_char_traits@D@@SAH$$QAPAU_iobuf@@$$QAPBDABQBD2ABI@Z 10037129 f i libucrt:assert.obj
 0001:0003615b       ??$ftprintf@PAU_iobuf@@PB_WABQB_WABQB_WABI@?$__crt_char_traits@_W@@SAH$$QAPAU_iobuf@@$$QAPB_WABQB_W2ABI@Z 1003715b f i libucrt:assert.obj
 0001:0003618d       ??$get_module_file_name@AAPAUHINSTANCE__@@AAY0BAF@DK@?$__crt_char_traits@D@@SAKAAPAUHINSTANCE__@@AAY0BAF@D$$QAK@Z 1003718d f i libucrt:assert.obj
 0001:000361ad       ??$get_module_file_name@AAPAUHINSTANCE__@@AAY0BAF@_WK@?$__crt_char_traits@_W@@SAKAAPAUHINSTANCE__@@AAY0BAF@_W$$QAK@Z 100371ad f i libucrt:assert.obj
 0001:000361cd       ??$itot_s@ABIQAD$$CBIH@?$__crt_char_traits@D@@SAHABI$$QBQAD$$QBI$$QAH@Z 100371cd f i libucrt:assert.obj
 0001:000361f8       ??$itot_s@ABIQA_W$$CBIH@?$__crt_char_traits@_W@@SAHABI$$QBQA_W$$QBI$$QAH@Z 100371f8 f i libucrt:assert.obj
 0001:00036223       ??$show_message_box@AAY0CEA@DPBDJ@?$__crt_char_traits@D@@SAHAAY0CEA@D$$QAPBD$$QAJ@Z 10037223 f i libucrt:assert.obj
 0001:00036246       ??$show_message_box@AAY0CEA@_WPB_WJ@?$__crt_char_traits@_W@@SAHAAY0CEA@_W$$QAPB_W$$QAJ@Z 10037246 f i libucrt:assert.obj
 0001:00036269       ??$tcscat_s@ABQADABIAAPAD@?$__crt_char_traits@D@@SAHABQADABIAAPAD@Z 10037269 f i libucrt:assert.obj
 0001:0003628e       ??$tcscat_s@ABQADABIABQBD@?$__crt_char_traits@D@@SAHABQADABIABQBD@Z 1003728e f i libucrt:assert.obj
 0001:000362b3       ??$tcscat_s@ABQADABIPBD@?$__crt_char_traits@D@@SAHABQADABI$$QAPBD@Z 100372b3 f i libucrt:assert.obj
 0001:000362d8       ??$tcscat_s@ABQA_WABIAAPA_W@?$__crt_char_traits@_W@@SAHABQA_WABIAAPA_W@Z 100372d8 f i libucrt:assert.obj
 0001:000362fd       ??$tcscat_s@ABQA_WABIABQB_W@?$__crt_char_traits@_W@@SAHABQA_WABIABQB_W@Z 100372fd f i libucrt:assert.obj
 0001:00036322       ??$tcscat_s@ABQA_WABIPB_W@?$__crt_char_traits@_W@@SAHABQA_WABI$$QAPB_W@Z 10037322 f i libucrt:assert.obj
 0001:00036347       ??$tcscpy_s@AAY0BAF@DIPBD@?$__crt_char_traits@D@@SAHAAY0BAF@D$$QAI$$QAPBD@Z 10037347 f i libucrt:assert.obj
 0001:0003636a       ??$tcscpy_s@AAY0BAF@_WIPB_W@?$__crt_char_traits@_W@@SAHAAY0BAF@_W$$QAI$$QAPB_W@Z 1003736a f i libucrt:assert.obj
 0001:0003638d       ??$tcscpy_s@ABQADABIPBD@?$__crt_char_traits@D@@SAHABQADABI$$QAPBD@Z 1003738d f i libucrt:assert.obj
 0001:000363b2       ??$tcscpy_s@ABQA_WABIPB_W@?$__crt_char_traits@_W@@SAHABQA_WABI$$QAPB_W@Z 100373b2 f i libucrt:assert.obj
 0001:000363d7       ??$tcslen@AAY0BAF@D@?$__crt_char_traits@D@@SAIAAY0BAF@D@Z 100373d7 f i libucrt:assert.obj
 0001:000363f2       ??$tcslen@AAY0BAF@_W@?$__crt_char_traits@_W@@SAIAAY0BAF@_W@Z 100373f2 f i libucrt:assert.obj
 0001:00036415       ??$tcslen@ABQAD@?$__crt_char_traits@D@@SAIABQAD@Z 10037415 f i libucrt:assert.obj
 0001:00036433       ??$tcslen@ABQA_W@?$__crt_char_traits@_W@@SAIABQA_W@Z 10037433 f i libucrt:assert.obj
 0001:00036458       ??$tcslen@ABQBD@?$__crt_char_traits@D@@SAIABQBD@Z 10037458 f i libucrt:assert.obj
 0001:00036476       ??$tcslen@ABQB_W@?$__crt_char_traits@_W@@SAIABQB_W@Z 10037476 f i libucrt:assert.obj
 0001:0003649b       ??$tcsncat_s@ABQADABIAAPBD$$CBI@?$__crt_char_traits@D@@SAHABQADABIAAPBD$$QBI@Z 1003749b f i libucrt:assert.obj
 0001:000364c6       ??$tcsncat_s@ABQADABIABQBDABI@?$__crt_char_traits@D@@SAHABQADABIABQBD1@Z 100374c6 f i libucrt:assert.obj
 0001:000364f1       ??$tcsncat_s@ABQADABIPBD$$CBI@?$__crt_char_traits@D@@SAHABQADABI$$QAPBD$$QBI@Z 100374f1 f i libucrt:assert.obj
 0001:0003651c       ??$tcsncat_s@ABQA_WABIAAPB_W$$CBI@?$__crt_char_traits@_W@@SAHABQA_WABIAAPB_W$$QBI@Z 1003751c f i libucrt:assert.obj
 0001:00036547       ??$tcsncat_s@ABQA_WABIABQB_WABI@?$__crt_char_traits@_W@@SAHABQA_WABIABQB_W1@Z 10037547 f i libucrt:assert.obj
 0001:00036572       ??$tcsncat_s@ABQA_WABIPB_W$$CBI@?$__crt_char_traits@_W@@SAHABQA_WABI$$QAPB_W$$QBI@Z 10037572 f i libucrt:assert.obj
 0001:00036717       __assert                   10037717 f   libucrt:assert.obj
 0001:00036771       __invoke_watson_if_error   10037771 f i libucrt:assert.obj
 0001:0003679b       __vfwprintf_l              1003779b f i libucrt:assert.obj
 0001:000367c9       __vswprintf_c_l            100377c9 f i libucrt:assert.obj
 0001:00036803       __wassert                  10037803 f   libucrt:assert.obj
 0001:0003685d       _fwprintf                  1003785d f i libucrt:assert.obj
 0001:0003691f       _swprintf                  1003791f f i libucrt:assert.obj
 0001:00036944       __errcode                  10037944 f   libucrt:fpexcept.obj
 0001:00036985       __except1                  10037985 f   libucrt:fpexcept.obj
 0001:00036a86       __except2                  10037a86 f   libucrt:fpexcept.obj
 0001:00036bcf       __handle_exc               10037bcf f   libucrt:fpexcept.obj
 0001:00036e27       __handle_qnan2             10037e27 f   libucrt:fpexcept.obj
 0001:00036e37       __raise_exc                10037e37 f   libucrt:fpexcept.obj
 0001:00036e62       __raise_exc_ex             10037e62 f   libucrt:fpexcept.obj
 0001:0003720f       __raise_excf               1003820f f   libucrt:fpexcept.obj
 0001:0003723a       __set_errno_from_matherr   1003823a f   libucrt:fpexcept.obj
 0001:00037274       __umatherr                 10038274 f   libucrt:fpexcept.obj
 0001:0003733e       __initterm                 1003833e f   libucrt:initterm.obj
 0001:000373b1       __initterm_e               100383b1 f   libucrt:initterm.obj
 0001:00037434       __seh_filter_dll           10038434 f   libucrt:exception_filter.obj
 0001:0003745c       __seh_filter_exe           1003845c f   libucrt:exception_filter.obj
 0001:0003762b       ??$?RPAD@__crt_internal_free_policy@@QBEXQBQAD@Z 1003862b f i libucrt:environment_initialization.obj
 0001:00037641       ??$?RPA_W@__crt_internal_free_policy@@QBEXQBQA_W@Z 10038641 f i libucrt:environment_initialization.obj
 0001:00037b1f       ??$get_environment_from_os@$$$V@?$__crt_char_traits@D@@SAPADXZ 10038b1f f i libucrt:environment_initialization.obj
 0001:00037b24       ??$get_environment_from_os@$$$V@?$__crt_char_traits@_W@@SAPA_WXZ 10038b24 f i libucrt:environment_initialization.obj
 0001:00037c5e       ??$set_variable_in_environment_nolock@PADH@?$__crt_char_traits@D@@SAH$$QAPAD$$QAH@Z 10038c5e f i libucrt:environment_initialization.obj
 0001:00037c7c       ??$set_variable_in_environment_nolock@PA_WH@?$__crt_char_traits@_W@@SAH$$QAPA_W$$QAH@Z 10038c7c f i libucrt:environment_initialization.obj
 0001:00037c9a       ??$tcscpy_s@PADABIAAPAD@?$__crt_char_traits@D@@SAH$$QAPADABIAAPAD@Z 10038c9a f i libucrt:environment_initialization.obj
 0001:00037cbf       ??$tcscpy_s@PA_WABIAAPA_W@?$__crt_char_traits@_W@@SAH$$QAPA_WABIAAPA_W@Z 10038cbf f i libucrt:environment_initialization.obj
 0001:00037ce4       ??$tcslen@AAPAD@?$__crt_char_traits@D@@SAIAAPAD@Z 10038ce4 f i libucrt:environment_initialization.obj
 0001:00037d02       ??$tcslen@AAPA_W@?$__crt_char_traits@_W@@SAIAAPA_W@Z 10038d02 f i libucrt:environment_initialization.obj
 0001:00037d27       ??$uninitialize@A6AXAAPAPAD@Z@?$dual_state_global@PAPAD@__crt_state_management@@QAEXA6AXAAPAPAD@Z@Z 10038d27 f i libucrt:environment_initialization.obj
 0001:00037d77       ??$uninitialize@A6AXAAPAPA_W@Z@?$dual_state_global@PAPA_W@__crt_state_management@@QAEXA6AXAAPAPA_W@Z@Z 10038d77 f i libucrt:environment_initialization.obj
 0001:00037e09       ??0?$__crt_unique_heap_ptr@PADU__crt_internal_free_policy@@@@QAE@QAPAD@Z 10038e09 f i libucrt:environment_initialization.obj
 0001:00037e1d       ??0?$__crt_unique_heap_ptr@PA_WU__crt_internal_free_policy@@@@QAE@QAPA_W@Z 10038e1d f i libucrt:environment_initialization.obj
 0001:00037e31       ??1?$__crt_unique_heap_ptr@PADU__crt_internal_free_policy@@@@QAE@XZ 10038e31 f i libucrt:environment_initialization.obj
 0001:00037e47       ??1?$__crt_unique_heap_ptr@PA_WU__crt_internal_free_policy@@@@QAE@XZ 10038e47 f i libucrt:environment_initialization.obj
 0001:00037e5d       ??B?$__crt_unique_heap_ptr@PADU__crt_internal_free_policy@@@@QBE_NXZ 10038e5d f i libucrt:environment_initialization.obj
 0001:00037e67       ??B?$__crt_unique_heap_ptr@PA_WU__crt_internal_free_policy@@@@QBE_NXZ 10038e67 f i libucrt:environment_initialization.obj
 0001:00037e71       ??B?$__crt_unique_heap_ptr@_WU__crt_internal_free_policy@@@@QBE_NXZ 10038e71 f i libucrt:environment_initialization.obj
 0001:00037e7b       ?__crt_compute_required_transform_buffer_count@@YAIIQBD@Z 10038e7b f i libucrt:environment_initialization.obj
 0001:00037e9b       ?__crt_compute_required_transform_buffer_count@@YAIIQB_W@Z 10038e9b f i libucrt:environment_initialization.obj
 0001:00037ebe       ?__crt_transform_string@@YAIIQBDQA_WI@Z 10038ebe f i libucrt:environment_initialization.obj
 0001:00037ee2       ?__crt_transform_string@@YAIIQB_WQADI@Z 10038ee2 f i libucrt:environment_initialization.obj
 0001:00037f0a       ?detach@?$__crt_unique_heap_ptr@DU__crt_internal_free_policy@@@@QAEPADXZ 10038f0a f i libucrt:environment_initialization.obj
 0001:00037f10       ?detach@?$__crt_unique_heap_ptr@PADU__crt_internal_free_policy@@@@QAEPAPADXZ 10038f10 f i libucrt:environment_initialization.obj
 0001:00037f16       ?detach@?$__crt_unique_heap_ptr@PA_WU__crt_internal_free_policy@@@@QAEPAPA_WXZ 10038f16 f i libucrt:environment_initialization.obj
 0001:00037f1c       ?detach@?$__crt_unique_heap_ptr@_WU__crt_internal_free_policy@@@@QAEPA_WXZ 10038f1c f i libucrt:environment_initialization.obj
 0001:00037f22       ?get@?$__crt_unique_heap_ptr@PADU__crt_internal_free_policy@@@@QBEPAPADXZ 10038f22 f i libucrt:environment_initialization.obj
 0001:00037f25       ?get@?$__crt_unique_heap_ptr@PA_WU__crt_internal_free_policy@@@@QBEPAPA_WXZ 10038f25 f i libucrt:environment_initialization.obj
 0001:00037f28       ?get_current_state_index@__crt_state_management@@YAIXZ 10038f28 f i libucrt:environment_initialization.obj
 0001:00037f4f       ?initialize@?$dual_state_global@PAPAD@__crt_state_management@@QAEXQAPAD@Z 10038f4f f i libucrt:environment_initialization.obj
 0001:00037f8c       ?initialize@?$dual_state_global@PAPA_W@__crt_state_management@@QAEXQAPA_W@Z 10038f8c f i libucrt:environment_initialization.obj
 0001:00037fc9       ?is_valid@?$__crt_unique_heap_ptr@PADU__crt_internal_free_policy@@@@QBE_NXZ 10038fc9 f i libucrt:environment_initialization.obj
 0001:00037fd3       ?is_valid@?$__crt_unique_heap_ptr@PA_WU__crt_internal_free_policy@@@@QBE_NXZ 10038fd3 f i libucrt:environment_initialization.obj
 0001:00037fdd       ?is_valid@?$__crt_unique_heap_ptr@_WU__crt_internal_free_policy@@@@QBE_NXZ 10038fdd f i libucrt:environment_initialization.obj
 0001:00037fed       ?release@?$__crt_unique_heap_ptr@PADU__crt_internal_free_policy@@@@QAEXXZ 10038fed f i libucrt:environment_initialization.obj
 0001:00038003       ?release@?$__crt_unique_heap_ptr@PA_WU__crt_internal_free_policy@@@@QAEXXZ 10039003 f i libucrt:environment_initialization.obj
 0001:00038019       ?value@?$dual_state_global@PAPAD@__crt_state_management@@QAEAAPAPADXZ 10039019 f i libucrt:environment_initialization.obj
 0001:0003801c       ?value@?$dual_state_global@PAPA_W@__crt_state_management@@QAEAAPAPA_WXZ 1003901c f i libucrt:environment_initialization.obj
 0001:0003801f       ___dcrt_get_or_create_narrow_environment_nolock 1003901f f   libucrt:environment_initialization.obj
 0001:00038024       ___dcrt_get_or_create_wide_environment_nolock 10039024 f   libucrt:environment_initialization.obj
 0001:00038029       ___dcrt_uninitialize_environments_nolock 10039029 f   libucrt:environment_initialization.obj
 0001:0003806d       ___p__environ              1003906d f   libucrt:environment_initialization.obj
 0001:00038073       ___p__wenviron             10039073 f   libucrt:environment_initialization.obj
 0001:00038079       __get_initial_narrow_environment 10039079 f   libucrt:environment_initialization.obj
 0001:00038092       __get_initial_wide_environment 10039092 f   libucrt:environment_initialization.obj
 0001:000380ab       __initialize_narrow_environment 100390ab f   libucrt:environment_initialization.obj
 0001:000380b0       __initialize_wide_environment 100390b0 f   libucrt:environment_initialization.obj
 0001:000380b5       ??$?BP6AXXZ@__crt_fast_encoded_nullptr_t@@QBEPAP6AXXZXZ 100390b5 f i libucrt:onexit.obj
 0001:000380d3       ??$?RP6AXXZ@__crt_internal_free_policy@@QBEXQBQ6AXXZ@Z 100390d3 f i libucrt:onexit.obj
 0001:000380e9       ??$?RV<lambda_800076c951b434888f4765a74a194fcc>@@AAV<lambda_4e60a939b0d047cfe11ddc22648dfba9>@@V<lambda_6dbb1268764f43b569ce7b67e331d33a>@@@?$__crt_seh_guarded_call@H@@QAEH$$QAV<lambda_800076c951b434888f4765a74a194fcc>@@AAV<lambda_4e60a939b0d047cfe11ddc22648dfba9>@@$$QAV<lambda_6dbb1268764f43b569ce7b67e331d33a>@@@Z 100390e9 f i libucrt:onexit.obj
 0001:0003814e       ??$?RV<lambda_995298e7d72eb4c2aab26c0585b3abe5>@@AAV<lambda_275893d493268fdec8709772e3fcec0e>@@V<lambda_293819299cbf9a7022e18b56a874bb5c>@@@?$__crt_seh_guarded_call@H@@QAEH$$QAV<lambda_995298e7d72eb4c2aab26c0585b3abe5>@@AAV<lambda_275893d493268fdec8709772e3fcec0e>@@$$QAV<lambda_293819299cbf9a7022e18b56a874bb5c>@@@Z 1003914e f i libucrt:onexit.obj
 0001:000381b3       ??$__acrt_lock_and_call@V<lambda_275893d493268fdec8709772e3fcec0e>@@@@YAHW4__acrt_lock_id@@$$QAV<lambda_275893d493268fdec8709772e3fcec0e>@@@Z 100391b3 f i libucrt:onexit.obj
 0001:000381e5       ??$__acrt_lock_and_call@V<lambda_4e60a939b0d047cfe11ddc22648dfba9>@@@@YAHW4__acrt_lock_id@@$$QAV<lambda_4e60a939b0d047cfe11ddc22648dfba9>@@@Z 100391e5 f i libucrt:onexit.obj
 0001:00038217       ??$__crt_fast_encode_pointer@P6AHXZ@@YAP6AHXZQ6AHXZ@Z 10039217 f i libucrt:onexit.obj
 0001:000382c4       ??0?$__crt_unique_heap_ptr@P6AXXZU__crt_internal_free_policy@@@@QAE@QAP6AXXZ@Z 100392c4 f i libucrt:onexit.obj
 0001:000382d8       ??1?$__crt_unique_heap_ptr@P6AXXZU__crt_internal_free_policy@@@@QAE@XZ 100392d8 f i libucrt:onexit.obj
 0001:00038613       ?detach@?$__crt_unique_heap_ptr@P6AXXZU__crt_internal_free_policy@@@@QAEPAP6AXXZXZ 10039613 f i libucrt:onexit.obj
 0001:00038619       ?release@?$__crt_unique_heap_ptr@P6AXXZU__crt_internal_free_policy@@@@QAEXXZ 10039619 f i libucrt:onexit.obj
 0001:0003862f       __crt_at_quick_exit        1003962f f   libucrt:onexit.obj
 0001:0003864a       __crt_atexit               1003964a f   libucrt:onexit.obj
 0001:00038665       __execute_onexit_table     10039665 f   libucrt:onexit.obj
 0001:00038689       __initialize_onexit_table  10039689 f   libucrt:onexit.obj
 0001:000386d5       __register_onexit_function 100396d5 f   libucrt:onexit.obj
 0001:0003883c       ?initialize@?$dual_state_global@PAU__crt_locale_data@@@__crt_state_management@@QAEXQAU__crt_locale_data@@@Z 1003983c f i libucrt:initialization.obj
 0001:00038879       ___acrt_initialize         10039879 f   libucrt:initialization.obj
 0001:0003888f       ___acrt_thread_attach      1003988f f   libucrt:initialization.obj
 0001:0003889c       ___acrt_thread_detach      1003989c f   libucrt:initialization.obj
 0001:000388a6       ___acrt_uninitialize       100398a6 f   libucrt:initialization.obj
 0001:000388bc       ___acrt_uninitialize_critical 100398bc f   libucrt:initialization.obj
 0001:000388ed       __get_terminate            100398ed f   libucrt:terminate.obj
 0001:00038903       _set_terminate             10039903 f   libucrt:terminate.obj
 0001:0003892b       _terminate                 1003992b f   libucrt:terminate.obj
 0001:00038976       ??$__crt_interlocked_exchange_pointer@X$$T@@YAPAXPDSAX$$T@Z 10039976 f i libucrt:free_base.obj
 0001:0003898e       ___acrt_get_msvcrt_heap_handle 1003998e f   libucrt:free_base.obj
 0001:00038a1f       __free_base                10039a1f f   libucrt:free_base.obj
 0001:00038a67       __malloc_base              10039a67 f   libucrt:malloc_base.obj
 0001:00038b38       _strcpy_s                  10039b38 f   libucrt:strcpy_s.obj
 0001:00038ba8       __set_abort_behavior       10039ba8 f   libucrt:abort.obj
 0001:00038bd1       _abort                     10039bd1 f   libucrt:abort.obj
 0001:00038c24       __calloc_base              10039c24 f   libucrt:calloc_base.obj
 0001:00038c98       ??$is_overflow_condition@K@__crt_strtox@@YA_NIK@Z 10039c98 f i libucrt:atox.obj
 0001:00038cd7       ??$is_overflow_condition@_K@__crt_strtox@@YA_NI_K@Z 10039cd7 f i libucrt:atox.obj
 0001:00038d2a       ??$make_c_string_character_source@D$$T@__crt_strtox@@YA?AV?$c_string_character_source@D@0@QBD$$T@Z 10039d2a f i libucrt:atox.obj
 0001:00038d4b       ??$make_c_string_character_source@_W$$T@__crt_strtox@@YA?AV?$c_string_character_source@_W@0@QB_W$$T@Z 10039d4b f i libucrt:atox.obj
 0001:00038d6c       ??$parse_integer@KV?$c_string_character_source@D@__crt_strtox@@@__crt_strtox@@YAKQAU__crt_locale_pointers@@V?$c_string_character_source@D@0@H_N@Z 10039d6c f i libucrt:atox.obj
 0001:0003901e       ??$parse_integer@KV?$c_string_character_source@_W@__crt_strtox@@@__crt_strtox@@YAKQAU__crt_locale_pointers@@V?$c_string_character_source@_W@0@H_N@Z 1003a01e f i libucrt:atox.obj
 0001:000398bc       ??$parse_integer@_KV?$c_string_character_source@D@__crt_strtox@@@__crt_strtox@@YA_KQAU__crt_locale_pointers@@V?$c_string_character_source@D@0@H_N@Z 1003a8bc f i libucrt:atox.obj
 0001:00039c0b       ??$parse_integer@_KV?$c_string_character_source@_W@__crt_strtox@@@__crt_strtox@@YA_KQAU__crt_locale_pointers@@V?$c_string_character_source@_W@0@H_N@Z 1003ac0b f i libucrt:atox.obj
 0001:0003a37d       ??$parse_integer_from_string@JD$$T@__crt_strtox@@YAJQBD$$THQAU__crt_locale_pointers@@@Z 1003b37d f i libucrt:atox.obj
 0001:0003a3b5       ??$parse_integer_from_string@J_W$$T@__crt_strtox@@YAJQB_W$$THQAU__crt_locale_pointers@@@Z 1003b3b5 f i libucrt:atox.obj
 0001:0003a3ed       ??$parse_integer_from_string@_JD$$T@__crt_strtox@@YA_JQBD$$THQAU__crt_locale_pointers@@@Z 1003b3ed f i libucrt:atox.obj
 0001:0003a425       ??$parse_integer_from_string@_J_W$$T@__crt_strtox@@YA_JQB_W$$THQAU__crt_locale_pointers@@@Z 1003b425 f i libucrt:atox.obj
 0001:0003a45d       ??0?$c_string_character_source@D@__crt_strtox@@QAE@QBDQAPBD@Z 1003b45d f i libucrt:atox.obj
 0001:0003a480       ??0?$c_string_character_source@_W@__crt_strtox@@QAE@QB_WQAPB_W@Z 1003b480 f i libucrt:atox.obj
 0001:0003a4a3       ??1?$c_string_character_source@D@__crt_strtox@@QAE@XZ 1003b4a3 f i libucrt:atox.obj
 0001:0003a4b2       ??1?$c_string_character_source@_W@__crt_strtox@@QAE@XZ 1003b4b2 f i libucrt:atox.obj
 0001:0003a4c1       ?get@?$c_string_character_source@D@__crt_strtox@@QAEDXZ 1003b4c1 f i libucrt:atox.obj
 0001:0003a4cb       ?get@?$c_string_character_source@_W@__crt_strtox@@QAE_WXZ 1003b4cb f i libucrt:atox.obj
 0001:0003a4d8       ?is_space@__crt_strtox@@YA_NDQAU__crt_locale_pointers@@@Z 1003b4d8 f i libucrt:atox.obj
 0001:0003a4fe       ?is_space@__crt_strtox@@YA_N_WPAU__crt_locale_pointers@@@Z 1003b4fe f i libucrt:atox.obj
 0001:0003a51d       ?maximum_signed_value@__crt_strtox@@YAJK@Z 1003b51d f i libucrt:atox.obj
 0001:0003a523       ?maximum_signed_value@__crt_strtox@@YA_J_K@Z 1003b523 f i libucrt:atox.obj
 0001:0003a52e       ?minimum_signed_value@__crt_strtox@@YAJK@Z 1003b52e f i libucrt:atox.obj
 0001:0003a534       ?minimum_signed_value@__crt_strtox@@YA_J_K@Z 1003b534 f i libucrt:atox.obj
 0001:0003a53e       ?parse_digit@__crt_strtox@@YAID@Z 1003b53e f i libucrt:atox.obj
 0001:0003a586       ?parse_digit@__crt_strtox@@YAI_W@Z 1003b586 f i libucrt:atox.obj
 0001:0003a7e3       ?restore_state@?$c_string_character_source@D@__crt_strtox@@QAE_NQBD@Z 1003b7e3 f i libucrt:atox.obj
 0001:0003a7f7       ?restore_state@?$c_string_character_source@_W@__crt_strtox@@QAE_NQB_W@Z 1003b7f7 f i libucrt:atox.obj
 0001:0003a80b       ?save_state@?$c_string_character_source@D@__crt_strtox@@QBEPBDXZ 1003b80b f i libucrt:atox.obj
 0001:0003a80e       ?save_state@?$c_string_character_source@_W@__crt_strtox@@QBEPB_WXZ 1003b80e f i libucrt:atox.obj
 0001:0003a811       ?unget@?$c_string_character_source@D@__crt_strtox@@QAEXD@Z 1003b811 f i libucrt:atox.obj
 0001:0003a843       ?unget@?$c_string_character_source@_W@__crt_strtox@@QAEX_W@Z 1003b843 f i libucrt:atox.obj
 0001:0003a87a       ?validate@?$c_string_character_source@D@__crt_strtox@@QBE_NXZ 1003b87a f i libucrt:atox.obj
 0001:0003a89b       ?validate@?$c_string_character_source@_W@__crt_strtox@@QBE_NXZ 1003b89b f i libucrt:atox.obj
 0001:0003a8bc       ?wide_character_to_digit@__crt_strtox@@YAH_W@Z 1003b8bc f i libucrt:atox.obj
 0001:0003aac5       ___acrt_get_locale_data_prefix 1003bac5 f i libucrt:atox.obj
 0001:0003aad4       __atoi64                   1003bad4 f   libucrt:atox.obj
 0001:0003ab08       __atoi64_l                 1003bb08 f   libucrt:atox.obj
 0001:0003ab3d       __atoi_l                   1003bb3d f   libucrt:atox.obj
 0001:0003ab72       __atol_l                   1003bb72 f   libucrt:atox.obj
 0001:0003aba7       __atoll_l                  1003bba7 f   libucrt:atox.obj
 0001:0003abdc       __chvalidchk_l             1003bbdc f i libucrt:atox.obj
 0001:0003ac10       __ischartype_l             1003bc10 f i libucrt:atox.obj
 0001:0003ac4f       __wtoi                     1003bc4f f   libucrt:atox.obj
 0001:0003ac83       __wtoi64                   1003bc83 f   libucrt:atox.obj
 0001:0003acb7       __wtoi64_l                 1003bcb7 f   libucrt:atox.obj
 0001:0003acec       __wtoi_l                   1003bcec f   libucrt:atox.obj
 0001:0003ad21       __wtol                     1003bd21 f   libucrt:atox.obj
 0001:0003ad55       __wtol_l                   1003bd55 f   libucrt:atox.obj
 0001:0003ad8a       __wtoll                    1003bd8a f   libucrt:atox.obj
 0001:0003adbe       __wtoll_l                  1003bdbe f   libucrt:atox.obj
 0001:0003adf3       _atoi                      1003bdf3 f   libucrt:atox.obj
 0001:0003ae27       _atol                      1003be27 f   libucrt:atox.obj
 0001:0003ae5b       _atoll                     1003be5b f   libucrt:atox.obj
 0001:0003ae8f       ??$__crt_fast_decode_pointer@P6AXPB_W00II@Z@@YAP6AXPB_W00II@ZQ6AX000II@Z@Z 1003be8f f i libucrt:invalid_parameter.obj
 0001:0003aeaa       ??$__crt_fast_encode_pointer@P6AXPB_W00II@Z@@YAP6AXPB_W00II@ZQ6AX000II@Z@Z 1003beaa f i libucrt:invalid_parameter.obj
 0001:0003aed0       ?initialize@?$dual_state_global@P6AXPB_W00II@Z@__crt_state_management@@QAEXQ6AXPB_W00II@Z@Z 1003bed0 f i libucrt:invalid_parameter.obj
 0001:0003af0d       ?value@?$dual_state_global@P6AXPB_W00II@Z@__crt_state_management@@QAEAAP6AXPB_W00II@ZXZ 1003bf0d f i libucrt:invalid_parameter.obj
 0001:0003af10       ___acrt_call_reportfault   1003bf10 f   libucrt:invalid_parameter.obj
 0001:0003b099       ___acrt_initialize_invalid_parameter_handler 1003c099 f   libucrt:invalid_parameter.obj
 0001:0003b0b2       __get_invalid_parameter_handler 1003c0b2 f   libucrt:invalid_parameter.obj
 0001:0003b0c9       __get_thread_local_invalid_parameter_handler 1003c0c9 f   libucrt:invalid_parameter.obj
 0001:0003b0de       __invalid_parameter        1003c0de f   libucrt:invalid_parameter.obj
 0001:0003b177       __invalid_parameter_noinfo 1003c177 f   libucrt:invalid_parameter.obj
 0001:0003b18b       __invalid_parameter_noinfo_noreturn 1003c18b f   libucrt:invalid_parameter.obj
 0001:0003b1af       __invoke_watson            1003c1af f   libucrt:invalid_parameter.obj
 0001:0003b1ee       __set_invalid_parameter_handler 1003c1ee f   libucrt:invalid_parameter.obj
 0001:0003b22a       __set_thread_local_invalid_parameter_handler 1003c22a f   libucrt:invalid_parameter.obj
 0001:0003b24e       ___acrt_errno_from_os_error 1003c24e f   libucrt:errno.obj
 0001:0003b2a1       ___acrt_errno_map_os_error 1003c2a1 f   libucrt:errno.obj
 0001:0003b2cc       ___doserrno                1003c2cc f   libucrt:errno.obj
 0001:0003b2e3       __errno                    1003c2e3 f   libucrt:errno.obj
 0001:0003b2fa       __get_doserrno             1003c2fa f   libucrt:errno.obj
 0001:0003b328       __get_errno                1003c328 f   libucrt:errno.obj
 0001:0003b356       __set_doserrno             1003c356 f   libucrt:errno.obj
 0001:0003b37f       __set_errno                1003c37f f   libucrt:errno.obj
 0001:0003b3ff       ??$?B$$A6GHPA_WKJ@Z@__crt_fast_encoded_nullptr_t@@QBEP6GHPA_WKJ@ZXZ 1003c3ff f i libucrt:winapi_thunks.obj
 0001:0003b41d       ??$?RV<lambda_9227be29367c048ad7fd93a717dcb1a1>@@AAV<lambda_a463b7b0560cfcaf9b17f27c6ef46564>@@V<lambda_ccea11b5727ccf69be64f5f5d9a08d9f>@@@?$__crt_seh_guarded_call@H@@QAEH$$QAV<lambda_9227be29367c048ad7fd93a717dcb1a1>@@AAV<lambda_a463b7b0560cfcaf9b17f27c6ef46564>@@$$QAV<lambda_ccea11b5727ccf69be64f5f5d9a08d9f>@@@Z 1003c41d f i libucrt:winapi_thunks.obj
 0001:0003b4c2       ??$__acrt_lock_and_call@V<lambda_a463b7b0560cfcaf9b17f27c6ef46564>@@@@YAHW4__acrt_lock_id@@$$QAV<lambda_a463b7b0560cfcaf9b17f27c6ef46564>@@@Z 1003c4c2 f i libucrt:winapi_thunks.obj
 0001:0003b4f4       ??$__crt_fast_decode_pointer@P6GHPA_WKJ@Z@@YAP6GHPA_WKJ@ZQ6GH0KJ@Z@Z 1003c4f4 f i libucrt:winapi_thunks.obj
 0001:0003b50f       ??$__crt_fast_encode_pointer@P6GHPA_WKJ@Z@@YAP6GHPA_WKJ@ZQ6GH0KJ@Z@Z 1003c50f f i libucrt:winapi_thunks.obj
 0001:0003bc3c       ___acrt_AreFileApisANSI@0  1003cc3c f   libucrt:winapi_thunks.obj
 0001:0003bc9d       ___acrt_CompareStringEx@36 1003cc9d f   libucrt:winapi_thunks.obj
 0001:0003bd2e       ___acrt_EnumSystemLocalesEx@16 1003cd2e f   libucrt:winapi_thunks.obj
 0001:0003bdb6       ___acrt_FlsAlloc@4         1003cdb6 f   libucrt:winapi_thunks.obj
 0001:0003be21       ___acrt_FlsFree@4          1003ce21 f   libucrt:winapi_thunks.obj
 0001:0003be8c       ___acrt_FlsGetValue@4      1003ce8c f   libucrt:winapi_thunks.obj
 0001:0003bef7       ___acrt_FlsSetValue@8      1003cef7 f   libucrt:winapi_thunks.obj
 0001:0003bf66       ___acrt_GetDateFormatEx@28 1003cf66 f   libucrt:winapi_thunks.obj
 0001:0003c008       ___acrt_GetEnabledXStateFeatures@0 1003d008 f   libucrt:winapi_thunks.obj
 0001:0003c06a       ___acrt_GetFileInformationByHandleEx@16 1003d06a f   libucrt:winapi_thunks.obj
 0001:0003c0e5       ___acrt_GetLocaleInfoEx@16 1003d0e5 f   libucrt:winapi_thunks.obj
 0001:0003c169       ___acrt_GetSystemTimePreciseAsFileTime@4 1003d169 f   libucrt:winapi_thunks.obj
 0001:0003c1d4       ___acrt_GetTimeFormatEx@24 1003d1d4 f   libucrt:winapi_thunks.obj
 0001:0003c260       ___acrt_GetUserDefaultLocaleName@8 1003d260 f   libucrt:winapi_thunks.obj
 0001:0003c2e0       ___acrt_GetXStateFeaturesMask@8 1003d2e0 f   libucrt:winapi_thunks.obj
 0001:0003c34c       ___acrt_InitializeCriticalSectionEx@12 1003d34c f   libucrt:winapi_thunks.obj
 0001:0003c3c6       ___acrt_IsValidLocaleName@4 1003d3c6 f   libucrt:winapi_thunks.obj
 0001:0003c441       ___acrt_LCIDToLocaleName@16 1003d441 f   libucrt:winapi_thunks.obj
 0001:0003c4c5       ___acrt_LCMapStringEx@36   1003d4c5 f   libucrt:winapi_thunks.obj
 0001:0003c56f       ___acrt_LocaleNameToLCID@8 1003d56f f   libucrt:winapi_thunks.obj
 0001:0003c5e2       ___acrt_LocateXStateFeature@12 1003d5e2 f   libucrt:winapi_thunks.obj
 0001:0003c639       ___acrt_MessageBoxA@16     1003d639 f   libucrt:winapi_thunks.obj
 0001:0003c694       ___acrt_MessageBoxW@16     1003d694 f   libucrt:winapi_thunks.obj
 0001:0003c6ef       ___acrt_RoInitialize@4     1003d6ef f   libucrt:winapi_thunks.obj
 0001:0003c755       ___acrt_RoUninitialize@0   1003d755 f   libucrt:winapi_thunks.obj
 0001:0003c7b0       ___acrt_RtlGenRandom@8     1003d7b0 f   libucrt:winapi_thunks.obj
 0001:0003c81c       ___acrt_SetThreadStackGuarantee@4 1003d81c f   libucrt:winapi_thunks.obj
 0001:0003c882       ___acrt_can_show_message_box 1003d882 f   libucrt:winapi_thunks.obj
 0001:0003c8a1       ___acrt_can_use_vista_locale_apis 1003d8a1 f   libucrt:winapi_thunks.obj
 0001:0003c8b0       ___acrt_can_use_xstate_apis 1003d8b0 f   libucrt:winapi_thunks.obj
 0001:0003c8bf       ___acrt_get_parent_window  1003d8bf f   libucrt:winapi_thunks.obj
 0001:0003c95d       ___acrt_initialize_winapi_thunks 1003d95d f   libucrt:winapi_thunks.obj
 0001:0003c98c       ___acrt_is_interactive     1003d98c f   libucrt:winapi_thunks.obj
 0001:0003ca5b       ___acrt_is_packaged_app    1003da5b f   libucrt:winapi_thunks.obj
 0001:0003cb03       ___acrt_uninitialize_winapi_thunks 1003db03 f   libucrt:winapi_thunks.obj
 0001:0003cb46       ??0__crt_stdio_stream@@QAE@QAU__crt_stdio_stream_data@@@Z 1003db46 f i libucrt:closeall.obj
 0001:0003cb5a       __fcloseall                1003db5a f   libucrt:closeall.obj
 0001:0003cc22       ___acrt_stdio_flush_nolock 1003dc22 f   libucrt:fflush.obj
 0001:0003cca1       __fflush_nolock            1003dca1 f   libucrt:fflush.obj
 0001:0003ccf9       __flushall                 1003dcf9 f   libucrt:fflush.obj
 0001:0003ce12       _fflush                    1003de12 f   libucrt:fflush.obj
 0001:0003ce81       ?has_crt_buffer@__crt_stdio_stream@@QBE_NXZ 1003de81 f i libucrt:_freebuf.obj
 0001:0003ce90       ___acrt_stdio_free_buffer_nolock 1003de90 f   libucrt:_freebuf.obj
 0001:0003d0cd       ___acrt_initialize_lowio   1003e0cd f   libucrt:ioinit.obj
 0001:0003d138       ___acrt_uninitialize_lowio 1003e138 f   libucrt:ioinit.obj
 0001:0003d18a       ___isascii                 1003e18a f i libucrt:_ctype.obj
 0001:0003d1a0       ___iscsym                  1003e1a0 f i libucrt:_ctype.obj
 0001:0003d1ca       ___iscsymf                 1003e1ca f i libucrt:_ctype.obj
 0001:0003d1f0       ___toascii                 1003e1f0 f i libucrt:_ctype.obj
 0001:0003d200       __isalnum_l                1003e200 f i libucrt:_ctype.obj
 0001:0003d249       __isalpha_l                1003e249 f i libucrt:_ctype.obj
 0001:0003d292       __isblank_l                1003e292 f i libucrt:_ctype.obj
 0001:0003d2e5       __iscntrl_l                1003e2e5 f i libucrt:_ctype.obj
 0001:0003d32b       __iscsym_l                 1003e32b f i libucrt:_ctype.obj
 0001:0003d356       __iscsymf_l                1003e356 f i libucrt:_ctype.obj
 0001:0003d381       __isdigit_l                1003e381 f i libucrt:_ctype.obj
 0001:0003d3c7       __isgraph_l                1003e3c7 f i libucrt:_ctype.obj
 0001:0003d410       __islower_l                1003e410 f i libucrt:_ctype.obj
 0001:0003d456       __isprint_l                1003e456 f i libucrt:_ctype.obj
 0001:0003d49f       __ispunct_l                1003e49f f i libucrt:_ctype.obj
 0001:0003d4e5       __isspace_l                1003e4e5 f i libucrt:_ctype.obj
 0001:0003d52b       __isupper_l                1003e52b f i libucrt:_ctype.obj
 0001:0003d571       __isxdigit_l               1003e571 f i libucrt:_ctype.obj
 0001:0003d5ba       _isalnum                   1003e5ba f i libucrt:_ctype.obj
 0001:0003d5f4       _isalpha                   1003e5f4 f i libucrt:_ctype.obj
 0001:0003d62e       _isblank                   1003e62e f i libucrt:_ctype.obj
 0001:0003d672       _iscntrl                   1003e672 f i libucrt:_ctype.obj
 0001:0003d6aa       _isdigit                   1003e6aa f i libucrt:_ctype.obj
 0001:0003d6e2       _isgraph                   1003e6e2 f i libucrt:_ctype.obj
 0001:0003d71c       _islower                   1003e71c f i libucrt:_ctype.obj
 0001:0003d754       _isprint                   1003e754 f i libucrt:_ctype.obj
 0001:0003d78e       _ispunct                   1003e78e f i libucrt:_ctype.obj
 0001:0003d7c6       _isspace                   1003e7c6 f i libucrt:_ctype.obj
 0001:0003d7fe       _isupper                   1003e7fe f i libucrt:_ctype.obj
 0001:0003d836       _isxdigit                  1003e836 f i libucrt:_ctype.obj
 0001:0003dc2e       __tolower                  1003ec2e f   libucrt:tolower_toupper.obj
 0001:0003dc3e       __tolower_l                1003ec3e f   libucrt:tolower_toupper.obj
 0001:0003dc5e       __toupper                  1003ec5e f   libucrt:tolower_toupper.obj
 0001:0003dc6e       __toupper_l                1003ec6e f   libucrt:tolower_toupper.obj
 0001:0003dc8e       _tolower                   1003ec8e f   libucrt:tolower_toupper.obj
 0001:0003dcca       _toupper                   1003ecca f   libucrt:tolower_toupper.obj
 0001:0003dd06       ??$make_c_string_character_source@DPAPAD@__crt_strtox@@YA?AV?$c_string_character_source@D@0@QBDQAPAD@Z 1003ed06 f i libucrt:strtox.obj
 0001:0003dd27       ??$make_c_string_character_source@_WPAPA_W@__crt_strtox@@YA?AV?$c_string_character_source@_W@0@QB_WQAPA_W@Z 1003ed27 f i libucrt:strtox.obj
 0001:0003dd48       ??$parse_integer_from_string@JDPAPAD@__crt_strtox@@YAJQBDQAPADHQAU__crt_locale_pointers@@@Z 1003ed48 f i libucrt:strtox.obj
 0001:0003dd80       ??$parse_integer_from_string@J_WPAPA_W@__crt_strtox@@YAJQB_WQAPA_WHQAU__crt_locale_pointers@@@Z 1003ed80 f i libucrt:strtox.obj
 0001:0003ddb8       ??$parse_integer_from_string@KDPAPAD@__crt_strtox@@YAKQBDQAPADHQAU__crt_locale_pointers@@@Z 1003edb8 f i libucrt:strtox.obj
 0001:0003ddf0       ??$parse_integer_from_string@K_WPAPA_W@__crt_strtox@@YAKQB_WQAPA_WHQAU__crt_locale_pointers@@@Z 1003edf0 f i libucrt:strtox.obj
 0001:0003de28       ??$parse_integer_from_string@_JDPAPAD@__crt_strtox@@YA_JQBDQAPADHQAU__crt_locale_pointers@@@Z 1003ee28 f i libucrt:strtox.obj
 0001:0003de60       ??$parse_integer_from_string@_J_WPAPA_W@__crt_strtox@@YA_JQB_WQAPA_WHQAU__crt_locale_pointers@@@Z 1003ee60 f i libucrt:strtox.obj
 0001:0003de98       ??$parse_integer_from_string@_KDPAPAD@__crt_strtox@@YA_KQBDQAPADHQAU__crt_locale_pointers@@@Z 1003ee98 f i libucrt:strtox.obj
 0001:0003ded0       ??$parse_integer_from_string@_K_WPAPA_W@__crt_strtox@@YA_KQB_WQAPA_WHQAU__crt_locale_pointers@@@Z 1003eed0 f i libucrt:strtox.obj
 0001:0003df08       __strtoi64                 1003ef08 f   libucrt:strtox.obj
 0001:0003df3f       __strtoi64_l               1003ef3f f   libucrt:strtox.obj
 0001:0003df77       __strtoimax_l              1003ef77 f   libucrt:strtox.obj
 0001:0003dfaf       __strtol_l                 1003efaf f   libucrt:strtox.obj
 0001:0003dfe7       __strtoll_l                1003efe7 f   libucrt:strtox.obj
 0001:0003e01f       __strtoui64                1003f01f f   libucrt:strtox.obj
 0001:0003e056       __strtoui64_l              1003f056 f   libucrt:strtox.obj
 0001:0003e08e       __strtoul_l                1003f08e f   libucrt:strtox.obj
 0001:0003e0c6       __strtoull_l               1003f0c6 f   libucrt:strtox.obj
 0001:0003e0fe       __strtoumax_l              1003f0fe f   libucrt:strtox.obj
 0001:0003e136       __wcstoi64                 1003f136 f   libucrt:strtox.obj
 0001:0003e16d       __wcstoi64_l               1003f16d f   libucrt:strtox.obj
 0001:0003e1a5       __wcstoimax_l              1003f1a5 f   libucrt:strtox.obj
 0001:0003e1dd       __wcstol_l                 1003f1dd f   libucrt:strtox.obj
 0001:0003e215       __wcstoll_l                1003f215 f   libucrt:strtox.obj
 0001:0003e24d       __wcstoui64                1003f24d f   libucrt:strtox.obj
 0001:0003e284       __wcstoui64_l              1003f284 f   libucrt:strtox.obj
 0001:0003e2bc       __wcstoul_l                1003f2bc f   libucrt:strtox.obj
 0001:0003e2f4       __wcstoull_l               1003f2f4 f   libucrt:strtox.obj
 0001:0003e32c       __wcstoumax_l              1003f32c f   libucrt:strtox.obj
 0001:0003e364       _strtoimax                 1003f364 f   libucrt:strtox.obj
 0001:0003e39b       _strtol                    1003f39b f   libucrt:strtox.obj
 0001:0003e3d2       _strtoll                   1003f3d2 f   libucrt:strtox.obj
 0001:0003e409       _strtoul                   1003f409 f   libucrt:strtox.obj
 0001:0003e440       _strtoull                  1003f440 f   libucrt:strtox.obj
 0001:0003e477       _strtoumax                 1003f477 f   libucrt:strtox.obj
 0001:0003e4ae       _wcstoimax                 1003f4ae f   libucrt:strtox.obj
 0001:0003e4e5       _wcstol                    1003f4e5 f   libucrt:strtox.obj
 0001:0003e51c       _wcstoll                   1003f51c f   libucrt:strtox.obj
 0001:0003e553       _wcstoul                   1003f553 f   libucrt:strtox.obj
 0001:0003e58a       _wcstoull                  1003f58a f   libucrt:strtox.obj
 0001:0003e5c1       _wcstoumax                 1003f5c1 f   libucrt:strtox.obj
 0001:0003e5f8       __mbtowc_l                 1003f5f8 f   libucrt:mbtowc.obj
 0001:0003e730       _mbtowc                    1003f730 f   libucrt:mbtowc.obj
 0001:0003e750       __wctomb_l                 1003f750 f   libucrt:wctomb.obj
 0001:0003e7b7       __wctomb_s_l               1003f7b7 f   libucrt:wctomb.obj
 0001:0003e920       _wctomb                    1003f920 f   libucrt:wctomb.obj
 0001:0003e961       _wctomb_s                  1003f961 f   libucrt:wctomb.obj
 0001:0003f079       ??1?$__crt_simd_cleanup_guard@$00@@QAE@XZ 10040079 f i libucrt:strnlen.obj
 0001:0003f07d       ??1?$__crt_simd_cleanup_guard@$0A@@@QAE@XZ 1004007d f i libucrt:strnlen.obj
 0001:0003f07e       ?compare_equals@?$__crt_simd_traits@$00E@@SA?AT__m256i@@T2@0@Z 1004007e f i libucrt:strnlen.obj
 0001:0003f083       ?compare_equals@?$__crt_simd_traits@$00G@@SA?AT__m256i@@T2@0@Z 10040083 f i libucrt:strnlen.obj
 0001:0003f088       ?compare_equals@?$__crt_simd_traits@$0A@E@@SA?AT__m128i@@T2@0@Z 10040088 f i libucrt:strnlen.obj
 0001:0003f08d       ?compare_equals@?$__crt_simd_traits@$0A@G@@SA?AT__m128i@@T2@0@Z 1004008d f i libucrt:strnlen.obj
 0001:0003f092       ?compute_byte_mask@?$__crt_simd_pack_traits@$00@@SAHT__m256i@@@Z 10040092 f i libucrt:strnlen.obj
 0001:0003f097       ?compute_byte_mask@?$__crt_simd_pack_traits@$0A@@@SAHT__m128i@@@Z 10040097 f i libucrt:strnlen.obj
 0001:0003f09c       ?get_zero_pack@?$__crt_simd_pack_traits@$00@@SA?AT__m256i@@XZ 1004009c f i libucrt:strnlen.obj
 0001:0003f0a1       ?get_zero_pack@?$__crt_simd_pack_traits@$0A@@@SA?AT__m128i@@XZ 100400a1 f i libucrt:strnlen.obj
 0001:0003f0a6       _strnlen                   100400a6 f   libucrt:strnlen.obj
 0001:0003f216       _wcsnlen                   10040216 f   libucrt:strnlen.obj
 0001:0003f43a       ??$?RU__acrt_ptd@@@__crt_internal_free_policy@@QBEXQBU__acrt_ptd@@@Z 1004043a f i libucrt:per_thread_data.obj
 0001:0003f450       ??$?RV<lambda_3518db117f0e7cdb002338c5d3c47b6c>@@AAV<lambda_b2ea41f6bbb362cd97d94c6828d90b61>@@V<lambda_abdedf541bb04549bc734292b4a045d4>@@@?$__crt_seh_guarded_call@X@@QAEX$$QAV<lambda_3518db117f0e7cdb002338c5d3c47b6c>@@AAV<lambda_b2ea41f6bbb362cd97d94c6828d90b61>@@$$QAV<lambda_abdedf541bb04549bc734292b4a045d4>@@@Z 10040450 f i libucrt:per_thread_data.obj
 0001:0003f4b4       ??$?RV<lambda_51b6e8b1eb166f2a3faf91f424b38130>@@AAV<lambda_6250bd4b2a391816dd638c3bf72b0bcb>@@V<lambda_0b5a4a3e68152e1d9b943535f5f47bed>@@@?$__crt_seh_guarded_call@X@@QAEX$$QAV<lambda_51b6e8b1eb166f2a3faf91f424b38130>@@AAV<lambda_6250bd4b2a391816dd638c3bf72b0bcb>@@$$QAV<lambda_0b5a4a3e68152e1d9b943535f5f47bed>@@@Z 100404b4 f i libucrt:per_thread_data.obj
 0001:0003f52d       ??$?RV<lambda_5b71d36f03204c0beab531769a5b5694>@@AAV<lambda_be2b3da3f62db62e9dad5dc70221a656>@@V<lambda_8f9ce462984622f9bf76b59e2aaaf805>@@@?$__crt_seh_guarded_call@X@@QAEX$$QAV<lambda_5b71d36f03204c0beab531769a5b5694>@@AAV<lambda_be2b3da3f62db62e9dad5dc70221a656>@@$$QAV<lambda_8f9ce462984622f9bf76b59e2aaaf805>@@@Z 1004052d f i libucrt:per_thread_data.obj
 0001:0003f58a       ??$?RV<lambda_9df27f884b057bc3edfc946cb5b7cf47>@@AAV<lambda_e69574bed617af4e071282c136b37893>@@V<lambda_cc0d902bcbbeb830f749456577db4721>@@@?$__crt_seh_guarded_call@X@@QAEX$$QAV<lambda_9df27f884b057bc3edfc946cb5b7cf47>@@AAV<lambda_e69574bed617af4e071282c136b37893>@@$$QAV<lambda_cc0d902bcbbeb830f749456577db4721>@@@Z 1004058a f i libucrt:per_thread_data.obj
 0001:0003f5e4       ??$__acrt_lock_and_call@V<lambda_6250bd4b2a391816dd638c3bf72b0bcb>@@@@YAXW4__acrt_lock_id@@$$QAV<lambda_6250bd4b2a391816dd638c3bf72b0bcb>@@@Z 100405e4 f i libucrt:per_thread_data.obj
 0001:0003f616       ??$__acrt_lock_and_call@V<lambda_b2ea41f6bbb362cd97d94c6828d90b61>@@@@YAXW4__acrt_lock_id@@$$QAV<lambda_b2ea41f6bbb362cd97d94c6828d90b61>@@@Z 10040616 f i libucrt:per_thread_data.obj
 0001:0003f648       ??$__acrt_lock_and_call@V<lambda_be2b3da3f62db62e9dad5dc70221a656>@@@@YAXW4__acrt_lock_id@@$$QAV<lambda_be2b3da3f62db62e9dad5dc70221a656>@@@Z 10040648 f i libucrt:per_thread_data.obj
 0001:0003f67a       ??$__acrt_lock_and_call@V<lambda_e69574bed617af4e071282c136b37893>@@@@YAXW4__acrt_lock_id@@$$QAV<lambda_e69574bed617af4e071282c136b37893>@@@Z 1004067a f i libucrt:per_thread_data.obj
 0001:0003f7b3       ??0?$__crt_unique_heap_ptr@U__acrt_ptd@@U__crt_internal_free_policy@@@@QAE@QAU__acrt_ptd@@@Z 100407b3 f i libucrt:per_thread_data.obj
 0001:0003f7c7       ??0__crt_scoped_get_last_error_reset@@QAE@XZ 100407c7 f i libucrt:per_thread_data.obj
 0001:0003f7dc       ??1?$__crt_unique_heap_ptr@U__acrt_ptd@@U__crt_internal_free_policy@@@@QAE@XZ 100407dc f i libucrt:per_thread_data.obj
 0001:0003f7f2       ??1__crt_scoped_get_last_error_reset@@QAE@XZ 100407f2 f i libucrt:per_thread_data.obj
 0001:0003f7fd       ??B?$__crt_unique_heap_ptr@U__acrt_ptd@@U__crt_internal_free_policy@@@@QBE_NXZ 100407fd f i libucrt:per_thread_data.obj
 0001:0003f973       ?dangerous_get_state_array@?$dual_state_global@PAU__crt_locale_data@@@__crt_state_management@@QAEPAPAU__crt_locale_data@@XZ 10040973 f i libucrt:per_thread_data.obj
 0001:0003fa77       ?detach@?$__crt_unique_heap_ptr@U__acrt_ptd@@U__crt_internal_free_policy@@@@QAEPAU__acrt_ptd@@XZ 10040a77 f i libucrt:per_thread_data.obj
 0001:0003fa7d       ?get@?$__crt_unique_heap_ptr@U__acrt_ptd@@U__crt_internal_free_policy@@@@QBEPAU__acrt_ptd@@XZ 10040a7d f i libucrt:per_thread_data.obj
 0001:0003fb8c       ?is_valid@?$__crt_unique_heap_ptr@U__acrt_ptd@@U__crt_internal_free_policy@@@@QBE_NXZ 10040b8c f i libucrt:per_thread_data.obj
 0001:0003fb96       ?release@?$__crt_unique_heap_ptr@U__acrt_ptd@@U__crt_internal_free_policy@@@@QAEXXZ 10040b96 f i libucrt:per_thread_data.obj
 0001:0003fc22       ?value@?$dual_state_global@PAU__crt_locale_data@@@__crt_state_management@@QAEAAPAU__crt_locale_data@@XZ 10040c22 f i libucrt:per_thread_data.obj
 0001:0003fc25       ___acrt_freeptd            10040c25 f   libucrt:per_thread_data.obj
 0001:0003fc5c       ___acrt_getptd             10040c5c f   libucrt:per_thread_data.obj
 0001:0003fd01       ___acrt_getptd_noexit      10040d01 f   libucrt:per_thread_data.obj
 0001:0003fda7       ___acrt_initialize_ptd     10040da7 f   libucrt:per_thread_data.obj
 0001:0003fdde       ___acrt_uninitialize_ptd   10040dde f   libucrt:per_thread_data.obj
 0001:0003fdfe       ___threadhandle            10040dfe f   libucrt:per_thread_data.obj
 0001:0003fe04       ___threadid                10040e04 f   libucrt:per_thread_data.obj
 0001:0003fe0a       ___acrt_update_locale_info 10040e0a f   libucrt:locale_update.obj
 0001:0003fe42       ___acrt_update_multibyte_info 10040e42 f   libucrt:locale_update.obj
 0001:0003fe7a       ?__acrt_fp_classify@@YA?AW4__acrt_fp_class@@ABN@Z 10040e7a f i libucrt:cvt.obj
 0001:0003ff01       ?__acrt_fp_is_negative@@YA_NABN@Z 10040f01 f i libucrt:cvt.obj
 0001:00040974       ?strrchr@@YAPADQADH@Z      10041974 f i libucrt:cvt.obj
 0001:00040981       ___acrt_fp_format          10041981 f   libucrt:cvt.obj
 0001:00040b5b       __fputwc_nolock            10041b5b f   libucrt:fputwc.obj
 0001:00040cca       __fputwchar                10041cca f   libucrt:fputwc.obj
 0001:00040cea       __putwc_nolock             10041cea f   libucrt:fputwc.obj
 0001:00040cf7       _fputwc                    10041cf7 f   libucrt:fputwc.obj
 0001:00040d90       _putwc                     10041d90 f   libucrt:fputwc.obj
 0001:00040d9d       _putwchar                  10041d9d f   libucrt:fputwc.obj
 0001:00040daa       ?lowio_handle@__crt_stdio_stream@@QBEHXZ 10041daa f i libucrt:fileno.obj
 0001:00040db0       __fileno                   10041db0 f   libucrt:fileno.obj
 0001:00040ddf       __fputc_nolock             10041ddf f   libucrt:fputc.obj
 0001:00040e12       __fputchar                 10041e12 f   libucrt:fputc.obj
 0001:00040e32       __putc_nolock              10041e32 f   libucrt:fputc.obj
 0001:00040e3f       _fputc                     10041e3f f   libucrt:fputc.obj
 0001:00040f84       _putc                      10041f84 f   libucrt:fputc.obj
 0001:00040f91       _putchar                   10041f91 f   libucrt:fputc.obj
 0001:00040f9e       __get_printf_count_output  10041f9e f   libucrt:printf_count_output.obj
 0001:00040fb8       __set_printf_count_output  10041fb8 f   libucrt:printf_count_output.obj
 0001:00040fec       ?has_temporary_buffer@__crt_stdio_stream@@QBE_NXZ 10041fec f i libucrt:_sftbuf.obj
 0001:00040ffb       ___acrt_stdio_begin_temporary_buffering_nolock 10041ffb f   libucrt:_sftbuf.obj
 0001:000410dd       ___acrt_stdio_end_temporary_buffering_nolock 100420dd f   libucrt:_sftbuf.obj
 0001:00041127       ??$?RU__crt_locale_data@@@__crt_internal_free_policy@@QBEXQBU__crt_locale_data@@@Z 10042127 f i libucrt:wsetlocale.obj
 0001:0004113d       ??$?RU__crt_locale_pointers@@@__crt_internal_free_policy@@QBEXQBU__crt_locale_pointers@@@Z 1004213d f i libucrt:wsetlocale.obj
 0001:00041153       ??$?RU__crt_multibyte_data@@@__crt_internal_free_policy@@QBEXQBU__crt_multibyte_data@@@Z 10042153 f i libucrt:wsetlocale.obj
 0001:00041169       ??$?RV<lambda_70818de7b02deff9841e8b0962a60ed9>@@AAV<lambda_2af78c5f5901b1372d98f9ab3177dfa6>@@AAV<lambda_f51fe5fd7c79a33db34fc9310f277369>@@@?$__crt_seh_guarded_call@X@@QAEX$$QAV<lambda_70818de7b02deff9841e8b0962a60ed9>@@AAV<lambda_2af78c5f5901b1372d98f9ab3177dfa6>@@AAV<lambda_f51fe5fd7c79a33db34fc9310f277369>@@@Z 10042169 f i libucrt:wsetlocale.obj
 0001:000411b2       ??$?RV<lambda_76aaead6e312921abc834cb00a638bdd>@@AAV<lambda_176e34f99554166dd2fac165c457248c>@@V<lambda_998ee1c9f4290b119b936bcd6215875a>@@@?$__crt_seh_guarded_call@X@@QAEX$$QAV<lambda_76aaead6e312921abc834cb00a638bdd>@@AAV<lambda_176e34f99554166dd2fac165c457248c>@@$$QAV<lambda_998ee1c9f4290b119b936bcd6215875a>@@@Z 100421b2 f i libucrt:wsetlocale.obj
 0001:0004120e       ??$?RV<lambda_c76fdea48760d5f9368b465f31df4405>@@AAV<lambda_e378711a6f6581bf7f0efd7cdf97f5d9>@@V<lambda_e927a58b2a85c081d733e8c6192ae2d2>@@@?$__crt_seh_guarded_call@X@@QAEX$$QAV<lambda_c76fdea48760d5f9368b465f31df4405>@@AAV<lambda_e378711a6f6581bf7f0efd7cdf97f5d9>@@$$QAV<lambda_e927a58b2a85c081d733e8c6192ae2d2>@@@Z 1004220e f i libucrt:wsetlocale.obj
 0001:00041261       ??$?RV<lambda_c9469061b39d205f0f236529d4a41659>@@AAV<lambda_b7fb1a997d3ebc0cc0186c5835178808>@@V<lambda_14b92c79d699846b5cc916cd4cf280e4>@@@?$__crt_seh_guarded_call@X@@QAEX$$QAV<lambda_c9469061b39d205f0f236529d4a41659>@@AAV<lambda_b7fb1a997d3ebc0cc0186c5835178808>@@$$QAV<lambda_14b92c79d699846b5cc916cd4cf280e4>@@@Z 10042261 f i libucrt:wsetlocale.obj
 0001:000412bb       ??$__acrt_lock_and_call@V<lambda_176e34f99554166dd2fac165c457248c>@@@@YAXW4__acrt_lock_id@@$$QAV<lambda_176e34f99554166dd2fac165c457248c>@@@Z 100422bb f i libucrt:wsetlocale.obj
 0001:000412ed       ??$__acrt_lock_and_call@V<lambda_b7fb1a997d3ebc0cc0186c5835178808>@@@@YAXW4__acrt_lock_id@@$$QAV<lambda_b7fb1a997d3ebc0cc0186c5835178808>@@@Z 100422ed f i libucrt:wsetlocale.obj
 0001:0004131f       ??$__acrt_lock_and_call@V<lambda_e378711a6f6581bf7f0efd7cdf97f5d9>@@@@YAXW4__acrt_lock_id@@$$QAV<lambda_e378711a6f6581bf7f0efd7cdf97f5d9>@@@Z 1004231f f i libucrt:wsetlocale.obj
 0001:00041351       ??$__crt_call_and_cleanup@V<lambda_2af78c5f5901b1372d98f9ab3177dfa6>@@V<lambda_f51fe5fd7c79a33db34fc9310f277369>@@@@YAX$$QAV<lambda_2af78c5f5901b1372d98f9ab3177dfa6>@@$$QAV<lambda_f51fe5fd7c79a33db34fc9310f277369>@@@Z 10042351 f i libucrt:wsetlocale.obj
 0001:00041374       ??$__vcrt_va_start_verify_argument_type@H@@YAXXZ 10042374 f i libucrt:wsetlocale.obj
 0001:00041499       ??0?$__crt_unique_heap_ptr@U__crt_locale_data@@U__crt_internal_free_policy@@@@QAE@QAU__crt_locale_data@@@Z 10042499 f i libucrt:wsetlocale.obj
 0001:000414ad       ??0?$__crt_unique_heap_ptr@U__crt_locale_pointers@@U__crt_internal_free_policy@@@@QAE@QAU__crt_locale_pointers@@@Z 100424ad f i libucrt:wsetlocale.obj
 0001:000414c1       ??0?$__crt_unique_heap_ptr@U__crt_multibyte_data@@U__crt_internal_free_policy@@@@QAE@QAU__crt_multibyte_data@@@Z 100424c1 f i libucrt:wsetlocale.obj
 0001:000414d5       ??1?$__crt_unique_heap_ptr@U__crt_locale_data@@U__crt_internal_free_policy@@@@QAE@XZ 100424d5 f i libucrt:wsetlocale.obj
 0001:000414eb       ??1?$__crt_unique_heap_ptr@U__crt_locale_pointers@@U__crt_internal_free_policy@@@@QAE@XZ 100424eb f i libucrt:wsetlocale.obj
 0001:00041501       ??1?$__crt_unique_heap_ptr@U__crt_multibyte_data@@U__crt_internal_free_policy@@@@QAE@XZ 10042501 f i libucrt:wsetlocale.obj
 0001:00041517       ??B?$__crt_unique_heap_ptr@U__crt_locale_data@@U__crt_internal_free_policy@@@@QBE_NXZ 10042517 f i libucrt:wsetlocale.obj
 0001:00041521       ??B?$__crt_unique_heap_ptr@U__crt_locale_pointers@@U__crt_internal_free_policy@@@@QBE_NXZ 10042521 f i libucrt:wsetlocale.obj
 0001:0004152b       ??B?$__crt_unique_heap_ptr@U__crt_multibyte_data@@U__crt_internal_free_policy@@@@QBE_NXZ 1004252b f i libucrt:wsetlocale.obj
 0001:00041754       ?detach@?$__crt_unique_heap_ptr@U__crt_locale_data@@U__crt_internal_free_policy@@@@QAEPAU__crt_locale_data@@XZ 10042754 f i libucrt:wsetlocale.obj
 0001:0004175a       ?detach@?$__crt_unique_heap_ptr@U__crt_locale_pointers@@U__crt_internal_free_policy@@@@QAEPAU__crt_locale_pointers@@XZ 1004275a f i libucrt:wsetlocale.obj
 0001:00041760       ?detach@?$__crt_unique_heap_ptr@U__crt_multibyte_data@@U__crt_internal_free_policy@@@@QAEPAU__crt_multibyte_data@@XZ 10042760 f i libucrt:wsetlocale.obj
 0001:00041766       ?get@?$__crt_unique_heap_ptr@U__crt_locale_data@@U__crt_internal_free_policy@@@@QBEPAU__crt_locale_data@@XZ 10042766 f i libucrt:wsetlocale.obj
 0001:00041769       ?get@?$__crt_unique_heap_ptr@U__crt_locale_pointers@@U__crt_internal_free_policy@@@@QBEPAU__crt_locale_pointers@@XZ 10042769 f i libucrt:wsetlocale.obj
 0001:0004176c       ?get@?$__crt_unique_heap_ptr@U__crt_multibyte_data@@U__crt_internal_free_policy@@@@QBEPAU__crt_multibyte_data@@XZ 1004276c f i libucrt:wsetlocale.obj
 0001:0004176f       ?is_valid@?$__crt_unique_heap_ptr@U__crt_locale_data@@U__crt_internal_free_policy@@@@QBE_NXZ 1004276f f i libucrt:wsetlocale.obj
 0001:00041779       ?is_valid@?$__crt_unique_heap_ptr@U__crt_locale_pointers@@U__crt_internal_free_policy@@@@QBE_NXZ 10042779 f i libucrt:wsetlocale.obj
 0001:00041783       ?is_valid@?$__crt_unique_heap_ptr@U__crt_multibyte_data@@U__crt_internal_free_policy@@@@QBE_NXZ 10042783 f i libucrt:wsetlocale.obj
 0001:0004178d       ?release@?$__crt_unique_heap_ptr@U__crt_locale_data@@U__crt_internal_free_policy@@@@QAEXXZ 1004278d f i libucrt:wsetlocale.obj
 0001:000417a3       ?release@?$__crt_unique_heap_ptr@U__crt_locale_pointers@@U__crt_internal_free_policy@@@@QAEXXZ 100427a3 f i libucrt:wsetlocale.obj
 0001:000417b9       ?release@?$__crt_unique_heap_ptr@U__crt_multibyte_data@@U__crt_internal_free_policy@@@@QAEXXZ 100427b9 f i libucrt:wsetlocale.obj
 0001:000417cf       ___acrt_copy_locale_name   100427cf f   libucrt:wsetlocale.obj
 0001:0004184e       ___acrt_set_locale_changed 1004284e f   libucrt:wsetlocale.obj
 0001:0004185b       ___acrt_uninitialize_locale 1004285b f   libucrt:wsetlocale.obj
 0001:000418c1       ___lc_lctowcs              100428c1 f   libucrt:wsetlocale.obj
 0001:0004194d       ___lc_wcstolc              1004294d f   libucrt:wsetlocale.obj
 0001:00041ac7       __configthreadlocale       10042ac7 f   libucrt:wsetlocale.obj
 0001:00041b7b       __create_locale            10042b7b f   libucrt:wsetlocale.obj
 0001:00041bf8       __expandlocale             10042bf8 f   libucrt:wsetlocale.obj
 0001:0004204c       __free_locale              1004304c f   libucrt:wsetlocale.obj
 0001:00042132       __get_current_locale       10043132 f   libucrt:wsetlocale.obj
 0001:000421cb       __wcreate_locale           100431cb f   libucrt:wsetlocale.obj
 0001:00042316       __wcscats                  10043316 f   libucrt:wsetlocale.obj
 0001:00042367       __wsetlocale               10043367 f   libucrt:wsetlocale.obj
 0001:00042e8d       ___p___mb_cur_max          10043e8d f   libucrt:nlsdata.obj
 0001:00042ebd       __realloc_base             10043ebd f   libucrt:realloc_base.obj
 0001:00042f40       ___acrt_initialize_locks   10043f40 f   libucrt:locks.obj
 0001:00042f91       ___acrt_lock               10043f91 f   libucrt:locks.obj
 0001:00042fad       ___acrt_uninitialize_locks 10043fad f   libucrt:locks.obj
 0001:00042fea       ___acrt_unlock             10043fea f   libucrt:locks.obj
 0001:00043006       __lock_locales             10044006 f   libucrt:locks.obj
 0001:00043011       __unlock_locales           10044011 f   libucrt:locks.obj
 0001:0004301c       ??$?RV<lambda_123407a5e2ac06da108355a851863b7a>@@AAV<lambda_2fe9b910cf3cbf4a0ab98a02ba45b3ec>@@V<lambda_ae55bdf541ad94d75914d381c370e64d>@@@?$__crt_seh_guarded_call@H@@QAEH$$QAV<lambda_123407a5e2ac06da108355a851863b7a>@@AAV<lambda_2fe9b910cf3cbf4a0ab98a02ba45b3ec>@@$$QAV<lambda_ae55bdf541ad94d75914d381c370e64d>@@@Z 1004401c f i libucrt:close.obj
 0001:000430be       ??$__acrt_lowio_lock_fh_and_call@V<lambda_2fe9b910cf3cbf4a0ab98a02ba45b3ec>@@@@YAHH$$QAV<lambda_2fe9b910cf3cbf4a0ab98a02ba45b3ec>@@@Z 100440be f i libucrt:close.obj
 0001:00043211       __close                    10044211 f   libucrt:close.obj
 0001:000432af       __close_nolock             100442af f   libucrt:close.obj
 0001:00043372       ??$?RU__crt_stdio_stream_data@@@__crt_internal_free_policy@@QBEXQBU__crt_stdio_stream_data@@@Z 10044372 f i libucrt:stream.obj
 0001:00043388       ??0?$__crt_unique_heap_ptr@U__crt_stdio_stream_data@@U__crt_internal_free_policy@@@@QAE@QAU__crt_stdio_stream_data@@@Z 10044388 f i libucrt:stream.obj
 0001:0004339c       ??0__crt_stdio_stream@@QAE@XZ 1004439c f i libucrt:stream.obj
 0001:000433a2       ??1?$__crt_unique_heap_ptr@U__crt_stdio_stream_data@@U__crt_internal_free_policy@@@@QAE@XZ 100443a2 f i libucrt:stream.obj
 0001:000433b8       ?__acrt_stdio_allocate_stream@@YA?AV__crt_stdio_stream@@XZ 100443b8 f   libucrt:stream.obj
 0001:0004342e       ?__acrt_stdio_free_stream@@YAXV__crt_stdio_stream@@@Z 1004442e f   libucrt:stream.obj
 0001:00043477       ?deallocate@__crt_stdio_stream@@QAEXXZ 10044477 f i libucrt:stream.obj
 0001:00043483       ?detach@?$__crt_unique_heap_ptr@U__crt_stdio_stream_data@@U__crt_internal_free_policy@@@@QAEPAU__crt_stdio_stream_data@@XZ 10044483 f i libucrt:stream.obj
 0001:0004357c       ?lock@__crt_stdio_stream@@QBEXXZ 1004457c f i libucrt:stream.obj
 0001:00043587       ?release@?$__crt_unique_heap_ptr@U__crt_stdio_stream_data@@U__crt_internal_free_policy@@@@QAEXXZ 10044587 f i libucrt:stream.obj
 0001:0004359d       ?try_allocate@__crt_stdio_stream@@QAE_NXZ 1004459d f i libucrt:stream.obj
 0001:000435c6       ??$__acrt_stdio_parse_mode@D@@YA?AU__acrt_stdio_stream_mode@@QBD@Z 100445c6 f i libucrt:openfile.obj
 0001:00043884       ??$__acrt_stdio_parse_mode@_W@@YA?AU__acrt_stdio_stream_mode@@QB_W@Z 10044884 f i libucrt:openfile.obj
 0001:00043ca5       ??$tcsncmp@AAPBDAAY02$$CBDI@?$__crt_char_traits@D@@SAHAAPBDAAY02$$CBD$$QAI@Z 10044ca5 f i libucrt:openfile.obj
 0001:00043cc8       ??$tcsncmp@AAPB_WAAY02$$CB_WI@?$__crt_char_traits@_W@@SAHAAPB_WAAY02$$CB_W$$QAI@Z 10044cc8 f i libucrt:openfile.obj
 0001:00043ceb       ??$tcsnicmp@AAPBDAAY04$$CBDI@?$__crt_char_traits@D@@SAHAAPBDAAY04$$CBD$$QAI@Z 10044ceb f i libucrt:openfile.obj
 0001:00043d0e       ??$tcsnicmp@AAPBDAAY06$$CBDI@?$__crt_char_traits@D@@SAHAAPBDAAY06$$CBD$$QAI@Z 10044d0e f i libucrt:openfile.obj
 0001:00043d31       ??$tcsnicmp@AAPBDAAY07$$CBDI@?$__crt_char_traits@D@@SAHAAPBDAAY07$$CBD$$QAI@Z 10044d31 f i libucrt:openfile.obj
 0001:00043d54       ??$tcsnicmp@AAPB_WAAY04$$CB_WI@?$__crt_char_traits@_W@@SAHAAPB_WAAY04$$CB_W$$QAI@Z 10044d54 f i libucrt:openfile.obj
 0001:00043d77       ??$tcsnicmp@AAPB_WAAY06$$CB_WI@?$__crt_char_traits@_W@@SAHAAPB_WAAY06$$CB_W$$QAI@Z 10044d77 f i libucrt:openfile.obj
 0001:00043d9a       ??$tcsnicmp@AAPB_WAAY07$$CB_WI@?$__crt_char_traits@_W@@SAHAAPB_WAAY07$$CB_W$$QAI@Z 10044d9a f i libucrt:openfile.obj
 0001:00043dbd       ??$tsopen_s@PAHABQBDABHABHH@?$__crt_char_traits@D@@SAH$$QAPAHABQBDABH2$$QAH@Z 10044dbd f i libucrt:openfile.obj
 0001:00043def       ??$tsopen_s@PAHABQB_WABHABHH@?$__crt_char_traits@_W@@SAH$$QAPAHABQB_WABH2$$QAH@Z 10044def f i libucrt:openfile.obj
 0001:00043e21       ?__acrt_stdio_parse_mode_D@@YA_NAAU__acrt_stdio_stream_mode@@@Z 10044e21 f i libucrt:openfile.obj
 0001:00043e42       ?__acrt_stdio_parse_mode_N@@YA_NAAU__acrt_stdio_stream_mode@@@Z 10044e42 f i libucrt:openfile.obj
 0001:00043e58       ?__acrt_stdio_parse_mode_R@@YA_NAAU__acrt_stdio_stream_mode@@AA_N@Z 10044e58 f i libucrt:openfile.obj
 0001:00043e7d       ?__acrt_stdio_parse_mode_S@@YA_NAAU__acrt_stdio_stream_mode@@AA_N@Z 10044e7d f i libucrt:openfile.obj
 0001:00043ea2       ?__acrt_stdio_parse_mode_T@@YA_NAAU__acrt_stdio_stream_mode@@@Z 10044ea2 f i libucrt:openfile.obj
 0001:00043ec8       ?__acrt_stdio_parse_mode_b@@YA_NAAU__acrt_stdio_stream_mode@@@Z 10044ec8 f i libucrt:openfile.obj
 0001:00043ef0       ?__acrt_stdio_parse_mode_c@@YA_NAAU__acrt_stdio_stream_mode@@AA_N@Z 10044ef0 f i libucrt:openfile.obj
 0001:00043f1a       ?__acrt_stdio_parse_mode_n@@YA_NAAU__acrt_stdio_stream_mode@@AA_N@Z 10044f1a f i libucrt:openfile.obj
 0001:00043f44       ?__acrt_stdio_parse_mode_plus@@YA_NAAU__acrt_stdio_stream_mode@@AA_N@Z 10044f44 f i libucrt:openfile.obj
 0001:00043f86       ?__acrt_stdio_parse_mode_t@@YA_NAAU__acrt_stdio_stream_mode@@@Z 10044f86 f i libucrt:openfile.obj
 0001:00043fae       __openfile                 10044fae f   libucrt:openfile.obj
 0001:00043fbb       __wopenfile                10044fbb f   libucrt:openfile.obj
 0001:00044660       __read                     10045660 f   libucrt:read.obj
 0001:000447b7       __read_nolock              100457b7 f   libucrt:read.obj
 0001:0004514f       ___acrt_stdio_refill_and_read_narrow_nolock 1004614f f   libucrt:_filbuf.obj
 0001:0004515c       ___acrt_stdio_refill_and_read_wide_nolock 1004615c f   libucrt:_filbuf.obj
 0001:000458bb       __write                    100468bb f   libucrt:write.obj
 0001:000459e0       __write_nolock             100469e0 f   libucrt:write.obj
 0001:00046126       ___acrt_stdio_flush_and_write_narrow_nolock 10047126 f   libucrt:_flsbuf.obj
 0001:00046133       ___acrt_stdio_flush_and_write_wide_nolock 10047133 f   libucrt:_flsbuf.obj
 0001:00046140       ___acrt_copy_path_to_wide_string 10047140 f   libucrt:string_utilities.obj
 0001:00046238       ___acrt_copy_to_char       10047238 f   libucrt:string_utilities.obj
 0001:00046323       __wremove                  10047323 f   libucrt:wunlink.obj
 0001:00046355       __wunlink                  10047355 f   libucrt:wunlink.obj
 0001:000467c9       __lseek                    100477c9 f   libucrt:lseek.obj
 0001:000467d6       __lseek_nolock             100477d6 f   libucrt:lseek.obj
 0001:000467e3       __lseeki64                 100477e3 f   libucrt:lseek.obj
 0001:00046804       __lseeki64_nolock          10047804 f   libucrt:lseek.obj
 0001:00046825       __chgsign                  10047825 f   libucrt:ieeemisc.obj
 0001:0004685f       __chgsignf                 1004785f f   libucrt:ieeemisc.obj
 0001:0004688a       __copysign                 1004788a f   libucrt:ieeemisc.obj
 0001:000468be       __copysignf                100478be f   libucrt:ieeemisc.obj
 0001:000468e3       __finite                   100478e3 f   libucrt:ieeemisc.obj
 0001:00046903       __fpclass                  10047903 f   libucrt:ieeemisc.obj
 0001:000469d0       __isnan                    100479d0 f   libucrt:ieeemisc.obj
 0001:00046a13       __logb                     10047a13 f   libucrt:ieeemisc.obj
 0001:00046b18       __nextafter                10047b18 f   libucrt:ieeemisc.obj
 0001:00046b3e       __scalb                    10047b3e f   libucrt:ieeemisc.obj
 0001:00046b5e       __add_exp                  10047b5e f   libucrt:util.obj
 0001:00046b98       __decomp                   10047b98 f   libucrt:util.obj
 0001:00046ca1       __get_exp                  10047ca1 f   libucrt:util.obj
 0001:00046cc0       __set_bexp                 10047cc0 f   libucrt:util.obj
 0001:00046cf3       __set_exp                  10047cf3 f   libucrt:util.obj
 0001:00046d2d       __sptype                   10047d2d f   libucrt:util.obj
 0001:00046da2       ___clrfp_sse2              10047da2 f   libucrt:fpctrl.obj
 0001:00046dcb       ___ctrlfp_sse2             10047dcb f   libucrt:fpctrl.obj
 0001:00046e14       ___fclrf_sse2              10047e14 f   libucrt:fpctrl.obj
 0001:00046e3a       ___get_fpsr_sse2           10047e3a f   libucrt:fpctrl.obj
 0001:00046e5f       ___set_fpsr_sse2           10047e5f f   libucrt:fpctrl.obj
 0001:00046ef2       ___set_statfp_sse2         10047ef2 f   libucrt:fpctrl.obj
 0001:00046f13       ___statfp_sse2             10047f13 f   libucrt:fpctrl.obj
 0001:00046f2d       __clrfp                    10047f2d f   libucrt:fpctrl.obj
 0001:00046f44       __ctrlfp                   10047f44 f   libucrt:fpctrl.obj
 0001:00046f7b       __set_statfp               10047f7b f   libucrt:fpctrl.obj
 0001:00046fec       __statfp                   10047fec f   libucrt:fpctrl.obj
 0001:000470c9       ___acrt_report_runtime_error 100480c9 f   libucrt:report_runtime_error.obj
 0001:0004722f       __query_app_type           1004822f f   libucrt:report_runtime_error.obj
 0001:00047235       __set_app_type             10048235 f   libucrt:report_runtime_error.obj
 0001:00047721       __i64toa                   10048721 f   libucrt:xtoa.obj
 0001:00047774       __i64toa_s                 10048774 f   libucrt:xtoa.obj
 0001:000477c5       __i64tow                   100487c5 f   libucrt:xtoa.obj
 0001:00047818       __i64tow_s                 10048818 f   libucrt:xtoa.obj
 0001:00047869       __itoa                     10048869 f   libucrt:xtoa.obj
 0001:000478ad       __itoa_s                   100488ad f   libucrt:xtoa.obj
 0001:000478ef       __itow                     100488ef f   libucrt:xtoa.obj
 0001:00047933       __itow_s                   10048933 f   libucrt:xtoa.obj
 0001:00047975       __ltoa                     10048975 f   libucrt:xtoa.obj
 0001:000479b9       __ltoa_s                   100489b9 f   libucrt:xtoa.obj
 0001:000479fb       __ltow                     100489fb f   libucrt:xtoa.obj
 0001:00047a3f       __ltow_s                   10048a3f f   libucrt:xtoa.obj
 0001:00047a81       __ui64toa                  10048a81 f   libucrt:xtoa.obj
 0001:00047aab       __ui64toa_s                10048aab f   libucrt:xtoa.obj
 0001:00047ad3       __ui64tow                  10048ad3 f   libucrt:xtoa.obj
 0001:00047afd       __ui64tow_s                10048afd f   libucrt:xtoa.obj
 0001:00047b25       __ultoa                    10048b25 f   libucrt:xtoa.obj
 0001:00047b4b       __ultoa_s                  10048b4b f   libucrt:xtoa.obj
 0001:00047b6f       __ultow                    10048b6f f   libucrt:xtoa.obj
 0001:00047b95       __ultow_s                  10048b95 f   libucrt:xtoa.obj
 0001:00047bb9       __set_error_mode           10048bb9 f   libucrt:set_error_mode.obj
 0001:00047c95       _wcscat_s                  10048c95 f   libucrt:wcscat_s.obj
 0001:00047d9f       _wcscpy_s                  10048d9f f   libucrt:wcscpy_s.obj
 0001:00047f3f       _wcsncat_s                 10048f3f f   libucrt:wcsncat_s.obj
 0001:00047fcf       _strcat_s                  10048fcf f   libucrt:strcat_s.obj
 0001:00048156       _strncat_s                 10049156 f   libucrt:strncat_s.obj
 0001:00048381       ??$message_box@$$TAAPBDAAPBDAAI@?$__crt_char_traits@D@@SAH$$QA$$TAAPBD1AAI@Z 10049381 f i libucrt:crtmbox.obj
 0001:000483a9       ??$message_box@$$TAAPB_WAAPB_WAAI@?$__crt_char_traits@_W@@SAH$$QA$$TAAPB_W1AAI@Z 100493a9 f i libucrt:crtmbox.obj
 0001:000483d1       ??$message_box@$$TABQBDABQBDK@?$__crt_char_traits@D@@SAH$$QA$$TABQBD1$$QAK@Z 100493d1 f i libucrt:crtmbox.obj
 0001:000483f9       ??$message_box@$$TABQB_WABQB_WK@?$__crt_char_traits@_W@@SAH$$QA$$TABQB_W1$$QAK@Z 100493f9 f i libucrt:crtmbox.obj
 0001:00048421       ??$message_box@PAUHWND__@@ABQBDABQBDABI@?$__crt_char_traits@D@@SAH$$QAPAUHWND__@@ABQBD1ABI@Z 10049421 f i libucrt:crtmbox.obj
 0001:00048449       ??$message_box@PAUHWND__@@ABQB_WABQB_WABI@?$__crt_char_traits@_W@@SAH$$QAPAUHWND__@@ABQB_W1ABI@Z 10049449 f i libucrt:crtmbox.obj
 0001:000484c5       ??$output_debug_string@ABQBD@?$__crt_char_traits@D@@SAXABQBD@Z 100494c5 f i libucrt:crtmbox.obj
 0001:000484db       ??$output_debug_string@ABQB_W@?$__crt_char_traits@_W@@SAXABQB_W@Z 100494db f i libucrt:crtmbox.obj
 0001:000484f1       ??0?$__crt_unique_handle_t@U__crt_handle_traits@@@@QAE@QAX@Z 100494f1 f i libucrt:crtmbox.obj
 0001:00048505       ??1?$__crt_unique_handle_t@U__crt_handle_traits@@@@QAE@XZ 10049505 f i libucrt:crtmbox.obj
 0001:00048521       ??B?$__crt_unique_handle_t@U__crt_handle_traits@@@@QBE_NXZ 10049521 f i libucrt:crtmbox.obj
 0001:0004852c       ?close@?$__crt_unique_handle_t@U__crt_handle_traits@@@@QAEXXZ 1004952c f i libucrt:crtmbox.obj
 0001:00048548       ?close@__crt_handle_traits@@SA_NPAX@Z 10049548 f i libucrt:crtmbox.obj
 0001:00048563       ?get@?$__crt_unique_handle_t@U__crt_handle_traits@@@@QBEPAXXZ 10049563 f i libucrt:crtmbox.obj
 0001:00048566       ?get_invalid_value@__crt_handle_traits@@SAPAXXZ 10049566 f i libucrt:crtmbox.obj
 0001:0004856a       ?is_valid@?$__crt_unique_handle_t@U__crt_handle_traits@@@@QBE_NXZ 1004956a f i libucrt:crtmbox.obj
 0001:00048575       ___acrt_show_narrow_message_box 10049575 f   libucrt:crtmbox.obj
 0001:00048582       ___acrt_show_wide_message_box 10049582 f   libucrt:crtmbox.obj
 0001:0004858f       ??$?RV<lambda_d92cfe8357b99225085016881b624cb0>@@AAV<lambda_b721fa326cdb32351d23dfa67958c160>@@V<lambda_42d75b0848218ec137fa420c8ba9fdf9>@@@?$__crt_seh_guarded_call@H@@QAEH$$QAV<lambda_d92cfe8357b99225085016881b624cb0>@@AAV<lambda_b721fa326cdb32351d23dfa67958c160>@@$$QAV<lambda_42d75b0848218ec137fa420c8ba9fdf9>@@@Z 1004958f f i libucrt:setvbuf.obj
 0001:000485f4       ??$__acrt_lock_stream_and_call@V<lambda_b721fa326cdb32351d23dfa67958c160>@@@@YAHQAU_iobuf@@$$QAV<lambda_b721fa326cdb32351d23dfa67958c160>@@@Z 100495f4 f i libucrt:setvbuf.obj
 0001:00048791       _setvbuf                   10049791 f   libucrt:setvbuf.obj
 0001:00048824       ??$?B$$A6AXH@Z@__crt_fast_encoded_nullptr_t@@QBEP6AXH@ZXZ 10049824 f i libucrt:signal.obj
 0001:00048842       ??$?RV<lambda_a048d3beccc847880fc8490e18b82769>@@AAV<lambda_ec61778202f4f5fc7e7711acc23c3bca>@@V<lambda_f7496a158712204296dd6628a163878e>@@@?$__crt_seh_guarded_call@P6AXH@Z@@QAEP6AXH@Z$$QAV<lambda_a048d3beccc847880fc8490e18b82769>@@AAV<lambda_ec61778202f4f5fc7e7711acc23c3bca>@@$$QAV<lambda_f7496a158712204296dd6628a163878e>@@@Z 10049842 f i libucrt:signal.obj
 0001:000488b2       ??$__acrt_lock_and_call@V<lambda_ec61778202f4f5fc7e7711acc23c3bca>@@@@YAP6AXH@ZW4__acrt_lock_id@@$$QAV<lambda_ec61778202f4f5fc7e7711acc23c3bca>@@@Z 100498b2 f i libucrt:signal.obj
 0001:000488e4       ??$__crt_fast_decode_pointer@P6AXH@Z@@YAP6AXH@ZQ6AXH@Z@Z 100498e4 f i libucrt:signal.obj
 0001:000488ff       ??$__crt_fast_encode_pointer@P6AXH@Z@@YAP6AXH@ZQ6AXH@Z@Z 100498ff f i libucrt:signal.obj
 0001:00048aa9       ?initialize@?$dual_state_global@P6AXH@Z@__crt_state_management@@QAEXQ6AXH@Z@Z 10049aa9 f i libucrt:signal.obj
 0001:00048b55       ?value@?$dual_state_global@P6AXH@Z@__crt_state_management@@QAEAAP6AXH@ZXZ 10049b55 f i libucrt:signal.obj
 0001:00048b58       ___acrt_get_sigabrt_handler 10049b58 f   libucrt:signal.obj
 0001:00048b74       ___acrt_initialize_signal_handlers 10049b74 f   libucrt:signal.obj
 0001:00048bbd       ___fpecode                 10049bbd f   libucrt:signal.obj
 0001:00048bc8       ___pxcptinfoptrs           10049bc8 f   libucrt:signal.obj
 0001:00048bd3       _raise                     10049bd3 f   libucrt:signal.obj
 0001:00048e5d       _signal                    10049e5d f   libucrt:signal.obj
 0001:0004907b       ??$__crt_fast_decode_pointer@P6AHPAU_exception@@@Z@@YAP6AHPAU_exception@@@ZQ6AH0@Z@Z 1004a07b f i libucrt:matherr.obj
 0001:00049096       ??$__crt_fast_encode_pointer@P6AHPAU_exception@@@Z@@YAP6AHPAU_exception@@@ZQ6AH0@Z@Z 1004a096 f i libucrt:matherr.obj
 0001:000490bc       ?initialize@?$dual_state_global@P6AHPAU_exception@@@Z@__crt_state_management@@QAEXQ6AHPAU_exception@@@Z@Z 1004a0bc f i libucrt:matherr.obj
 0001:000490f9       ?value@?$dual_state_global@P6AHPAU_exception@@@Z@__crt_state_management@@QAEAAP6AHPAU_exception@@@ZXZ 1004a0f9 f i libucrt:matherr.obj
 0001:000490fc       ___acrt_has_user_matherr   1004a0fc f   libucrt:matherr.obj
 0001:0004911b       ___acrt_initialize_user_matherr 1004a11b f   libucrt:matherr.obj
 0001:00049134       ___acrt_invoke_user_matherr 1004a134 f   libucrt:matherr.obj
 0001:0004918f       ___setusermatherr          1004a18f f   libucrt:matherr.obj
 0001:000491a9       ??$?RV<lambda_978dc153c237d78434369da87b74ff60>@@AAV<lambda_ad1ced32f4ac17aa236e5ef05d6b3b7c>@@V<lambda_4a8533e2866a575feecb8298ce776b0d>@@@?$__crt_seh_guarded_call@X@@QAEX$$QAV<lambda_978dc153c237d78434369da87b74ff60>@@AAV<lambda_ad1ced32f4ac17aa236e5ef05d6b3b7c>@@$$QAV<lambda_4a8533e2866a575feecb8298ce776b0d>@@@Z 1004a1a9 f i libucrt:mbctype.obj
 0001:000491fc       ??$__acrt_lock_and_call@V<lambda_ad1ced32f4ac17aa236e5ef05d6b3b7c>@@@@YAXW4__acrt_lock_id@@$$QAV<lambda_ad1ced32f4ac17aa236e5ef05d6b3b7c>@@@Z 1004a1fc f i libucrt:mbctype.obj
 0001:0004980d       ___acrt_initialize_multibyte 1004a80d f   libucrt:mbctype.obj
 0001:00049832       ___acrt_update_thread_multibyte_data 1004a832 f   libucrt:mbctype.obj
 0001:000498fc       ___p__mbcasemap            1004a8fc f   libucrt:mbctype.obj
 0001:00049902       ___p__mbctype              1004a902 f   libucrt:mbctype.obj
 0001:00049908       __getmbcp                  1004a908 f   libucrt:mbctype.obj
 0001:0004994b       __setmbcp                  1004a94b f   libucrt:mbctype.obj
 0001:00049962       __setmbcp_nolock           1004a962 f   libucrt:mbctype.obj
 0001:00049c70       ??0?$__crt_unique_handle_t@Uenvironment_strings_traits@?A0x29f97c20@@@@QAE@QA_W@Z 1004ac70 f i libucrt:get_environment_from_os.obj
 0001:00049c84       ??1?$__crt_unique_handle_t@Uenvironment_strings_traits@?A0x29f97c20@@@@QAE@XZ 1004ac84 f i libucrt:get_environment_from_os.obj
 0001:00049ca0       ??B?$__crt_unique_handle_t@Uenvironment_strings_traits@?A0x29f97c20@@@@QBE_NXZ 1004aca0 f i libucrt:get_environment_from_os.obj
 0001:00049caa       ?close@?$__crt_unique_handle_t@Uenvironment_strings_traits@?A0x29f97c20@@@@QAEXXZ 1004acaa f i libucrt:get_environment_from_os.obj
 0001:00049cc6       ?close@environment_strings_traits@?A0x29f97c20@@SA_NPA_W@Z 1004acc6 f i libucrt:get_environment_from_os.obj
 0001:00049d20       ?get@?$__crt_unique_handle_t@Uenvironment_strings_traits@?A0x29f97c20@@@@QBEPA_WXZ 1004ad20 f i libucrt:get_environment_from_os.obj
 0001:00049d23       ?get_invalid_value@environment_strings_traits@?A0x29f97c20@@SAPA_WXZ 1004ad23 f i libucrt:get_environment_from_os.obj
 0001:00049d26       ?is_valid@?$__crt_unique_handle_t@Uenvironment_strings_traits@?A0x29f97c20@@@@QBE_NXZ 1004ad26 f i libucrt:get_environment_from_os.obj
 0001:00049d30       ___dcrt_get_narrow_environment_from_os 1004ad30 f   libucrt:get_environment_from_os.obj
 0001:00049dd3       ___dcrt_get_wide_environment_from_os 1004add3 f   libucrt:get_environment_from_os.obj
 0001:0004a66b       ??$get_or_create_environment_nolock@$$$V@?$__crt_char_traits@D@@SAPAPADXZ 1004b66b f i libucrt:setenv.obj
 0001:0004a670       ??$get_or_create_environment_nolock@$$$V@?$__crt_char_traits@_W@@SAPAPA_WXZ 1004b670 f i libucrt:setenv.obj
 0001:0004a675       ??$set_environment_variable@ABQADQAD@?$__crt_char_traits@D@@SAHABQAD$$QBQAD@Z 1004b675 f i libucrt:setenv.obj
 0001:0004a691       ??$set_environment_variable@ABQA_WQA_W@?$__crt_char_traits@_W@@SAHABQA_W$$QBQA_W@Z 1004b691 f i libucrt:setenv.obj
 0001:0004a6ad       ??$tcschr@ABQADD@?$__crt_char_traits@D@@SAPADABQAD$$QAD@Z 1004b6ad f i libucrt:setenv.obj
 0001:0004a6cd       ??$tcschr@ABQA_WD@?$__crt_char_traits@_W@@SAPA_WABQA_W$$QAD@Z 1004b6cd f i libucrt:setenv.obj
 0001:0004a6f2       ??$tcscpy_s@AAPADABIAAPAD@?$__crt_char_traits@D@@SAHAAPADABI0@Z 1004b6f2 f i libucrt:setenv.obj
 0001:0004a717       ??$tcscpy_s@AAPA_WABIAAPA_W@?$__crt_char_traits@_W@@SAHAAPA_WABI0@Z 1004b717 f i libucrt:setenv.obj
 0001:0004a73c       ??$tcscpy_s@ABQADABIABQAD@?$__crt_char_traits@D@@SAHABQADABI0@Z 1004b73c f i libucrt:setenv.obj
 0001:0004a761       ??$tcscpy_s@ABQA_WABIABQA_W@?$__crt_char_traits@_W@@SAHABQA_WABI0@Z 1004b761 f i libucrt:setenv.obj
 0001:0004a786       ??$tcsnicoll@ABQBDAAPADABI@?$__crt_char_traits@D@@SAHABQBDAAPADABI@Z 1004b786 f i libucrt:setenv.obj
 0001:0004a7ab       ??$tcsnicoll@ABQB_WAAPA_WABI@?$__crt_char_traits@_W@@SAHABQB_WAAPA_WABI@Z 1004b7ab f i libucrt:setenv.obj
 0001:0004a7f4       ?strchr@@YAPADQADH@Z       1004b7f4 f i libucrt:setenv.obj
 0001:0004a801       ?wcschr@@YAPA_WPA_W_W@Z    1004b801 f i libucrt:setenv.obj
 0001:0004a80e       ___dcrt_set_variable_in_narrow_environment_nolock 1004b80e f   libucrt:setenv.obj
 0001:0004a81b       ___dcrt_set_variable_in_wide_environment_nolock 1004b81b f   libucrt:setenv.obj
 0001:0004a828       __recalloc                 1004b828 f   libucrt:recalloc.obj
 0001:0004a835       __recalloc_base            1004b835 f   libucrt:recalloc.obj
 0001:0004a8bd       ___acrt_getheap            1004b8bd f   libucrt:heap_handle.obj
 0001:0004a8c3       ___acrt_initialize_heap    1004b8c3 f   libucrt:heap_handle.obj
 0001:0004a8d8       ___acrt_uninitialize_heap  1004b8d8 f   libucrt:heap_handle.obj
 0001:0004a8e4       __get_heap_handle          1004b8e4 f   libucrt:heap_handle.obj
 0001:0004a8ea       ___acrt_initialize_command_line 1004b8ea f   libucrt:argv_data.obj
 0001:0004a909       ___acrt_uninitialize_command_line 1004b909 f   libucrt:argv_data.obj
 0001:0004a90c       ___p___argc                1004b90c f   libucrt:argv_data.obj
 0001:0004a912       ___p___argv                1004b912 f   libucrt:argv_data.obj
 0001:0004a918       ___p___wargv               1004b918 f   libucrt:argv_data.obj
 0001:0004a91e       ___p__acmdln               1004b91e f   libucrt:argv_data.obj
 0001:0004a924       ___p__pgmptr               1004b924 f   libucrt:argv_data.obj
 0001:0004a92a       ___p__wcmdln               1004b92a f   libucrt:argv_data.obj
 0001:0004a930       ___p__wpgmptr              1004b930 f   libucrt:argv_data.obj
 0001:0004a936       __get_pgmptr               1004b936 f   libucrt:argv_data.obj
 0001:0004a973       __get_wpgmptr              1004b973 f   libucrt:argv_data.obj
 0001:0004a9b0       ___acrt_execute_initializers 1004b9b0 f   libucrt:shared_initialization.obj
 0001:0004aa53       ___acrt_execute_uninitializers 1004ba53 f   libucrt:shared_initialization.obj
 0001:0004aab3       ??$?B$$A6AHI@Z@__crt_fast_encoded_nullptr_t@@QBEP6AHI@ZXZ 1004bab3 f i libucrt:new_handler.obj
 0001:0004aad1       ??$__crt_fast_decode_pointer@P6AHI@Z@@YAP6AHI@ZQ6AHI@Z@Z 1004bad1 f i libucrt:new_handler.obj
 0001:0004aaec       ??$__crt_fast_encode_pointer@P6AHI@Z@@YAP6AHI@ZQ6AHI@Z@Z 1004baec f i libucrt:new_handler.obj
 0001:0004ab12       ?_set_new_handler@@YAP6AHI@ZH@Z 1004bb12 f   libucrt:new_handler.obj
 0001:0004ab38       ?initialize@?$dual_state_global@P6AHI@Z@__crt_state_management@@QAEXQ6AHI@Z@Z 1004bb38 f i libucrt:new_handler.obj
 0001:0004ab75       ?value@?$dual_state_global@P6AHI@Z@__crt_state_management@@QAEAAP6AHI@ZXZ 1004bb75 f i libucrt:new_handler.obj
 0001:0004ab78       ___acrt_initialize_new_handler 1004bb78 f   libucrt:new_handler.obj
 0001:0004ab91       __callnewh                 1004bb91 f   libucrt:new_handler.obj
 0001:0004abe6       __query_new_handler        1004bbe6 f   libucrt:new_handler.obj
 0001:0004ac4c       __set_new_handler          1004bc4c f   libucrt:new_handler.obj
 0001:0004acc4       ?value@?$dual_state_global@J@__crt_state_management@@QAEAAJXZ 1004bcc4 f i libucrt:new_mode.obj
 0001:0004acc7       __query_new_mode           1004bcc7 f   libucrt:new_mode.obj
 0001:0004accd       __set_new_mode             1004bccd f   libucrt:new_mode.obj
 0001:0004ad07       ___pctype_func             1004bd07 f   libucrt:ctype.obj
 0001:0004ad36       ___pwctype_func            1004bd36 f   libucrt:ctype.obj
 0001:0004ad3c       __iswctype_l               1004bd3c f   libucrt:iswctype.obj
 0001:0004ad55       _iswctype                  1004bd55 f   libucrt:iswctype.obj
 0001:0004adcb       __isctype                  1004bdcb f   libucrt:isctype.obj
 0001:0004ae08       __isctype_l                1004be08 f   libucrt:isctype.obj
 0001:0004b0cf       ___acrt_DownlevelLCIDToLocaleName 1004c0cf f   libucrt:lcidtoname_downlevel.obj
 0001:0004b1a3       ___acrt_DownlevelLocaleNameToLCID 1004c1a3 f   libucrt:lcidtoname_downlevel.obj
 0001:0004b1da       ??$?RV<lambda_61cee617f5178ae960314fd4d05640a0>@@AAV<lambda_6978c1fb23f02e42e1d9e99668cc68aa>@@V<lambda_9cd88cf8ad10232537feb2133f08c833>@@@?$__crt_seh_guarded_call@H@@QAEH$$QAV<lambda_61cee617f5178ae960314fd4d05640a0>@@AAV<lambda_6978c1fb23f02e42e1d9e99668cc68aa>@@$$QAV<lambda_9cd88cf8ad10232537feb2133f08c833>@@@Z 1004c1da f i libucrt:commit.obj
 0001:0004b298       ??$__acrt_lowio_lock_fh_and_call@V<lambda_6978c1fb23f02e42e1d9e99668cc68aa>@@@@YAHH$$QAV<lambda_6978c1fb23f02e42e1d9e99668cc68aa>@@@Z 1004c298 f i libucrt:commit.obj
 0001:0004b38a       __commit                   1004c38a f   libucrt:commit.obj
 0001:0004b414       ??$?RU__crt_lowio_handle_data@@@__crt_internal_free_policy@@QBEXQBU__crt_lowio_handle_data@@@Z 1004c414 f i libucrt:osfinfo.obj
 0001:0004b42a       ??0?$__crt_unique_heap_ptr@U__crt_lowio_handle_data@@U__crt_internal_free_policy@@@@QAE@QAU__crt_lowio_handle_data@@@Z 1004c42a f i libucrt:osfinfo.obj
 0001:0004b43e       ??1?$__crt_unique_heap_ptr@U__crt_lowio_handle_data@@U__crt_internal_free_policy@@@@QAE@XZ 1004c43e f i libucrt:osfinfo.obj
 0001:0004b454       ??B?$__crt_unique_heap_ptr@U__crt_lowio_handle_data@@U__crt_internal_free_policy@@@@QBE_NXZ 1004c454 f i libucrt:osfinfo.obj
 0001:0004b45e       ?detach@?$__crt_unique_heap_ptr@U__crt_lowio_handle_data@@U__crt_internal_free_policy@@@@QAEPAU__crt_lowio_handle_data@@XZ 1004c45e f i libucrt:osfinfo.obj
 0001:0004b464       ?get@?$__crt_unique_heap_ptr@U__crt_lowio_handle_data@@U__crt_internal_free_policy@@@@QBEPAU__crt_lowio_handle_data@@XZ 1004c464 f i libucrt:osfinfo.obj
 0001:0004b467       ?is_valid@?$__crt_unique_heap_ptr@U__crt_lowio_handle_data@@U__crt_internal_free_policy@@@@QBE_NXZ 1004c467 f i libucrt:osfinfo.obj
 0001:0004b471       ?release@?$__crt_unique_heap_ptr@U__crt_lowio_handle_data@@U__crt_internal_free_policy@@@@QAEXXZ 1004c471 f i libucrt:osfinfo.obj
 0001:0004b487       ___acrt_lowio_create_handle_array 1004c487 f   libucrt:osfinfo.obj
 0001:0004b51f       ___acrt_lowio_destroy_handle_array 1004c51f f   libucrt:osfinfo.obj
 0001:0004b561       ___acrt_lowio_ensure_fh_exists 1004c561 f   libucrt:osfinfo.obj
 0001:0004b61f       ___acrt_lowio_lock_fh      1004c61f f   libucrt:osfinfo.obj
 0001:0004b64a       ___acrt_lowio_set_os_handle 1004c64a f   libucrt:osfinfo.obj
 0001:0004b703       ___acrt_lowio_unlock_fh    1004c703 f   libucrt:osfinfo.obj
 0001:0004b72e       __alloc_osfhnd             1004c72e f   libucrt:osfinfo.obj
 0001:0004b884       __free_osfhnd              1004c884 f   libucrt:osfinfo.obj
 0001:0004b939       __get_osfhandle            1004c939 f   libucrt:osfinfo.obj
 0001:0004b9bd       __open_osfhandle           1004c9bd f   libucrt:osfinfo.obj
 0001:0004bb0e       ___iswcsym                 1004cb0e f i libucrt:_wctype.obj
 0001:0004bb3d       ___iswcsymf                1004cb3d f i libucrt:_wctype.obj
 0001:0004bb6c       __isleadbyte_l             1004cb6c f i libucrt:_wctype.obj
 0001:0004bbb3       __iswalnum_l               1004cbb3 f i libucrt:_wctype.obj
 0001:0004bbce       __iswalpha_l               1004cbce f i libucrt:_wctype.obj
 0001:0004bbe9       __iswblank_l               1004cbe9 f i libucrt:_wctype.obj
 0001:0004bc0d       __iswcntrl_l               1004cc0d f i libucrt:_wctype.obj
 0001:0004bc24       __iswcsym_l                1004cc24 f i libucrt:_wctype.obj
 0001:0004bc53       __iswcsymf_l               1004cc53 f i libucrt:_wctype.obj
 0001:0004bc82       __iswdigit_l               1004cc82 f i libucrt:_wctype.obj
 0001:0004bc99       __iswgraph_l               1004cc99 f i libucrt:_wctype.obj
 0001:0004bcb4       __iswlower_l               1004ccb4 f i libucrt:_wctype.obj
 0001:0004bccb       __iswprint_l               1004cccb f i libucrt:_wctype.obj
 0001:0004bce6       __iswpunct_l               1004cce6 f i libucrt:_wctype.obj
 0001:0004bcfd       __iswspace_l               1004ccfd f i libucrt:_wctype.obj
 0001:0004bd14       __iswupper_l               1004cd14 f i libucrt:_wctype.obj
 0001:0004bd2b       __iswxdigit_l              1004cd2b f i libucrt:_wctype.obj
 0001:0004bd46       _isleadbyte                1004cd46 f i libucrt:_wctype.obj
 0001:0004bd5d       _iswalnum                  1004cd5d f i libucrt:_wctype.obj
 0001:0004bd78       _iswalpha                  1004cd78 f i libucrt:_wctype.obj
 0001:0004bd93       _iswascii                  1004cd93 f i libucrt:_wctype.obj
 0001:0004bdac       _iswblank                  1004cdac f i libucrt:_wctype.obj
 0001:0004bdd0       _iswcntrl                  1004cdd0 f i libucrt:_wctype.obj
 0001:0004bde7       _iswdigit                  1004cde7 f i libucrt:_wctype.obj
 0001:0004bdfe       _iswgraph                  1004cdfe f i libucrt:_wctype.obj
 0001:0004be19       _iswlower                  1004ce19 f i libucrt:_wctype.obj
 0001:0004be30       _iswprint                  1004ce30 f i libucrt:_wctype.obj
 0001:0004be4b       _iswpunct                  1004ce4b f i libucrt:_wctype.obj
 0001:0004be62       _iswspace                  1004ce62 f i libucrt:_wctype.obj
 0001:0004be79       _iswupper                  1004ce79 f i libucrt:_wctype.obj
 0001:0004be90       _iswxdigit                 1004ce90 f i libucrt:_wctype.obj
 0001:0004beab       ??0?$__crt_scoped_stack_ptr@_W@@QAE@U?$__crt_scoped_stack_ptr_tag@_W@@@Z 1004ceab f i libucrt:lcmapstringa.obj
 0001:0004bebf       ??0?$__crt_scoped_stack_ptr_tag@_W@@QAE@QA_W@Z 1004cebf f i libucrt:lcmapstringa.obj
 0001:0004bed3       ??1?$__crt_scoped_stack_ptr@_W@@QAE@XZ 1004ced3 f i libucrt:lcmapstringa.obj
 0001:0004bede       ??B?$__crt_scoped_stack_ptr@_W@@QBE_NXZ 1004cede f i libucrt:lcmapstringa.obj
 0001:0004c18c       ?get@?$__crt_scoped_stack_ptr@_W@@QBEPA_WXZ 1004d18c f i libucrt:lcmapstringa.obj
 0001:0004c18f       __MallocaComputeSize       1004d18f f i libucrt:lcmapstringa.obj
 0001:0004c1a6       __MarkAllocaS              1004d1a6 f i libucrt:lcmapstringa.obj
 0001:0004c1c1       ___acrt_LCMapStringA       1004d1c1 f   libucrt:lcmapstringa.obj
 0001:0004c21e       __freea_crt                1004d21e f i libucrt:lcmapstringa.obj
 0001:0004c246       ??$?RE@__crt_internal_free_policy@@QBEXQBE@Z 1004d246 f i libucrt:initctype.obj
 0001:0004c25c       ??$?RG@__crt_internal_free_policy@@QBEXQBG@Z 1004d25c f i libucrt:initctype.obj
 0001:0004c272       ??$?RJ@__crt_internal_free_policy@@QBEXQBJ@Z 1004d272 f i libucrt:initctype.obj
 0001:0004c288       ??0?$__crt_unique_heap_ptr@EU__crt_internal_free_policy@@@@QAE@QAE@Z 1004d288 f i libucrt:initctype.obj
 0001:0004c29c       ??0?$__crt_unique_heap_ptr@GU__crt_internal_free_policy@@@@QAE@QAG@Z 1004d29c f i libucrt:initctype.obj
 0001:0004c2b0       ??0?$__crt_unique_heap_ptr@JU__crt_internal_free_policy@@@@QAE@QAJ@Z 1004d2b0 f i libucrt:initctype.obj
 0001:0004c2c4       ??1?$__crt_unique_heap_ptr@EU__crt_internal_free_policy@@@@QAE@XZ 1004d2c4 f i libucrt:initctype.obj
 0001:0004c2da       ??1?$__crt_unique_heap_ptr@GU__crt_internal_free_policy@@@@QAE@XZ 1004d2da f i libucrt:initctype.obj
 0001:0004c2f0       ??1?$__crt_unique_heap_ptr@JU__crt_internal_free_policy@@@@QAE@XZ 1004d2f0 f i libucrt:initctype.obj
 0001:0004c306       ?detach@?$__crt_unique_heap_ptr@EU__crt_internal_free_policy@@@@QAEPAEXZ 1004d306 f i libucrt:initctype.obj
 0001:0004c30c       ?detach@?$__crt_unique_heap_ptr@GU__crt_internal_free_policy@@@@QAEPAGXZ 1004d30c f i libucrt:initctype.obj
 0001:0004c312       ?detach@?$__crt_unique_heap_ptr@JU__crt_internal_free_policy@@@@QAEPAJXZ 1004d312 f i libucrt:initctype.obj
 0001:0004c318       ?release@?$__crt_unique_heap_ptr@EU__crt_internal_free_policy@@@@QAEXXZ 1004d318 f i libucrt:initctype.obj
 0001:0004c32e       ?release@?$__crt_unique_heap_ptr@GU__crt_internal_free_policy@@@@QAEXXZ 1004d32e f i libucrt:initctype.obj
 0001:0004c344       ?release@?$__crt_unique_heap_ptr@JU__crt_internal_free_policy@@@@QAEXXZ 1004d344 f i libucrt:initctype.obj
 0001:0004c35a       ____lc_codepage_func       1004d35a f   libucrt:initctype.obj
 0001:0004c38a       ____lc_collate_cp_func     1004d38a f   libucrt:initctype.obj
 0001:0004c3ba       ____lc_locale_name_func    1004d3ba f   libucrt:initctype.obj
 0001:0004c3ed       ____mb_cur_max_func        1004d3ed f   libucrt:initctype.obj
 0001:0004c41d       ____mb_cur_max_l_func      1004d41d f   libucrt:initctype.obj
 0001:0004c43c       ___acrt_locale_initialize_ctype 1004d43c f   libucrt:initctype.obj
 0001:0004c8c1       ___acrt_add_locale_ref     1004d8c1 f   libucrt:locale_refcounting.obj
 0001:0004c95d       ___acrt_free_locale        1004d95d f   libucrt:locale_refcounting.obj
 0001:0004caf9       ___acrt_locale_add_lc_time_reference 1004daf9 f   libucrt:locale_refcounting.obj
 0001:0004cb2c       ___acrt_locale_free_lc_time_if_unreferenced 1004db2c f   libucrt:locale_refcounting.obj
 0001:0004cb68       ___acrt_locale_release_lc_time_reference 1004db68 f   libucrt:locale_refcounting.obj
 0001:0004cb9b       ___acrt_release_locale_ref 1004db9b f   libucrt:locale_refcounting.obj
 0001:0004cc3c       ___acrt_update_thread_locale_data 1004dc3c f   libucrt:locale_refcounting.obj
 0001:0004ccd0       __updatetlocinfoEx_nolock  1004dcd0 f   libucrt:locale_refcounting.obj
 0001:0004cd34       ___acrt_fp_strflt_to_string 1004dd34 f   libucrt:_fptostr.obj
 0001:0004e560       ??0big_integer@__crt_strtox@@QAE@ABU01@@Z 1004f560 f i libucrt:cfout.obj
 0001:0004e5a0       ??0big_integer@__crt_strtox@@QAE@XZ 1004f5a0 f i libucrt:cfout.obj
 0001:0004e5ab       ??0scoped_fp_state_reset@?A0x3568b024@@QAE@XZ 1004f5ab f i libucrt:cfout.obj
 0001:0004e5df       ??1scoped_fp_state_reset@?A0x3568b024@@QAE@XZ 1004f5df f i libucrt:cfout.obj
 0001:0004e5f0       ??4big_integer@__crt_strtox@@QAEAAU01@ABU01@@Z 1004f5f0 f i libucrt:cfout.obj
 0001:0004e630       ??8__crt_strtox@@YA_NABUbig_integer@0@0@Z 1004f630 f i libucrt:cfout.obj
 0001:0004e680       ??9__crt_strtox@@YA_NABUbig_integer@0@0@Z 1004f680 f i libucrt:cfout.obj
 0001:0004e6e0       ?add_carry@__crt_strtox@@YAIAAIII@Z 1004f6e0 f i libucrt:cfout.obj
 0001:0004e710       ?add_multiply_carry@__crt_strtox@@YAIAAIIII@Z 1004f710 f i libucrt:cfout.obj
 0001:0004e740       ?bit_scan_reverse@__crt_strtox@@YAII@Z 1004f740 f i libucrt:cfout.obj
 0001:0004e770       ?count_sequential_high_zeroes@__crt_strtox@@YAII@Z 1004f770 f i libucrt:cfout.obj
 0001:0004e7a0       ?divide@__crt_strtox@@YA_KAAUbig_integer@1@ABU21@@Z 1004f7a0 f i libucrt:cfout.obj
 0001:0004ed80       ?is_zero@__crt_strtox@@YA_NABUbig_integer@1@@Z 1004fd80 f i libucrt:cfout.obj
 0001:0004eda0       ?make_big_integer@__crt_strtox@@YA?AUbig_integer@1@_K@Z 1004fda0 f i libucrt:cfout.obj
 0001:0004edd0       ?make_big_integer_power_of_two@__crt_strtox@@YA?AUbig_integer@1@I@Z 1004fdd0 f i libucrt:cfout.obj
 0001:0004ee30       ?multiply@__crt_strtox@@YA_NAAUbig_integer@1@ABU21@@Z 1004fe30 f i libucrt:cfout.obj
 0001:0004f2e0       ?multiply@__crt_strtox@@YA_NAAUbig_integer@1@I@Z 100502e0 f i libucrt:cfout.obj
 0001:0004f3e0       ?multiply_64_32@__crt_strtox@@YA_K_KI@Z 100503e0 f i libucrt:cfout.obj
 0001:0004f400       ?multiply_by_power_of_ten@__crt_strtox@@YA_NAAUbig_integer@1@I@Z 10050400 f i libucrt:cfout.obj
 0001:0004fb00       ?multiply_core@__crt_strtox@@YAIQAIII@Z 10050b00 f i libucrt:cfout.obj
 0001:0004fb50       ?shift_left@__crt_strtox@@YA_NAAUbig_integer@1@I@Z 10050b50 f i libucrt:cfout.obj
 0001:0004fcf2       ___acrt_fltout             10050cf2 f   libucrt:cfout.obj
 0001:00051616       __isatty                   10052616 f   libucrt:isatty.obj
 0001:00051681       ??$?RUlconv@@@__crt_internal_free_policy@@QBEXQBUlconv@@@Z 10052681 f i libucrt:initmon.obj
 0001:00051697       ??0?$__crt_unique_heap_ptr@Ulconv@@U__crt_internal_free_policy@@@@QAE@QAUlconv@@@Z 10052697 f i libucrt:initmon.obj
 0001:000516ab       ??1?$__crt_unique_heap_ptr@Ulconv@@U__crt_internal_free_policy@@@@QAE@XZ 100526ab f i libucrt:initmon.obj
 0001:000516c1       ?detach@?$__crt_unique_heap_ptr@Ulconv@@U__crt_internal_free_policy@@@@QAEPAUlconv@@XZ 100526c1 f i libucrt:initmon.obj
 0001:000516c7       ?release@?$__crt_unique_heap_ptr@Ulconv@@U__crt_internal_free_policy@@@@QAEXXZ 100526c7 f i libucrt:initmon.obj
 0001:000516dd       ___acrt_locale_free_monetary 100526dd f   libucrt:initmon.obj
 0001:0005181a       ___acrt_locale_initialize_monetary 1005281a f   libucrt:initmon.obj
 0001:00051d0d       ___acrt_locale_free_numeric 10052d0d f   libucrt:initnum.obj
 0001:00051d90       ___acrt_locale_initialize_numeric 10052d90 f   libucrt:initnum.obj
 0001:0005207b       ??$?RU__crt_lc_time_data@@@__crt_internal_free_policy@@QBEXQBU__crt_lc_time_data@@@Z 1005307b f i libucrt:inittime.obj
 0001:0005211b       ??0?$__crt_unique_heap_ptr@U__crt_lc_time_data@@U__crt_internal_free_policy@@@@QAE@QAU__crt_lc_time_data@@@Z 1005311b f i libucrt:inittime.obj
 0001:0005212f       ??1?$__crt_unique_heap_ptr@U__crt_lc_time_data@@U__crt_internal_free_policy@@@@QAE@XZ 1005312f f i libucrt:inittime.obj
 0001:00052145       ??B?$__crt_unique_heap_ptr@U__crt_lc_time_data@@U__crt_internal_free_policy@@@@QBE_NXZ 10053145 f i libucrt:inittime.obj
 0001:0005214f       ?detach@?$__crt_unique_heap_ptr@U__crt_lc_time_data@@U__crt_internal_free_policy@@@@QAEPAU__crt_lc_time_data@@XZ 1005314f f i libucrt:inittime.obj
 0001:000521a0       ?get@?$__crt_unique_heap_ptr@U__crt_lc_time_data@@U__crt_internal_free_policy@@@@QBEPAU__crt_lc_time_data@@XZ 100531a0 f i libucrt:inittime.obj
 0001:00052538       ?is_valid@?$__crt_unique_heap_ptr@U__crt_lc_time_data@@U__crt_internal_free_policy@@@@QBE_NXZ 10053538 f i libucrt:inittime.obj
 0001:00052542       ?release@?$__crt_unique_heap_ptr@U__crt_lc_time_data@@U__crt_internal_free_policy@@@@QAEXXZ 10053542 f i libucrt:inittime.obj
 0001:00052558       ___acrt_locale_free_time   10053558 f   libucrt:inittime.obj
 0001:00052675       ___acrt_locale_initialize_time 10053675 f   libucrt:inittime.obj
 0001:00052813       _wcsncpy_s                 10053813 f   libucrt:wcsncpy_s.obj
 0001:00052820       _wcscspn                   10053820 f   libucrt:wcscspn.obj
 0001:00052884       _wcsncmp                   10053884 f   libucrt:wcsncmp.obj
 0001:000528cc       _wcspbrk                   100538cc f   libucrt:wcspbrk.obj
 0001:00052922       ___acrt_GetStringTypeA     10053922 f   libucrt:getstringtypea.obj
 0001:00053396       ___acrt_get_qualified_locale 10054396 f   libucrt:get_qualified_locale.obj
 0001:00053f3d       ___acrt_get_qualified_locale_downlevel 10054f3d f   libucrt:getqloc_downlevel.obj
 0001:000541c5       _localeconv                100551c5 f   libucrt:localeconv.obj
 0001:000541f9       __wcsnicmp                 100551f9 f   libucrt:wcsnicmp.obj
 0001:000542df       __wcsnicmp_l               100552df f   libucrt:wcsnicmp.obj
 0001:00054420       _strncmp                   10055420 f   libucrt:strncmp.obj
 0001:000544b6       __strnicmp                 100554b6 f   libucrt:strnicmp.obj
 0001:0005453d       __strnicmp_l               1005553d f   libucrt:strnicmp.obj
 0001:00054621       ??$__vcrt_va_start_verify_argument_type@$$CBH@@YAXXZ 10055621 f i libucrt:open.obj
 0001:000549d8       ??$tsopen_nolock@PAHABQAHABQBDABHABHABHABH@?$__crt_char_traits@D@@SAH$$QAPAHABQAHABQBDABH333@Z 100559d8 f i libucrt:open.obj
 0001:00054a16       ??$tsopen_nolock@PAHABQAHABQB_WABHABHABHABH@?$__crt_char_traits@_W@@SAH$$QAPAHABQAHABQB_WABH333@Z 10055a16 f i libucrt:open.obj
 0001:00054a54       ??$tsopen_nolock@PAHPAHABQBDABHHABHH@?$__crt_char_traits@D@@SAH$$QAPAH0ABQBDABH$$QAH23@Z 10055a54 f i libucrt:open.obj
 0001:00054a92       ??$tsopen_nolock@PAHPAHABQB_WABHHABHH@?$__crt_char_traits@_W@@SAH$$QAPAH0ABQB_WABH$$QAH23@Z 10055a92 f i libucrt:open.obj
 0001:00055260       __open                     10056260 f   libucrt:open.obj
 0001:0005527e       __sopen                    1005627e f   libucrt:open.obj
 0001:000552c0       __sopen_dispatch           100562c0 f   libucrt:open.obj
 0001:000552cd       __sopen_nolock             100562cd f   libucrt:open.obj
 0001:00055332       __sopen_s                  10056332 f   libucrt:open.obj
 0001:0005535a       __wopen                    1005635a f   libucrt:open.obj
 0001:00055378       __wsopen                   10056378 f   libucrt:open.obj
 0001:000553ba       __wsopen_dispatch          100563ba f   libucrt:open.obj
 0001:000553c7       __wsopen_nolock            100563c7 f   libucrt:open.obj
 0001:000557ba       __wsopen_s                 100567ba f   libucrt:open.obj
 0001:000557e2       ___p__commode              100567e2 f   libucrt:ncommode.obj
 0001:000557e8       ___acrt_stdio_allocate_buffer_nolock 100567e8 f   libucrt:_getbuf.obj
 0001:0005585c       ??$?RV<lambda_4980db0136e49a56f91ef52c46ca659a>@@AAV<lambda_6e3e78bb6855d1e4040e022c1b427e22>@@V<lambda_9c074eaf62197b4fd0274ed9e7824161>@@@?$__crt_seh_guarded_call@G@@QAEG$$QAV<lambda_4980db0136e49a56f91ef52c46ca659a>@@AAV<lambda_6e3e78bb6855d1e4040e022c1b427e22>@@$$QAV<lambda_9c074eaf62197b4fd0274ed9e7824161>@@@Z 1005685c f i libucrt:putwch.obj
 0001:000558d1       ??$__acrt_lock_and_call@V<lambda_6e3e78bb6855d1e4040e022c1b427e22>@@@@YAGW4__acrt_lock_id@@$$QAV<lambda_6e3e78bb6855d1e4040e022c1b427e22>@@@Z 100568d1 f i libucrt:putwch.obj
 0001:00055969       __putwch                   10056969 f   libucrt:putwch.obj
 0001:0005598d       __putwch_nolock            1005698d f   libucrt:putwch.obj
 0001:000559e3       _nextafter                 100569e3 f   libucrt:nextafter.obj
 0001:00055a1b       __wcsnicoll                10056a1b f   libucrt:wcsnicol.obj
 0001:00055b1f       __wcsnicoll_l              10056b1f f   libucrt:wcsnicol.obj
 0001:00055c97       __strnicoll                10056c97 f   libucrt:strnicol.obj
 0001:00055cca       __strnicoll_l              10056cca f   libucrt:strnicol.obj
 0001:00055e05       __msize                    10056e05 f   libucrt:msize.obj
 0001:00055e44       ___strncnt                 10056e44 f   libucrt:strncnt.obj
 0001:00055fa0       ___acrt_GetLocaleInfoA     10056fa0 f   libucrt:getlocaleinfoa.obj
 0001:000561be       _fegetenv                  100571be f   libucrt:fegetenv.obj
 0001:000561e2       _fesetenv                  100571e2 f   libucrt:fesetenv.obj
 0001:0005623d       _feholdexcept              1005723d f   libucrt:feholdexcept.obj
 0001:000562a0       _log10                     100572a0 f   libucrt:log10.obj
 0001:000562e0       __CIlog10                  100572e0 f   libucrt:log10.obj
 0001:0005631b       __CIlog10_default          1005731b f   libucrt:log10.obj
 0001:0005632f       __log10_default            1005732f     libucrt:log10.obj
 0001:00056450       _ceil                      10057450 f   libucrt:ceil_pentium4.obj
 0001:00056490       __ceil_pentium4            10057490 f   libucrt:ceil_pentium4.obj
 0001:000565b4       __wcsicmp                  100575b4 f   libucrt:wcsicmp.obj
 0001:0005666e       __wcsicmp_l                1005766e f   libucrt:wcsicmp.obj
 0001:00056786       __towlower_l               10057786 f   libucrt:towlower.obj
 0001:00056881       _towlower                  10057881 f   libucrt:towlower.obj
 0001:000568a0       ___ascii_strnicmp          100578a0 f   libucrt:_strnicm.obj
 0001:00056919       ??$__crt_interlocked_read@H@@YAHPDH@Z 10057919 f i libucrt:setmode.obj
 0001:00056928       __get_fmode                10057928 f   libucrt:setmode.obj
 0001:0005695f       __set_fmode                1005795f f   libucrt:setmode.obj
 0001:000569ab       __setmode                  100579ab f   libucrt:setmode.obj
 0001:00056afc       __setmode_nolock           10057afc f   libucrt:setmode.obj
 0001:00056c01       ??$?RV<lambda_4cfda81533ccf5a03113a1ca40a30445>@@AAV<lambda_1cffa78e445b1da5fba1a2e0e533226f>@@V<lambda_68c952aa1b860373b2109ef12d0bba9d>@@@?$__crt_seh_guarded_call@H@@QAEH$$QAV<lambda_4cfda81533ccf5a03113a1ca40a30445>@@AAV<lambda_1cffa78e445b1da5fba1a2e0e533226f>@@$$QAV<lambda_68c952aa1b860373b2109ef12d0bba9d>@@@Z 10057c01 f i libucrt:chsize.obj
 0001:00056cab       ??$__acrt_lowio_lock_fh_and_call@V<lambda_1cffa78e445b1da5fba1a2e0e533226f>@@@@YAHH$$QAV<lambda_1cffa78e445b1da5fba1a2e0e533226f>@@@Z 10057cab f i libucrt:chsize.obj
 0001:00056d8d       __chsize                   10057d8d f   libucrt:chsize.obj
 0001:00056db0       __chsize_nolock            10057db0 f   libucrt:chsize.obj
 0001:00056fa5       __chsize_s                 10057fa5 f   libucrt:chsize.obj
 0001:00057066       __umask                    10058066 f   libucrt:umask.obj
 0001:00057094       __umask_s                  10058094 f   libucrt:umask.obj
 0001:000570dd       ___dcrt_lowio_initialize_console_output 100580dd f   libucrt:initcon.obj
 0001:00057103       ___dcrt_terminate_console_output 10058103 f   libucrt:initcon.obj
 0001:0005711f       _nexttoward                1005811f f   libucrt:nexttoward.obj
 0001:000572d0       ___acrt_CompareStringW     100582d0 f   libucrt:comparestringw.obj
 0001:000576a4       ___acrt_CompareStringA     100586a4 f   libucrt:comparestringa.obj
 0001:000577db       _strncpy_s                 100587db f   libucrt:strncpy_s.obj
 0001:000577e8       ___acrt_fenv_get_fp_status_word_from_exception_mask 100587e8 f   libucrt:_fenvutils.obj
 0001:00057c2b       __getfpcontrolword         10058c2b f   libucrt:_fenvutils.obj
 0001:00057c7e       __getfpstatusword          10058c7e f   libucrt:_fenvutils.obj
 0001:00057d50       __setfpcontrolword         10058d50 f   libucrt:_fenvutils.obj
 0001:00057df0       __setfpstatusword          10058df0 f   libucrt:_fenvutils.obj
 0001:00058026       ___control87_2             10059026 f   libucrt:ieee87.obj
 0001:000585fa       ___fpreset_sse2            100595fa f   libucrt:ieee87.obj
 0001:0005884d       __clearfp                  1005984d f   libucrt:ieee87.obj
 0001:00058962       __control87                10059962 f   libucrt:ieee87.obj
 0001:00058d24       __controlfp                10059d24 f   libucrt:ieee87.obj
 0001:00058d44       __fpreset                  10059d44 f   libucrt:ieee87.obj
 0001:00058e41       __set_controlfp            10059e41 f   libucrt:ieee87.obj
 0001:00058ed7       __statusfp                 10059ed7 f   libucrt:ieee87.obj
 0001:00058f9a       __statusfp2                10059f9a f   libucrt:ieee87.obj
 0001:00059017       ___acrt_initialize_sse2    1005a017 f   libucrt:mathfcns.obj
 0001:00059029       __set_SSE2_enable          1005a029 f   libucrt:mathfcns.obj
 0001:00059060       __CIlog10_pentium4         1005a060 f   libucrt:log10_pentium4.obj
 0001:00059078       __log10_pentium4           1005a078     libucrt:log10_pentium4.obj
 0001:000593b1       __fFEXP                    1005a3b1     libucrt:87tran.obj
 0001:00059408       __rtinfpopse               1005a408     libucrt:87tran.obj
 0001:0005940a       __rtinfnpopse              1005a40a     libucrt:87tran.obj
 0001:0005941a       __fFLN                     1005a41a     libucrt:87tran.obj
 0001:000594cf       __rtinfpop                 1005a4cf     libucrt:87tran.obj
 0001:000594d1       __rtinfnpop                1005a4d1     libucrt:87tran.obj
 0001:000594ee       __ffexpm1                  1005a4ee     libucrt:87tran.obj
 0001:00059620       __trandisp1                1005a620 f   libucrt:87disp.obj
 0001:00059687       __trandisp2                1005a687 f   libucrt:87disp.obj
 0001:00059713       __rttospopde               1005a713     libucrt:87disp.obj
 0001:00059718       __rttospop                 1005a718     libucrt:87disp.obj
 0001:0005971a       __rtnospop                 1005a71a     libucrt:87disp.obj
 0001:0005971c       __rttosnpop                1005a71c     libucrt:87disp.obj
 0001:0005971d       __rtnospopde               1005a71d     libucrt:87disp.obj
 0001:00059724       __rtzeropop                1005a724     libucrt:87disp.obj
 0001:00059726       __rtzeronpop               1005a726     libucrt:87disp.obj
 0001:0005972b       __rtzerospop               1005a72b     libucrt:87disp.obj
 0001:00059738       __rtonepop                 1005a738     libucrt:87disp.obj
 0001:0005973a       __rtonenpop                1005a73a     libucrt:87disp.obj
 0001:0005973f       __tosnan1                  1005a73f     libucrt:87disp.obj
 0001:0005976a       __nosnan2                  1005a76a     libucrt:87disp.obj
 0001:0005976c       __tosnan2                  1005a76c     libucrt:87disp.obj
 0001:00059794       __nan2                     1005a794     libucrt:87disp.obj
 0001:000597d3       __rtindfpop                1005a7d3     libucrt:87disp.obj
 0001:000597d5       __rtindfnpop               1005a7d5     libucrt:87disp.obj
 0001:000597e6       __rttosnpopde              1005a7e6     libucrt:87disp.obj
 0001:000597f0       __rtatan2inf               1005a7f0     libucrt:87disp.obj
 0001:0005980d       __rtchsifneg               1005a80d     libucrt:87disp.obj
 0001:00059891       ___setfflag                1005a891 f   libucrt:fp_flags.obj
 0001:000598b0       __twoToTOS                 1005a8b0 f   libucrt:common.obj
 0001:000598c5       __load_CW                  1005a8c5 f   libucrt:common.obj
 0001:000598dc       __convertTOStoQNaN         1005a8dc f   libucrt:common.obj
 0001:000598f5       __fload_withFB             1005a8f5 f   libucrt:common.obj
 0001:00059938       __checkTOS_withFB          1005a938 f   libucrt:common.obj
 0001:0005994e       __fast_exit                1005a94e f   libucrt:common.obj
 0001:0005995b       __math_exit                1005a95b f   libucrt:common.obj
 0001:00059985       __check_overflow_exit      1005a985 f   libucrt:common.obj
 0001:00059999       __check_range_exit         1005a999 f   libucrt:common.obj
 0001:00059aa0       __startTwoArgErrorHandling 1005aaa0 f   libucrt:genexcep.obj
 0001:00059ab7       __startOneArgErrorHandling 1005aab7 f   libucrt:genexcep.obj
 0001:00059b07       ___libm_error_support      1005ab07 f   libucrt:libm_error.obj
 0001:00059da5       ___libm_setusermatherr     1005ada5 f   libucrt:libm_error.obj
 0001:00059dde       __ceil_default             1005adde f   libucrt:ceil.obj
 0001:00059ec5       ___acrt_LCMapStringW       1005aec5 f   libucrt:lcmapstringw.obj
 0001:00059f12       ___p__fmode                1005af12 f   libucrt:txtmode.obj
 0001:00059f18       __d_int                    1005af18 f   libucrt:_test.obj
 0001:0005a060       __dtest                    1005b060 f   libucrt:_test.obj
 0001:0005a0dd       __fd_int                   1005b0dd f   libucrt:_test.obj
 0001:0005a1df       __fdtest                   1005b1df f   libucrt:_test.obj
 0001:0005a240       __fperrraise               1005b240 f   libucrt:_test.obj
 0001:0005a26b       __ld_int                   1005b26b f   libucrt:_test.obj
 0001:0005a278       __ldtest                   1005b278 f   libucrt:_test.obj
 0001:0005a31d       __controlfp_s              1005b31d f   libucrt:contrlfp.obj
 0001:0005a393       __d_inttype                1005b393 f   libucrt:powhlp.obj
 0001:0005a417       __powhlp                   1005b417 f   libucrt:powhlp.obj
 0001:0005a58c       __87except                 1005b58c f   libucrt:87except.obj
 0001:0005a6d9       __frnd                     1005b6d9 f   libucrt:frnd.obj
 0001:0005a6f4       _fegetexceptflag           1005b6f4 f   libucrt:fegetexceptflag.obj
 0001:0005a731       _fesetexceptflag           1005b731 f   libucrt:fesetexceptflag.obj
 0001:0005a792       _fetestexcept              1005b792 f   libucrt:fetestexcept.obj
 0001:0005a7c0       __FindPESection            1005b7c0 f   LIBCMT:pesect.obj
 0001:0005a820       __IsNonwritableInCurrentImage 1005b820 f   LIBCMT:pesect.obj
 0001:0005a910       __ValidateImageBase        1005b910 f   LIBCMT:pesect.obj
 0001:0005a950       __aulldvrm                 1005b950 f   LIBCMT:ulldvrm.obj
 0001:0005aa0a       ??1type_info@@UAE@XZ       1005ba0a f   LIBCMT:std_type_info_static.obj
 0001:0005aa11       ??_Gtype_info@@UAEPAXI@Z   1005ba11 f i LIBCMT:std_type_info_static.obj
 0001:0005aa11       ??_Etype_info@@UAEPAXI@Z   1005ba11 f i LIBCMT:std_type_info_static.obj
 0001:0005aa40       __SEH_prolog4_GS           1005ba40 f   LIBCMT:_sehprolg4gs_.obj
 0001:0005aa89       __SEH_epilog4_GS           1005ba89 f   LIBCMT:_sehprolg4gs_.obj
 0001:0005aab0       __allmul                   1005bab0 f   LIBCMT:llmul.obj
 0001:0005ab00       __alldvrm                  1005bb00 f   LIBCMT:lldvrm.obj
 0001:0005ac20       __aullshr                  1005bc20 f   LIBCMT:ullshr.obj
 0001:0005ac50       __chkstk                   1005bc50 f   LIBCMT:chkstk.obj
 0001:0005ac50       __alloca_probe             1005bc50 f   LIBCMT:chkstk.obj
 0001:0005ac90       __alloca_probe_16          1005bc90 f   LIBCMT:alloca16.obj
 0001:0005aca6       __alloca_probe_8           1005bca6     LIBCMT:alloca16.obj
 0001:0005acd0       __allshl                   1005bcd0 f   LIBCMT:llshl.obj
 0001:0005ad00       __ftol2_sse                1005bd00 f   LIBCMT:_ftol2_.obj
 0001:0005ad09       __ftol2_pentium4           1005bd09 f   LIBCMT:_ftol2_.obj
 0001:0005ad1c       __ftol2_sse_excpt          1005bd1c f   LIBCMT:_ftol2_.obj
 0001:0005ad40       __ftol2                    1005bd40 f   LIBCMT:_ftol2_.obj
 0001:0005ade2       __initialize_default_precision 1005bde2 f   LIBCMT:default_precision.obj
 0001:0005ae0b       ??3@YAXPAXI@Z              1005be0b f   LIBCMT:delete_scalar_size.obj
 0001:0005ae1c       ??3@YAXPAX@Z               1005be1c f   LIBCMT:delete_scalar.obj
 0001:0005ae22       _GetLastError@0            1005be22 f   kernel32:KERNEL32.dll
 0001:0005ae28       _GetModuleFileNameW@12     1005be28 f   kernel32:KERNEL32.dll
 0001:0005ae2e       _InterlockedPushEntrySList@8 1005be2e f   kernel32:KERNEL32.dll
 0001:0005ae34       _InterlockedFlushSList@4   1005be34 f   kernel32:KERNEL32.dll
 0001:0005ae3a       _InitializeCriticalSectionAndSpinCount@8 1005be3a f   kernel32:KERNEL32.dll
 0001:0005ae40       _TlsAlloc@0                1005be40 f   kernel32:KERNEL32.dll
 0001:0005ae46       _TlsGetValue@4             1005be46 f   kernel32:KERNEL32.dll
 0001:0005ae4c       _TlsSetValue@8             1005be4c f   kernel32:KERNEL32.dll
 0001:0005ae52       _TlsFree@4                 1005be52 f   kernel32:KERNEL32.dll
 0001:0005ae58       _FreeLibrary@4             1005be58 f   kernel32:KERNEL32.dll
 0001:0005ae5e       _LoadLibraryExW@12         1005be5e f   kernel32:KERNEL32.dll
 0001:0005ae64       _RtlUnwind@16              1005be64 f   kernel32:KERNEL32.dll
 0001:0005ae6a       _SetLastError@4            1005be6a f   kernel32:KERNEL32.dll
 0001:0005ae70       _EnterCriticalSection@4    1005be70 f   kernel32:KERNEL32.dll
 0001:0005ae76       _LeaveCriticalSection@4    1005be76 f   kernel32:KERNEL32.dll
 0001:0005ae7c       _DeleteCriticalSection@4   1005be7c f   kernel32:KERNEL32.dll
 0001:0005ae82       _ExitProcess@4             1005be82 f   kernel32:KERNEL32.dll
 0001:0005ae88       _GetModuleHandleExW@12     1005be88 f   kernel32:KERNEL32.dll
 0001:0005ae8e       _GetStdHandle@4            1005be8e f   kernel32:KERNEL32.dll
 0001:0005ae94       _GetFileType@4             1005be94 f   kernel32:KERNEL32.dll
 0001:0005ae9a       _GetModuleFileNameA@12     1005be9a f   kernel32:KERNEL32.dll
 0001:0005aea0       _WriteConsoleW@20          1005bea0 f   kernel32:KERNEL32.dll
 0001:0005aea6       _RaiseException@16         1005bea6 f   kernel32:KERNEL32.dll
 0001:0005aeac       _MultiByteToWideChar@24    1005beac f   kernel32:KERNEL32.dll
 0001:0005aeb2       _WideCharToMultiByte@32    1005beb2 f   kernel32:KERNEL32.dll
 0001:0005aeb8       _HeapFree@12               1005beb8 f   kernel32:KERNEL32.dll
 0001:0005aebe       _HeapAlloc@12              1005bebe f   kernel32:KERNEL32.dll
 0001:0005aec4       _GetDateFormatW@24         1005bec4 f   kernel32:KERNEL32.dll
 0001:0005aeca       _GetTimeFormatW@24         1005beca f   kernel32:KERNEL32.dll
 0001:0005aed0       _CompareStringW@24         1005bed0 f   kernel32:KERNEL32.dll
 0001:0005aed6       _LCMapStringW@24           1005bed6 f   kernel32:KERNEL32.dll
 0001:0005aedc       _GetLocaleInfoW@16         1005bedc f   kernel32:KERNEL32.dll
 0001:0005aee2       _IsValidLocale@8           1005bee2 f   kernel32:KERNEL32.dll
 0001:0005aee8       _GetUserDefaultLCID@0      1005bee8 f   kernel32:KERNEL32.dll
 0001:0005aeee       _EnumSystemLocalesW@8      1005beee f   kernel32:KERNEL32.dll
 0001:0005aef4       _GetCurrentThread@0        1005bef4 f   kernel32:KERNEL32.dll
 0001:0005aefa       _GetACP@0                  1005befa f   kernel32:KERNEL32.dll
 0001:0005af00       _HeapReAlloc@16            1005bf00 f   kernel32:KERNEL32.dll
 0001:0005af06       _CloseHandle@4             1005bf06 f   kernel32:KERNEL32.dll
 0001:0005af0c       _ReadFile@20               1005bf0c f   kernel32:KERNEL32.dll
 0001:0005af12       _GetConsoleMode@8          1005bf12 f   kernel32:KERNEL32.dll
 0001:0005af18       _ReadConsoleW@20           1005bf18 f   kernel32:KERNEL32.dll
 0001:0005af1e       _WriteFile@20              1005bf1e f   kernel32:KERNEL32.dll
 0001:0005af24       _GetConsoleCP@0            1005bf24 f   kernel32:KERNEL32.dll
 0001:0005af2a       _DeleteFileW@4             1005bf2a f   kernel32:KERNEL32.dll
 0001:0005af30       _SetFilePointerEx@20       1005bf30 f   kernel32:KERNEL32.dll
 0001:0005af36       _OutputDebugStringA@4      1005bf36 f   kernel32:KERNEL32.dll
 0001:0005af3c       _OutputDebugStringW@4      1005bf3c f   kernel32:KERNEL32.dll
 0001:0005af42       _WaitForSingleObjectEx@12  1005bf42 f   kernel32:KERNEL32.dll
 0001:0005af48       _CreateThread@24           1005bf48 f   kernel32:KERNEL32.dll
 0001:0005af4e       _SetConsoleCtrlHandler@8   1005bf4e f   kernel32:KERNEL32.dll
 0001:0005af54       _IsValidCodePage@4         1005bf54 f   kernel32:KERNEL32.dll
 0001:0005af5a       _GetOEMCP@0                1005bf5a f   kernel32:KERNEL32.dll
 0001:0005af60       _GetCPInfo@8               1005bf60 f   kernel32:KERNEL32.dll
 0001:0005af66       _GetEnvironmentStringsW@0  1005bf66 f   kernel32:KERNEL32.dll
 0001:0005af6c       _FreeEnvironmentStringsW@4 1005bf6c f   kernel32:KERNEL32.dll
 0001:0005af72       _SetEnvironmentVariableA@8 1005bf72 f   kernel32:KERNEL32.dll
 0001:0005af78       _SetEnvironmentVariableW@8 1005bf78 f   kernel32:KERNEL32.dll
 0001:0005af7e       _GetProcessHeap@0          1005bf7e f   kernel32:KERNEL32.dll
 0001:0005af84       _GetCommandLineA@0         1005bf84 f   kernel32:KERNEL32.dll
 0001:0005af8a       _GetCommandLineW@0         1005bf8a f   kernel32:KERNEL32.dll
 0001:0005af90       _GetStringTypeW@16         1005bf90 f   kernel32:KERNEL32.dll
 0001:0005af96       _FlushFileBuffers@4        1005bf96 f   kernel32:KERNEL32.dll
 0001:0005af9c       _SetStdHandle@8            1005bf9c f   kernel32:KERNEL32.dll
 0001:0005afa2       _CreateFileW@28            1005bfa2 f   kernel32:KERNEL32.dll
 0001:0005afa8       _HeapSize@12               1005bfa8 f   kernel32:KERNEL32.dll
 0001:0005afae       _SetEndOfFile@4            1005bfae f   kernel32:KERNEL32.dll
 0001:0005afb4       _EncodePointer@4           1005bfb4 f   kernel32:KERNEL32.dll
 0001:0005afba       _DecodePointer@4           1005bfba f   kernel32:KERNEL32.dll
 0001:0005afc0       _SystemFunction036@8       1005bfc0 f   advapi32:ADVAPI32.dll
 0001:0005afd0       _strrchr                   1005bfd0 f   libvcruntime:strrchr.obj
 0001:0005b2b7       _memcmp                    1005c2b7 f   libvcruntime:_memcmp_.obj
 0001:0005ed9f       _wcschr                    1005fd9f f   libvcruntime:wcschr.obj
 0002:00000000       ___xc_a                    10062000     LIBCMT:initializers.obj
 0002:00000104       ___xc_z                    10062104     LIBCMT:initializers.obj
 0002:00000208       ___xi_a                    10062208     LIBCMT:initializers.obj
 0002:0000030c       ___acrt_stdio_initializer  1006230c     libucrt:stdio_initializer.obj
 0002:00000310       ___acrt_multibyte_initializer 10062310     libucrt:multibyte_initializer.obj
 0002:00000314       ___acrt_tran_sse2_initializer 10062314     libucrt:sse2_initializer.obj
 0002:0000041c       ___xi_z                    1006241c     LIBCMT:initializers.obj
 0002:00000520       ___xp_a                    10062520     LIBCMT:initializers.obj
 0002:00000624       ___acrt_locale_terminator  10062624     libucrt:locale_initializer.obj
 0002:00000628       ___dcrt_console_output_terminator 10062628     libucrt:console_output_initializer.obj
 0002:00000730       ___acrt_stdio_terminator   10062730     libucrt:stdio_initializer.obj
 0002:00000834       ___xp_z                    10062834     LIBCMT:initializers.obj
 0002:00000938       ___xt_a                    10062938     LIBCMT:initializers.obj
 0002:00000a3c       ___xt_z                    10062a3c     LIBCMT:initializers.obj
 0002:00000b40       _ptsetfilename             10062b40     xpctarget.obj
 0002:00000b44       _xmlfile                   10062b44     xpctarget.obj
 0002:00000b4c       ??_C@_0M@ONGJAENG@slrttestmdl?$AA@ 10062b4c     xpctarget.obj
 0002:00000b5c       ??_C@_03COLHFAIP@6?48?$AA@ 10062b5c     xpctarget.obj
 0002:00000b60       ??_C@_01DNKMNLPK@?$HM?$AA@ 10062b60     xpctarget.obj
 0002:00000b68       __real@3fb999999999999a    10062b68     xpctarget.obj
 0002:00000b78       __real@40af400000000000    10062b78     xpctarget.obj
 0002:00000b88       _slrttestmdl_BIOMAP        10062b88     appmappingData.obj
 0002:00000be8       _slrttestmdl_LBLMAP        10062be8     appmappingData.obj
 0002:00000c48       _slrttestmdl_SIDMAP        10062c48     appmappingData.obj
 0002:00000ca8       _slrttestmdl_SBIO          10062ca8     appmappingData.obj
 0002:00000cc8       _slrttestmdl_SLBL          10062cc8     appmappingData.obj
 0002:00000ce8       _slrttestmdl_PTIDSMAP      10062ce8     appmappingData.obj
 0002:00000d28       _slrttestmdl_PTNAMESMAP    10062d28     appmappingData.obj
 0002:00000d68       _slrttestmdl_SPTMAP        10062d68     appmappingData.obj
 0002:00000d88       _slrttestmdl_dtmap         10062d88     appmappingData.obj
 0002:00000d98       _appInfo                   10062d98     appmappingData.obj
 0002:00000e5c       ??_C@_00CNPNBAHC@?$AA@     10062e5c     appmappingData.obj
 0002:000016c0       ??_C@_0DJ@FHKINPLE@Unexpected?5itemKind?5?$DN?5DATA_ITEM?5@ 100636c0     rt_logging.obj
 0002:00001704       ??_C@_0DA@IEHFPFCJ@Unexpected?5itemKind?$DN?$CFd?5in?5rt_Pro@ 10063704     rt_logging.obj
 0002:00001740       ??_C@_0DA@IFLHJPBO@Unexpected?5itemKind?$DN?$CFd?5in?5rt_Pro@ 10063740     rt_logging.obj
 0002:0000177c       ??_C@_0DA@IAPIIJJL@Unexpected?5itemKind?$DN?$CFd?5in?5rt_Pro@ 1006377c     rt_logging.obj
 0002:000017b8       ??_C@_0BE@LCIGPJIG@MATLAB?55?40?5MAT?9file?$AA@ 100637b8     rt_logging.obj
 0002:000017d0       ??_C@_0FB@PCJEAJIB@?$CK?$CK?$CK?5Log?5variable?5?$CFs?5has?5wrapped?5@ 100637d0     rt_logging.obj
 0002:00001838       ??_C@_0MG@NKMLMOGF@?$CK?$CK?$CK?5To?5avoid?5wrapping?0?5explicitl@ 10063838     rt_logging.obj
 0002:00001928       ??_C@_0N@IPAEOLLP@_rtw_tmw?4tmw?$AA@ 10063928     rt_logging.obj
 0002:00001938       ??_C@_04HDOCAJNK@?$CFs?$CFs?$AA@ 10063938     rt_logging.obj
 0002:00001940       ??_C@_03ELIABIOC@w?$CLb?$AA@ 10063940     rt_logging.obj
 0002:00001944       ??_C@_0BF@JPILDDFA@?$CK?$CK?$CK?5Error?5opening?5?$CFs?$AA@ 10063944     rt_logging.obj
 0002:00001960       ??_C@_0BK@EEMDELA@unable?5to?5open?5data?5file?6?$AA@ 10063960     rt_logging.obj
 0002:00001980       ??_C@_04CGFJFPFD@none?$AA@ 10063980     rt_logging.obj
 0002:00001988       ??_C@_0EE@LCGFPNON@?$CK?$CK?$CK?5Error?5creating?5signals?5struc@ 10063988     rt_logging.obj
 0002:000019dc       ??_C@_0CE@NHECEDMK@?$CK?$CK?$CK?5Error?5creating?5log?5variable?5@ 100639dc     rt_logging.obj
 0002:00001a08       ??_C@_0DB@IOCGKAGH@?$CK?$CK?$CK?5Errors?5occurred?5when?5startin@ 10063a08     rt_logging.obj
 0002:00001a44       ??_C@_0BO@BBLOGEBK@?$CK?$CK?$CK?5Memory?5allocation?5error?4?6?$AA@ 10063a44     rt_logging.obj
 0002:00001a68       ??_C@_0N@LGFBAGEL@?5?$CIreal?5part?$CJ?$AA@ 10063a68     rt_logging.obj
 0002:00001a78       ??_C@_0KH@CGNMHNFE@?5?5?5?5varName?5?5?5?5?5?5?5?5?5?5?$DN?5?$CFs?$CFs?6?5?5?5?5@ 10063a78     rt_logging.obj
 0002:00001b40       ??_C@_0LE@OALKKEFM@?5?5?5?5varName?5?5?5?5?5?5?5?5?5?5?$DN?5?$CFs?5?$CIcompl@ 10063b40     rt_logging.obj
 0002:00001c18       ??_C@_0KF@JDDLEOKO@?5?5?5?5varName?5?5?5?5?5?5?5?5?5?5?$DN?5?$CFs?6?5?5?5?5nR@ 10063c18     rt_logging.obj
 0002:00001ce0       ??_C@_0DP@HPDMIOFM@?$CK?$CK?$CK?5Using?5a?5default?5buffer?5of?5si@ 10063ce0     rt_logging.obj
 0002:00001d30       ??_C@_0KE@JEFOLKNF@?6?$CK?$CK?$CK?5Memory?5required?5to?5log?5vari@ 10063d30     rt_logging.obj
 0002:00001df8       ??_C@_0JP@DKLMHCBI@?$CK?$CK?$CK?5Details?3?6?5?5?5?5?5?5?5varName?5?5?5?5?5@ 10063df8     rt_logging.obj
 0002:00001eb8       ??_C@_0CM@CAMILBED@?$CK?$CK?$CK?5Error?5allocating?5memory?5for?5@ 10063eb8     rt_logging.obj
 0002:00001eec       ??_C@_0DF@BBCNMOPM@?$CK?$CK?$CK?5Error?5allocating?5memory?5for?5@ 10063eec     rt_logging.obj
 0002:00001f30       ??_C@_0JP@DBCLPCCI@?$CK?$CK?$CK?5Details?3?6?5?5?5?5?5?5?5varName?5?5?5?5?5@ 10063f30     rt_logging.obj
 0002:00001ff0       ??_C@_0FK@DPGAOBGA@?$CK?$CK?$CK?5Error?5allocating?5memory?5for?5@ 10063ff0     rt_logging.obj
 0002:0000205c       ??_C@_0BI@GGDNPHLJ@?$CK?$CK?$CK?5Error?5writing?5to?5?$CFs?$AA@ 1006405c     rt_logging.obj
 0002:00002078       ??_C@_0CB@IBGJGELG@?$CK?$CK?$CK?5Error?5writing?5?$CFs?5due?5to?3?5?$CFs?6@ 10064078     rt_logging.obj
 0002:000020a0       ??_C@_0CN@FLMCHCPB@?$CK?$CK?$CK?5Error?5writing?5log?5variable?5?$CF@ 100640a0     rt_logging.obj
 0002:000020d8       ??_C@_0DH@GAJCNOJP@?$CK?$CK?$CK?5Error?5writing?5structure?5log?5@ 100640d8     rt_logging.obj
 0002:0000211c       ??_C@_0BD@POEALECL@?$CK?$CK?5created?5?$CFs?5?$CK?$CK?6?6?$AA@ 1006411c     rt_logging.obj
 0002:00002138       __real@0000000000000000    10064138     rt_logging.obj
 0002:00002148       __real@3ff0000000000000    10064148     rt_logging.obj
 0002:00002158       __real@4020000000000000    10064158     rt_logging.obj
 0002:00002168       __real@41dfffffffc00000    10064168     rt_logging.obj
 0002:00002178       __real@41efffffffe00000    10064178     rt_logging.obj
 0002:00002188       __real@4330000000000000    10064188     rt_logging.obj
 0002:00002198       __real@8000000000000000    10064198     rt_logging.obj
 0002:000021a8       __real@bfbf9add3afd2773    100641a8     rt_logging.obj
 0002:000021b8       __real@bff0000000000000    100641b8     rt_logging.obj
 0002:000021c8       __real@c000000000000000    100641c8     rt_logging.obj
 0002:000021e0       __xmm@20202020202020202020202020202020 100641e0     rt_logging.obj
 0002:00002200       __xmm@41f00000000000000000000000000000 10064200     rt_logging.obj
 0002:00002214       _slrttestmdl_M             10064214     slrttestmdl.obj
 0002:00002218       ??_C@_06JFOKFOED@CSTATE?$AA@ 10064218     slrttestmdl.obj
 0002:00002220       ??_C@_0BI@KLKNELJH@slrttestmdl?1Integrator1?$AA@ 10064220     slrttestmdl.obj
 0002:0000223c       ??_C@_0BH@CNKIMOBF@slrttestmdl?1Integrator?$AA@ 1006423c     slrttestmdl.obj
 0002:00002258       ??_C@_0BE@MOCFCMEK@slrttestmdl?1Outport?$AA@ 10064258     slrttestmdl.obj
 0002:00002270       ??_C@_04GDMNHCBG@ode4?$AA@ 10064270     slrttestmdl.obj
 0002:00002278       ??_C@_04EPKDLPPB@tout?$AA@ 10064278     slrttestmdl.obj
 0002:00002280       ??_C@_04IKFDFCPA@xout?$AA@ 10064280     slrttestmdl.obj
 0002:00002288       ??_C@_03HBFGMJOD@rt_?$AA@  10064288     slrttestmdl.obj
 0002:0000228c       ??_C@_04LHDDHLEA@yout?$AA@ 1006428c     slrttestmdl.obj
 0002:00002298       __real@3f30624dd2f1a9fc    10064298     slrttestmdl.obj
 0002:000022a8       __real@3fc5555555555555    100642a8     slrttestmdl.obj
 0002:000022b8       __real@3fc999999999999a    100642b8     slrttestmdl.obj
 0002:000022c8       __real@3fe0000000000000    100642c8     slrttestmdl.obj
 0002:000022d8       __real@4000000000000000    100642d8     slrttestmdl.obj
 0002:000022e8       __real@41f0000000000000    100642e8     slrttestmdl.obj
 0002:00002300       __xmm@00000007000000070000000900000002 10064300     slrttestmdl.obj
 0002:00002320       __xmm@3f30624dd2f1a9fc0000000000000000 10064320     slrttestmdl.obj
 0002:00002340       __xmm@80000000000000008000000000000000 10064340     slrttestmdl.obj
 0002:000025ac       ??_C@_04OMOMKKFL@Gain?$AA@ 100645ac     slrttestmdl_capi.obj
 0002:000025b4       ??_C@_05DKAIGDGE@Gain1?$AA@ 100645b4     slrttestmdl_capi.obj
 0002:000025bc       ??_C@_05BBCFDAKH@Gain2?$AA@ 100645bc     slrttestmdl_capi.obj
 0002:000025c4       ??_C@_0L@NFGBEBEC@Integrator?$AA@ 100645c4     slrttestmdl_capi.obj
 0002:000025d4       ??_C@_0M@FOFKEGEP@Integrator1?$AA@ 100645d4     slrttestmdl_capi.obj
 0002:000025e4       ??_C@_0BB@DGFEMKP@Signal?5Generator?$AA@ 100645e4     slrttestmdl_capi.obj
 0002:000025f8       ??_C@_03IFGKDPPO@Sum?$AA@  100645f8     slrttestmdl_capi.obj
 0002:000025fc       ??_C@_0BB@CFEOEMDC@InitialCondition?$AA@ 100645fc     slrttestmdl_capi.obj
 0002:00002610       ??_C@_09IHLJOMI@Amplitude?$AA@ 10064610     slrttestmdl_capi.obj
 0002:0000261c       ??_C@_09OGDICNME@Frequency?$AA@ 1006461c     slrttestmdl_capi.obj
 0002:00002628       ??_C@_06BNJCAIGJ@double?$AA@ 10064628     slrttestmdl_capi.obj
 0002:00002630       ??_C@_06CNMIJIPB@real_T?$AA@ 10064630     slrttestmdl_capi.obj
 0002:00002638       ??_C@_05KNFBNCOH@float?$AA@ 10064638     slrttestmdl_capi.obj
 0002:00002640       ??_C@_0DL@PGGFBBLM@Error?3?5task?5ID?5?$CFd?5is?5out?5of?5rang@ 10064640     slrttestmdl_xcp_TET.obj
 0002:00002688       __real@3e112e0be826d695    10064688     slrttestmdl_xcp_TET.obj
 0002:00002698       __real@3f847ae147ae147b    10064698     slrttestmdl_xcp_TET.obj
 0002:000026a8       __real@3fefae147ae147ae    100646a8     slrttestmdl_xcp_TET.obj
 0002:000026b4       _serialfifoground          100646b4     xpc_datatype_ground.obj
 0002:000026c0       _bcmsg1553ground           100646c0     xpc_datatype_ground.obj
 0002:000026d0       _bcstatground              100646d0     xpc_datatype_ground.obj
 0002:000026e8       _bmmsg1553ground           100646e8     xpc_datatype_ground.obj
 0002:00002724       ??_C@_0BI@INNPNFJN@Memory?5Allocation?5Error?$AA@ 10064724     rtw_modelmap_utils.obj
 0002:00002740       ??_C@_1HC@PKAJIAEN@?$AAC?$AA?3?$AA?2?$AAP?$AAR?$AAO?$AAG?$AAR?$AAA?$AA?$HO?$AA1?$AA?2?$AAM?$AAA?$AAT?$AAL?$AAA?$AAB?$AA?2?$AAR?$AA2?$AA0?$AA1?$AA8?$AAa?$AA?2?$AAr?$AAt?$AAw?$AA?2?$AAc?$AA?2@ 10064740     rtw_modelmap_utils.obj
 0002:000027c8       ??_C@_1CI@OEAJCJND@?$AAj?$AA?5?$AA?$DN?$AA?$DN?$AA?5?$AAe?$AAn?$AAc?$AAo?$AAd?$AAe?$AAd?$AAP?$AAa?$AAt?$AAh?$AAL?$AAe?$AAn?$AA?$AA@ 100647c8     rtw_modelmap_utils.obj
 0002:000027f8       ??_C@_1DC@NFAOIFKB@?$AAe?$AAn?$AAc?$AAo?$AAd?$AAe?$AAd?$AAP?$AAa?$AAt?$AAh?$AA?$FL?$AAj?$AA?9?$AA1?$AA?$FN?$AA?5?$AA?$DN?$AA?$DN?$AA?5?$AA?8?$AA?2?$AA0?$AA?8?$AA?$AA@ 100647f8     rtw_modelmap_utils.obj
 0002:00002834       ??_C@_1DI@FLNJGPEE@?$AAs?$AAi?$AAg?$AAC?$AAo?$AAm?$AAp?$AAl?$AAe?$AAx?$AAi?$AAt?$AAy?$AA?$FL?$AA?$CK?$AAs?$AAi?$AAg?$AAI?$AAd?$AAx?$AA?$FN?$AA?5?$AA?$CB?$AA?$DN?$AA?5?$AA1?$AA?$AA@ 10064834     rtw_modelmap_utils.obj
 0002:00002878       ??_C@_1KI@OFELMGBG@?$AA?$CI?$AA?$CI?$AA?$CI?$AAd?$AAa?$AAt?$AAa?$AAT?$AAy?$AAp?$AAe?$AAM?$AAa?$AAp?$AA?$CJ?$AA?$FL?$AA?$CI?$AA?$CI?$AA?$CI?$AAs?$AAt?$AAa?$AAt?$AAe?$AAs?$AA?$CJ?$AA?$FL?$AA?$CI?$AAi?$AA?$CJ?$AA?$FN?$AA?4@ 10064878     rtw_modelmap_utils.obj
 0002:00002944       ??_C@_1DA@ILCMPHNE@?$AAf?$AAu?$AAl?$AAl?$AAP?$AAa?$AAt?$AAh?$AA?5?$AA?$CB?$AA?$DN?$AA?5?$AA?$CI?$AA?$CI?$AAv?$AAo?$AAi?$AAd?$AA?5?$AA?$CK?$AA?$CJ?$AA0?$AA?$CJ?$AA?$AA@ 10064944     rtw_modelmap_utils.obj
 0002:00002980       ??_C@_1CI@OEPPFCCA@?$AAp?$AAa?$AAt?$AAh?$AA?5?$AA?$CB?$AA?$DN?$AA?5?$AA?$CI?$AA?$CI?$AAv?$AAo?$AAi?$AAd?$AA?5?$AA?$CK?$AA?$CJ?$AA0?$AA?$CJ?$AA?$AA@ 10064980     rtw_modelmap_utils.obj
 0002:000029b0       ??_C@_1FK@GLJIMFHB@?$AA?$CI?$AA?$CI?$AAm?$AAm?$AAi?$AA?$CJ?$AA?9?$AA?$DO?$AAI?$AAn?$AAs?$AAt?$AAa?$AAn?$AAc?$AAe?$AAM?$AAa?$AAp?$AA?4?$AAf?$AAu?$AAl?$AAl?$AAP?$AAa?$AAt?$AAh?$AA?$CJ?$AA?5?$AA?$DN?$AA?$DN@ 100649b0     rtw_modelmap_utils.obj
 0002:00002a1c       ??_C@_1DG@HPCJGNCE@?$AAm?$AAm?$AAi?$AAP?$AAa?$AAt?$AAh?$AA?$FL?$AAp?$AAa?$AAt?$AAh?$AAL?$AAe?$AAn?$AA?9?$AA1?$AA?$FN?$AA?5?$AA?$DN?$AA?$DN?$AA?5?$AA?8?$AA?2?$AA0?$AA?8?$AA?$AA@ 10064a1c     rtw_modelmap_utils.obj
 0002:00002a5c       ??_C@_1DM@DBAOGGOO@?$AAm?$AAm?$AAi?$AAP?$AAa?$AAt?$AAh?$AA?$FL?$AAm?$AAm?$AAi?$AAP?$AAa?$AAt?$AAh?$AAL?$AAe?$AAn?$AA?9?$AA1?$AA?$FN?$AA?5?$AA?$DN?$AA?$DN?$AA?5?$AA?8?$AA?2?$AA0?$AA?8?$AA?$AA@ 10064a5c     rtw_modelmap_utils.obj
 0002:00002aa4       ??_C@_1DC@LHIAKAFE@?$AAb?$AAl?$AAo?$AAc?$AAk?$AAP?$AAa?$AAt?$AAh?$AA?5?$AA?$CB?$AA?$DN?$AA?5?$AA?$CI?$AA?$CI?$AAv?$AAo?$AAi?$AAd?$AA?5?$AA?$CK?$AA?$CJ?$AA0?$AA?$CJ?$AA?$AA@ 10064aa4     rtw_modelmap_utils.obj
 0002:00002ae0       ??_C@_1GI@KIEJKPGC@?$AAf?$AAu?$AAl?$AAl?$AAS?$AAt?$AAa?$AAt?$AAe?$AAB?$AAl?$AAo?$AAc?$AAk?$AAP?$AAa?$AAt?$AAh?$AA?$FL?$AAf?$AAu?$AAl?$AAl?$AAS?$AAt?$AAa?$AAt?$AAe?$AAB?$AAl?$AAo?$AAc@ 10064ae0     rtw_modelmap_utils.obj
 0002:00002b60       ??_C@_1EE@DNPIBJHC@?$AA?$CI?$AA?$CI?$AAd?$AAi?$AAm?$AAM?$AAa?$AAp?$AA?$CJ?$AA?$FL?$AA?$CI?$AAm?$AAa?$AAp?$AAI?$AAd?$AAx?$AA?$CJ?$AA?$FN?$AA?4?$AAn?$AAu?$AAm?$AAD?$AAi?$AAm?$AAs?$AA?$CJ?$AA?5?$AA?$DN?$AA?$DN?$AA?5@ 10064b60     rtw_modelmap_utils.obj
 0002:00002bb4       ??_C@_06FAENGAMN@DSTATE?$AA@ 10064bb4     rtw_modelmap_utils.obj
 0002:00002bbc       ??_C@_1BI@LEBJNOGG@?$AAc?$AAs?$AAv?$AAI?$AAd?$AAx?$AA?5?$AA?$DO?$AA?$DN?$AA?5?$AA0?$AA?$AA@ 10064bbc     rtw_modelmap_utils.obj
 0002:00002bd8       ??_C@_1BA@KDMGHCHP@?$AAT?$AAI?$AAD?$AA?$DN?$AA?$DN?$AA?9?$AA1?$AA?$AA@ 10064bd8     rtw_modelmap_utils.obj
 0002:00002bec       ??_C@_1DM@DHGKBPCE@?$AAs?$AAi?$AAg?$AAP?$AAa?$AAt?$AAh?$AA?$FL?$AAs?$AAi?$AAg?$AAP?$AAa?$AAt?$AAh?$AAL?$AAe?$AAn?$AA?9?$AA1?$AA?$FN?$AA?5?$AA?$DN?$AA?$DN?$AA?5?$AA?8?$AA?2?$AA0?$AA?8?$AA?$AA@ 10064bec     rtw_modelmap_utils.obj
 0002:00002c34       ??_C@_0BK@EBKJELMI@maxfunc?5?$DN?5?$CFd?5at?5?$FL?$CFd?0?5?$CFd?$FN?6?$AA@ 10064c34     xpcruntime:xpcimports.obj
 0002:00002c54       ??_C@_0CC@DMFKNLL@VendorId?5?$DN?50x?$CFx?0?5DeviceId?5?$DN?50x?$CFx@ 10064c54     xpcruntime:xpcimports.obj
 0002:00002c7c       ??_C@_0DH@OHCBLNMG@Subsystem?5Device?5ID?5?$DN?50x?$CFx?6Subsy@ 10064c7c     xpcruntime:xpcimports.obj
 0002:00002cc0       ??_C@_0BD@MMMMEFCM@Class?5Code?5?$DN?50x?$CFx?6?$AA@ 10064cc0     xpcruntime:xpcimports.obj
 0002:00002cd8       ??_C@_0BE@OLDDDNHM@InterruptLine?5?$DN?5?$CFd?6?$AA@ 10064cd8     xpcruntime:xpcimports.obj
 0002:00002cf0       ??_C@_0CE@IBMFFAPN@bus?5?$DN?5?$CFd?0?5slot?5?$DN?5?$CFd?0?5function?5?$DN?5@ 10064cf0     xpcruntime:xpcimports.obj
 0002:00002d1c       ??_C@_0CE@DGLLGDFH@?5?5?5?5Phys?5?5?5Virtual?5?5?5Length?5IO?1M@ 10064d1c     xpcruntime:xpcimports.obj
 0002:00002d48       ??_C@_0BI@FEOPLEMG@?$CF08x?5?$CF08x?5?$CF08x?5?5?5?5?5?5?$CFc?6?$AA@ 10064d48     xpcruntime:xpcimports.obj
 0002:00002d64       ??_C@_0BB@BNNCEDPC@rl32eScopeExists?$AA@ 10064d64     xpcruntime:xpcimports.obj
 0002:00002d78       ??_C@_0BM@FJBFEGFG@rl32eScopeExists?5not?5found?6?$AA@ 10064d78     xpcruntime:xpcimports.obj
 0002:00002d9c       ??_C@_0O@BNNGKJEA@rl32eDefScope?$AA@ 10064d9c     xpcruntime:xpcimports.obj
 0002:00002dac       ??_C@_0BJ@CDNOENKA@rl32eDefScope?5not?5found?6?$AA@ 10064dac     xpcruntime:xpcimports.obj
 0002:00002dcc       ??_C@_0P@CKNKILDP@rl32eAddSignal?$AA@ 10064dcc     xpcruntime:xpcimports.obj
 0002:00002de0       ??_C@_0BK@GMJAJBAI@rl32eAddSignal?5not?5found?6?$AA@ 10064de0     xpcruntime:xpcimports.obj
 0002:00002e00       ??_C@_0BB@LDMIHGCE@rl32eGetSignalNo?$AA@ 10064e00     xpcruntime:xpcimports.obj
 0002:00002e14       ??_C@_0BM@LGAMBAID@rl32eGetSignalNo?5not?5found?6?$AA@ 10064e14     xpcruntime:xpcimports.obj
 0002:00002e38       ??_C@_0O@CFDGALBP@rl32eSetScope?$AA@ 10064e38     xpcruntime:xpcimports.obj
 0002:00002e48       ??_C@_0BJ@JCLHHIN@rl32eSetScope?5not?5found?6?$AA@ 10064e48     xpcruntime:xpcimports.obj
 0002:00002e68       ??_C@_0P@IKMCBMHH@xpceFSScopeSet?$AA@ 10064e68     xpcruntime:xpcimports.obj
 0002:00002e7c       ??_C@_0BK@JODJPNNH@xpceFSScopeSet?5not?5found?6?$AA@ 10064e7c     xpcruntime:xpcimports.obj
 0002:00002e9c       ??_C@_0BE@DLACEEJM@rl32eSetTargetScope?$AA@ 10064e9c     xpcruntime:xpcimports.obj
 0002:00002eb4       ??_C@_0BP@JCHFMKPJ@rl32eSetTargetScope?5not?5found?6?$AA@ 10064eb4     xpcruntime:xpcimports.obj
 0002:00002edc       ??_C@_0BJ@LIDLNDHC@rl32eSetTargetScopeSigFt?$AA@ 10064edc     xpcruntime:xpcimports.obj
 0002:00002efc       ??_C@_0CE@JLGHCFHI@rl32eSetTargetScopeSigFt?5not?5fou@ 10064efc     xpcruntime:xpcimports.obj
 0002:00002f28       ??_C@_0BI@JAPOIDNG@rl32eRestartAcquisition?$AA@ 10064f28     xpcruntime:xpcimports.obj
 0002:00002f44       ??_C@_0CD@LLBEFFBO@rl32eRestartAcquisition?5not?5foun@ 10064f44     xpcruntime:xpcimports.obj
 0002:00002f70       ??_C@_0P@IEIIADJB@xpceScopeAcqOK?$AA@ 10064f70     xpcruntime:xpcimports.obj
 0002:00002f84       ??_C@_0BK@NJCKNFPN@xpceScopeAcqOK?5not?5found?6?$AA@ 10064f84     xpcruntime:xpcimports.obj
 0002:00002fa4       ??_C@_0BA@IJINKAHF@xpceRegisterISR?$AA@ 10064fa4     xpcruntime:xpcimports.obj
 0002:00002fb8       ??_C@_0BL@NNDLOEJE@xpceRegisterISR?5not?5found?6?$AA@ 10064fb8     xpcruntime:xpcimports.obj
 0002:00002fd8       ??_C@_0BC@NLBADGKF@xpceDeRegisterISR?$AA@ 10064fd8     xpcruntime:xpcimports.obj
 0002:00002ff0       ??_C@_0BN@DCAIKFFD@xpceDeRegisterISR?5not?5found?6?$AA@ 10064ff0     xpcruntime:xpcimports.obj
 0002:00003014       ??_C@_07JPMEPILD@xpcInpB?$AA@ 10065014     xpcruntime:xpcimports.obj
 0002:00003020       ??_C@_0BD@PGABEJOL@xpcInpB?5not?5found?6?$AA@ 10065020     xpcruntime:xpcimports.obj
 0002:00003038       ??_C@_07KIHBBOKH@xpcInpW?$AA@ 10065038     xpcruntime:xpcimports.obj
 0002:00003044       ??_C@_0BD@FPCJFMCC@xpcInpW?5not?5found?6?$AA@ 10065044     xpcruntime:xpcimports.obj
 0002:0000305c       ??_C@_08KDIAJBOP@xpcInpDW?$AA@ 1006505c     xpcruntime:xpcimports.obj
 0002:00003068       ??_C@_0BE@PIELDNIL@xpcInpDW?5not?5found?6?$AA@ 10065068     xpcruntime:xpcimports.obj
 0002:00003080       ??_C@_08PJFMOIGO@xpcOutpB?$AA@ 10065080     xpcruntime:xpcimports.obj
 0002:0000308c       ??_C@_0BE@HCKNCEKF@xpcOutpB?5not?5found?6?$AA@ 1006508c     xpcruntime:xpcimports.obj
 0002:000030a4       ??_C@_08MOOJAOHK@xpcOutpW?$AA@ 100650a4     xpcruntime:xpcimports.obj
 0002:000030b0       ??_C@_0BE@NLIFDBGM@xpcOutpW?5not?5found?6?$AA@ 100650b0     xpcruntime:xpcimports.obj
 0002:000030c8       ??_C@_09FLIEKHJG@xpcOutpDW?$AA@ 100650c8     xpcruntime:xpcimports.obj
 0002:000030d4       ??_C@_0BF@GJKLPNHB@xpcOutpDW?5not?5found?6?$AA@ 100650d4     xpcruntime:xpcimports.obj
 0002:000030f0       ??_C@_0BH@EHOLELHH@xpcReserveMemoryRegion?$AA@ 100650f0     xpcruntime:xpcimports.obj
 0002:0000310c       ??_C@_0CC@KAAAGPI@xpcReserveMemoryRegion?5not?5found@ 1006510c     xpcruntime:xpcimports.obj
 0002:00003134       ??_C@_0BA@JGPMHGAF@rl32eShowPCIDev?$AA@ 10065134     xpcruntime:xpcimports.obj
 0002:00003148       ??_C@_0BL@DDFFLNHI@rl32eShowPCIDev?5not?5found?6?$AA@ 10065148     xpcruntime:xpcimports.obj
 0002:00003168       ??_C@_0BB@KBCOJPFB@rl32eShowPCIInfo?$AA@ 10065168     xpcruntime:xpcimports.obj
 0002:0000317c       ??_C@_0BM@IFDMAGLO@rl32eShowPCIInfo?5not?5found?6?$AA@ 1006517c     xpcruntime:xpcimports.obj
 0002:000031a0       ??_C@_0BA@BGPAADB@rl32eGetPCIInfo?$AA@ 100651a0     xpcruntime:xpcimports.obj
 0002:000031b4       ??_C@_0BL@IGOMLDCK@rl32eGetPCIInfo?5not?5found?6?$AA@ 100651b4     xpcruntime:xpcimports.obj
 0002:000031d4       ??_C@_0BG@NJPFKFDP@rl32eGetPCIInfoAtSlot?$AA@ 100651d4     xpcruntime:xpcimports.obj
 0002:000031f0       ??_C@_0CB@BBKIPMLA@rl32eGetPCIInfoAtSlot?5not?5found?6@ 100651f0     xpcruntime:xpcimports.obj
 0002:00003218       ??_C@_0BH@OKBOPNFG@xpceAssignPCIInterrupt?$AA@ 10065218     xpcruntime:xpcimports.obj
 0002:00003234       ??_C@_0CC@CDNDNJBJ@xpceAssignPCIInterrupt?5not?5found@ 10065234     xpcruntime:xpcimports.obj
 0002:0000325c       ??_C@_0BD@PCKOKHO@xpceGetSignalValue?$AA@ 1006525c     xpcruntime:xpcimports.obj
 0002:00003274       ??_C@_0BO@GCBDJHMB@xpceGetSignalValue?5not?5found?6?$AA@ 10065274     xpcruntime:xpcimports.obj
 0002:00003298       ??_C@_0BB@BJONJAGA@xpceSetParameter?$AA@ 10065298     xpcruntime:xpcimports.obj
 0002:000032ac       ??_C@_0BM@BJIKDLHA@xpceSetParameter?5not?5found?6?$AA@ 100652ac     xpcruntime:xpcimports.obj
 0002:000032d0       ??_C@_0BB@GNFDFMCM@xpceGetParameter?$AA@ 100652d0     xpcruntime:xpcimports.obj
 0002:000032e4       ??_C@_0BM@POHNKBC@xpceGetParameter?5not?5found?6?$AA@ 100652e4     xpcruntime:xpcimports.obj
 0002:00003308       ??_C@_0BB@CEIJLFCD@xpceGetParamDims?$AA@ 10065308     xpcruntime:xpcimports.obj
 0002:0000331c       ??_C@_0BM@OABDBKAO@xpceGetParamDims?5not?5found?6?$AA@ 1006531c     xpcruntime:xpcimports.obj
 0002:00003340       ??_C@_0L@OCBLLHBM@xpceGetTET?$AA@ 10065340     xpcruntime:xpcimports.obj
 0002:00003350       ??_C@_0BG@HNOFBOB@xpceGetTET?5not?5found?6?$AA@ 10065350     xpcruntime:xpcimports.obj
 0002:0000336c       ??_C@_0P@OKGNGAGH@xpcIsModelInit?$AA@ 1006536c     xpcruntime:xpcimports.obj
 0002:00003380       ??_C@_0BK@DHEMLBIM@xpcIsModelInit?5not?5found?6?$AA@ 10065380     xpcruntime:xpcimports.obj
 0002:000033a0       ??_C@_0BH@KJJLCAOJ@xpcAllocPhysicalMemory?$AA@ 100653a0     xpcruntime:xpcimports.obj
 0002:000033bc       ??_C@_0CC@MOJPNHKL@xpcAllocPhysicalMemory?5not?5found@ 100653bc     xpcruntime:xpcimports.obj
 0002:000033e4       ??_C@_0BG@CBNPGAEL@xpcFreePhysicalMemory?$AA@ 100653e4     xpcruntime:xpcimports.obj
 0002:00003400       ??_C@_0CB@PKJEBPOG@xpcFreePhysicalMemory?5not?5found?6@ 10065400     xpcruntime:xpcimports.obj
 0002:00003428       ??_C@_0BC@JGKNLICL@xpcGetElapsedTime?$AA@ 10065428     xpcruntime:xpcimports.obj
 0002:00003440       ??_C@_0BN@OEOAHCIO@xpcGetElapsedTime?5not?5found?6?$AA@ 10065440     xpcruntime:xpcimports.obj
 0002:00003464       ??_C@_0M@ICBLMODA@xpcBusyWait?$AA@ 10065464     xpcruntime:xpcimports.obj
 0002:00003474       ??_C@_0BH@FBOPECBI@xpcBusyWait?5not?5found?6?$AA@ 10065474     xpcruntime:xpcimports.obj
 0002:00003490       ??_C@_0N@LKKJEKKA@TBCreateSpin?$AA@ 10065490     xpcruntime:xpcimports.obj
 0002:000034a0       ??_C@_0BI@FHKMLKOE@TBCreateSpin?5not?5found?6?$AA@ 100654a0     xpcruntime:xpcimports.obj
 0002:000034bc       ??_C@_0N@HOAJHNBD@TBDeleteSpin?$AA@ 100654bc     xpcruntime:xpcimports.obj
 0002:000034cc       ??_C@_0BI@BKCPAAG@TBDeleteSpin?5not?5found?6?$AA@ 100654cc     xpcruntime:xpcimports.obj
 0002:000034e8       ??_C@_0P@DAHDDBJG@TBTakeSpinFast?$AA@ 100654e8     xpcruntime:xpcimports.obj
 0002:000034fc       ??_C@_0BK@NKAIBHGB@TBTakeSpinFast?5not?5found?6?$AA@ 100654fc     xpcruntime:xpcimports.obj
 0002:0000351c       ??_C@_0P@FKNAAELA@TBGiveSpinFast?$AA@ 1006551c     xpcruntime:xpcimports.obj
 0002:00003530       ??_C@_0BK@KGPJBJND@TBGiveSpinFast?5not?5found?6?$AA@ 10065530     xpcruntime:xpcimports.obj
 0002:00003550       ??_C@_0BE@IIGBFDHK@xpceCreateSemaphore?$AA@ 10065550     xpcruntime:xpcimports.obj
 0002:00003568       ??_C@_0BP@KFBAFFKJ@xpceCreateSemaphore?5not?5found?6?$AA@ 10065568     xpcruntime:xpcimports.obj
 0002:00003590       ??_C@_0BC@IFNIONKJ@xpceWaitSemaphore?$AA@ 10065590     xpcruntime:xpcimports.obj
 0002:000035a8       ??_C@_0BN@NMFAADIO@xpceWaitSemaphore?5not?5found?6?$AA@ 100655a8     xpcruntime:xpcimports.obj
 0002:000035cc       ??_C@_0BE@NNDIOBKE@xpceSignalSemaphore?$AA@ 100655cc     xpcruntime:xpcimports.obj
 0002:000035e4       ??_C@_0BP@LBANMHJP@xpceSignalSemaphore?5not?5found?6?$AA@ 100655e4     xpcruntime:xpcimports.obj
 0002:0000360c       ??_C@_0BE@MEBEKOIM@xpceDeleteSemaphore?$AA@ 1006560c     xpcruntime:xpcimports.obj
 0002:00003624       ??_C@_0BP@OFNCKOJH@xpceDeleteSemaphore?5not?5found?6?$AA@ 10065624     xpcruntime:xpcimports.obj
 0002:0000364c       ??_C@_0BD@MFNDMBOF@FindUsbVideoDevice?$AA@ 1006564c     xpcruntime:xpcimports.obj
 0002:00003664       ??_C@_0BO@POKLDHMI@FindUsbVideoDevice?5not?5found?6?$AA@ 10065664     xpcruntime:xpcimports.obj
 0002:00003688       ??_C@_0BA@PLPAPNAB@GetVideoConfigs?$AA@ 10065688     xpcruntime:xpcimports.obj
 0002:0000369c       ??_C@_0BL@DALDHKHC@GetVideoConfigs?5not?5found?6?$AA@ 1006569c     xpcruntime:xpcimports.obj
 0002:000036bc       ??_C@_0L@GBAEMHMH@StartVideo?$AA@ 100656bc     xpcruntime:xpcimports.obj
 0002:000036cc       ??_C@_0BG@HDCELEBP@StartVideo?5not?5found?6?$AA@ 100656cc     xpcruntime:xpcimports.obj
 0002:000036e8       ??_C@_0BA@FDNPOCLN@ReadFrameBuffer?$AA@ 100656e8     xpcruntime:xpcimports.obj
 0002:000036fc       ??_C@_0BL@JHGHPNBI@ReadFrameBuffer?5not?5found?6?$AA@ 100656fc     xpcruntime:xpcimports.obj
 0002:0000371c       ??_C@_09FAHCLKAG@StopVideo?$AA@ 1006571c     xpcruntime:xpcimports.obj
 0002:00003728       ??_C@_0BF@NKGKKADL@StopVideo?5not?5found?6?$AA@ 10065728     xpcruntime:xpcimports.obj
 0002:00003744       ??_C@_0O@MCPKDLLL@ConvertUImage?$AA@ 10065744     xpcruntime:xpcimports.obj
 0002:00003754       ??_C@_0BJ@PHJKOAFL@ConvertUImage?5not?5found?6?$AA@ 10065754     xpcruntime:xpcimports.obj
 0002:00003774       ??_C@_0BD@NKCBPBJJ@CreateVideoDisplay?$AA@ 10065774     xpcruntime:xpcimports.obj
 0002:0000378c       ??_C@_0BO@HPPLLNFP@CreateVideoDisplay?5not?5found?6?$AA@ 1006578c     xpcruntime:xpcimports.obj
 0002:000037b0       ??_C@_0BE@KJCKGPHA@DestroyVideoDisplay?$AA@ 100657b0     xpcruntime:xpcimports.obj
 0002:000037c8       ??_C@_0BP@FMGLJAIJ@DestroyVideoDisplay?5not?5found?6?$AA@ 100657c8     xpcruntime:xpcimports.obj
 0002:000037f0       ??_C@_0BC@HCMIMIDN@StartVideoDisplay?$AA@ 100657f0     xpcruntime:xpcimports.obj
 0002:00003808       ??_C@_0BN@EFIEBGOO@StartVideoDisplay?5not?5found?6?$AA@ 10065808     xpcruntime:xpcimports.obj
 0002:0000382c       ??_C@_0BB@JBBLMILG@StopVideoDisplay?$AA@ 1006582c     xpcruntime:xpcimports.obj
 0002:00003840       ??_C@_0BM@DBJBPLEL@StopVideoDisplay?5not?5found?6?$AA@ 10065840     xpcruntime:xpcimports.obj
 0002:00003864       ??_C@_0M@MFJEGMHC@StreamVideo?$AA@ 10065864     xpcruntime:xpcimports.obj
 0002:00003874       ??_C@_0BH@OINCDMLA@StreamVideo?5not?5found?6?$AA@ 10065874     xpcruntime:xpcimports.obj
 0002:00003890       ??_C@_0N@IGGLCIGE@xpceaddEvent?$AA@ 10065890     xpcruntime:xpcimports.obj
 0002:000038a0       ??_C@_0BI@NHJNFMKH@xpceaddEvent?5not?5found?6?$AA@ 100658a0     xpcruntime:xpcimports.obj
 0002:000038bc       ??_C@_0BC@MLJODBHJ@slrtStartProfiler?$AA@ 100658bc     xpcruntime:xpcimports.obj
 0002:000038d4       ??_C@_0BN@HLNCOKA@slrtStartProfiler?5not?5found?6?$AA@ 100658d4     xpcruntime:xpcimports.obj
 0002:000038f8       ??_C@_0BB@ONJONMCD@slrtStopProfiler?$AA@ 100658f8     xpcruntime:xpcimports.obj
 0002:0000390c       ??_C@_0BM@GAKJEGBA@slrtStopProfiler?5not?5found?6?$AA@ 1006590c     xpcruntime:xpcimports.obj
 0002:00003930       ??_C@_0BF@EILBHBBF@slrtGetProfilerState?$AA@ 10065930     xpcruntime:xpcimports.obj
 0002:0000394c       ??_C@_0CA@EDDFOCLE@slrtGetProfilerState?5not?5found?6?$AA@ 1006594c     xpcruntime:xpcimports.obj
 0002:00003974       ??_C@_0BB@HDPOIJAB@xpceDAQPostEvent?$AA@ 10065974     xpcruntime:xpcimports.obj
 0002:00003988       ??_C@_0BM@IHANBKGN@xpceDAQPostEvent?5not?5found?6?$AA@ 10065988     xpcruntime:xpcimports.obj
 0002:000039ac       ??_C@_0BH@MBACMOD@xpceDAQUpdateTimeStamp?$AA@ 100659ac     xpcruntime:xpcimports.obj
 0002:000039c8       ??_C@_0CC@DAKBBINL@xpceDAQUpdateTimeStamp?5not?5found@ 100659c8     xpcruntime:xpcimports.obj
 0002:000039f0       ??_C@_0BD@HLALHPHI@slrtRegisterSignal?$AA@ 100659f0     xpcruntime:xpcimports.obj
 0002:00003a08       ??_C@_0BO@BALEBHKF@slrtRegisterSignal?5not?5found?6?$AA@ 10065a08     xpcruntime:xpcimports.obj
 0002:00003a2c       ??_C@_0O@DKILEOIJ@slrtLogSignal?$AA@ 10065a2c     xpcruntime:xpcimports.obj
 0002:00003a3c       ??_C@_0BJ@FMKKIEDD@slrtLogSignal?5not?5found?6?$AA@ 10065a3c     xpcruntime:xpcimports.obj
 0002:00003a5c       ??_C@_0BG@CCHICKPN@slrteSetStepSizeDelta?$AA@ 10065a5c     xpcruntime:xpcimports.obj
 0002:00003a78       ??_C@_0CB@MKHINEIJ@slrteSetStepSizeDelta?5not?5found?6@ 10065a78     xpcruntime:xpcimports.obj
 0002:00003aa0       ??_C@_0BI@CLNBLDKJ@slrteGetCurrentStepSize?$AA@ 10065aa0     xpcruntime:xpcimports.obj
 0002:00003abc       ??_C@_0CD@GIOJPGJA@slrteGetCurrentStepSize?5not?5foun@ 10065abc     xpcruntime:xpcimports.obj
 0002:00003ae8       ??_C@_0BE@FCLCBOC@registerPTPTimeRead?$AA@ 10065ae8     xpcruntime:xpcimports.obj
 0002:00003b00       ??_C@_0BP@LHPKAJIP@registerPTPTimeRead?5not?5found?6?$AA@ 10065b00     xpcruntime:xpcimports.obj
 0002:00003b28       ??_C@_0BG@KIGCDDJI@unRegisterPTPTimeRead?$AA@ 10065b28     xpcruntime:xpcimports.obj
 0002:00003b44       ??_C@_0CB@MLFFBFCM@unRegisterPTPTimeRead?5not?5found?6@ 10065b44     xpcruntime:xpcimports.obj
 0002:00003b6c       ??_C@_0BB@IPMDDBHK@slTestInitialize?$AA@ 10065b6c     xpcruntime:xpcimports.obj
 0002:00003b80       ??_C@_0BM@LAJFCCJH@slTestInitialize?5not?5found?6?$AA@ 10065b80     xpcruntime:xpcimports.obj
 0002:00003ba4       ??_C@_0BF@OOMPMEBC@slTestLogAssessments?$AA@ 10065ba4     xpcruntime:xpcimports.obj
 0002:00003bc0       ??_C@_0CA@FGJCEBAG@slTestLogAssessments?5not?5found?6?$AA@ 10065bc0     xpcruntime:xpcimports.obj
 0002:00003be8       ??_C@_0BB@HJHKONHO@slTestEvalOnFail?$AA@ 10065be8     xpcruntime:xpcimports.obj
 0002:00003bfc       ??_C@_0BM@JIKCFFNJ@slTestEvalOnFail?5not?5found?6?$AA@ 10065bfc     xpcruntime:xpcimports.obj
 0002:00003c20       ??_C@_0BA@LBHLABFP@slTestTerminate?$AA@ 10065c20     xpcruntime:xpcimports.obj
 0002:00003c34       ??_C@_0BL@EMFGKAPA@slTestTerminate?5not?5found?6?$AA@ 10065c34     xpcruntime:xpcimports.obj
 0002:00003c54       ??_C@_0BE@JPNPBBEO@slTestRegAssessment?$AA@ 10065c54     xpcruntime:xpcimports.obj
 0002:00003c6c       ??_C@_0BP@FBDEJJJH@slTestRegAssessment?5not?5found?6?$AA@ 10065c6c     xpcruntime:xpcimports.obj
 0002:00003c94       ??_C@_0O@NCLGDNIB@slrteSetupMSI?$AA@ 10065c94     xpcruntime:xpcimports.obj
 0002:00003ca4       ??_C@_0BJ@HEFMECLM@slrteSetupMSI?5not?5found?6?$AA@ 10065ca4     xpcruntime:xpcimports.obj
 0002:00003cc4       ??_C@_0BH@BPOLALHD@slrtGetCRBScratchSpace?$AA@ 10065cc4     xpcruntime:xpcimports.obj
 0002:00003ce0       ??_C@_0CC@KCKAJKKJ@slrtGetCRBScratchSpace?5not?5found@ 10065ce0     xpcruntime:xpcimports.obj
 0002:00003d08       ??_C@_0BC@MKFDAKOL@slrtGetSgCRBSpace?$AA@ 10065d08     xpcruntime:xpcimports.obj
 0002:00003d20       ??_C@_0BN@JDPHPLHL@slrtGetSgCRBSpace?5not?5found?6?$AA@ 10065d20     xpcruntime:xpcimports.obj
 0002:00003d44       ??_C@_0P@EPAPKLIF@slrtfsOpenFile?$AA@ 10065d44     xpcruntime:xpcimports.obj
 0002:00003d58       ??_C@_0BK@FIHCBOHG@slrtfsOpenFile?5not?5found?6?$AA@ 10065d58     xpcruntime:xpcimports.obj
 0002:00003d78       ??_C@_0BA@LILAFDDL@slrtfsCloseFile?$AA@ 10065d78     xpcruntime:xpcimports.obj
 0002:00003d8c       ??_C@_0BL@DEGHJFIB@slrtfsCloseFile?5not?5found?6?$AA@ 10065d8c     xpcruntime:xpcimports.obj
 0002:00003dac       ??_C@_0BC@OKMJDIEH@slrtfsWriteToFile?$AA@ 10065dac     xpcruntime:xpcimports.obj
 0002:00003dc4       ??_C@_0BN@KCFLCLAH@slrtfsWriteToFile?5not?5found?6?$AA@ 10065dc4     xpcruntime:xpcimports.obj
 0002:00003de8       ??_C@_0BK@GIPNFFFF@slrtfsGetFileErrorMessage?$AA@ 10065de8     xpcruntime:xpcimports.obj
 0002:00003e08       ??_C@_0CF@BCBLMKLE@slrtfsGetFileErrorMessage?5not?5fo@ 10065e08     xpcruntime:xpcimports.obj
 0002:00003e34       ??_C@_0BD@ICBOKMK@slrtfsGetFileError?$AA@ 10065e34     xpcruntime:xpcimports.obj
 0002:00003e4c       ??_C@_0BO@FNBANAE@slrtfsGetFileError?5not?5found?6?$AA@ 10065e4c     xpcruntime:xpcimports.obj
 0002:00003e70       ??_C@_0BE@PPAJMHJP@slrtfsOpenFileAsync?$AA@ 10065e70     xpcruntime:xpcimports.obj
 0002:00003e88       ??_C@_0BP@HKBMMJOK@slrtfsOpenFileAsync?5not?5found?6?$AA@ 10065e88     xpcruntime:xpcimports.obj
 0002:00003eb0       ??_C@_0BF@IGNDIBPF@slrtfsCloseFileAsync?$AA@ 10065eb0     xpcruntime:xpcimports.obj
 0002:00003ecc       ??_C@_0CA@GJPFDBKN@slrtfsCloseFileAsync?5not?5found?6?$AA@ 10065ecc     xpcruntime:xpcimports.obj
 0002:00003ef4       ??_C@_0BE@IOLEBNB@slrtfsGetFileStatus?$AA@ 10065ef4     xpcruntime:xpcimports.obj
 0002:00003f0c       ??_C@_0BP@PEFHDGHL@slrtfsGetFileStatus?5not?5found?6?$AA@ 10065f0c     xpcruntime:xpcimports.obj
 0002:00003f34       ??_C@_0M@HKIJIMG@slrtfsFread?$AA@ 10065f34     xpcruntime:xpcimports.obj
 0002:00003f44       ??_C@_0BH@OOKBGONO@slrtfsFread?5not?5found?6?$AA@ 10065f44     xpcruntime:xpcimports.obj
 0002:00003f60       ??_C@_0BE@OGCMPLAP@slrtGetDefaultDrive?$AA@ 10065f60     xpcruntime:xpcimports.obj
 0002:00003f78       ??_C@_0BP@HKFGLHOE@slrtGetDefaultDrive?5not?5found?6?$AA@ 10065f78     xpcruntime:xpcimports.obj
 0002:00003fa0       ??_C@_0N@NAJIKFFI@slrtLogEvent?$AA@ 10065fa0     xpcruntime:xpcimports.obj
 0002:00003fb0       ??_C@_0BI@NKCEACND@slrtLogEvent?5not?5found?6?$AA@ 10065fb0     xpcruntime:xpcimports.obj
 0002:00003fcc       ??_C@_0N@IDKFJOHI@getlasterror?$AA@ 10065fcc     xpcruntime:xpcimports.obj
 0002:00003fdc       ??_C@_0BI@MIHMCHGL@getlasterror?5not?5found?6?$AA@ 10065fdc     xpcruntime:xpcimports.obj
 0002:00003ff8       ??_C@_0P@OKHGKJKN@geterrorstring?$AA@ 10065ff8     xpcruntime:xpcimports.obj
 0002:0000400c       ??_C@_0BK@NOHFDMLP@geterrorstring?5not?5found?6?$AA@ 1006600c     xpcruntime:xpcimports.obj
 0002:0000402c       ??_C@_0BD@HNFFKMGJ@slrtGetCPUTCelsius?$AA@ 1006602c     xpcruntime:xpcimports.obj
 0002:00004044       ??_C@_0BO@LHBFKLIH@slrtGetCPUTCelsius?5not?5found?6?$AA@ 10066044     xpcruntime:xpcimports.obj
 0002:00004068       ??_C@_0M@OONCNCLM@slrtWarning?$AA@ 10066068     xpcruntime:xpcimports.obj
 0002:00004078       ??_C@_0BH@ICKGIEMB@slrtWarning?5not?5found?6?$AA@ 10066078     xpcruntime:xpcimports.obj
 0002:00004094       ??_C@_0M@JACEPOPN@registerNIC?$AA@ 10066094     xpcruntime:xpcimports.obj
 0002:000040a4       ??_C@_0BH@JMDHJIAC@registerNIC?5not?5found?6?$AA@ 100660a4     xpcruntime:xpcimports.obj
 0002:000040c0       ??_C@_0M@KBKHECFH@NICSetIface?$AA@ 100660c0     xpcruntime:xpcimports.obj
 0002:000040d0       ??_C@_0BH@NJAHOBA@NICSetIface?5not?5found?6?$AA@ 100660d0     xpcruntime:xpcimports.obj
 0002:000040ec       ??_C@_0M@FAILFBCK@NICGetIface?$AA@ 100660ec     xpcruntime:xpcimports.obj
 0002:000040fc       ??_C@_0BH@KDLLDOGM@NICGetIface?5not?5found?6?$AA@ 100660fc     xpcruntime:xpcimports.obj
 0002:00004118       ??_C@_0L@JNFPDPO@releaseNIC?$AA@ 10066118     xpcruntime:xpcimports.obj
 0002:00004128       ??_C@_0BG@EBGJANLA@releaseNIC?5not?5found?6?$AA@ 10066128     xpcruntime:xpcimports.obj
 0002:00004144       ??_C@_0BC@HLDKJAG@SetIPTASKPriority?$AA@ 10066144     xpcruntime:xpcimports.obj
 0002:0000415c       ??_C@_0BN@OGKMHHAE@SetIPTASKPriority?5not?5found?6?$AA@ 1006615c     xpcruntime:xpcimports.obj
 0002:00004180       ??_C@_0O@LHENMBDD@OpenInterface?$AA@ 10066180     xpcruntime:xpcimports.obj
 0002:00004190       ??_C@_0BJ@PFGDBKHB@OpenInterface?5not?5found?6?$AA@ 10066190     xpcruntime:xpcimports.obj
 0002:000041b0       ??_C@_0P@IINFELKD@CloseInterface?$AA@ 100661b0     xpcruntime:xpcimports.obj
 0002:000041c4       ??_C@_0BK@PAPDNDBK@CloseInterface?5not?5found?6?$AA@ 100661c4     xpcruntime:xpcimports.obj
 0002:000041e4       ??_C@_05LEFIAAOI@SetIP?$AA@ 100661e4     xpcruntime:xpcimports.obj
 0002:000041ec       ??_C@_0BB@CGLIBAMM@SetIP?5not?5found?6?$AA@ 100661ec     xpcruntime:xpcimports.obj
 0002:00004200       ??_C@_0BA@HIJJHHMD@AddGatewayRoute?$AA@ 10066200     xpcruntime:xpcimports.obj
 0002:00004214       ??_C@_0BL@BFCFMDMN@AddGatewayRoute?5not?5found?6?$AA@ 10066214     xpcruntime:xpcimports.obj
 0002:00004234       ??_C@_0BC@OGIEOMEH@AddMulticastRoute?$AA@ 10066234     xpcruntime:xpcimports.obj
 0002:0000424c       ??_C@_0BN@IMNDPFCL@AddMulticastRoute?5not?5found?6?$AA@ 1006624c     xpcruntime:xpcimports.obj
 0002:00004270       ??_C@_0M@PHMABFPI@DeleteRoute?$AA@ 10066270     xpcruntime:xpcimports.obj
 0002:00004280       ??_C@_0BH@JPJGLLID@DeleteRoute?5not?5found?6?$AA@ 10066280     xpcruntime:xpcimports.obj
 0002:0000429c       ??_C@_0BA@FCDIMKIJ@GetHostTarIPAdd?$AA@ 1006629c     xpcruntime:xpcimports.obj
 0002:000042b0       ??_C@_0BL@MBKDGKBO@GetHostTarIPAdd?5not?5found?6?$AA@ 100662b0     xpcruntime:xpcimports.obj
 0002:000042d0       ??_C@_0M@HPMIPIBI@GetDCUUsage?$AA@ 100662d0     xpcruntime:xpcimports.obj
 0002:000042e0       ??_C@_0BH@EBLJKCJC@GetDCUUsage?5not?5found?6?$AA@ 100662e0     xpcruntime:xpcimports.obj
 0002:000042fc       ??_C@_06MPKMECK@accept?$AA@ 100662fc     xpcruntime:xpcimports.obj
 0002:00004304       ??_C@_0BC@GBGIEMNO@accept?5not?5found?6?$AA@ 10066304     xpcruntime:xpcimports.obj
 0002:0000431c       ??_C@_04NPNJNMMP@bind?$AA@ 1006631c     xpcruntime:xpcimports.obj
 0002:00004324       ??_C@_0BA@DAJNENLO@bind?5not?5found?6?$AA@ 10066324     xpcruntime:xpcimports.obj
 0002:00004338       ??_C@_0L@CKHNIFCM@setsockopt?$AA@ 10066338     xpcruntime:xpcimports.obj
 0002:00004348       ??_C@_0BG@MFIIOMFE@setsockopt?5not?5found?6?$AA@ 10066348     xpcruntime:xpcimports.obj
 0002:00004364       ??_C@_0M@ODDJDCDK@closesocket?$AA@ 10066364     xpcruntime:xpcimports.obj
 0002:00004374       ??_C@_0BH@JHGHMIL@closesocket?5not?5found?6?$AA@ 10066374     xpcruntime:xpcimports.obj
 0002:00004390       ??_C@_07KAIBNCHO@connect?$AA@ 10066390     xpcruntime:xpcimports.obj
 0002:0000439c       ??_C@_0BD@MKLLMBM@connect?5not?5found?6?$AA@ 1006639c     xpcruntime:xpcimports.obj
 0002:000043b4       ??_C@_0M@PBPOCKDG@ioctlsocket?$AA@ 100663b4     xpcruntime:xpcimports.obj
 0002:000043c4       ??_C@_0BH@NFCNHHIH@ioctlsocket?5not?5found?6?$AA@ 100663c4     xpcruntime:xpcimports.obj
 0002:000043e0       ??_C@_06OODDLKLE@listen?$AA@ 100663e0     xpcruntime:xpcimports.obj
 0002:000043e8       ??_C@_0BC@NHBILEKI@listen?5not?5found?6?$AA@ 100663e8     xpcruntime:xpcimports.obj
 0002:00004400       ??_C@_08HMBBGFHE@recvfrom?$AA@ 10066400     xpcruntime:xpcimports.obj
 0002:0000440c       ??_C@_0BE@BJAJFFLF@recvfrom?5not?5found?6?$AA@ 1006640c     xpcruntime:xpcimports.obj
 0002:00004424       ??_C@_06MEPBGKEC@sendto?$AA@ 10066424     xpcruntime:xpcimports.obj
 0002:0000442c       ??_C@_0BC@BHPIMDJO@sendto?5not?5found?6?$AA@ 1006642c     xpcruntime:xpcimports.obj
 0002:00004444       ??_C@_09JKBDEEOB@inet_addr?$AA@ 10066444     xpcruntime:xpcimports.obj
 0002:00004450       ??_C@_0BF@HKJPGECN@inet_addr?5not?5found?6?$AA@ 10066450     xpcruntime:xpcimports.obj
 0002:0000446c       ??_C@_06HBELJPBO@socket?$AA@ 1006646c     xpcruntime:xpcimports.obj
 0002:00004474       ??_C@_0BC@NAGFFJGA@socket?5not?5found?6?$AA@ 10066474     xpcruntime:xpcimports.obj
 0002:0000448c       ??_C@_09ICJIFGNC@GetSocket?$AA@ 1006648c     xpcruntime:xpcimports.obj
 0002:00004498       ??_C@_0BF@KDBCKMOJ@GetSocket?5not?5found?6?$AA@ 10066498     xpcruntime:xpcimports.obj
 0002:000044b4       ??_C@_0P@KJEGJMJI@GetSocketState?$AA@ 100664b4     xpcruntime:xpcimports.obj
 0002:000044c8       ??_C@_0BK@IALBJHEB@GetSocketState?5not?5found?6?$AA@ 100664c8     xpcruntime:xpcimports.obj
 0002:000044e8       ??_C@_0L@MEAJHNHB@SocketSend?$AA@ 100664e8     xpcruntime:xpcimports.obj
 0002:000044f8       ??_C@_0BG@EOCMBFJA@SocketSend?5not?5found?6?$AA@ 100664f8     xpcruntime:xpcimports.obj
 0002:00004514       ??_C@_0O@PFPCLEMF@SocketReceive?$AA@ 10066514     xpcruntime:xpcimports.obj
 0002:00004524       ??_C@_0BJ@HIBADDFO@SocketReceive?5not?5found?6?$AA@ 10066524     xpcruntime:xpcimports.obj
 0002:00004544       ??_C@_0BD@OOGFNAIK@CreateServerSocket?$AA@ 10066544     xpcruntime:xpcimports.obj
 0002:0000455c       ??_C@_0BO@GKIJHIPH@CreateServerSocket?5not?5found?6?$AA@ 1006655c     xpcruntime:xpcimports.obj
 0002:00004580       ??_C@_0BB@KGHJGFFO@OpenServerListen?$AA@ 10066580     xpcruntime:xpcimports.obj
 0002:00004594       ??_C@_0BM@NFMMLIO@OpenServerListen?5not?5found?6?$AA@ 10066594     xpcruntime:xpcimports.obj
 0002:000045b8       ??_C@_0BE@BAJLDJAH@ConnectServerSocket?$AA@ 100665b8     xpcruntime:xpcimports.obj
 0002:000045d0       ??_C@_0BP@KJNODIKE@ConnectServerSocket?5not?5found?6?$AA@ 100665d0     xpcruntime:xpcimports.obj
 0002:000045f8       ??_C@_0BC@PLKKJDIM@CloseServerSocket?$AA@ 100665f8     xpcruntime:xpcimports.obj
 0002:00004610       ??_C@_0BN@KEJEPNMB@CloseServerSocket?5not?5found?6?$AA@ 10066610     xpcruntime:xpcimports.obj
 0002:00004634       ??_C@_0BC@IHMNIGFJ@ResetServerSocket?$AA@ 10066634     xpcruntime:xpcimports.obj
 0002:0000464c       ??_C@_0BN@NIOGJLCG@ResetServerSocket?5not?5found?6?$AA@ 1006664c     xpcruntime:xpcimports.obj
 0002:00004670       ??_C@_0BD@MCLPKCPP@CreateClientSocket?$AA@ 10066670     xpcruntime:xpcimports.obj
 0002:00004688       ??_C@_0BO@DILAGPFN@CreateClientSocket?5not?5found?6?$AA@ 10066688     xpcruntime:xpcimports.obj
 0002:000046ac       ??_C@_0BB@DAPKNNLG@BindClientSocket?$AA@ 100666ac     xpcruntime:xpcimports.obj
 0002:000046c0       ??_C@_0BM@LLLMMDFN@BindClientSocket?5not?5found?6?$AA@ 100666c0     xpcruntime:xpcimports.obj
 0002:000046e4       ??_C@_0BE@DMEBELHC@ConnectClientSocket?$AA@ 100666e4     xpcruntime:xpcimports.obj
 0002:000046fc       ??_C@_0BP@PLOHCPAO@ConnectClientSocket?5not?5found?6?$AA@ 100666fc     xpcruntime:xpcimports.obj
 0002:00004724       ??_C@_0BC@NHHAOBPJ@CloseClientSocket?$AA@ 10066724     xpcruntime:xpcimports.obj
 0002:0000473c       ??_C@_0BN@PGKNOKGL@CloseClientSocket?5not?5found?6?$AA@ 1006673c     xpcruntime:xpcimports.obj
 0002:00004760       ??_C@_0BC@KLBHPECM@ResetClientSocket?$AA@ 10066760     xpcruntime:xpcimports.obj
 0002:00004778       ??_C@_0BN@IKNPIMIM@ResetClientSocket?5not?5found?6?$AA@ 10066778     xpcruntime:xpcimports.obj
 0002:0000479c       ??_C@_0M@IJOPFCCE@UDPOpenSend?$AA@ 1006679c     xpcruntime:xpcimports.obj
 0002:000047ac       ??_C@_0BH@CCHBDPG@UDPOpenSend?5not?5found?6?$AA@ 100667ac     xpcruntime:xpcimports.obj
 0002:000047c8       ??_C@_0P@MEPACHPD@UDPOpenReceive?$AA@ 100667c8     xpcruntime:xpcimports.obj
 0002:000047dc       ??_C@_0BK@PFMCPKIO@UDPOpenReceive?5not?5found?6?$AA@ 100667dc     xpcruntime:xpcimports.obj
 0002:000047fc       ??_C@_0BK@BGNLEHGA@UDPAddMulticastMembership?$AA@ 100667fc     xpcruntime:xpcimports.obj
 0002:0000481c       ??_C@_0CF@CAEMAELE@UDPAddMulticastMembership?5not?5fo@ 1006681c     xpcruntime:xpcimports.obj
 0002:00004848       ??_C@_0N@NMMOLOEM@UDPCloseSend?$AA@ 10066848     xpcruntime:xpcimports.obj
 0002:00004858       ??_C@_0BI@ENKCOCDG@UDPCloseSend?5not?5found?6?$AA@ 10066858     xpcruntime:xpcimports.obj
 0002:00004874       ??_C@_0BA@DMJGBBIA@UDPCloseReceive?$AA@ 10066874     xpcruntime:xpcimports.obj
 0002:00004888       ??_C@_0BL@PEBIMLNC@UDPCloseReceive?5not?5found?6?$AA@ 10066888     xpcruntime:xpcimports.obj
 0002:000048a8       ??_C@_0P@NPOCJKPL@registerDFTask?$AA@ 100668a8     xpcruntime:xpcimports.obj
 0002:000048bc       ??_C@_0BK@JHOOFMMI@registerDFTask?5not?5found?6?$AA@ 100668bc     xpcruntime:xpcimports.obj
 0002:000048dc       ??_C@_0BB@ICCLEIPB@deregisterDFTask?$AA@ 100668dc     xpcruntime:xpcimports.obj
 0002:000048f0       ??_C@_0BM@PEOCAIDM@deregisterDFTask?5not?5found?6?$AA@ 100668f0     xpcruntime:xpcimports.obj
 0002:00004914       ??_C@_0O@PHHDMOJH@triggerDFTask?$AA@ 10066914     xpcruntime:xpcimports.obj
 0002:00004924       ??_C@_0BJ@IKKCFBJL@triggerDFTask?5not?5found?6?$AA@ 10066924     xpcruntime:xpcimports.obj
 0002:00004944       ??_C@_0O@IAHKGBOC@waitForDFTask?$AA@ 10066944     xpcruntime:xpcimports.obj
 0002:00004954       ??_C@_0BJ@FHLCNAKE@waitForDFTask?5not?5found?6?$AA@ 10066954     xpcruntime:xpcimports.obj
 0002:00004a1c       __pRawDllMain              10066a1c     LIBCMT:dll_dllmain.obj
 0002:00004a1c       __pDefaultRawDllMain       10066a1c     LIBCMT:dll_dllmain.obj
 0002:00004a20       __Microsoft_CRTProvider    10066a20     libvcruntime:telemetry.obj
 0002:00004a24       ??_C@_11LOCGONAA@?$AA?$AA@ 10066a24     libvcruntime:telemetry.obj
 0002:00004a28       ??_C@_0O@JEOPJOMI@Main?5Invoked?4?$AA@ 10066a28     libvcruntime:telemetry.obj
 0002:00004a38       ??_C@_0P@NEAEIBDO@Main?5Returned?4?$AA@ 10066a38     libvcruntime:telemetry.obj
 0002:00004a60       ??_C@_1BC@DNHGCMLG@?$AAa?$AAd?$AAv?$AAa?$AAp?$AAi?$AA3?$AA2?$AA?$AA@ 10066a60     libvcruntime:winapi_downlevel.obj
 0002:00004a78       ??_C@_1DM@KHCHBNEB@?$AAa?$AAp?$AAi?$AA?9?$AAm?$AAs?$AA?9?$AAw?$AAi?$AAn?$AA?9?$AAc?$AAo?$AAr?$AAe?$AA?9?$AAf?$AAi?$AAb?$AAe?$AAr?$AAs?$AA?9?$AAl?$AA1?$AA?9?$AA1?$AA?9?$AA1?$AA?$AA@ 10066a78     libvcruntime:winapi_downlevel.obj
 0002:00004ac0       ??_C@_1DK@LPPGFMPP@?$AAa?$AAp?$AAi?$AA?9?$AAm?$AAs?$AA?9?$AAw?$AAi?$AAn?$AA?9?$AAc?$AAo?$AAr?$AAe?$AA?9?$AAs?$AAy?$AAn?$AAc?$AAh?$AA?9?$AAl?$AA1?$AA?9?$AA2?$AA?9?$AA0?$AA?$AA@ 10066ac0     libvcruntime:winapi_downlevel.obj
 0002:00004b08       ??_C@_1BC@GDMECMAK@?$AAk?$AAe?$AAr?$AAn?$AAe?$AAl?$AA3?$AA2?$AA?$AA@ 10066b08     libvcruntime:winapi_downlevel.obj
 0002:00004b24       ??_C@_0O@BAMBGLIE@EventRegister?$AA@ 10066b24     libvcruntime:winapi_downlevel.obj
 0002:00004b38       ??_C@_0BE@BJEEGHGK@EventSetInformation?$AA@ 10066b38     libvcruntime:winapi_downlevel.obj
 0002:00004b54       ??_C@_0BA@FAKLIPIC@EventUnregister?$AA@ 10066b54     libvcruntime:winapi_downlevel.obj
 0002:00004b6c       ??_C@_0BD@PKLHJPHD@EventWriteTransfer?$AA@ 10066b6c     libvcruntime:winapi_downlevel.obj
 0002:00004b90       ??_C@_08KNHFBNJ@FlsAlloc?$AA@ 10066b90     libvcruntime:winapi_downlevel.obj
 0002:00004ba8       ??_C@_07PEJMOBNF@FlsFree?$AA@ 10066ba8     libvcruntime:winapi_downlevel.obj
 0002:00004bc0       ??_C@_0M@GDNOONDI@FlsGetValue?$AA@ 10066bc0     libvcruntime:winapi_downlevel.obj
 0002:00004bdc       ??_C@_0M@JCPCPOEF@FlsSetValue?$AA@ 10066bdc     libvcruntime:winapi_downlevel.obj
 0002:00004bf8       ??_C@_0BM@HCFOFFN@InitializeCriticalSectionEx?$AA@ 10066bf8     libvcruntime:winapi_downlevel.obj
 0002:00004e00       ??_C@_08EHJDFFNH@__based?$CI?$AA@ 10066e00     libvcruntime:undname.obj
 0002:00004e0c       ??_C@_07KOLFKCDI@__cdecl?$AA@ 10066e0c     libvcruntime:undname.obj
 0002:00004e18       ??_C@_08GHMPAG@__pascal?$AA@ 10066e18     libvcruntime:undname.obj
 0002:00004e24       ??_C@_09IFJBGAPI@__stdcall?$AA@ 10066e24     libvcruntime:undname.obj
 0002:00004e30       ??_C@_0L@NPHFGOKO@__thiscall?$AA@ 10066e30     libvcruntime:undname.obj
 0002:00004e40       ??_C@_0L@JMKHOMEK@__fastcall?$AA@ 10066e40     libvcruntime:undname.obj
 0002:00004e50       ??_C@_0N@BCKKPABJ@__vectorcall?$AA@ 10066e50     libvcruntime:undname.obj
 0002:00004e60       ??_C@_09HIJEGCPM@__clrcall?$AA@ 10066e60     libvcruntime:undname.obj
 0002:00004e6c       ??_C@_06GHPCKEAG@__eabi?$AA@ 10066e6c     libvcruntime:undname.obj
 0002:00004e74       ??_C@_07JOMMBBKO@__ptr64?$AA@ 10066e74     libvcruntime:undname.obj
 0002:00004e80       ??_C@_0L@PILCLIHE@__restrict?$AA@ 10066e80     libvcruntime:undname.obj
 0002:00004e90       ??_C@_0M@GFIIJFMG@__unaligned?$AA@ 10066e90     libvcruntime:undname.obj
 0002:00004ea0       ??_C@_09DHDLOLLB@restrict?$CI?$AA@ 10066ea0     libvcruntime:undname.obj
 0002:00004eac       ??_C@_04NIHEBCM@?5new?$AA@ 10066eac     libvcruntime:undname.obj
 0002:00004eb4       ??_C@_07FPCDHGMM@?5delete?$AA@ 10066eb4     libvcruntime:undname.obj
 0002:00004ec0       ??_C@_01NEMOKFLO@?$DN?$AA@ 10066ec0     libvcruntime:undname.obj
 0002:00004ec4       ??_C@_02GPIOPFAK@?$DO?$DO?$AA@ 10066ec4     libvcruntime:undname.obj
 0002:00004ec8       ??_C@_02FODMEDOG@?$DM?$DM?$AA@ 10066ec8     libvcruntime:undname.obj
 0002:00004ecc       ??_C@_01DCLJPIOD@?$CB?$AA@ 10066ecc     libvcruntime:undname.obj
 0002:00004ed0       ??_C@_02EGOFBIJA@?$DN?$DN?$AA@ 10066ed0     libvcruntime:undname.obj
 0002:00004ed4       ??_C@_02FDNJECIE@?$CB?$DN?$AA@ 10066ed4     libvcruntime:undname.obj
 0002:00004ed8       ??_C@_02GPECMEKF@?$FL?$FN?$AA@ 10066ed8     libvcruntime:undname.obj
 0002:00004edc       ??_C@_08LHJFAFGD@operator?$AA@ 10066edc     libvcruntime:undname.obj
 0002:00004ee8       ??_C@_02HBOOOICD@?9?$DO?$AA@ 10066ee8     libvcruntime:undname.obj
 0002:00004eec       ??_C@_01NBENCBCI@?$CK?$AA@ 10066eec     libvcruntime:undname.obj
 0002:00004ef0       ??_C@_02ECNGHCIF@?$CL?$CL?$AA@ 10066ef0     libvcruntime:undname.obj
 0002:00004ef4       ??_C@_02BAABKJLB@?9?9?$AA@ 10066ef4     libvcruntime:undname.obj
 0002:00004ef8       ??_C@_01JOAMLHOP@?9?$AA@   10066ef8     libvcruntime:undname.obj
 0002:00004efc       ??_C@_01MIFGBAGJ@?$CL?$AA@ 10066efc     libvcruntime:undname.obj
 0002:00004f00       ??_C@_01HNPIGOCE@?$CG?$AA@ 10066f00     libvcruntime:undname.obj
 0002:00004f04       ??_C@_03MNHNFDLC@?9?$DO?$CK?$AA@ 10066f04     libvcruntime:undname.obj
 0002:00004f08       ??_C@_01KMDKNFGN@?1?$AA@   10066f08     libvcruntime:undname.obj
 0002:00004f0c       ??_C@_01FGNFDNOH@?$CF?$AA@ 10066f0c     libvcruntime:undname.obj
 0002:00004f10       ??_C@_01MNNFJEPP@?$DM?$AA@ 10066f10     libvcruntime:undname.obj
 0002:00004f14       ??_C@_02EHCHHCKH@?$DM?$DN?$AA@ 10066f14     libvcruntime:undname.obj
 0002:00004f18       ??_C@_01PPODPGHN@?$DO?$AA@ 10066f18     libvcruntime:undname.obj
 0002:00004f1c       ??_C@_02EEKDKGMJ@?$DO?$DN?$AA@ 10066f1c     libvcruntime:undname.obj
 0002:00004f20       ??_C@_01IHBHIGKO@?0?$AA@   10066f20     libvcruntime:undname.obj
 0002:00004f24       ??_C@_02HCKGKOFO@?$CI?$CJ?$AA@ 10066f24     libvcruntime:undname.obj
 0002:00004f28       ??_C@_01PJKLJHI@?$HO?$AA@  10066f28     libvcruntime:undname.obj
 0002:00004f2c       ??_C@_01JKBOJNNK@?$FO?$AA@ 10066f2c     libvcruntime:undname.obj
 0002:00004f30       ??_C@_02PPKAJPJL@?$CG?$CG?$AA@ 10066f30     libvcruntime:undname.obj
 0002:00004f34       ??_C@_02NONPIBCD@?$HM?$HM?$AA@ 10066f34     libvcruntime:undname.obj
 0002:00004f38       ??_C@_02FPIMKNGF@?$CK?$DN?$AA@ 10066f38     libvcruntime:undname.obj
 0002:00004f3c       ??_C@_02FOEOMHFC@?$CL?$DN?$AA@ 10066f3c     libvcruntime:undname.obj
 0002:00004f40       ??_C@_02FKMDLLOA@?9?$DN?$AA@ 10066f40     libvcruntime:undname.obj
 0002:00004f44       ??_C@_02FJEHGPIO@?1?$DN?$AA@ 10066f44     libvcruntime:undname.obj
 0002:00004f48       ??_C@_02FENAOKFI@?$CF?$DN?$AA@ 10066f48     libvcruntime:undname.obj
 0002:00004f4c       ??_C@_03IKFCCPFF@?$DO?$DO?$DN?$AA@ 10066f4c     libvcruntime:undname.obj
 0002:00004f50       ??_C@_03CDNPDDLA@?$DM?$DM?$DN?$AA@ 10066f50     libvcruntime:undname.obj
 0002:00004f54       ??_C@_02FGJGFEAB@?$CG?$DN?$AA@ 10066f54     libvcruntime:undname.obj
 0002:00004f58       ??_C@_02DHLNPPGH@?$HM?$DN?$AA@ 10066f58     libvcruntime:undname.obj
 0002:00004f5c       ??_C@_02MHEGNOJ@?$FO?$DN?$AA@ 10066f5c     libvcruntime:undname.obj
 0002:00004f60       ??_C@_09IFPLHPGF@?$GAvftable?8?$AA@ 10066f60     libvcruntime:undname.obj
 0002:00004f6c       ??_C@_09BLBHBJP@?$GAvbtable?8?$AA@ 10066f6c     libvcruntime:undname.obj
 0002:00004f78       ??_C@_07FEEIOKP@?$GAvcall?8?$AA@ 10066f78     libvcruntime:undname.obj
 0002:00004f84       ??_C@_08LLFFHHDJ@?$GAtypeof?8?$AA@ 10066f84     libvcruntime:undname.obj
 0002:00004f90       ??_C@_0BF@KDPPACIK@?$GAlocal?5static?5guard?8?$AA@ 10066f90     libvcruntime:undname.obj
 0002:00004fac       ??_C@_08OBABFOLI@?$GAstring?8?$AA@ 10066fac     libvcruntime:undname.obj
 0002:00004fb8       ??_C@_0BD@JDLKDPAB@?$GAvbase?5destructor?8?$AA@ 10066fb8     libvcruntime:undname.obj
 0002:00004fd0       ??_C@_0BN@DEGPLNFK@?$GAvector?5deleting?5destructor?8?$AA@ 10066fd0     libvcruntime:undname.obj
 0002:00004ff4       ??_C@_0BO@OBMKPJIG@?$GAdefault?5constructor?5closure?8?$AA@ 10066ff4     libvcruntime:undname.obj
 0002:00005018       ??_C@_0BN@IMDCHIKM@?$GAscalar?5deleting?5destructor?8?$AA@ 10067018     libvcruntime:undname.obj
 0002:0000503c       ??_C@_0BO@PFGOCPJJ@?$GAvector?5constructor?5iterator?8?$AA@ 1006703c     libvcruntime:undname.obj
 0002:00005060       ??_C@_0BN@LFPFMEDL@?$GAvector?5destructor?5iterator?8?$AA@ 10067060     libvcruntime:undname.obj
 0002:00005084       ??_C@_0CE@IKBNEHA@?$GAvector?5vbase?5constructor?5iterat@ 10067084     libvcruntime:undname.obj
 0002:000050b0       ??_C@_0BL@NILFHHPC@?$GAvirtual?5displacement?5map?8?$AA@ 100670b0     libvcruntime:undname.obj
 0002:000050d0       ??_C@_0CB@JONCMFFK@?$GAeh?5vector?5constructor?5iterator?8@ 100670d0     libvcruntime:undname.obj
 0002:000050f8       ??_C@_0CA@GCEOPDGL@?$GAeh?5vector?5destructor?5iterator?8?$AA@ 100670f8     libvcruntime:undname.obj
 0002:00005120       ??_C@_0CH@OOJPLCPH@?$GAeh?5vector?5vbase?5constructor?5ite@ 10067120     libvcruntime:undname.obj
 0002:00005150       ??_C@_0BL@LLKPOHJI@?$GAcopy?5constructor?5closure?8?$AA@ 10067150     libvcruntime:undname.obj
 0002:00005170       ??_C@_0BA@KBCDOMBN@?$GAudt?5returning?8?$AA@ 10067170     libvcruntime:undname.obj
 0002:00005184       ??_C@_03KLGMFNMG@?$GAEH?$AA@ 10067184     libvcruntime:undname.obj
 0002:00005188       ??_C@_05KHLCHHI@?$GARTTI?$AA@ 10067188     libvcruntime:undname.obj
 0002:00005190       ??_C@_0BA@KKLDJDLB@?$GAlocal?5vftable?8?$AA@ 10067190     libvcruntime:undname.obj
 0002:000051a4       ??_C@_0CE@IIHCMGGL@?$GAlocal?5vftable?5constructor?5closu@ 100671a4     libvcruntime:undname.obj
 0002:000051d0       ??_C@_06FHBGPFGH@?5new?$FL?$FN?$AA@ 100671d0     libvcruntime:undname.obj
 0002:000051d8       ??_C@_09LBNFPBCA@?5delete?$FL?$FN?$AA@ 100671d8     libvcruntime:undname.obj
 0002:000051e4       ??_C@_0P@HJKNJFNN@?$GAomni?5callsig?8?$AA@ 100671e4     libvcruntime:undname.obj
 0002:000051f8       ??_C@_0BL@CNOONJFP@?$GAplacement?5delete?5closure?8?$AA@ 100671f8     libvcruntime:undname.obj
 0002:00005218       ??_C@_0BN@CKNJLHMB@?$GAplacement?5delete?$FL?$FN?5closure?8?$AA@ 10067218     libvcruntime:undname.obj
 0002:0000523c       ??_C@_0CG@CFDHKGGD@?$GAmanaged?5vector?5constructor?5iter@ 1006723c     libvcruntime:undname.obj
 0002:0000526c       ??_C@_0CF@IMGKMJNO@?$GAmanaged?5vector?5destructor?5itera@ 1006726c     libvcruntime:undname.obj
 0002:00005298       ??_C@_0CG@HLDDJMAG@?$GAeh?5vector?5copy?5constructor?5iter@ 10067298     libvcruntime:undname.obj
 0002:000052c8       ??_C@_0CM@FCBBDIGB@?$GAeh?5vector?5vbase?5copy?5constructo@ 100672c8     libvcruntime:undname.obj
 0002:000052fc       ??_C@_0BL@CLIPGLGB@?$GAdynamic?5initializer?5for?5?8?$AA@ 100672fc     libvcruntime:undname.obj
 0002:0000531c       ??_C@_0CB@PDBIFEP@?$GAdynamic?5atexit?5destructor?5for?5?8@ 1006731c     libvcruntime:undname.obj
 0002:00005344       ??_C@_0CD@CGAJBKEJ@?$GAvector?5copy?5constructor?5iterato@ 10067344     libvcruntime:undname.obj
 0002:00005370       ??_C@_0CJ@GJELGAMM@?$GAvector?5vbase?5copy?5constructor?5i@ 10067370     libvcruntime:undname.obj
 0002:000053a4       ??_C@_0CL@FGIJHLCE@?$GAmanaged?5vector?5copy?5constructor@ 100673a4     libvcruntime:undname.obj
 0002:000053d8       ??_C@_0BM@PMGGMLDN@?$GAlocal?5static?5thread?5guard?8?$AA@ 100673d8     libvcruntime:undname.obj
 0002:000053fc       ??_C@_0N@BDNMDMOL@operator?5?$CC?$CC?5?$AA@ 100673fc     libvcruntime:undname.obj
 0002:0000540c       ??_C@_0BC@DAFEJGAK@?5Type?5Descriptor?8?$AA@ 1006740c     libvcruntime:undname.obj
 0002:00005424       ??_C@_0BM@LDKODKLH@?5Base?5Class?5Descriptor?5at?5?$CI?$AA@ 10067424     libvcruntime:undname.obj
 0002:00005448       ??_C@_0BD@LGICGFMM@?5Base?5Class?5Array?8?$AA@ 10067448     libvcruntime:undname.obj
 0002:00005460       ??_C@_0BN@MECKDCOJ@?5Class?5Hierarchy?5Descriptor?8?$AA@ 10067460     libvcruntime:undname.obj
 0002:00005484       ??_C@_0BK@CFCOFLF@?5Complete?5Object?5Locator?8?$AA@ 10067484     libvcruntime:undname.obj
 0002:000054a4       ??_C@_04HEJADOOB@CV?3?5?$AA@ 100674a4     libvcruntime:undname.obj
 0002:000054ac       ??_C@_02MOLJINC@?3?3?$AA@  100674ac     libvcruntime:undname.obj
 0002:000054b0       ??_C@_0BE@JAEOCHPE@template?9parameter?9?$AA@ 100674b0     libvcruntime:undname.obj
 0002:000054c8       ??_C@_0O@KHGCOMHP@generic?9type?9?$AA@ 100674c8     libvcruntime:undname.obj
 0002:000054d8       ??_C@_01NLNLIGKH@?$GA?$AA@ 100674d8     libvcruntime:undname.obj
 0002:000054dc       ??_C@_01GEODFPGF@?8?$AA@   100674dc     libvcruntime:undname.obj
 0002:000054e0       ??_C@_0BG@JNJLAMPM@?$GAanonymous?5namespace?8?$AA@ 100674e0     libvcruntime:undname.obj
 0002:000054fc       ??_C@_02OHHJMEON@?8?8?$AA@ 100674fc     libvcruntime:undname.obj
 0002:00005500       ??_C@_0BN@IBLMMFAP@?$GAnon?9type?9template?9parameter?$AA@ 10067500     libvcruntime:undname.obj
 0002:00005524       ??_C@_04GKJNKENE@void?$AA@ 10067524     libvcruntime:undname.obj
 0002:0000552c       ??_C@_0BE@EODMJLIF@?$GAtemplate?9parameter?$AA@ 1006752c     libvcruntime:undname.obj
 0002:00005544       ??_C@_03KHICJKCI@?4?4?4?$AA@ 10067544     libvcruntime:undname.obj
 0002:00005548       ??_C@_04HIBGFPH@NULL?$AA@  10067548     libvcruntime:undname.obj
 0002:00005550       ??_C@_02DPKJAMEF@?$CFd?$AA@ 10067550     libvcruntime:undname.obj
 0002:00005554       ??_C@_0BK@IHCCFNEL@?$GAtemplate?9type?9parameter?9?$AA@ 10067554     libvcruntime:undname.obj
 0002:00005574       ??_C@_0BK@OFCNNNKO@?$GAgeneric?9class?9parameter?9?$AA@ 10067574     libvcruntime:undname.obj
 0002:00005594       ??_C@_0BL@NGJBLFIL@?$GAgeneric?9method?9parameter?9?$AA@ 10067594     libvcruntime:undname.obj
 0002:000055b4       ??_C@_03OPGICMGF@?$HN?8?5?$AA@ 100675b4     libvcruntime:undname.obj
 0002:000055b8       ??_C@_02IGFCGPIL@?$HN?8?$AA@ 100675b8     libvcruntime:undname.obj
 0002:000055bc       ??_C@_01CLKCMJKC@?5?$AA@   100675bc     libvcruntime:undname.obj
 0002:000055c0       ??_C@_0N@CBHHHENL@?$GAvtordispex?$HL?$AA@ 100675c0     libvcruntime:undname.obj
 0002:000055d0       ??_C@_0L@GHPFDFH@?$GAvtordisp?$HL?$AA@ 100675d0     libvcruntime:undname.obj
 0002:000055e0       ??_C@_0L@HNGCOGAE@?$GAadjustor?$HL?$AA@ 100675e0     libvcruntime:undname.obj
 0002:000055f0       ??_C@_0CB@KJDOOODE@?$GAlocal?5static?5destructor?5helper?8@ 100675f0     libvcruntime:undname.obj
 0002:00005618       ??_C@_0DB@ILEFOCIJ@?$GAtemplate?5static?5data?5member?5con@ 10067618     libvcruntime:undname.obj
 0002:00005654       ??_C@_0DA@HGFJFBBE@?$GAtemplate?5static?5data?5member?5des@ 10067654     libvcruntime:undname.obj
 0002:00005690       ??_C@_07PGOEDBHP@static?5?$AA@ 10067690     libvcruntime:undname.obj
 0002:0000569c       ??_C@_08NIEOINHE@virtual?5?$AA@ 1006769c     libvcruntime:undname.obj
 0002:000056a8       ??_C@_09LAPHOOG@private?3?5?$AA@ 100676a8     libvcruntime:undname.obj
 0002:000056b4       ??_C@_0M@GAIFPFIP@protected?3?5?$AA@ 100676b4     libvcruntime:undname.obj
 0002:000056c4       ??_C@_08GPDDCMKI@public?3?5?$AA@ 100676c4     libvcruntime:undname.obj
 0002:000056d0       ??_C@_08KJLFOPNE@?$FLthunk?$FN?3?$AA@ 100676d0     libvcruntime:undname.obj
 0002:000056dc       ??_C@_0M@DHNBOJMP@extern?5?$CCC?$CC?5?$AA@ 100676dc     libvcruntime:undname.obj
 0002:000056ec       ??_C@_02KCKGHPCA@?$CJ?5?$AA@ 100676ec     libvcruntime:undname.obj
 0002:000056f0       ??_C@_05CIHEBHNO@char?5?$AA@ 100676f0     libvcruntime:undname.obj
 0002:000056f8       ??_C@_06EHJMALKF@short?5?$AA@ 100676f8     libvcruntime:undname.obj
 0002:00005700       ??_C@_04LAHKHJMA@int?5?$AA@ 10067700     libvcruntime:undname.obj
 0002:00005708       ??_C@_05CJIMAING@long?5?$AA@ 10067708     libvcruntime:undname.obj
 0002:00005710       ??_C@_09EBBEKKIH@unsigned?5?$AA@ 10067710     libvcruntime:undname.obj
 0002:0000571c       ??_C@_05BEFAKPML@void?5?$AA@ 1006771c     libvcruntime:undname.obj
 0002:00005724       ??_C@_08PABEKFH@volatile?$AA@ 10067724     libvcruntime:undname.obj
 0002:00005730       ??_C@_0P@GCOCNKDM@std?3?3nullptr_t?$AA@ 10067730     libvcruntime:undname.obj
 0002:00005744       ??_C@_0L@EGPHHEKN@?$DMellipsis?$DO?$AA@ 10067744     libvcruntime:undname.obj
 0002:00005754       ??_C@_04EENFHACM@?0?4?4?4?$AA@ 10067754     libvcruntime:undname.obj
 0002:0000575c       ??_C@_0M@ELJOJFFH@?0?$DMellipsis?$DO?$AA@ 1006775c     libvcruntime:undname.obj
 0002:0000576c       ??_C@_07HDJPLPEK@?5throw?$CI?$AA@ 1006776c     libvcruntime:undname.obj
 0002:00005778       ??_C@_03PBJBJNON@cpu?$AA@  10067778     libvcruntime:undname.obj
 0002:0000577c       ??_C@_03DCBBJBAA@amp?$AA@  1006777c     libvcruntime:undname.obj
 0002:00005780       ??_C@_02KEGNLNML@?0?5?$AA@ 10067780     libvcruntime:undname.obj
 0002:00005784       ??_C@_04ENMBGAPA@char?$AA@ 10067784     libvcruntime:undname.obj
 0002:0000578c       ??_C@_05BFKKPKCG@short?$AA@ 1006778c     libvcruntime:undname.obj
 0002:00005794       ??_C@_03JBIPMCLC@int?$AA@  10067794     libvcruntime:undname.obj
 0002:00005798       ??_C@_04GOKPGOLB@long?$AA@ 10067798     libvcruntime:undname.obj
 0002:000057a0       ??_C@_04DDKJGDCM@bool?$AA@ 100677a0     libvcruntime:undname.obj
 0002:000057a8       ??_C@_06EBGKOKIG@__int8?$AA@ 100677a8     libvcruntime:undname.obj
 0002:000057b0       ??_C@_07ICFHOGAF@__int16?$AA@ 100677b0     libvcruntime:undname.obj
 0002:000057bc       ??_C@_07OFLPPHGP@__int32?$AA@ 100677bc     libvcruntime:undname.obj
 0002:000057c8       ??_C@_07LFCOJCAC@__int64?$AA@ 100677c8     libvcruntime:undname.obj
 0002:000057d4       ??_C@_08GAHOLHEO@__int128?$AA@ 100677d4     libvcruntime:undname.obj
 0002:000057e0       ??_C@_09EEKGDCPH@?$DMunknown?$DO?$AA@ 100677e0     libvcruntime:undname.obj
 0002:000057ec       ??_C@_08HBIPOFJB@char16_t?$AA@ 100677ec     libvcruntime:undname.obj
 0002:000057f8       ??_C@_08IECNCBKG@char32_t?$AA@ 100677f8     libvcruntime:undname.obj
 0002:00005804       ??_C@_07CLGGIAMF@wchar_t?$AA@ 10067804     libvcruntime:undname.obj
 0002:00005810       ??_C@_06GCICPBLB@__w64?5?$AA@ 10067810     libvcruntime:undname.obj
 0002:00005818       ??_C@_07NFANNNEC@UNKNOWN?$AA@ 10067818     libvcruntime:undname.obj
 0002:00005824       ??_C@_07EDHNAJHC@signed?5?$AA@ 10067824     libvcruntime:undname.obj
 0002:00005830       ??_C@_05BNCCCJPP@const?$AA@ 10067830     libvcruntime:undname.obj
 0002:00005838       ??_C@_09EFNPDFFP@?5volatile?$AA@ 10067838     libvcruntime:undname.obj
 0002:00005844       ??_C@_0P@GCIFDJCJ@?$GAunknown?5ecsu?8?$AA@ 10067844     libvcruntime:undname.obj
 0002:00005858       ??_C@_06MOJHIBMG@union?5?$AA@ 10067858     libvcruntime:undname.obj
 0002:00005860       ??_C@_07DIBCDNGL@struct?5?$AA@ 10067860     libvcruntime:undname.obj
 0002:0000586c       ??_C@_06LJBABKPM@class?5?$AA@ 1006786c     libvcruntime:undname.obj
 0002:00005874       ??_C@_08KOFANOFK@coclass?5?$AA@ 10067874     libvcruntime:undname.obj
 0002:00005880       ??_C@_0N@DLIEFKNA@cointerface?5?$AA@ 10067880     libvcruntime:undname.obj
 0002:00005890       ??_C@_05LJGMCFOG@enum?5?$AA@ 10067890     libvcruntime:undname.obj
 0002:00005898       ??_C@_09GAIEOBLP@volatile?5?$AA@ 10067898     libvcruntime:undname.obj
 0002:000058a4       ??_C@_06LIJLOJAG@const?5?$AA@ 100678a4     libvcruntime:undname.obj
 0002:000058ac       ??_C@_02KJPKDIBN@?$CG?5?$AA@ 100678ac     libvcruntime:undname.obj
 0002:000058b0       ??_C@_03PCKGMOPB@?$CG?$CG?5?$AA@ 100678b0     libvcruntime:undname.obj
 0002:000058b4       ??_C@_0M@EALIELKG@cli?3?3array?$DM?$AA@ 100678b4     libvcruntime:undname.obj
 0002:000058c4       ??_C@_0O@GKABPPIF@cli?3?3pin_ptr?$DM?$AA@ 100678c4     libvcruntime:undname.obj
 0002:000058d4       ??_C@_02GOGNNPBN@?$CJ?$FL?$AA@ 100678d4     libvcruntime:undname.obj
 0002:000058d8       ??_C@_06EEGAIFAK@?$HLflat?$HN?$AA@ 100678d8     libvcruntime:undname.obj
 0002:000058e0       ??_C@_05JIBOFOHK@?$HLfor?5?$AA@ 100678e0     libvcruntime:undname.obj
 0002:000058e8       ??_C@_02MDINNEEG@s?5?$AA@  100678e8     libvcruntime:undname.obj
 0002:000058f0       ??_7DNameNode@@6B@         100678f0     libvcruntime:undname.obj
 0002:00005904       ??_7charNode@@6B@          10067904     libvcruntime:undname.obj
 0002:00005918       ??_7pcharNode@@6B@         10067918     libvcruntime:undname.obj
 0002:0000592c       ??_7pDNameNode@@6B@        1006792c     libvcruntime:undname.obj
 0002:00005940       ??_7DNameStatusNode@@6B@   10067940     libvcruntime:undname.obj
 0002:00005954       ??_7pairNode@@6B@          10067954     libvcruntime:undname.obj
 0002:00005964       ??_C@_04OKOHEJBO@?5?$DP?$DP?5?$AA@ 10067964     libvcruntime:undname.obj
 0002:00005970       _standard_lookup_table     10067970     libucrt:output.obj
 0002:000059e0       _format_validation_lookup_table 100679e0     libucrt:output.obj
 0002:00005a50       ??_C@_06OJHGLDPL@?$CInull?$CJ?$AA@ 10067a50     libucrt:output.obj
 0002:00005a58       ??_C@_1O@CEDCILHN@?$AA?$CI?$AAn?$AAu?$AAl?$AAl?$AA?$CJ?$AA?$AA@ 10067a58     libucrt:output.obj
 0002:00005a68       _RtlNtPathSeperatorString  10067a68     libucrt:exit.obj
 0002:00005a74       ??_C@_13FPGAJAPJ@?$AA?2?$AA?$AA@ 10067a74     libucrt:exit.obj
 0002:00005a78       _RtlDosPathSeperatorsString 10067a78     libucrt:exit.obj
 0002:00005a84       ??_C@_15MNCACJLI@?$AA?2?$AA?1?$AA?$AA@ 10067a84     libucrt:exit.obj
 0002:00005a8c       _RtlAlternateDosPathSeperatorString 10067a8c     libucrt:exit.obj
 0002:00005a98       ??_C@_13CGOKJPIL@?$AA?1?$AA?$AA@ 10067a98     libucrt:exit.obj
 0002:00005a9c       ??_C@_1BI@BGOHAHKC@?$AAm?$AAs?$AAc?$AAo?$AAr?$AAe?$AAe?$AA?4?$AAd?$AAl?$AAl?$AA?$AA@ 10067a9c     libucrt:exit.obj
 0002:00005ab8       ??_C@_0P@MIGLKIOC@CorExitProcess?$AA@ 10067ab8     libucrt:exit.obj
 0002:00005acc       ??_C@_0CF@GOGNBNAK@Microsoft?5Visual?5C?$CL?$CL?5Runtime?5Lib@ 10067acc     libucrt:assert.obj
 0002:00005af8       ??_C@_1EK@MBDPDCGA@?$AAM?$AAi?$AAc?$AAr?$AAo?$AAs?$AAo?$AAf?$AAt?$AA?5?$AAV?$AAi?$AAs?$AAu?$AAa?$AAl?$AA?5?$AAC?$AA?$CL?$AA?$CL?$AA?5?$AAR?$AAu?$AAn?$AAt?$AAi?$AAm?$AAe?$AA?5?$AAL?$AAi?$AAb@ 10067af8     libucrt:assert.obj
 0002:00005b50       ??_C@_0CK@CFPGFGGO@Assertion?5failed?3?5?$CFTs?0?5file?5?$CFTs?0@ 10067b50     libucrt:assert.obj
 0002:00005b88       ??_C@_1FE@LHBLIKM@?$AAA?$AAs?$AAs?$AAe?$AAr?$AAt?$AAi?$AAo?$AAn?$AA?5?$AAf?$AAa?$AAi?$AAl?$AAe?$AAd?$AA?3?$AA?5?$AA?$CF?$AAT?$AAs?$AA?0?$AA?5?$AAf?$AAi?$AAl?$AAe?$AA?5?$AA?$CF?$AAT?$AAs?$AA?0@ 10067b88     libucrt:assert.obj
 0002:00005bec       ??_C@_0BC@LAIDCHCH@Assertion?5failed?$CB?$AA@ 10067bec     libucrt:assert.obj
 0002:00005c04       ??_C@_1CE@OJBNHDMO@?$AAA?$AAs?$AAs?$AAe?$AAr?$AAt?$AAi?$AAo?$AAn?$AA?5?$AAf?$AAa?$AAi?$AAl?$AAe?$AAd?$AA?$CB?$AA?$AA@ 10067c04     libucrt:assert.obj
 0002:00005c30       ??_C@_09KLGCKDOD@Program?3?5?$AA@ 10067c30     libucrt:assert.obj
 0002:00005c3c       ??_C@_1BE@PHKBBGE@?$AAP?$AAr?$AAo?$AAg?$AAr?$AAa?$AAm?$AA?3?$AA?5?$AA?$AA@ 10067c3c     libucrt:assert.obj
 0002:00005c54       ??_C@_06IGPBOHMJ@File?3?5?$AA@ 10067c54     libucrt:assert.obj
 0002:00005c5c       ??_C@_1O@HEMHKNDC@?$AAF?$AAi?$AAl?$AAe?$AA?3?$AA?5?$AA?$AA@ 10067c5c     libucrt:assert.obj
 0002:00005c6c       ??_C@_06FIEBOLOH@Line?3?5?$AA@ 10067c6c     libucrt:assert.obj
 0002:00005c74       ??_C@_1O@KCAFKHJE@?$AAL?$AAi?$AAn?$AAe?$AA?3?$AA?5?$AA?$AA@ 10067c74     libucrt:assert.obj
 0002:00005c84       ??_C@_0N@MEECIJGN@Expression?3?5?$AA@ 10067c84     libucrt:assert.obj
 0002:00005c94       ??_C@_1BK@PEDCIPMA@?$AAE?$AAx?$AAp?$AAr?$AAe?$AAs?$AAs?$AAi?$AAo?$AAn?$AA?3?$AA?5?$AA?$AA@ 10067c94     libucrt:assert.obj
 0002:00005cb8       ??_C@_0HA@OJHAGA@For?5information?5on?5how?5your?5prog@ 10067cb8     libucrt:assert.obj
 0002:00005d40       ??_C@_1OA@EGMLFBHJ@?$AAF?$AAo?$AAr?$AA?5?$AAi?$AAn?$AAf?$AAo?$AAr?$AAm?$AAa?$AAt?$AAi?$AAo?$AAn?$AA?5?$AAo?$AAn?$AA?5?$AAh?$AAo?$AAw?$AA?5?$AAy?$AAo?$AAu?$AAr?$AA?5?$AAp?$AAr?$AAo?$AAg@ 10067d40     libucrt:assert.obj
 0002:00005e4c       ??_C@_0DN@EBBNMLME@?$CIPress?5Retry?5to?5debug?5the?5applic@ 10067e4c     libucrt:assert.obj
 0002:00005e98       ??_C@_1HK@POCJMFGK@?$AA?$CI?$AAP?$AAr?$AAe?$AAs?$AAs?$AA?5?$AAR?$AAe?$AAt?$AAr?$AAy?$AA?5?$AAt?$AAo?$AA?5?$AAd?$AAe?$AAb?$AAu?$AAg?$AA?5?$AAt?$AAh?$AAe?$AA?5?$AAa?$AAp?$AAp?$AAl?$AAi?$AAc@ 10067e98     libucrt:assert.obj
 0002:00005f2c       ??_C@_17LGKOMLJ@?$AA?4?$AA?4?$AA?4?$AA?$AA@ 10067f2c     libucrt:assert.obj
 0002:00005f38       ??_C@_01EEMJAFIK@?6?$AA@   10067f38     libucrt:assert.obj
 0002:00005f3c       ??_C@_13LBAGMAIH@?$AA?6?$AA?$AA@ 10067f3c     libucrt:assert.obj
 0002:00005f40       ??_C@_02PHMGELLB@?6?6?$AA@ 10067f40     libucrt:assert.obj
 0002:00005f44       ??_C@_15IABLJNFO@?$AA?6?$AA?6?$AA?$AA@ 10067f44     libucrt:assert.obj
 0002:00005f4c       ??_C@_0BH@DNAGHKFM@?$DMprogram?5name?5unknown?$DO?$AA@ 10067f4c     libucrt:assert.obj
 0002:00005f68       ??_C@_1CO@EAEJAADC@?$AA?$DM?$AAp?$AAr?$AAo?$AAg?$AAr?$AAa?$AAm?$AA?5?$AAn?$AAa?$AAm?$AAe?$AA?5?$AAu?$AAn?$AAk?$AAn?$AAo?$AAw?$AAn?$AA?$DO?$AA?$AA@ 10067f68     libucrt:assert.obj
 0002:00005fa0       ??_C@_04FJHINJAO@tanh?$AA@ 10067fa0     libucrt:fpexcept.obj
 0002:00005fa8       ??_C@_04FIHNOPOL@asin?$AA@ 10067fa8     libucrt:fpexcept.obj
 0002:00005fb0       ??_C@_04PDIFKINK@acos?$AA@ 10067fb0     libucrt:fpexcept.obj
 0002:00005fb8       ??_C@_04MLLJIGOK@atan?$AA@ 10067fb8     libucrt:fpexcept.obj
 0002:00005fc0       ??_C@_05KNGEOGJB@atan2?$AA@ 10067fc0     libucrt:fpexcept.obj
 0002:00005fc8       ??_C@_04EIAKFFMI@sqrt?$AA@ 10067fc8     libucrt:fpexcept.obj
 0002:00005fd0       ??_C@_03BLEJJJBH@sin?$AA@  10067fd0     libucrt:fpexcept.obj
 0002:00005fd4       ??_C@_03LALBNOCG@cos?$AA@  10067fd4     libucrt:fpexcept.obj
 0002:00005fd8       ??_C@_03IIINPABG@tan?$AA@  10067fd8     libucrt:fpexcept.obj
 0002:00005fdc       ??_C@_04GFPJNGEK@ceil?$AA@ 10067fdc     libucrt:fpexcept.obj
 0002:00005fe4       ??_C@_05PBJFFIGL@floor?$AA@ 10067fe4     libucrt:fpexcept.obj
 0002:00005fec       ??_C@_04ODHECPBC@fabs?$AA@ 10067fec     libucrt:fpexcept.obj
 0002:00005ff4       ??_C@_04EHEDPDJG@modf?$AA@ 10067ff4     libucrt:fpexcept.obj
 0002:00005ffc       ??_C@_05CEJMAHNP@ldexp?$AA@ 10067ffc     libucrt:fpexcept.obj
 0002:00006004       ??_C@_05KBKMEMPO@_cabs?$AA@ 10068004     libucrt:fpexcept.obj
 0002:0000600c       ??_C@_06MEIMCGCF@_hypot?$AA@ 1006800c     libucrt:fpexcept.obj
 0002:00006014       ??_C@_04KEPJIHGP@fmod?$AA@ 10068014     libucrt:fpexcept.obj
 0002:0000601c       ??_C@_05GKKHEGJL@frexp?$AA@ 1006801c     libucrt:fpexcept.obj
 0002:00006024       ??_C@_03MJLDFKDL@_y0?$AA@  10068024     libucrt:fpexcept.obj
 0002:00006028       ??_C@_03NAKIGLHK@_y1?$AA@  10068028     libucrt:fpexcept.obj
 0002:0000602c       ??_C@_03ONILCKOB@_yn?$AA@  1006802c     libucrt:fpexcept.obj
 0002:00006030       ??_C@_05JGDBENOH@_logb?$AA@ 10068030     libucrt:fpexcept.obj
 0002:00006038       ??_C@_0L@KDOEJCKC@_nextafter?$AA@ 10068038     libucrt:fpexcept.obj
 0002:00006160       ??_C@_03KHJOGHMM@exp?$AA@  10068160     libucrt:fpexcept.obj
 0002:00006164       ??_C@_03JGHBODFD@pow?$AA@  10068164     libucrt:fpexcept.obj
 0002:00006168       ??_C@_03MGHMBJCF@log?$AA@  10068168     libucrt:fpexcept.obj
 0002:0000616c       ??_C@_05HGHHAHAP@log10?$AA@ 1006816c     libucrt:fpexcept.obj
 0002:00006174       ??_C@_04COOMCNPB@sinh?$AA@ 10068174     libucrt:fpexcept.obj
 0002:0000617c       ??_C@_04HPJJNFIM@cosh?$AA@ 1006817c     libucrt:fpexcept.obj
 0002:00006188       ___acrt_exception_action_table 10068188     libucrt:exception_filter.obj
 0002:00006234       ___acrt_signal_action_table_count 10068234     libucrt:exception_filter.obj
 0002:00006238       ___acrt_signal_action_table_size 10068238     libucrt:exception_filter.obj
 0002:0000623c       ___acrt_signal_action_first_fpe_index 1006823c     libucrt:exception_filter.obj
 0002:00006240       ___acrt_signal_action_fpe_count 10068240     libucrt:exception_filter.obj
 0002:000062d8       ??_C@_1BG@HHIFPOEK@?$AAm?$AAs?$AAv?$AAc?$AAr?$AAt?$AA?4?$AAd?$AAl?$AAl?$AA?$AA@ 100682d8     libucrt:free_base.obj
 0002:000062f4       __Fenv0                    100682f4     libucrt:atox.obj
 0002:00006510       ??_C@_1EG@CNNIPFIM@?$AAa?$AAp?$AAi?$AA?9?$AAm?$AAs?$AA?9?$AAw?$AAi?$AAn?$AA?9?$AAa?$AAp?$AAp?$AAm?$AAo?$AAd?$AAe?$AAl?$AA?9?$AAr?$AAu?$AAn?$AAt?$AAi?$AAm?$AAe?$AA?9?$AAl?$AA1?$AA?9?$AA1@ 10068510     libucrt:winapi_thunks.obj
 0002:00006568       ??_C@_1EA@JGEFHKEI@?$AAa?$AAp?$AAi?$AA?9?$AAm?$AAs?$AA?9?$AAw?$AAi?$AAn?$AA?9?$AAc?$AAo?$AAr?$AAe?$AA?9?$AAd?$AAa?$AAt?$AAe?$AAt?$AAi?$AAm?$AAe?$AA?9?$AAl?$AA1?$AA?9?$AA1?$AA?9?$AA1?$AA?$AA@ 10068568     libucrt:winapi_thunks.obj
 0002:000065b4       ??_C@_1DI@GCIAAENM@?$AAa?$AAp?$AAi?$AA?9?$AAm?$AAs?$AA?9?$AAw?$AAi?$AAn?$AA?9?$AAc?$AAo?$AAr?$AAe?$AA?9?$AAf?$AAi?$AAl?$AAe?$AA?9?$AAl?$AA2?$AA?9?$AA1?$AA?9?$AA1?$AA?$AA@ 100685b4     libucrt:winapi_thunks.obj
 0002:000065f8       ??_C@_1EI@MPIAOHOC@?$AAa?$AAp?$AAi?$AA?9?$AAm?$AAs?$AA?9?$AAw?$AAi?$AAn?$AA?9?$AAc?$AAo?$AAr?$AAe?$AA?9?$AAl?$AAo?$AAc?$AAa?$AAl?$AAi?$AAz?$AAa?$AAt?$AAi?$AAo?$AAn?$AA?9?$AAl?$AA1?$AA?9@ 100685f8     libucrt:winapi_thunks.obj
 0002:00006650       ??_C@_1FK@FPHCKFIE@?$AAa?$AAp?$AAi?$AA?9?$AAm?$AAs?$AA?9?$AAw?$AAi?$AAn?$AA?9?$AAc?$AAo?$AAr?$AAe?$AA?9?$AAl?$AAo?$AAc?$AAa?$AAl?$AAi?$AAz?$AAa?$AAt?$AAi?$AAo?$AAn?$AA?9?$AAo?$AAb?$AAs@ 10068650     libucrt:winapi_thunks.obj
 0002:000066c0       ??_C@_1EM@DILCGIIO@?$AAa?$AAp?$AAi?$AA?9?$AAm?$AAs?$AA?9?$AAw?$AAi?$AAn?$AA?9?$AAc?$AAo?$AAr?$AAe?$AA?9?$AAp?$AAr?$AAo?$AAc?$AAe?$AAs?$AAs?$AAt?$AAh?$AAr?$AAe?$AAa?$AAd?$AAs?$AA?9?$AAl@ 100686c0     libucrt:winapi_thunks.obj
 0002:0000671c       ??_C@_1DM@LNCGDDPN@?$AAa?$AAp?$AAi?$AA?9?$AAm?$AAs?$AA?9?$AAw?$AAi?$AAn?$AA?9?$AAc?$AAo?$AAr?$AAe?$AA?9?$AAs?$AAt?$AAr?$AAi?$AAn?$AAg?$AA?9?$AAl?$AA1?$AA?9?$AA1?$AA?9?$AA0?$AA?$AA@ 1006871c     libucrt:winapi_thunks.obj
 0002:00006764       ??_C@_1DO@FPAPJEMD@?$AAa?$AAp?$AAi?$AA?9?$AAm?$AAs?$AA?9?$AAw?$AAi?$AAn?$AA?9?$AAc?$AAo?$AAr?$AAe?$AA?9?$AAs?$AAy?$AAs?$AAi?$AAn?$AAf?$AAo?$AA?9?$AAl?$AA1?$AA?9?$AA2?$AA?9?$AA1?$AA?$AA@ 10068764     libucrt:winapi_thunks.obj
 0002:000067b0       ??_C@_1DK@NDHNAHIO@?$AAa?$AAp?$AAi?$AA?9?$AAm?$AAs?$AA?9?$AAw?$AAi?$AAn?$AA?9?$AAc?$AAo?$AAr?$AAe?$AA?9?$AAw?$AAi?$AAn?$AAr?$AAt?$AA?9?$AAl?$AA1?$AA?9?$AA1?$AA?9?$AA0?$AA?$AA@ 100687b0     libucrt:winapi_thunks.obj
 0002:000067f8       ??_C@_1DM@KGHDGBCM@?$AAa?$AAp?$AAi?$AA?9?$AAm?$AAs?$AA?9?$AAw?$AAi?$AAn?$AA?9?$AAc?$AAo?$AAr?$AAe?$AA?9?$AAx?$AAs?$AAt?$AAa?$AAt?$AAe?$AA?9?$AAl?$AA2?$AA?9?$AA1?$AA?9?$AA0?$AA?$AA@ 100687f8     libucrt:winapi_thunks.obj
 0002:00006840       ??_C@_1EO@IJIOEFOH@?$AAa?$AAp?$AAi?$AA?9?$AAm?$AAs?$AA?9?$AAw?$AAi?$AAn?$AA?9?$AAr?$AAt?$AAc?$AAo?$AAr?$AAe?$AA?9?$AAn?$AAt?$AAu?$AAs?$AAe?$AAr?$AA?9?$AAw?$AAi?$AAn?$AAd?$AAo?$AAw?$AA?9@ 10068840     libucrt:winapi_thunks.obj
 0002:000068a0       ??_C@_1FG@HHGEKANL@?$AAa?$AAp?$AAi?$AA?9?$AAm?$AAs?$AA?9?$AAw?$AAi?$AAn?$AA?9?$AAs?$AAe?$AAc?$AAu?$AAr?$AAi?$AAt?$AAy?$AA?9?$AAs?$AAy?$AAs?$AAt?$AAe?$AAm?$AAf?$AAu?$AAn?$AAc?$AAt?$AAi@ 100688a0     libucrt:winapi_thunks.obj
 0002:00006908       ??_C@_1FG@NCKKOLKO@?$AAe?$AAx?$AAt?$AA?9?$AAm?$AAs?$AA?9?$AAw?$AAi?$AAn?$AA?9?$AAk?$AAe?$AAr?$AAn?$AAe?$AAl?$AA3?$AA2?$AA?9?$AAp?$AAa?$AAc?$AAk?$AAa?$AAg?$AAe?$AA?9?$AAc?$AAu?$AAr?$AAr@ 10068908     libucrt:winapi_thunks.obj
 0002:00006970       ??_C@_1EG@DBIOJECG@?$AAe?$AAx?$AAt?$AA?9?$AAm?$AAs?$AA?9?$AAw?$AAi?$AAn?$AA?9?$AAn?$AAt?$AAu?$AAs?$AAe?$AAr?$AA?9?$AAd?$AAi?$AAa?$AAl?$AAo?$AAg?$AAb?$AAo?$AAx?$AA?9?$AAl?$AA1?$AA?9?$AA1@ 10068970     libucrt:winapi_thunks.obj
 0002:000069c8       ??_C@_1EO@FIHMJCLF@?$AAe?$AAx?$AAt?$AA?9?$AAm?$AAs?$AA?9?$AAw?$AAi?$AAn?$AA?9?$AAn?$AAt?$AAu?$AAs?$AAe?$AAr?$AA?9?$AAw?$AAi?$AAn?$AAd?$AAo?$AAw?$AAs?$AAt?$AAa?$AAt?$AAi?$AAo?$AAn?$AA?9@ 100689c8     libucrt:winapi_thunks.obj
 0002:00006a28       ??_C@_1O@BCCLBEOE@?$AAu?$AAs?$AAe?$AAr?$AA3?$AA2?$AA?$AA@ 10068a28     libucrt:winapi_thunks.obj
 0002:00006a3c       ??_C@_0BA@FHFNEAED@AreFileApisANSI?$AA@ 10068a3c     libucrt:winapi_thunks.obj
 0002:00006a5c       ??_C@_0BA@IHGNDAEB@CompareStringEx?$AA@ 10068a5c     libucrt:winapi_thunks.obj
 0002:00006a7c       ??_C@_0BE@LJANKFHF@EnumSystemLocalesEx?$AA@ 10068a7c     libucrt:winapi_thunks.obj
 0002:00006ad0       ??_C@_0BA@HNOPNCHB@GetActiveWindow?$AA@ 10068ad0     libucrt:winapi_thunks.obj
 0002:00006af0       ??_C@_0BE@JOGNEJCI@GetCurrentPackageId?$AA@ 10068af0     libucrt:winapi_thunks.obj
 0002:00006b14       ??_C@_0BA@EPCJIIPD@GetDateFormatEx?$AA@ 10068b14     libucrt:winapi_thunks.obj
 0002:00006b34       ??_C@_0BJ@DIBIJBHA@GetEnabledXStateFeatures?$AA@ 10068b34     libucrt:winapi_thunks.obj
 0002:00006b60       ??_C@_0BN@NEEHBBPO@GetFileInformationByHandleEx?$AA@ 10068b60     libucrt:winapi_thunks.obj
 0002:00006b90       ??_C@_0BD@HHGDFDBJ@GetLastActivePopup?$AA@ 10068b90     libucrt:winapi_thunks.obj
 0002:00006bb4       ??_C@_0BA@ONOKGCMP@GetLocaleInfoEx?$AA@ 10068bb4     libucrt:winapi_thunks.obj
 0002:00006bd4       ??_C@_0BI@DFKBFLJE@GetProcessWindowStation?$AA@ 10068bd4     libucrt:winapi_thunks.obj
 0002:00006bf4       ??_C@_0BP@FPNJPEJC@GetSystemTimePreciseAsFileTime?$AA@ 10068bf4     libucrt:winapi_thunks.obj
 0002:00006c28       ??_C@_0BA@CIJJKCJJ@GetTimeFormatEx?$AA@ 10068c28     libucrt:winapi_thunks.obj
 0002:00006c48       ??_C@_0BJ@PBCCBIPI@GetUserDefaultLocaleName?$AA@ 10068c48     libucrt:winapi_thunks.obj
 0002:00006c74       ??_C@_0BK@DEKFELLI@GetUserObjectInformationW?$AA@ 10068c74     libucrt:winapi_thunks.obj
 0002:00006ca0       ??_C@_0BG@IKLDMBLM@GetXStateFeaturesMask?$AA@ 10068ca0     libucrt:winapi_thunks.obj
 0002:00006cd4       ??_C@_0BC@CELBKLLA@IsValidLocaleName?$AA@ 10068cd4     libucrt:winapi_thunks.obj
 0002:00006cf8       ??_C@_0O@KKBNKAPF@LCMapStringEx?$AA@ 10068cf8     libucrt:winapi_thunks.obj
 0002:00006d14       ??_C@_0BB@CDHDDLLP@LCIDToLocaleName?$AA@ 10068d14     libucrt:winapi_thunks.obj
 0002:00006d34       ??_C@_0BB@HBDEELFH@LocaleNameToLCID?$AA@ 10068d34     libucrt:winapi_thunks.obj
 0002:00006d54       ??_C@_0BE@KINNKFDA@LocateXStateFeature?$AA@ 10068d54     libucrt:winapi_thunks.obj
 0002:00006d78       ??_C@_0M@CHKKJDAI@MessageBoxA?$AA@ 10068d78     libucrt:winapi_thunks.obj
 0002:00006d94       ??_C@_0M@DLDCCGNP@MessageBoxW?$AA@ 10068d94     libucrt:winapi_thunks.obj
 0002:00006da8       ??_C@_0N@PPOMPGGK@RoInitialize?$AA@ 10068da8     libucrt:winapi_thunks.obj
 0002:00006dbc       ??_C@_0P@LLFHBIJD@RoUninitialize?$AA@ 10068dbc     libucrt:winapi_thunks.obj
 0002:00006ddc       ??_C@_0BI@BKLFFAPO@SetThreadStackGuarantee?$AA@ 10068ddc     libucrt:winapi_thunks.obj
 0002:00006e04       ??_C@_0BC@JEAENNKH@SystemFunction036?$AA@ 10068e04     libucrt:winapi_thunks.obj
 0002:00006e1c       ??_C@_03OEIAHPBN@INF?$AA@  10068e1c     libucrt:cvt.obj
 0002:00006e20       ??_C@_03OJHLLCGB@inf?$AA@  10068e20     libucrt:cvt.obj
 0002:00006e24       ??_C@_03LKNCIKJB@NAN?$AA@  10068e24     libucrt:cvt.obj
 0002:00006e28       ??_C@_03LHCJEHON@nan?$AA@  10068e28     libucrt:cvt.obj
 0002:00006e2c       ??_C@_09OFJJIMPC@NAN?$CISNAN?$CJ?$AA@ 10068e2c     libucrt:cvt.obj
 0002:00006e38       ??_C@_09IPFBKMDL@nan?$CIsnan?$CJ?$AA@ 10068e38     libucrt:cvt.obj
 0002:00006e44       ??_C@_08IKHNHAJ@NAN?$CIIND?$CJ?$AA@ 10068e44     libucrt:cvt.obj
 0002:00006e50       ??_C@_08OFCDMILK@nan?$CIind?$CJ?$AA@ 10068e50     libucrt:cvt.obj
 0002:00006e5c       ??_C@_05KLBDPFGC@e?$CL000?$AA@ 10068e5c     libucrt:cvt.obj
 0002:00006e68       ___lc_category             10068e68     libucrt:wsetlocale.obj
 0002:00006ec0       ??_C@_1O@GIFLHMA@?$AAL?$AAC?$AA_?$AAA?$AAL?$AAL?$AA?$AA@ 10068ec0     libucrt:wsetlocale.obj
 0002:00006ed0       ??_C@_1BG@PPOMIBNJ@?$AAL?$AAC?$AA_?$AAC?$AAO?$AAL?$AAL?$AAA?$AAT?$AAE?$AA?$AA@ 10068ed0     libucrt:wsetlocale.obj
 0002:00006eec       ??_C@_1BC@FFJGAPJM@?$AAL?$AAC?$AA_?$AAC?$AAT?$AAY?$AAP?$AAE?$AA?$AA@ 10068eec     libucrt:wsetlocale.obj
 0002:00006f04       ??_C@_1BI@PCKFNJFB@?$AAL?$AAC?$AA_?$AAM?$AAO?$AAN?$AAE?$AAT?$AAA?$AAR?$AAY?$AA?$AA@ 10068f04     libucrt:wsetlocale.obj
 0002:00006f20       ??_C@_1BG@ENIEDKID@?$AAL?$AAC?$AA_?$AAN?$AAU?$AAM?$AAE?$AAR?$AAI?$AAC?$AA?$AA@ 10068f20     libucrt:wsetlocale.obj
 0002:00006f3c       ??_C@_1BA@HAAOMIIG@?$AAL?$AAC?$AA_?$AAT?$AAI?$AAM?$AAE?$AA?$AA@ 10068f3c     libucrt:wsetlocale.obj
 0002:00006fe8       ??_C@_15NBPDDFIP@?$AA?$DN?$AA?$DL?$AA?$AA@ 10068fe8     libucrt:wsetlocale.obj
 0002:00006ff0       ??_C@_13PJJBFPED@?$AA?$DL?$AA?$AA@ 10068ff0     libucrt:wsetlocale.obj
 0002:00006ff4       ??_C@_13NMPKAAJP@?$AA?$DN?$AA?$AA@ 10068ff4     libucrt:wsetlocale.obj
 0002:00006ff8       ??_C@_13FHBKNHDA@?$AAC?$AA?$AA@ 10068ff8     libucrt:wsetlocale.obj
 0002:00006ffc       ??_C@_17MBJJLFDM@?$AA_?$AA?4?$AA?0?$AA?$AA@ 10068ffc     libucrt:wsetlocale.obj
 0002:00007008       ??_C@_13ENNFDPBH@?$AA_?$AA?$AA@ 10069008     libucrt:wsetlocale.obj
 0002:0000700c       ??_C@_13JOFGPIOO@?$AA?4?$AA?$AA@ 1006900c     libucrt:wsetlocale.obj
 0002:00007010       ??_C@_03KOEHGMDN@Sun?$AA@  10069010     libucrt:nlsdata.obj
 0002:00007014       ??_C@_03PDAGKDH@Mon?$AA@   10069014     libucrt:nlsdata.obj
 0002:00007018       ??_C@_03NAGEINEP@Tue?$AA@  10069018     libucrt:nlsdata.obj
 0002:0000701c       ??_C@_03MHOMLAJA@Wed?$AA@  1006901c     libucrt:nlsdata.obj
 0002:00007020       ??_C@_03IOFIKPDN@Thu?$AA@  10069020     libucrt:nlsdata.obj
 0002:00007024       ??_C@_03IDIOELNC@Fri?$AA@  10069024     libucrt:nlsdata.obj
 0002:00007028       ??_C@_03FEFJNEK@Sat?$AA@   10069028     libucrt:nlsdata.obj
 0002:0000702c       ??_C@_06OOPIFAJ@Sunday?$AA@ 1006902c     libucrt:nlsdata.obj
 0002:00007034       ??_C@_06JLEDEDGH@Monday?$AA@ 10069034     libucrt:nlsdata.obj
 0002:0000703c       ??_C@_07BAAGCFCM@Tuesday?$AA@ 1006903c     libucrt:nlsdata.obj
 0002:00007048       ??_C@_09DLIGFAKA@Wednesday?$AA@ 10069048     libucrt:nlsdata.obj
 0002:00007054       ??_C@_08HACCIKIA@Thursday?$AA@ 10069054     libucrt:nlsdata.obj
 0002:00007060       ??_C@_06JECMNKMI@Friday?$AA@ 10069060     libucrt:nlsdata.obj
 0002:00007068       ??_C@_08INBOOONO@Saturday?$AA@ 10069068     libucrt:nlsdata.obj
 0002:00007074       ??_C@_03JIHJHPIE@Jan?$AA@  10069074     libucrt:nlsdata.obj
 0002:00007078       ??_C@_03HJBDCHOM@Feb?$AA@  10069078     libucrt:nlsdata.obj
 0002:0000707c       ??_C@_03ODNJBKGA@Mar?$AA@  1006907c     libucrt:nlsdata.obj
 0002:00007080       ??_C@_03LEOLGMJP@Apr?$AA@  10069080     libucrt:nlsdata.obj
 0002:00007084       ??_C@_03CNMDKL@May?$AA@    10069084     libucrt:nlsdata.obj
 0002:00007088       ??_C@_03IDFGHECI@Jun?$AA@  10069088     libucrt:nlsdata.obj
 0002:0000708c       ??_C@_03LBGABGKK@Jul?$AA@  1006908c     libucrt:nlsdata.obj
 0002:00007090       ??_C@_03IFJFEIGA@Aug?$AA@  10069090     libucrt:nlsdata.obj
 0002:00007094       ??_C@_03GGCAPAJC@Sep?$AA@  10069094     libucrt:nlsdata.obj
 0002:00007098       ??_C@_03BMAOKBAD@Oct?$AA@  10069098     libucrt:nlsdata.obj
 0002:0000709c       ??_C@_03JPJOFNIA@Nov?$AA@  1006909c     libucrt:nlsdata.obj
 0002:000070a0       ??_C@_03MKABNOCG@Dec?$AA@  100690a0     libucrt:nlsdata.obj
 0002:000070a4       ??_C@_07CGJPFGJA@January?$AA@ 100690a4     libucrt:nlsdata.obj
 0002:000070b0       ??_C@_08GNJGEPFN@February?$AA@ 100690b0     libucrt:nlsdata.obj
 0002:000070bc       ??_C@_05HPCKOFNC@March?$AA@ 100690bc     libucrt:nlsdata.obj
 0002:000070c4       ??_C@_05DMJDNLEJ@April?$AA@ 100690c4     libucrt:nlsdata.obj
 0002:000070cc       ??_C@_04CNLMGBGM@June?$AA@ 100690cc     libucrt:nlsdata.obj
 0002:000070d4       ??_C@_04MIEPOIFP@July?$AA@ 100690d4     libucrt:nlsdata.obj
 0002:000070dc       ??_C@_06LBBHFDDG@August?$AA@ 100690dc     libucrt:nlsdata.obj
 0002:000070e4       ??_C@_09BHHEALKD@September?$AA@ 100690e4     libucrt:nlsdata.obj
 0002:000070f0       ??_C@_07JJNFCEND@October?$AA@ 100690f0     libucrt:nlsdata.obj
 0002:000070fc       ??_C@_08HCHEGEOA@November?$AA@ 100690fc     libucrt:nlsdata.obj
 0002:00007108       ??_C@_08EDHMEBNP@December?$AA@ 10069108     libucrt:nlsdata.obj
 0002:00007114       ??_C@_02DEDBPAFC@AM?$AA@   10069114     libucrt:nlsdata.obj
 0002:00007118       ??_C@_02CJNFDJBF@PM?$AA@   10069118     libucrt:nlsdata.obj
 0002:0000711c       ??_C@_08BPBNCDIB@MM?1dd?1yy?$AA@ 1006911c     libucrt:nlsdata.obj
 0002:00007128       ??_C@_0BE@CKGJFCPC@dddd?0?5MMMM?5dd?0?5yyyy?$AA@ 10069128     libucrt:nlsdata.obj
 0002:00007140       ??_C@_08JCCMCCIL@HH?3mm?3ss?$AA@ 10069140     libucrt:nlsdata.obj
 0002:0000714c       ??_C@_17MBGCMIPB@?$AAS?$AAu?$AAn?$AA?$AA@ 1006914c     libucrt:nlsdata.obj
 0002:00007158       ??_C@_17KBOMKBF@?$AAM?$AAo?$AAn?$AA?$AA@ 10069158     libucrt:nlsdata.obj
 0002:00007164       ??_C@_17BMKGEGOJ@?$AAT?$AAu?$AAe?$AA?$AA@ 10069164     libucrt:nlsdata.obj
 0002:00007170       ??_C@_17CJEDCEPE@?$AAW?$AAe?$AAd?$AA?$AA@ 10069170     libucrt:nlsdata.obj
 0002:0000717c       ??_C@_17PDPHAADD@?$AAT?$AAh?$AAu?$AA?$AA@ 1006917c     libucrt:nlsdata.obj
 0002:00007188       ??_C@_17HFOLPPLP@?$AAF?$AAr?$AAi?$AA?$AA@ 10069188     libucrt:nlsdata.obj
 0002:00007194       ??_C@_17GGIBDPIH@?$AAS?$AAa?$AAt?$AA?$AA@ 10069194     libucrt:nlsdata.obj
 0002:000071a0       ??_C@_1O@IHNHDHPB@?$AAS?$AAu?$AAn?$AAd?$AAa?$AAy?$AA?$AA@ 100691a0     libucrt:nlsdata.obj
 0002:000071b0       ??_C@_1O@MMNBFLIA@?$AAM?$AAo?$AAn?$AAd?$AAa?$AAy?$AA?$AA@ 100691b0     libucrt:nlsdata.obj
 0002:000071c0       ??_C@_1BA@ENFBFFEK@?$AAT?$AAu?$AAe?$AAs?$AAd?$AAa?$AAy?$AA?$AA@ 100691c0     libucrt:nlsdata.obj
 0002:000071d4       ??_C@_1BE@EBOGMDOH@?$AAW?$AAe?$AAd?$AAn?$AAe?$AAs?$AAd?$AAa?$AAy?$AA?$AA@ 100691d4     libucrt:nlsdata.obj
 0002:000071ec       ??_C@_1BC@HHMNLIHE@?$AAT?$AAh?$AAu?$AAr?$AAs?$AAd?$AAa?$AAy?$AA?$AA@ 100691ec     libucrt:nlsdata.obj
 0002:00007204       ??_C@_1O@PDICJHAG@?$AAF?$AAr?$AAi?$AAd?$AAa?$AAy?$AA?$AA@ 10069204     libucrt:nlsdata.obj
 0002:00007214       ??_C@_1BC@ENMNNPAJ@?$AAS?$AAa?$AAt?$AAu?$AAr?$AAd?$AAa?$AAy?$AA?$AA@ 10069214     libucrt:nlsdata.obj
 0002:0000722c       ??_C@_17DKNBKCHM@?$AAJ?$AAa?$AAn?$AA?$AA@ 1006922c     libucrt:nlsdata.obj
 0002:00007238       ??_C@_17LMDJEKJN@?$AAF?$AAe?$AAb?$AA?$AA@ 10069238     libucrt:nlsdata.obj
 0002:00007244       ??_C@_17CKNLEDEC@?$AAM?$AAa?$AAr?$AA?$AA@ 10069244     libucrt:nlsdata.obj
 0002:00007250       ??_C@_17LFPOIHDD@?$AAA?$AAp?$AAr?$AA?$AA@ 10069250     libucrt:nlsdata.obj
 0002:0000725c       ??_C@_17PNNKMEED@?$AAM?$AAa?$AAy?$AA?$AA@ 1006925c     libucrt:nlsdata.obj
 0002:00007268       ??_C@_17KCJGOCPB@?$AAJ?$AAu?$AAn?$AA?$AA@ 10069268     libucrt:nlsdata.obj
 0002:00007274       ??_C@_17IJPCKHK@?$AAJ?$AAu?$AAl?$AA?$AA@ 10069274     libucrt:nlsdata.obj
 0002:00007280       ??_C@_17ICPELBCN@?$AAA?$AAu?$AAg?$AA?$AA@ 10069280     libucrt:nlsdata.obj
 0002:0000728c       ??_C@_17HCHCOKMG@?$AAS?$AAe?$AAp?$AA?$AA@ 1006928c     libucrt:nlsdata.obj
 0002:00007298       ??_C@_17FNLKOI@?$AAO?$AAc?$AAt?$AA?$AA@ 10069298     libucrt:nlsdata.obj
 0002:000072a4       ??_C@_17BBDMLCIG@?$AAN?$AAo?$AAv?$AA?$AA@ 100692a4     libucrt:nlsdata.obj
 0002:000072b0       ??_C@_17EGKACKIF@?$AAD?$AAe?$AAc?$AA?$AA@ 100692b0     libucrt:nlsdata.obj
 0002:000072bc       ??_C@_1BA@EFMEIEBA@?$AAJ?$AAa?$AAn?$AAu?$AAa?$AAr?$AAy?$AA?$AA@ 100692bc     libucrt:nlsdata.obj
 0002:000072d0       ??_C@_1BC@JGDDFFAM@?$AAF?$AAe?$AAb?$AAr?$AAu?$AAa?$AAr?$AAy?$AA?$AA@ 100692d0     libucrt:nlsdata.obj
 0002:000072e8       ??_C@_1M@IKEENEDF@?$AAM?$AAa?$AAr?$AAc?$AAh?$AA?$AA@ 100692e8     libucrt:nlsdata.obj
 0002:000072f8       ??_C@_1M@GJNLMHFD@?$AAA?$AAp?$AAr?$AAi?$AAl?$AA?$AA@ 100692f8     libucrt:nlsdata.obj
 0002:00007308       ??_C@_19EPFLPGAP@?$AAJ?$AAu?$AAn?$AAe?$AA?$AA@ 10069308     libucrt:nlsdata.obj
 0002:00007314       ??_C@_19BIFMLPCD@?$AAJ?$AAu?$AAl?$AAy?$AA?$AA@ 10069314     libucrt:nlsdata.obj
 0002:00007320       ??_C@_1O@PAHLKOAC@?$AAA?$AAu?$AAg?$AAu?$AAs?$AAt?$AA?$AA@ 10069320     libucrt:nlsdata.obj
 0002:00007330       ??_C@_1BE@DKAAMBJL@?$AAS?$AAe?$AAp?$AAt?$AAe?$AAm?$AAb?$AAe?$AAr?$AA?$AA@ 10069330     libucrt:nlsdata.obj
 0002:00007348       ??_C@_1BA@EPANDLNG@?$AAO?$AAc?$AAt?$AAo?$AAb?$AAe?$AAr?$AA?$AA@ 10069348     libucrt:nlsdata.obj
 0002:0000735c       ??_C@_1BC@BGLIFPF@?$AAN?$AAo?$AAv?$AAe?$AAm?$AAb?$AAe?$AAr?$AA?$AA@ 1006935c     libucrt:nlsdata.obj
 0002:00007374       ??_C@_1BC@FEMKIFH@?$AAD?$AAe?$AAc?$AAe?$AAm?$AAb?$AAe?$AAr?$AA?$AA@ 10069374     libucrt:nlsdata.obj
 0002:0000738c       ??_C@_15ODEHAHHF@?$AAA?$AAM?$AA?$AA@ 1006938c     libucrt:nlsdata.obj
 0002:00007394       ??_C@_15CLMNNGEL@?$AAP?$AAM?$AA?$AA@ 10069394     libucrt:nlsdata.obj
 0002:0000739c       ??_C@_1BC@IEBCMHCM@?$AAM?$AAM?$AA?1?$AAd?$AAd?$AA?1?$AAy?$AAy?$AA?$AA@ 1006939c     libucrt:nlsdata.obj
 0002:000073b4       ??_C@_1CI@KNAKOEBC@?$AAd?$AAd?$AAd?$AAd?$AA?0?$AA?5?$AAM?$AAM?$AAM?$AAM?$AA?5?$AAd?$AAd?$AA?0?$AA?5?$AAy?$AAy?$AAy?$AAy?$AA?$AA@ 100693b4     libucrt:nlsdata.obj
 0002:000073e4       ??_C@_1BC@GDGBMEMK@?$AAH?$AAH?$AA?3?$AAm?$AAm?$AA?3?$AAs?$AAs?$AA?$AA@ 100693e4     libucrt:nlsdata.obj
 0002:000073fc       ??_C@_1M@BMHNFIME@?$AAe?$AAn?$AA?9?$AAU?$AAS?$AA?$AA@ 100693fc     libucrt:nlsdata.obj
 0002:00007410       ___lc_time_c               10069410     libucrt:nlsdata.obj
 0002:000075bc       ?ccs@?BL@???$__acrt_stdio_parse_mode@D@@YA?AU__acrt_stdio_stream_mode@@QBD@Z@4QBDB 100695bc     libucrt:openfile.obj
 0002:000075c0       ?utf8_encoding@?BL@???$__acrt_stdio_parse_mode@D@@YA?AU__acrt_stdio_stream_mode@@QBD@Z@4QBDB 100695c0     libucrt:openfile.obj
 0002:000075c8       ?utf16_encoding@?BL@???$__acrt_stdio_parse_mode@D@@YA?AU__acrt_stdio_stream_mode@@QBD@Z@4QBDB 100695c8     libucrt:openfile.obj
 0002:000075d4       ?unicode_encoding@?BL@???$__acrt_stdio_parse_mode@D@@YA?AU__acrt_stdio_stream_mode@@QBD@Z@4QBDB 100695d4     libucrt:openfile.obj
 0002:000075dc       ?ccs@?BL@???$__acrt_stdio_parse_mode@_W@@YA?AU__acrt_stdio_stream_mode@@QB_W@Z@4QB_WB 100695dc     libucrt:openfile.obj
 0002:000075e4       ?utf8_encoding@?BL@???$__acrt_stdio_parse_mode@_W@@YA?AU__acrt_stdio_stream_mode@@QB_W@Z@4QB_WB 100695e4     libucrt:openfile.obj
 0002:000075f0       ?utf16_encoding@?BL@???$__acrt_stdio_parse_mode@_W@@YA?AU__acrt_stdio_stream_mode@@QB_W@Z@4QB_WB 100695f0     libucrt:openfile.obj
 0002:00007604       ?unicode_encoding@?BL@???$__acrt_stdio_parse_mode@_W@@YA?AU__acrt_stdio_stream_mode@@QB_W@Z@4QB_WB 10069604     libucrt:openfile.obj
 0002:00007618       __d_inf                    10069618     libucrt:util.obj
 0002:00007628       __d_ind                    10069628     libucrt:util.obj
 0002:00007638       __d_max                    10069638     libucrt:util.obj
 0002:00007648       __d_min                    10069648     libucrt:util.obj
 0002:00007658       __d_mzero                  10069658     libucrt:util.obj
 0002:00007684       ??_C@_1DE@JNGNBFGO@?$AAR?$AAu?$AAn?$AAt?$AAi?$AAm?$AAe?$AA?5?$AAE?$AAr?$AAr?$AAo?$AAr?$AA?$CB?$AA?6?$AA?6?$AAP?$AAr?$AAo?$AAg?$AAr?$AAa?$AAm?$AA?3?$AA?5?$AA?$AA@ 10069684     libucrt:report_runtime_error.obj
 0002:000076d8       ??_C@_1M@HPNHIDJI@?$AAj?$AAa?$AA?9?$AAJ?$AAP?$AA?$AA@ 100696d8     libucrt:mbctype.obj
 0002:000076e8       ??_C@_1M@BIBDDEMK@?$AAz?$AAh?$AA?9?$AAC?$AAN?$AA?$AA@ 100696e8     libucrt:mbctype.obj
 0002:000076f8       ??_C@_1M@JLOOOEGK@?$AAk?$AAo?$AA?9?$AAK?$AAR?$AA?$AA@ 100696f8     libucrt:mbctype.obj
 0002:00007708       ??_C@_1M@CLNBBOPM@?$AAz?$AAh?$AA?9?$AAT?$AAW?$AA?$AA@ 10069708     libucrt:mbctype.obj
 0002:00007718       __wctype                   10069718     libucrt:ctype.obj
 0002:00007988       ___newctype                10069988     libucrt:ctype.obj
 0002:00007d28       ___newclmap                10069d28     libucrt:ctype.obj
 0002:00007ef8       ___newcumap                10069ef8     libucrt:ctype.obj
 0002:00008954       ??_C@_15EMKDOKLE@?$AAa?$AAr?$AA?$AA@ 1006a954     libucrt:lcidtoname_downlevel.obj
 0002:0000895c       ??_C@_15KNPADPLH@?$AAb?$AAg?$AA?$AA@ 1006a95c     libucrt:lcidtoname_downlevel.obj
 0002:00008964       ??_C@_15EDMHLDMO@?$AAc?$AAa?$AA?$AA@ 1006a964     libucrt:lcidtoname_downlevel.obj
 0002:0000896c       ??_C@_1O@BPEAJADD@?$AAz?$AAh?$AA?9?$AAC?$AAH?$AAS?$AA?$AA@ 1006a96c     libucrt:lcidtoname_downlevel.obj
 0002:0000897c       ??_C@_15LJNHCMNK@?$AAc?$AAs?$AA?$AA@ 1006a97c     libucrt:lcidtoname_downlevel.obj
 0002:00008984       ??_C@_15FOMCIDHG@?$AAd?$AAa?$AA?$AA@ 1006a984     libucrt:lcidtoname_downlevel.obj
 0002:0000898c       ??_C@_15NBKABECB@?$AAd?$AAe?$AA?$AA@ 1006a98c     libucrt:lcidtoname_downlevel.obj
 0002:00008994       ??_C@_15GHPEIIAO@?$AAe?$AAl?$AA?$AA@ 1006a994     libucrt:lcidtoname_downlevel.obj
 0002:0000899c       ??_C@_15MNPNEAIF@?$AAe?$AAn?$AA?$AA@ 1006a99c     libucrt:lcidtoname_downlevel.obj
 0002:000089a4       ??_C@_15GPIOMPMH@?$AAe?$AAs?$AA?$AA@ 1006a9a4     libucrt:lcidtoname_downlevel.obj
 0002:000089ac       ??_C@_15NGLOAKJC@?$AAf?$AAi?$AA?$AA@ 1006a9ac     libucrt:lcidtoname_downlevel.obj
 0002:000089b4       ??_C@_15FBKGNKAM@?$AAf?$AAr?$AA?$AA@ 1006a9b4     libucrt:lcidtoname_downlevel.obj
 0002:000089bc       ??_C@_15KGGCNEFK@?$AAh?$AAe?$AA?$AA@ 1006a9bc     libucrt:lcidtoname_downlevel.obj
 0002:000089c4       ??_C@_15PGHLIDMF@?$AAh?$AAu?$AA?$AA@ 1006a9c4     libucrt:lcidtoname_downlevel.obj
 0002:000089cc       ??_C@_15BIEMAPLM@?$AAi?$AAs?$AA?$AA@ 1006a9cc     libucrt:lcidtoname_downlevel.obj
 0002:000089d4       ??_C@_15IFJLDHAF@?$AAi?$AAt?$AA?$AA@ 1006a9d4     libucrt:lcidtoname_downlevel.obj
 0002:000089dc       ??_C@_15GEMIOCAG@?$AAj?$AAa?$AA?$AA@ 1006a9dc     libucrt:lcidtoname_downlevel.obj
 0002:000089e4       ??_C@_15EPELEGJA@?$AAk?$AAo?$AA?$AA@ 1006a9e4     libucrt:lcidtoname_downlevel.obj
 0002:000089ec       ??_C@_15NDDHIMN@?$AAn?$AAl?$AA?$AA@ 1006a9ec     libucrt:lcidtoname_downlevel.obj
 0002:000089f4       ??_C@_15BPIGNHCD@?$AAn?$AAo?$AA?$AA@ 1006a9f4     libucrt:lcidtoname_downlevel.obj
 0002:000089fc       ??_C@_15DEOPBLCG@?$AAp?$AAl?$AA?$AA@ 1006a9fc     libucrt:lcidtoname_downlevel.obj
 0002:00008a04       ??_C@_15KBECGEFG@?$AAp?$AAt?$AA?$AA@ 1006aa04     libucrt:lcidtoname_downlevel.obj
 0002:00008a0c       ??_C@_15GLJCBFMD@?$AAr?$AAo?$AA?$AA@ 1006aa0c     libucrt:lcidtoname_downlevel.obj
 0002:00008a14       ??_C@_15FEDGKCDI@?$AAr?$AAu?$AA?$AA@ 1006aa14     libucrt:lcidtoname_downlevel.obj
 0002:00008a1c       ??_C@_15GLKMLLHM@?$AAh?$AAr?$AA?$AA@ 1006aa1c     libucrt:lcidtoname_downlevel.obj
 0002:00008a24       ??_C@_15CPKMFBDB@?$AAs?$AAk?$AA?$AA@ 1006aa24     libucrt:lcidtoname_downlevel.obj
 0002:00008a2c       ??_C@_15BAAIOGMK@?$AAs?$AAq?$AA?$AA@ 1006aa2c     libucrt:lcidtoname_downlevel.obj
 0002:00008a34       ??_C@_15INNPNOHD@?$AAs?$AAv?$AA?$AA@ 1006aa34     libucrt:lcidtoname_downlevel.obj
 0002:00008a3c       ??_C@_15CABMMOGH@?$AAt?$AAh?$AA?$AA@ 1006aa3c     libucrt:lcidtoname_downlevel.obj
 0002:00008a44       ??_C@_15BPLIHJJM@?$AAt?$AAr?$AA?$AA@ 1006aa44     libucrt:lcidtoname_downlevel.obj
 0002:00008a4c       ??_C@_15NEOEKKDJ@?$AAu?$AAr?$AA?$AA@ 1006aa4c     libucrt:lcidtoname_downlevel.obj
 0002:00008a54       ??_C@_15NFICGAJK@?$AAi?$AAd?$AA?$AA@ 1006aa54     libucrt:lcidtoname_downlevel.obj
 0002:00008a5c       ??_C@_15PJPFLCCM@?$AAu?$AAk?$AA?$AA@ 1006aa5c     libucrt:lcidtoname_downlevel.obj
 0002:00008a64       ??_C@_15HPJPHDM@?$AAb?$AAe?$AA?$AA@ 1006aa64     libucrt:lcidtoname_downlevel.obj
 0002:00008a6c       ??_C@_15LCHLGJII@?$AAs?$AAl?$AA?$AA@ 1006aa6c     libucrt:lcidtoname_downlevel.obj
 0002:00008a74       ??_C@_15PCFJPHHO@?$AAe?$AAt?$AA?$AA@ 1006aa74     libucrt:lcidtoname_downlevel.obj
 0002:00008a7c       ??_C@_15HPFPGODN@?$AAl?$AAv?$AA?$AA@ 1006aa7c     libucrt:lcidtoname_downlevel.obj
 0002:00008a84       ??_C@_15NFFGKGLG@?$AAl?$AAt?$AA?$AA@ 1006aa84     libucrt:lcidtoname_downlevel.obj
 0002:00008a8c       ??_C@_15BDAKCCHN@?$AAf?$AAa?$AA?$AA@ 1006aa8c     libucrt:lcidtoname_downlevel.obj
 0002:00008a94       ??_C@_15NFGIAIAJ@?$AAv?$AAi?$AA?$AA@ 1006aa94     libucrt:lcidtoname_downlevel.obj
 0002:00008a9c       ??_C@_15LMKNDMHN@?$AAh?$AAy?$AA?$AA@ 1006aa9c     libucrt:lcidtoname_downlevel.obj
 0002:00008aa4       ??_C@_15IJBHMCFL@?$AAa?$AAz?$AA?$AA@ 1006aaa4     libucrt:lcidtoname_downlevel.obj
 0002:00008aac       ??_C@_15EKOFJABL@?$AAe?$AAu?$AA?$AA@ 1006aaac     libucrt:lcidtoname_downlevel.obj
 0002:00008ab4       ??_C@_15BGHADCNK@?$AAm?$AAk?$AA?$AA@ 1006aab4     libucrt:lcidtoname_downlevel.obj
 0002:00008abc       ??_C@_15JDNICKHM@?$AAa?$AAf?$AA?$AA@ 1006aabc     libucrt:lcidtoname_downlevel.obj
 0002:00008ac4       ??_C@_15KPJEDBKD@?$AAk?$AAa?$AA?$AA@ 1006aac4     libucrt:lcidtoname_downlevel.obj
 0002:00008acc       ??_C@_15PDNFFFEO@?$AAf?$AAo?$AA?$AA@ 1006aacc     libucrt:lcidtoname_downlevel.obj
 0002:00008ad4       ??_C@_15OMLEGLOC@?$AAh?$AAi?$AA?$AA@ 1006aad4     libucrt:lcidtoname_downlevel.obj
 0002:00008adc       ??_C@_15IDNNENKK@?$AAm?$AAs?$AA?$AA@ 1006aadc     libucrt:lcidtoname_downlevel.obj
 0002:00008ae4       ??_C@_15MACJNBMH@?$AAk?$AAk?$AA?$AA@ 1006aae4     libucrt:lcidtoname_downlevel.obj
 0002:00008aec       ??_C@_15DKDJEOND@?$AAk?$AAy?$AA?$AA@ 1006aaec     libucrt:lcidtoname_downlevel.obj
 0002:00008af4       ??_C@_15DFGDLJBG@?$AAs?$AAw?$AA?$AA@ 1006aaf4     libucrt:lcidtoname_downlevel.obj
 0002:00008afc       ??_C@_15BBFAICNG@?$AAu?$AAz?$AA?$AA@ 1006aafc     libucrt:lcidtoname_downlevel.obj
 0002:00008b04       ??_C@_15DKNDCGEA@?$AAt?$AAt?$AA?$AA@ 1006ab04     libucrt:lcidtoname_downlevel.obj
 0002:00008b0c       ??_C@_15MGIFMDPL@?$AAp?$AAa?$AA?$AA@ 1006ab0c     libucrt:lcidtoname_downlevel.obj
 0002:00008b14       ??_C@_15HCNDBBA@?$AAg?$AAu?$AA?$AA@ 1006ab14     libucrt:lcidtoname_downlevel.obj
 0002:00008b1c       ??_C@_15FNBEIBON@?$AAt?$AAa?$AA?$AA@ 1006ab1c     libucrt:lcidtoname_downlevel.obj
 0002:00008b24       ??_C@_15NCHGBGLK@?$AAt?$AAe?$AA?$AA@ 1006ab24     libucrt:lcidtoname_downlevel.obj
 0002:00008b2c       ??_C@_15PHPHCBPF@?$AAk?$AAn?$AA?$AA@ 1006ab2c     libucrt:lcidtoname_downlevel.obj
 0002:00008b34       ??_C@_15DLGBCKMP@?$AAm?$AAr?$AA?$AA@ 1006ab34     libucrt:lcidtoname_downlevel.obj
 0002:00008b3c       ??_C@_15EABBLBFF@?$AAs?$AAa?$AA?$AA@ 1006ab3c     libucrt:lcidtoname_downlevel.obj
 0002:00008b44       ??_C@_15CBKOMCOI@?$AAm?$AAn?$AA?$AA@ 1006ab44     libucrt:lcidtoname_downlevel.obj
 0002:00008b4c       ??_C@_15CKDMCJAF@?$AAg?$AAl?$AA?$AA@ 1006ab4c     libucrt:lcidtoname_downlevel.obj
 0002:00008b54       ??_C@_17CNJFBPG@?$AAk?$AAo?$AAk?$AA?$AA@ 1006ab54     libucrt:lcidtoname_downlevel.obj
 0002:00008b60       ??_C@_17FFBJICPL@?$AAs?$AAy?$AAr?$AA?$AA@ 1006ab60     libucrt:lcidtoname_downlevel.obj
 0002:00008b6c       ??_C@_17KPNDCPAF@?$AAd?$AAi?$AAv?$AA?$AA@ 1006ab6c     libucrt:lcidtoname_downlevel.obj
 0002:00008b78       ??_C@_1M@OKAHONE@?$AAa?$AAr?$AA?9?$AAS?$AAA?$AA?$AA@ 1006ab78     libucrt:lcidtoname_downlevel.obj
 0002:00008b88       ??_C@_1M@FFFIGIGK@?$AAb?$AAg?$AA?9?$AAB?$AAG?$AA?$AA@ 1006ab88     libucrt:lcidtoname_downlevel.obj
 0002:00008b98       ??_C@_1M@BJNKEDC@?$AAc?$AAa?$AA?9?$AAE?$AAS?$AA?$AA@ 1006ab98     libucrt:lcidtoname_downlevel.obj
 0002:00008ba8       ??_C@_1M@IJJHFJHA@?$AAc?$AAs?$AA?9?$AAC?$AAZ?$AA?$AA@ 1006aba8     libucrt:lcidtoname_downlevel.obj
 0002:00008bb8       ??_C@_1M@CLPEOBGI@?$AAd?$AAa?$AA?9?$AAD?$AAK?$AA?$AA@ 1006abb8     libucrt:lcidtoname_downlevel.obj
 0002:00008bc8       ??_C@_1M@MCMADGCB@?$AAd?$AAe?$AA?9?$AAD?$AAE?$AA?$AA@ 1006abc8     libucrt:lcidtoname_downlevel.obj
 0002:00008bd8       ??_C@_1M@OOCKEMAM@?$AAe?$AAl?$AA?9?$AAG?$AAR?$AA?$AA@ 1006abd8     libucrt:lcidtoname_downlevel.obj
 0002:00008be8       ??_C@_1M@DDNJFGID@?$AAf?$AAi?$AA?9?$AAF?$AAI?$AA?$AA@ 1006abe8     libucrt:lcidtoname_downlevel.obj
 0002:00008bf8       ??_C@_1M@GLIPPMAC@?$AAf?$AAr?$AA?9?$AAF?$AAR?$AA?$AA@ 1006abf8     libucrt:lcidtoname_downlevel.obj
 0002:00008c08       ??_C@_1M@GFMCHPE@?$AAh?$AAe?$AA?9?$AAI?$AAL?$AA?$AA@ 1006ac08     libucrt:lcidtoname_downlevel.obj
 0002:00008c18       ??_C@_1M@MHLPGNKM@?$AAh?$AAu?$AA?9?$AAH?$AAU?$AA?$AA@ 1006ac18     libucrt:lcidtoname_downlevel.obj
 0002:00008c28       ??_C@_1M@LPDDNNPN@?$AAi?$AAs?$AA?9?$AAI?$AAS?$AA?$AA@ 1006ac28     libucrt:lcidtoname_downlevel.obj
 0002:00008c38       ??_C@_1M@MADIPODN@?$AAi?$AAt?$AA?9?$AAI?$AAT?$AA?$AA@ 1006ac38     libucrt:lcidtoname_downlevel.obj
 0002:00008c48       ??_C@_1M@IHBJJGG@?$AAn?$AAl?$AA?9?$AAN?$AAL?$AA?$AA@ 1006ac48     libucrt:lcidtoname_downlevel.obj
 0002:00008c58       ??_C@_1M@EANAGDL@?$AAn?$AAb?$AA?9?$AAN?$AAO?$AA?$AA@ 1006ac58     libucrt:lcidtoname_downlevel.obj
 0002:00008c68       ??_C@_1M@NEIEMEGP@?$AAp?$AAl?$AA?9?$AAP?$AAL?$AA?$AA@ 1006ac68     libucrt:lcidtoname_downlevel.obj
 0002:00008c78       ??_C@_1M@BOCFIGEP@?$AAp?$AAt?$AA?9?$AAB?$AAR?$AA?$AA@ 1006ac78     libucrt:lcidtoname_downlevel.obj
 0002:00008c88       ??_C@_1M@IMPFOPBG@?$AAr?$AAo?$AA?9?$AAR?$AAO?$AA?$AA@ 1006ac88     libucrt:lcidtoname_downlevel.obj
 0002:00008c98       ??_C@_1M@IDNNEJMM@?$AAr?$AAu?$AA?9?$AAR?$AAU?$AA?$AA@ 1006ac98     libucrt:lcidtoname_downlevel.obj
 0002:00008ca8       ??_C@_1M@LILEEOGM@?$AAh?$AAr?$AA?9?$AAH?$AAR?$AA?$AA@ 1006aca8     libucrt:lcidtoname_downlevel.obj
 0002:00008cb8       ??_C@_1M@FKIFEHPB@?$AAs?$AAk?$AA?9?$AAS?$AAK?$AA?$AA@ 1006acb8     libucrt:lcidtoname_downlevel.obj
 0002:00008cc8       ??_C@_1M@LJMAMNPJ@?$AAs?$AAq?$AA?9?$AAA?$AAL?$AA?$AA@ 1006acc8     libucrt:lcidtoname_downlevel.obj
 0002:00008cd8       ??_C@_1M@GIAKDKJK@?$AAs?$AAv?$AA?9?$AAS?$AAE?$AA?$AA@ 1006acd8     libucrt:lcidtoname_downlevel.obj
 0002:00008ce8       ??_C@_1M@MKJKIKCL@?$AAt?$AAh?$AA?9?$AAT?$AAH?$AA?$AA@ 1006ace8     libucrt:lcidtoname_downlevel.obj
 0002:00008cf8       ??_C@_1M@MFLCCMPB@?$AAt?$AAr?$AA?9?$AAT?$AAR?$AA?$AA@ 1006acf8     libucrt:lcidtoname_downlevel.obj
 0002:00008d08       ??_C@_1M@OIJHDKJN@?$AAu?$AAr?$AA?9?$AAP?$AAK?$AA?$AA@ 1006ad08     libucrt:lcidtoname_downlevel.obj
 0002:00008d18       ??_C@_1M@LHIPCIEK@?$AAi?$AAd?$AA?9?$AAI?$AAD?$AA?$AA@ 1006ad18     libucrt:lcidtoname_downlevel.obj
 0002:00008d28       ??_C@_1M@MFMOBGI@?$AAu?$AAk?$AA?9?$AAU?$AAA?$AA?$AA@ 1006ad28     libucrt:lcidtoname_downlevel.obj
 0002:00008d38       ??_C@_1M@OBGLJIPL@?$AAb?$AAe?$AA?9?$AAB?$AAY?$AA?$AA@ 1006ad38     libucrt:lcidtoname_downlevel.obj
 0002:00008d48       ??_C@_1M@BCFAJEAD@?$AAs?$AAl?$AA?9?$AAS?$AAI?$AA?$AA@ 1006ad48     libucrt:lcidtoname_downlevel.obj
 0002:00008d58       ??_C@_1M@FKFFEDDN@?$AAe?$AAt?$AA?9?$AAE?$AAE?$AA?$AA@ 1006ad58     libucrt:lcidtoname_downlevel.obj
 0002:00008d68       ??_C@_1M@KGKKAACI@?$AAl?$AAv?$AA?9?$AAL?$AAV?$AA?$AA@ 1006ad68     libucrt:lcidtoname_downlevel.obj
 0002:00008d78       ??_C@_1M@IFGBIJO@?$AAl?$AAt?$AA?9?$AAL?$AAT?$AA?$AA@ 1006ad78     libucrt:lcidtoname_downlevel.obj
 0002:00008d88       ??_C@_1M@FGEAHEDM@?$AAf?$AAa?$AA?9?$AAI?$AAR?$AA?$AA@ 1006ad88     libucrt:lcidtoname_downlevel.obj
 0002:00008d98       ??_C@_1M@KBMAIBFN@?$AAv?$AAi?$AA?9?$AAV?$AAN?$AA?$AA@ 1006ad98     libucrt:lcidtoname_downlevel.obj
 0002:00008da8       ??_C@_1M@GPCBKDJK@?$AAh?$AAy?$AA?9?$AAA?$AAM?$AA?$AA@ 1006ada8     libucrt:lcidtoname_downlevel.obj
 0002:00008db8       ??_C@_1BG@BECMDDJB@?$AAa?$AAz?$AA?9?$AAA?$AAZ?$AA?9?$AAL?$AAa?$AAt?$AAn?$AA?$AA@ 1006adb8     libucrt:lcidtoname_downlevel.obj
 0002:00008dd4       ??_C@_1M@MAOFCAEA@?$AAe?$AAu?$AA?9?$AAE?$AAS?$AA?$AA@ 1006add4     libucrt:lcidtoname_downlevel.obj
 0002:00008de4       ??_C@_1M@IGHABKPI@?$AAm?$AAk?$AA?9?$AAM?$AAK?$AA?$AA@ 1006ade4     libucrt:lcidtoname_downlevel.obj
 0002:00008df4       ??_C@_1M@IAIGNEJG@?$AAt?$AAn?$AA?9?$AAZ?$AAA?$AA?$AA@ 1006adf4     libucrt:lcidtoname_downlevel.obj
 0002:00008e04       ??_C@_1M@IIJCOJFA@?$AAx?$AAh?$AA?9?$AAZ?$AAA?$AA?$AA@ 1006ae04     libucrt:lcidtoname_downlevel.obj
 0002:00008e14       ??_C@_1M@LGPJHNJH@?$AAz?$AAu?$AA?9?$AAZ?$AAA?$AA?$AA@ 1006ae14     libucrt:lcidtoname_downlevel.obj
 0002:00008e24       ??_C@_1M@HOKAOIO@?$AAa?$AAf?$AA?9?$AAZ?$AAA?$AA?$AA@ 1006ae24     libucrt:lcidtoname_downlevel.obj
 0002:00008e34       ??_C@_1M@DPCLHLIE@?$AAk?$AAa?$AA?9?$AAG?$AAE?$AA?$AA@ 1006ae34     libucrt:lcidtoname_downlevel.obj
 0002:00008e44       ??_C@_1M@BLKMHJBI@?$AAf?$AAo?$AA?9?$AAF?$AAO?$AA?$AA@ 1006ae44     libucrt:lcidtoname_downlevel.obj
 0002:00008e54       ??_C@_1M@LGGJAPPB@?$AAh?$AAi?$AA?9?$AAI?$AAN?$AA?$AA@ 1006ae54     libucrt:lcidtoname_downlevel.obj
 0002:00008e64       ??_C@_1M@FIKPIHFE@?$AAm?$AAt?$AA?9?$AAM?$AAT?$AA?$AA@ 1006ae64     libucrt:lcidtoname_downlevel.obj
 0002:00008e74       ??_C@_1M@HEGGPBFA@?$AAs?$AAe?$AA?9?$AAN?$AAO?$AA?$AA@ 1006ae74     libucrt:lcidtoname_downlevel.obj
 0002:00008e84       ??_C@_1M@EIBJEEPA@?$AAm?$AAs?$AA?9?$AAM?$AAY?$AA?$AA@ 1006ae84     libucrt:lcidtoname_downlevel.obj
 0002:00008e94       ??_C@_1M@FHLBGMPP@?$AAk?$AAk?$AA?9?$AAK?$AAZ?$AA?$AA@ 1006ae94     libucrt:lcidtoname_downlevel.obj
 0002:00008ea4       ??_C@_1M@NGJJLCGI@?$AAk?$AAy?$AA?9?$AAK?$AAG?$AA?$AA@ 1006aea4     libucrt:lcidtoname_downlevel.obj
 0002:00008eb4       ??_C@_1M@GIENNBFC@?$AAs?$AAw?$AA?9?$AAK?$AAE?$AA?$AA@ 1006aeb4     libucrt:lcidtoname_downlevel.obj
 0002:00008ec4       ??_C@_1BG@NDGMJIMJ@?$AAu?$AAz?$AA?9?$AAU?$AAZ?$AA?9?$AAL?$AAa?$AAt?$AAn?$AA?$AA@ 1006aec4     libucrt:lcidtoname_downlevel.obj
 0002:00008ee0       ??_C@_1M@IDCCIHBC@?$AAt?$AAt?$AA?9?$AAR?$AAU?$AA?$AA@ 1006aee0     libucrt:lcidtoname_downlevel.obj
 0002:00008ef0       ??_C@_1M@LOICPMOJ@?$AAb?$AAn?$AA?9?$AAI?$AAN?$AA?$AA@ 1006aef0     libucrt:lcidtoname_downlevel.obj
 0002:00008f00       ??_C@_1M@KPKKNEAH@?$AAp?$AAa?$AA?9?$AAI?$AAN?$AA?$AA@ 1006af00     libucrt:lcidtoname_downlevel.obj
 0002:00008f10       ??_C@_1M@PJGPPBOG@?$AAg?$AAu?$AA?9?$AAI?$AAN?$AA?$AA@ 1006af10     libucrt:lcidtoname_downlevel.obj
 0002:00008f20       ??_C@_1M@KMKMOPHI@?$AAt?$AAa?$AA?9?$AAI?$AAN?$AA?$AA@ 1006af20     libucrt:lcidtoname_downlevel.obj
 0002:00008f30       ??_C@_1M@KFEHEPAC@?$AAt?$AAe?$AA?9?$AAI?$AAN?$AA?$AA@ 1006af30     libucrt:lcidtoname_downlevel.obj
 0002:00008f40       ??_C@_1M@CDCLMGHI@?$AAk?$AAn?$AA?9?$AAI?$AAN?$AA?$AA@ 1006af40     libucrt:lcidtoname_downlevel.obj
 0002:00008f50       ??_C@_1M@MIODLDKF@?$AAm?$AAl?$AA?9?$AAI?$AAN?$AA?$AA@ 1006af50     libucrt:lcidtoname_downlevel.obj
 0002:00008f60       ??_C@_1M@PBIEACPO@?$AAm?$AAr?$AA?9?$AAI?$AAN?$AA?$AA@ 1006af60     libucrt:lcidtoname_downlevel.obj
 0002:00008f70       ??_C@_1M@NIDEAGPH@?$AAs?$AAa?$AA?9?$AAI?$AAN?$AA?$AA@ 1006af70     libucrt:lcidtoname_downlevel.obj
 0002:00008f80       ??_C@_1M@FHIHCBIO@?$AAm?$AAn?$AA?9?$AAM?$AAN?$AA?$AA@ 1006af80     libucrt:lcidtoname_downlevel.obj
 0002:00008f90       ??_C@_1M@JAIJPENP@?$AAc?$AAy?$AA?9?$AAG?$AAB?$AA?$AA@ 1006af90     libucrt:lcidtoname_downlevel.obj
 0002:00008fa0       ??_C@_1M@PHGFBEPN@?$AAg?$AAl?$AA?9?$AAE?$AAS?$AA?$AA@ 1006afa0     libucrt:lcidtoname_downlevel.obj
 0002:00008fb0       ??_C@_1O@KPIPDNCP@?$AAk?$AAo?$AAk?$AA?9?$AAI?$AAN?$AA?$AA@ 1006afb0     libucrt:lcidtoname_downlevel.obj
 0002:00008fc0       ??_C@_1O@KNHJLDJA@?$AAs?$AAy?$AAr?$AA?9?$AAS?$AAY?$AA?$AA@ 1006afc0     libucrt:lcidtoname_downlevel.obj
 0002:00008fd0       ??_C@_1O@MKEKBLAH@?$AAd?$AAi?$AAv?$AA?9?$AAM?$AAV?$AA?$AA@ 1006afd0     libucrt:lcidtoname_downlevel.obj
 0002:00008fe0       ??_C@_1O@OHDCKDDF@?$AAq?$AAu?$AAz?$AA?9?$AAB?$AAO?$AA?$AA@ 1006afe0     libucrt:lcidtoname_downlevel.obj
 0002:00008ff0       ??_C@_1M@LEPJNLFD@?$AAn?$AAs?$AA?9?$AAZ?$AAA?$AA?$AA@ 1006aff0     libucrt:lcidtoname_downlevel.obj
 0002:00009000       ??_C@_1M@OMLEIIJB@?$AAm?$AAi?$AA?9?$AAN?$AAZ?$AA?$AA@ 1006b000     libucrt:lcidtoname_downlevel.obj
 0002:00009010       ??_C@_1M@PMPEAILG@?$AAa?$AAr?$AA?9?$AAI?$AAQ?$AA?$AA@ 1006b010     libucrt:lcidtoname_downlevel.obj
 0002:00009020       ??_C@_1M@CNKPNOEE@?$AAd?$AAe?$AA?9?$AAC?$AAH?$AA?$AA@ 1006b020     libucrt:lcidtoname_downlevel.obj
 0002:00009030       ??_C@_1M@LKMGMLKO@?$AAe?$AAn?$AA?9?$AAG?$AAB?$AA?$AA@ 1006b030     libucrt:lcidtoname_downlevel.obj
 0002:00009040       ??_C@_1M@PGKJFFGL@?$AAe?$AAs?$AA?9?$AAM?$AAX?$AA?$AA@ 1006b040     libucrt:lcidtoname_downlevel.obj
 0002:00009050       ??_C@_1M@DNNANBDC@?$AAf?$AAr?$AA?9?$AAB?$AAE?$AA?$AA@ 1006b050     libucrt:lcidtoname_downlevel.obj
 0002:00009060       ??_C@_1M@HLGMDFHM@?$AAi?$AAt?$AA?9?$AAC?$AAH?$AA?$AA@ 1006b060     libucrt:lcidtoname_downlevel.obj
 0002:00009070       ??_C@_1M@CLLBGJH@?$AAn?$AAl?$AA?9?$AAB?$AAE?$AA?$AA@ 1006b070     libucrt:lcidtoname_downlevel.obj
 0002:00009080       ??_C@_1M@BODBOGLF@?$AAn?$AAn?$AA?9?$AAN?$AAO?$AA?$AA@ 1006b080     libucrt:lcidtoname_downlevel.obj
 0002:00009090       ??_C@_1M@HFFAHKAD@?$AAp?$AAt?$AA?9?$AAP?$AAT?$AA?$AA@ 1006b090     libucrt:lcidtoname_downlevel.obj
 0002:000090a0       ??_C@_1BG@LNOAKHIE@?$AAs?$AAr?$AA?9?$AAS?$AAP?$AA?9?$AAL?$AAa?$AAt?$AAn?$AA?$AA@ 1006b0a0     libucrt:lcidtoname_downlevel.obj
 0002:000090bc       ??_C@_1M@HBMHBGAK@?$AAs?$AAv?$AA?9?$AAF?$AAI?$AA?$AA@ 1006b0bc     libucrt:lcidtoname_downlevel.obj
 0002:000090cc       ??_C@_1BG@DGCJGJBE@?$AAa?$AAz?$AA?9?$AAA?$AAZ?$AA?9?$AAC?$AAy?$AAr?$AAl?$AA?$AA@ 1006b0cc     libucrt:lcidtoname_downlevel.obj
 0002:000090e8       ??_C@_1M@KEJDAAHB@?$AAs?$AAe?$AA?9?$AAS?$AAE?$AA?$AA@ 1006b0e8     libucrt:lcidtoname_downlevel.obj
 0002:000090f8       ??_C@_1M@HEIBJJAD@?$AAm?$AAs?$AA?9?$AAB?$AAN?$AA?$AA@ 1006b0f8     libucrt:lcidtoname_downlevel.obj
 0002:00009108       ??_C@_1BG@PBGJMCEM@?$AAu?$AAz?$AA?9?$AAU?$AAZ?$AA?9?$AAC?$AAy?$AAr?$AAl?$AA?$AA@ 1006b108     libucrt:lcidtoname_downlevel.obj
 0002:00009124       ??_C@_1O@LAOBCMDF@?$AAq?$AAu?$AAz?$AA?9?$AAE?$AAC?$AA?$AA@ 1006b124     libucrt:lcidtoname_downlevel.obj
 0002:00009134       ??_C@_1M@POEEMAIO@?$AAa?$AAr?$AA?9?$AAE?$AAG?$AA?$AA@ 1006b134     libucrt:lcidtoname_downlevel.obj
 0002:00009144       ??_C@_1M@EFAKDEDL@?$AAz?$AAh?$AA?9?$AAH?$AAK?$AA?$AA@ 1006b144     libucrt:lcidtoname_downlevel.obj
 0002:00009154       ??_C@_1M@HKKIJHGI@?$AAd?$AAe?$AA?9?$AAA?$AAT?$AA?$AA@ 1006b154     libucrt:lcidtoname_downlevel.obj
 0002:00009164       ??_C@_1M@KBFBEHJF@?$AAe?$AAn?$AA?9?$AAA?$AAU?$AA?$AA@ 1006b164     libucrt:lcidtoname_downlevel.obj
 0002:00009174       ??_C@_1M@MNPLFAAH@?$AAe?$AAs?$AA?9?$AAE?$AAS?$AA?$AA@ 1006b174     libucrt:lcidtoname_downlevel.obj
 0002:00009184       ??_C@_1M@HJOOJFMA@?$AAf?$AAr?$AA?9?$AAC?$AAA?$AA?$AA@ 1006b184     libucrt:lcidtoname_downlevel.obj
 0002:00009194       ??_C@_1BG@JPOFPNAB@?$AAs?$AAr?$AA?9?$AAS?$AAP?$AA?9?$AAC?$AAy?$AAr?$AAl?$AA?$AA@ 1006b194     libucrt:lcidtoname_downlevel.obj
 0002:000091b0       ??_C@_1M@LNFOCMOB@?$AAs?$AAe?$AA?9?$AAF?$AAI?$AA?$AA@ 1006b1b0     libucrt:lcidtoname_downlevel.obj
 0002:000091c0       ??_C@_1O@MGJBOAMB@?$AAq?$AAu?$AAz?$AA?9?$AAP?$AAE?$AA?$AA@ 1006b1c0     libucrt:lcidtoname_downlevel.obj
 0002:000091d0       ??_C@_1M@GJINLBOK@?$AAa?$AAr?$AA?9?$AAL?$AAY?$AA?$AA@ 1006b1d0     libucrt:lcidtoname_downlevel.obj
 0002:000091e0       ??_C@_1M@GGMNHJNL@?$AAz?$AAh?$AA?9?$AAS?$AAG?$AA?$AA@ 1006b1e0     libucrt:lcidtoname_downlevel.obj
 0002:000091f0       ??_C@_1M@HOIKODND@?$AAd?$AAe?$AA?9?$AAL?$AAU?$AA?$AA@ 1006b1f0     libucrt:lcidtoname_downlevel.obj
 0002:00009200       ??_C@_1M@DDOCCGFG@?$AAe?$AAn?$AA?9?$AAC?$AAA?$AA?$AA@ 1006b200     libucrt:lcidtoname_downlevel.obj
 0002:00009210       ??_C@_1M@BNOEMJLF@?$AAe?$AAs?$AA?9?$AAG?$AAT?$AA?$AA@ 1006b210     libucrt:lcidtoname_downlevel.obj
 0002:00009220       ??_C@_1M@EOGNKEK@?$AAf?$AAr?$AA?9?$AAC?$AAH?$AA?$AA@ 1006b220     libucrt:lcidtoname_downlevel.obj
 0002:00009230       ??_C@_1M@FLIDJFHL@?$AAh?$AAr?$AA?9?$AAB?$AAA?$AA?$AA@ 1006b230     libucrt:lcidtoname_downlevel.obj
 0002:00009240       ??_C@_1O@FMCELNAJ@?$AAs?$AAm?$AAj?$AA?9?$AAN?$AAO?$AA?$AA@ 1006b240     libucrt:lcidtoname_downlevel.obj
 0002:00009250       ??_C@_1M@JHGLJMGJ@?$AAa?$AAr?$AA?9?$AAD?$AAZ?$AA?$AA@ 1006b250     libucrt:lcidtoname_downlevel.obj
 0002:00009260       ??_C@_1M@JKKFDCNP@?$AAz?$AAh?$AA?9?$AAM?$AAO?$AA?$AA@ 1006b260     libucrt:lcidtoname_downlevel.obj
 0002:00009270       ??_C@_1M@GEEFALPE@?$AAd?$AAe?$AA?9?$AAL?$AAI?$AA?$AA@ 1006b270     libucrt:lcidtoname_downlevel.obj
 0002:00009280       ??_C@_1M@IGEOFBG@?$AAe?$AAn?$AA?9?$AAN?$AAZ?$AA?$AA@ 1006b280     libucrt:lcidtoname_downlevel.obj
 0002:00009290       ??_C@_1M@KDBONEHP@?$AAe?$AAs?$AA?9?$AAC?$AAR?$AA?$AA@ 1006b290     libucrt:lcidtoname_downlevel.obj
 0002:000092a0       ??_C@_1M@FHMDOHNN@?$AAf?$AAr?$AA?9?$AAL?$AAU?$AA?$AA@ 1006b2a0     libucrt:lcidtoname_downlevel.obj
 0002:000092b0       ??_C@_1BG@NFKKMAFG@?$AAb?$AAs?$AA?9?$AAB?$AAA?$AA?9?$AAL?$AAa?$AAt?$AAn?$AA?$AA@ 1006b2b0     libucrt:lcidtoname_downlevel.obj
 0002:000092cc       ??_C@_1O@IMNBEMCI@?$AAs?$AAm?$AAj?$AA?9?$AAS?$AAE?$AA?$AA@ 1006b2cc     libucrt:lcidtoname_downlevel.obj
 0002:000092dc       ??_C@_1M@DHHMBNDP@?$AAa?$AAr?$AA?9?$AAM?$AAA?$AA?$AA@ 1006b2dc     libucrt:lcidtoname_downlevel.obj
 0002:000092ec       ??_C@_1M@BNBLJCGH@?$AAe?$AAn?$AA?9?$AAI?$AAE?$AA?$AA@ 1006b2ec     libucrt:lcidtoname_downlevel.obj
 0002:000092fc       ??_C@_1M@GEPAFMDL@?$AAe?$AAs?$AA?9?$AAP?$AAA?$AA?$AA@ 1006b2fc     libucrt:lcidtoname_downlevel.obj
 0002:0000930c       ??_C@_1M@OJONDMDL@?$AAf?$AAr?$AA?9?$AAM?$AAC?$AA?$AA@ 1006b30c     libucrt:lcidtoname_downlevel.obj
 0002:0000931c       ??_C@_1BG@OBCNFJB@?$AAs?$AAr?$AA?9?$AAB?$AAA?$AA?9?$AAL?$AAa?$AAt?$AAn?$AA?$AA@ 1006b31c     libucrt:lcidtoname_downlevel.obj
 0002:00009338       ??_C@_1O@KEMEEGPO@?$AAs?$AAm?$AAa?$AA?9?$AAN?$AAO?$AA?$AA@ 1006b338     libucrt:lcidtoname_downlevel.obj
 0002:00009348       ??_C@_1M@ELMGFODK@?$AAa?$AAr?$AA?9?$AAT?$AAN?$AA?$AA@ 1006b348     libucrt:lcidtoname_downlevel.obj
 0002:00009358       ??_C@_1M@BHDLHFAF@?$AAe?$AAn?$AA?9?$AAZ?$AAA?$AA?$AA@ 1006b358     libucrt:lcidtoname_downlevel.obj
 0002:00009368       ??_C@_1M@BMGIGLIF@?$AAe?$AAs?$AA?9?$AAD?$AAO?$AA?$AA@ 1006b368     libucrt:lcidtoname_downlevel.obj
 0002:00009378       ??_C@_1BG@CMBHIPBE@?$AAs?$AAr?$AA?9?$AAB?$AAA?$AA?9?$AAC?$AAy?$AAr?$AAl?$AA?$AA@ 1006b378     libucrt:lcidtoname_downlevel.obj
 0002:00009394       ??_C@_1O@HEDBLHNP@?$AAs?$AAm?$AAa?$AA?9?$AAS?$AAE?$AA?$AA@ 1006b394     libucrt:lcidtoname_downlevel.obj
 0002:000093a4       ??_C@_1M@DAGCADIM@?$AAa?$AAr?$AA?9?$AAO?$AAM?$AA?$AA@ 1006b3a4     libucrt:lcidtoname_downlevel.obj
 0002:000093b4       ??_C@_1M@FODLMICG@?$AAe?$AAn?$AA?9?$AAJ?$AAM?$AA?$AA@ 1006b3b4     libucrt:lcidtoname_downlevel.obj
 0002:000093c4       ??_C@_1M@DNMLCIHB@?$AAe?$AAs?$AA?9?$AAV?$AAE?$AA?$AA@ 1006b3c4     libucrt:lcidtoname_downlevel.obj
 0002:000093d4       ??_C@_1O@EOKHMKJK@?$AAs?$AAm?$AAs?$AA?9?$AAF?$AAI?$AA?$AA@ 1006b3d4     libucrt:lcidtoname_downlevel.obj
 0002:000093e4       ??_C@_1M@CAFJMKOF@?$AAa?$AAr?$AA?9?$AAY?$AAE?$AA?$AA@ 1006b3e4     libucrt:lcidtoname_downlevel.obj
 0002:000093f4       ??_C@_1M@CBFHIJLI@?$AAe?$AAn?$AA?9?$AAC?$AAB?$AA?$AA@ 1006b3f4     libucrt:lcidtoname_downlevel.obj
 0002:00009404       ??_C@_1M@BGNFLDN@?$AAe?$AAs?$AA?9?$AAC?$AAO?$AA?$AA@ 1006b404     libucrt:lcidtoname_downlevel.obj
 0002:00009414       ??_C@_1O@JMPHMAMC@?$AAs?$AAm?$AAn?$AA?9?$AAF?$AAI?$AA?$AA@ 1006b414     libucrt:lcidtoname_downlevel.obj
 0002:00009424       ??_C@_1M@JLANABKE@?$AAa?$AAr?$AA?9?$AAS?$AAY?$AA?$AA@ 1006b424     libucrt:lcidtoname_downlevel.obj
 0002:00009434       ??_C@_1M@HPKGCFGN@?$AAe?$AAn?$AA?9?$AAB?$AAZ?$AA?$AA@ 1006b434     libucrt:lcidtoname_downlevel.obj
 0002:00009444       ??_C@_1M@OLJCMLGM@?$AAe?$AAs?$AA?9?$AAP?$AAE?$AA?$AA@ 1006b444     libucrt:lcidtoname_downlevel.obj
 0002:00009454       ??_C@_1M@MKKGFKLE@?$AAa?$AAr?$AA?9?$AAJ?$AAO?$AA?$AA@ 1006b454     libucrt:lcidtoname_downlevel.obj
 0002:00009464       ??_C@_1M@EKPGLDNI@?$AAe?$AAn?$AA?9?$AAT?$AAT?$AA?$AA@ 1006b464     libucrt:lcidtoname_downlevel.obj
 0002:00009474       ??_C@_1M@OONGHFHE@?$AAe?$AAs?$AA?9?$AAA?$AAR?$AA?$AA@ 1006b474     libucrt:lcidtoname_downlevel.obj
 0002:00009484       ??_C@_1M@OOJFGBHE@?$AAa?$AAr?$AA?9?$AAL?$AAB?$AA?$AA@ 1006b484     libucrt:lcidtoname_downlevel.obj
 0002:00009494       ??_C@_1M@GCEJHNEG@?$AAe?$AAn?$AA?9?$AAZ?$AAW?$AA?$AA@ 1006b494     libucrt:lcidtoname_downlevel.obj
 0002:000094a4       ??_C@_1M@JNOCAHJI@?$AAe?$AAs?$AA?9?$AAE?$AAC?$AA?$AA@ 1006b4a4     libucrt:lcidtoname_downlevel.obj
 0002:000094b4       ??_C@_1M@JEFHPGGB@?$AAa?$AAr?$AA?9?$AAK?$AAW?$AA?$AA@ 1006b4b4     libucrt:lcidtoname_downlevel.obj
 0002:000094c4       ??_C@_1M@MLKIBJOJ@?$AAe?$AAn?$AA?9?$AAP?$AAH?$AA?$AA@ 1006b4c4     libucrt:lcidtoname_downlevel.obj
 0002:000094d4       ??_C@_1M@BDNIPEND@?$AAe?$AAs?$AA?9?$AAC?$AAL?$AA?$AA@ 1006b4d4     libucrt:lcidtoname_downlevel.obj
 0002:000094e4       ??_C@_1M@MPNMEKBD@?$AAa?$AAr?$AA?9?$AAA?$AAE?$AA?$AA@ 1006b4e4     libucrt:lcidtoname_downlevel.obj
 0002:000094f4       ??_C@_1M@KBJALCPI@?$AAe?$AAs?$AA?9?$AAU?$AAY?$AA?$AA@ 1006b4f4     libucrt:lcidtoname_downlevel.obj
 0002:00009504       ??_C@_1M@LLCCOAGA@?$AAa?$AAr?$AA?9?$AAB?$AAH?$AA?$AA@ 1006b504     libucrt:lcidtoname_downlevel.obj
 0002:00009514       ??_C@_1M@PBFNCDEL@?$AAe?$AAs?$AA?9?$AAP?$AAY?$AA?$AA@ 1006b514     libucrt:lcidtoname_downlevel.obj
 0002:00009524       ??_C@_1M@EDGINPNP@?$AAa?$AAr?$AA?9?$AAQ?$AAA?$AA?$AA@ 1006b524     libucrt:lcidtoname_downlevel.obj
 0002:00009534       ??_C@_1M@MKDBIIJI@?$AAe?$AAs?$AA?9?$AAB?$AAO?$AA?$AA@ 1006b534     libucrt:lcidtoname_downlevel.obj
 0002:00009544       ??_C@_1M@CPKKEBLD@?$AAe?$AAs?$AA?9?$AAS?$AAV?$AA?$AA@ 1006b544     libucrt:lcidtoname_downlevel.obj
 0002:00009554       ??_C@_1M@NDBGMMJL@?$AAe?$AAs?$AA?9?$AAH?$AAN?$AA?$AA@ 1006b554     libucrt:lcidtoname_downlevel.obj
 0002:00009564       ??_C@_1M@JIJIBHDP@?$AAe?$AAs?$AA?9?$AAN?$AAI?$AA?$AA@ 1006b564     libucrt:lcidtoname_downlevel.obj
 0002:00009574       ??_C@_1M@CGFMKEEK@?$AAe?$AAs?$AA?9?$AAP?$AAR?$AA?$AA@ 1006b574     libucrt:lcidtoname_downlevel.obj
 0002:00009584       ??_C@_1O@ICJHKIIK@?$AAz?$AAh?$AA?9?$AAC?$AAH?$AAT?$AA?$AA@ 1006b584     libucrt:lcidtoname_downlevel.obj
 0002:00009594       ??_C@_15CLNEJCE@?$AAs?$AAr?$AA?$AA@ 1006b594     libucrt:lcidtoname_downlevel.obj
 0002:00009e2c       ??_C@_1M@KAHEKEIG@?$AAa?$AAf?$AA?9?$AAz?$AAa?$AA?$AA@ 1006be2c     libucrt:lcidtoname_downlevel.obj
 0002:00009e3c       ??_C@_1M@GIECOABL@?$AAa?$AAr?$AA?9?$AAa?$AAe?$AA?$AA@ 1006be3c     libucrt:lcidtoname_downlevel.obj
 0002:00009e4c       ??_C@_1M@BMLMEKGI@?$AAa?$AAr?$AA?9?$AAb?$AAh?$AA?$AA@ 1006be4c     libucrt:lcidtoname_downlevel.obj
 0002:00009e5c       ??_C@_1M@DAPFDGGB@?$AAa?$AAr?$AA?9?$AAd?$AAz?$AA?$AA@ 1006be5c     libucrt:lcidtoname_downlevel.obj
 0002:00009e6c       ??_C@_1M@FJNKGKIG@?$AAa?$AAr?$AA?9?$AAe?$AAg?$AA?$AA@ 1006be6c     libucrt:lcidtoname_downlevel.obj
 0002:00009e7c       ??_C@_1M@FLGKKCLO@?$AAa?$AAr?$AA?9?$AAi?$AAq?$AA?$AA@ 1006be7c     libucrt:lcidtoname_downlevel.obj
 0002:00009e8c       ??_C@_1M@GNDIPALM@?$AAa?$AAr?$AA?9?$AAj?$AAo?$AA?$AA@ 1006be8c     libucrt:lcidtoname_downlevel.obj
 0002:00009e9c       ??_C@_1M@DDMJFMGJ@?$AAa?$AAr?$AA?9?$AAk?$AAw?$AA?$AA@ 1006be9c     libucrt:lcidtoname_downlevel.obj
 0002:00009eac       ??_C@_1M@EJALMLHM@?$AAa?$AAr?$AA?9?$AAl?$AAb?$AA?$AA@ 1006beac     libucrt:lcidtoname_downlevel.obj
 0002:00009ebc       ??_C@_1M@MOBDBLOC@?$AAa?$AAr?$AA?9?$AAl?$AAy?$AA?$AA@ 1006bebc     libucrt:lcidtoname_downlevel.obj
 0002:00009ecc       ??_C@_1M@JAOCLHDH@?$AAa?$AAr?$AA?9?$AAm?$AAa?$AA?$AA@ 1006becc     libucrt:lcidtoname_downlevel.obj
 0002:00009edc       ??_C@_1M@JHPMKJIE@?$AAa?$AAr?$AA?9?$AAo?$AAm?$AA?$AA@ 1006bedc     libucrt:lcidtoname_downlevel.obj
 0002:00009eec       ??_C@_1M@OEPGHFNH@?$AAa?$AAr?$AA?9?$AAq?$AAa?$AA?$AA@ 1006beec     libucrt:lcidtoname_downlevel.obj
 0002:00009efc       ??_C@_1M@KJDONENM@?$AAa?$AAr?$AA?9?$AAs?$AAa?$AA?$AA@ 1006befc     libucrt:lcidtoname_downlevel.obj
 0002:00009f0c       ??_C@_1M@DMJDKLKM@?$AAa?$AAr?$AA?9?$AAs?$AAy?$AA?$AA@ 1006bf0c     libucrt:lcidtoname_downlevel.obj
 0002:00009f1c       ??_C@_1M@OMFIPEDC@?$AAa?$AAr?$AA?9?$AAt?$AAn?$AA?$AA@ 1006bf1c     libucrt:lcidtoname_downlevel.obj
 0002:00009f2c       ??_C@_1M@IHMHGAON@?$AAa?$AAr?$AA?9?$AAy?$AAe?$AA?$AA@ 1006bf2c     libucrt:lcidtoname_downlevel.obj
 0002:00009f3c       ??_C@_1BG@KDCPGJGB@?$AAa?$AAz?$AA?9?$AAa?$AAz?$AA?9?$AAc?$AAy?$AAr?$AAl?$AA?$AA@ 1006bf3c     libucrt:lcidtoname_downlevel.obj
 0002:00009f58       ??_C@_1BG@IBCKDDOE@?$AAa?$AAz?$AA?9?$AAa?$AAz?$AA?9?$AAl?$AAa?$AAt?$AAn?$AA?$AA@ 1006bf58     libucrt:lcidtoname_downlevel.obj
 0002:00009f74       ??_C@_1M@EGPFDCPD@?$AAb?$AAe?$AA?9?$AAb?$AAy?$AA?$AA@ 1006bf74     libucrt:lcidtoname_downlevel.obj
 0002:00009f84       ??_C@_1M@PCMGMCGC@?$AAb?$AAg?$AA?9?$AAb?$AAg?$AA?$AA@ 1006bf84     libucrt:lcidtoname_downlevel.obj
 0002:00009f94       ??_C@_1M@BJBMFGOB@?$AAb?$AAn?$AA?9?$AAi?$AAn?$AA?$AA@ 1006bf94     libucrt:lcidtoname_downlevel.obj
 0002:00009fa4       ??_C@_1BG@EAKMMACD@?$AAb?$AAs?$AA?9?$AAb?$AAa?$AA?9?$AAl?$AAa?$AAt?$AAn?$AA?$AA@ 1006bfa4     libucrt:lcidtoname_downlevel.obj
 0002:00009fc0       ??_C@_1M@KGADAODK@?$AAc?$AAa?$AA?9?$AAe?$AAs?$AA?$AA@ 1006bfc0     libucrt:lcidtoname_downlevel.obj
 0002:00009fd0       ??_C@_1M@COAJPDHI@?$AAc?$AAs?$AA?9?$AAc?$AAz?$AA?$AA@ 1006bfd0     libucrt:lcidtoname_downlevel.obj
 0002:00009fe0       ??_C@_1M@DHBHFONH@?$AAc?$AAy?$AA?9?$AAg?$AAb?$AA?$AA@ 1006bfe0     libucrt:lcidtoname_downlevel.obj
 0002:00009ff0       ??_C@_1M@IMGKELGA@?$AAd?$AAa?$AA?9?$AAd?$AAk?$AA?$AA@ 1006bff0     libucrt:lcidtoname_downlevel.obj
 0002:0000a000       ??_C@_1M@NNDGDNGA@?$AAd?$AAe?$AA?9?$AAa?$AAt?$AA?$AA@ 1006c000     libucrt:lcidtoname_downlevel.obj
 0002:0000a010       ??_C@_1M@IKDBHEEM@?$AAd?$AAe?$AA?9?$AAc?$AAh?$AA?$AA@ 1006c010     libucrt:lcidtoname_downlevel.obj
 0002:0000a020       ??_C@_1M@GFFOJMCJ@?$AAd?$AAe?$AA?9?$AAd?$AAe?$AA?$AA@ 1006c020     libucrt:lcidtoname_downlevel.obj
 0002:0000a030       ??_C@_1M@MDNLKBPM@?$AAd?$AAe?$AA?9?$AAl?$AAi?$AA?$AA@ 1006c030     libucrt:lcidtoname_downlevel.obj
 0002:0000a040       ??_C@_1M@NJBEEJNL@?$AAd?$AAe?$AA?9?$AAl?$AAu?$AA?$AA@ 1006c040     libucrt:lcidtoname_downlevel.obj
 0002:0000a050       ??_C@_1O@GNNELBAP@?$AAd?$AAi?$AAv?$AA?9?$AAm?$AAv?$AA?$AA@ 1006c050     libucrt:lcidtoname_downlevel.obj
 0002:0000a060       ??_C@_1M@EJLEOGAE@?$AAe?$AAl?$AA?9?$AAg?$AAr?$AA?$AA@ 1006c060     libucrt:lcidtoname_downlevel.obj
 0002:0000a070       ??_C@_1M@GMPONJN@?$AAe?$AAn?$AA?9?$AAa?$AAu?$AA?$AA@ 1006c070     libucrt:lcidtoname_downlevel.obj
 0002:0000a080       ??_C@_1M@NIDIIPGF@?$AAe?$AAn?$AA?9?$AAb?$AAz?$AA?$AA@ 1006c080     libucrt:lcidtoname_downlevel.obj
 0002:0000a090       ??_C@_1M@JEHMIMFO@?$AAe?$AAn?$AA?9?$AAc?$AAa?$AA?$AA@ 1006c090     libucrt:lcidtoname_downlevel.obj
 0002:0000a0a0       ??_C@_1M@IGMJCDLA@?$AAe?$AAn?$AA?9?$AAc?$AAb?$AA?$AA@ 1006c0a0     libucrt:lcidtoname_downlevel.obj
 0002:0000a0b0       ??_C@_1M@BNFIGBKG@?$AAe?$AAn?$AA?9?$AAg?$AAb?$AA?$AA@ 1006c0b0     libucrt:lcidtoname_downlevel.obj
 0002:0000a0c0       ??_C@_1M@LKIFDIGP@?$AAe?$AAn?$AA?9?$AAi?$AAe?$AA?$AA@ 1006c0c0     libucrt:lcidtoname_downlevel.obj
 0002:0000a0d0       ??_C@_1M@PJKFGCCO@?$AAe?$AAn?$AA?9?$AAj?$AAm?$AA?$AA@ 1006c0d0     libucrt:lcidtoname_downlevel.obj
 0002:0000a0e0       ??_C@_1M@KPPKEPBO@?$AAe?$AAn?$AA?9?$AAn?$AAz?$AA?$AA@ 1006c0e0     libucrt:lcidtoname_downlevel.obj
 0002:0000a0f0       ??_C@_1M@GMDGLDOB@?$AAe?$AAn?$AA?9?$AAp?$AAh?$AA?$AA@ 1006c0f0     libucrt:lcidtoname_downlevel.obj
 0002:0000a100       ??_C@_1M@ONGIBJNA@?$AAe?$AAn?$AA?9?$AAt?$AAt?$AA?$AA@ 1006c100     libucrt:lcidtoname_downlevel.obj
 0002:0000a110       ??_C@_1M@LLODPCMM@?$AAe?$AAn?$AA?9?$AAu?$AAs?$AA?$AA@ 1006c110     libucrt:lcidtoname_downlevel.obj
 0002:0000a120       ??_C@_1M@LAKFNPAN@?$AAe?$AAn?$AA?9?$AAz?$AAa?$AA?$AA@ 1006c120     libucrt:lcidtoname_downlevel.obj
 0002:0000a130       ??_C@_1M@MFNHNHEO@?$AAe?$AAn?$AA?9?$AAz?$AAw?$AA?$AA@ 1006c130     libucrt:lcidtoname_downlevel.obj
 0002:0000a140       ??_C@_1M@EJEINPHM@?$AAe?$AAs?$AA?9?$AAa?$AAr?$AA?$AA@ 1006c140     libucrt:lcidtoname_downlevel.obj
 0002:0000a150       ??_C@_1M@GNKPCCJA@?$AAe?$AAs?$AA?9?$AAb?$AAo?$AA?$AA@ 1006c150     libucrt:lcidtoname_downlevel.obj
 0002:0000a160       ??_C@_1M@LEEGFONL@?$AAe?$AAs?$AA?9?$AAc?$AAl?$AA?$AA@ 1006c160     libucrt:lcidtoname_downlevel.obj
 0002:0000a170       ??_C@_1M@KGPDPBDF@?$AAe?$AAs?$AA?9?$AAc?$AAo?$AA?$AA@ 1006c170     libucrt:lcidtoname_downlevel.obj
 0002:0000a180       ??_C@_1M@EIAHOHH@?$AAe?$AAs?$AA?9?$AAc?$AAr?$AA?$AA@ 1006c180     libucrt:lcidtoname_downlevel.obj
 0002:0000a190       ??_C@_1M@LLPGMBIN@?$AAe?$AAs?$AA?9?$AAd?$AAo?$AA?$AA@ 1006c190     libucrt:lcidtoname_downlevel.obj
 0002:0000a1a0       ??_C@_1M@DKHMKNJA@?$AAe?$AAs?$AA?9?$AAe?$AAc?$AA?$AA@ 1006c1a0     libucrt:lcidtoname_downlevel.obj
 0002:0000a1b0       ??_C@_1M@GKGFPKAP@?$AAe?$AAs?$AA?9?$AAe?$AAs?$AA?$AA@ 1006c1b0     libucrt:lcidtoname_downlevel.obj
 0002:0000a1c0       ??_C@_1M@LKHKGDLN@?$AAe?$AAs?$AA?9?$AAg?$AAt?$AA?$AA@ 1006c1c0     libucrt:lcidtoname_downlevel.obj
 0002:0000a1d0       ??_C@_1M@HEIIGGJD@?$AAe?$AAs?$AA?9?$AAh?$AAn?$AA?$AA@ 1006c1d0     libucrt:lcidtoname_downlevel.obj
 0002:0000a1e0       ??_C@_1M@FBDHPPGD@?$AAe?$AAs?$AA?9?$AAm?$AAx?$AA?$AA@ 1006c1e0     libucrt:lcidtoname_downlevel.obj
 0002:0000a1f0       ??_C@_1M@DPAGLNDH@?$AAe?$AAs?$AA?9?$AAn?$AAi?$AA?$AA@ 1006c1f0     libucrt:lcidtoname_downlevel.obj
 0002:0000a200       ??_C@_1M@MDGOPGDD@?$AAe?$AAs?$AA?9?$AAp?$AAa?$AA?$AA@ 1006c200     libucrt:lcidtoname_downlevel.obj
 0002:0000a210       ??_C@_1M@EMAMGBGE@?$AAe?$AAs?$AA?9?$AAp?$AAe?$AA?$AA@ 1006c210     libucrt:lcidtoname_downlevel.obj
 0002:0000a220       ??_C@_1M@IBMCAOEC@?$AAe?$AAs?$AA?9?$AAp?$AAr?$AA?$AA@ 1006c220     libucrt:lcidtoname_downlevel.obj
 0002:0000a230       ??_C@_1M@FGMDIJED@?$AAe?$AAs?$AA?9?$AAp?$AAy?$AA?$AA@ 1006c230     libucrt:lcidtoname_downlevel.obj
 0002:0000a240       ??_C@_1M@IIDEOLLL@?$AAe?$AAs?$AA?9?$AAs?$AAv?$AA?$AA@ 1006c240     libucrt:lcidtoname_downlevel.obj
 0002:0000a250       ??_C@_1M@GAOBIPA@?$AAe?$AAs?$AA?9?$AAu?$AAy?$AA?$AA@ 1006c250     libucrt:lcidtoname_downlevel.obj
 0002:0000a260       ??_C@_1M@JKFFICHJ@?$AAe?$AAs?$AA?9?$AAv?$AAe?$AA?$AA@ 1006c260     libucrt:lcidtoname_downlevel.obj
 0002:0000a270       ??_C@_1M@PNMLOJDF@?$AAe?$AAt?$AA?9?$AAe?$AAe?$AA?$AA@ 1006c270     libucrt:lcidtoname_downlevel.obj
 0002:0000a280       ??_C@_1M@GHHLIKEI@?$AAe?$AAu?$AA?9?$AAe?$AAs?$AA?$AA@ 1006c280     libucrt:lcidtoname_downlevel.obj
 0002:0000a290       ??_C@_1M@PBNONODE@?$AAf?$AAa?$AA?9?$AAi?$AAr?$AA?$AA@ 1006c290     libucrt:lcidtoname_downlevel.obj
 0002:0000a2a0       ??_C@_1M@JEEHPMIL@?$AAf?$AAi?$AA?9?$AAf?$AAi?$AA?$AA@ 1006c2a0     libucrt:lcidtoname_downlevel.obj
 0002:0000a2b0       ??_C@_1M@LMDCNDBA@?$AAf?$AAo?$AA?9?$AAf?$AAo?$AA?$AA@ 1006c2b0     libucrt:lcidtoname_downlevel.obj
 0002:0000a2c0       ??_C@_1M@JKEOHLDK@?$AAf?$AAr?$AA?9?$AAb?$AAe?$AA?$AA@ 1006c2c0     libucrt:lcidtoname_downlevel.obj
 0002:0000a2d0       ??_C@_1M@NOHADPMI@?$AAf?$AAr?$AA?9?$AAc?$AAa?$AA?$AA@ 1006c2d0     libucrt:lcidtoname_downlevel.obj
 0002:0000a2e0       ??_C@_1M@KDHIHAEC@?$AAf?$AAr?$AA?9?$AAc?$AAh?$AA?$AA@ 1006c2e0     libucrt:lcidtoname_downlevel.obj
 0002:0000a2f0       ??_C@_1M@MMBBFGAK@?$AAf?$AAr?$AA?9?$AAf?$AAr?$AA?$AA@ 1006c2f0     libucrt:lcidtoname_downlevel.obj
