 dynamixel_control_slrt

 Timestamp is 5c5bbed3 (Thu Feb  7 10:44:59 2019)

 Preferred load address is 10000000

 Start         Length     Name                   Class
 0001:00000000 0006c803H .text$mn                CODE
 0001:0006c803 00001085H .text$x                 CODE
 0002:00000000 00000104H .CRT$XCA                DATA
 0002:00000104 00000104H .CRT$XCZ                DATA
 0002:00000208 00000104H .CRT$XIA                DATA
 0002:0000030c 00000110H .CRT$XIC                DATA
 0002:0000041c 00000104H .CRT$XIZ                DATA
 0002:00000520 00000104H .CRT$XPA                DATA
 0002:00000624 0000010cH .CRT$XPX                DATA
 0002:00000730 00000104H .CRT$XPXA               DATA
 0002:00000834 00000104H .CRT$XPZ                DATA
 0002:00000938 00000104H .CRT$XTA                DATA
 0002:00000a3c 00000104H .CRT$XTZ                DATA
 0002:00000b40 0000e13cH .rdata                  DATA
 0002:0000ec7c 00000444H .rdata$r                DATA
 0002:0000f0c0 00000128H .rdata$sxdata           DATA
 0002:0000f1e8 000001d8H .rdata$zzzdbg           DATA
 0002:0000f3c0 00000104H .rtc$IAA                DATA
 0002:0000f4c4 00000104H .rtc$IZZ                DATA
 0002:0000f5c8 00000104H .rtc$TAA                DATA
 0002:0000f6cc 00000104H .rtc$TZZ                DATA
 0002:0000f7d0 00000ce0H .xdata$x                DATA
 0002:000104b0 0000020bH .edata                  DATA
 0003:00000000 00001150H .data                   DATA
 0003:00001150 00000250H .data$r                 DATA
 0003:000013a0 00013ea0H .bss                    DATA
 0004:00000000 000001b4H .idata$5                DATA
 0004:000001b4 00000014H .idata$2                DATA
 0004:000001c8 00000014H .idata$3                DATA
 0004:000001dc 000001b4H .idata$4                DATA
 0004:00000390 000007a2H .idata$6                DATA
 0005:00000000 00000104H .00cfg                  DATA

  Address         Publics by Value              Rva+Base       Lib:Object

 0000:00000000       ___volatile_metadata       00000000     <absolute>
 0000:00000000       ___guard_fids_table        00000000     <absolute>
 0000:00000000       ___guard_fids_count        00000000     <absolute>
 0000:00000000       ___hybrid_code_map_count   00000000     <absolute>
 0000:00000000       __except_list              00000000     <absolute>
 0000:00000000       ___hybrid_auxiliary_iat    00000000     <absolute>
 0000:00000000       ___guard_iat_count         00000000     <absolute>
 0000:00000000       ___hybrid_code_map         00000000     <absolute>
 0000:00000000       ___guard_longjmp_count     00000000     <absolute>
 0000:00000000       ___dynamic_value_reloc_table 00000000     <absolute>
 0000:00000000       ___guard_iat_table         00000000     <absolute>
 0000:00000000       ___guard_longjmp_table     00000000     <absolute>
 0000:00000000       ___enclave_config          00000000     <absolute>
 0000:00000008       ___safe_se_handler_count   00000008     <absolute>
 0000:00000100       ___guard_flags             00000100     <absolute>
 0000:00000000       ___ImageBase               10000000     <linker-defined>
 0001:000064d0       _DllMain@12                100074d0 f   xpctarget.obj
 0001:000064e0       _SLRTSetErrorStatus        100074e0 f   xpctarget.obj
 0001:00006500       _changeStepSize            10007500 f   xpctarget.obj
 0001:00006570       _dynamixel_control_ChangeStepSize 10007570 f   xpctarget.obj
 0001:000065e0       _getDLMVersion             100075e0 f   xpctarget.obj
 0001:000065f0       _getFullPathToRefMdl       100075f0 f   xpctarget.obj
 0001:000066a0       _getRefMdlPath             100076a0 f   xpctarget.obj
 0001:00006720       _getRefMdlSignalNumber     10007720 f   xpctarget.obj
 0001:000067d0       _getrlmdlinfo              100077d0 f   xpctarget.obj
 0001:00006930       _slrtRegisterSignalToLoggingService 10007930 f   xpctarget.obj
 0001:00006a90       _updateDiscreteEvents      10007a90 f   xpctarget.obj
 0001:00006af0       _getNumRef                 10007af0 f   appmappingData.obj
 0001:00006b00       ___local_stdio_printf_options 10007b00 f i legacy_stdio.obj
 0001:00006b10       __vfprintf_l               10007b10 f i legacy_stdio.obj
 0001:00006b40       _vprintf                   10007b40 f i legacy_stdio.obj
 0001:00006b80       _rt_mxCreateCharMatrixFromStrings 10007b80 f   rt_matrx.obj
 0001:00006ce0       _rt_mxCreateDoubleMatrix   10007ce0 f   rt_matrx.obj
 0001:00006d40       _rt_mxCreateNumericArray   10007d40 f   rt_matrx.obj
 0001:00006db0       _rt_mxCreateString         10007db0 f   rt_matrx.obj
 0001:00006e40       _rt_mxDuplicateArray       10007e40 f   rt_matrx.obj
 0001:00006ea0       _rt_mxGetDimensions        10007ea0 f   rt_matrx.obj
 0001:00006ee0       _rt_mxGetEps               10007ee0 f   rt_matrx.obj
 0001:00006ef0       _rt_mxGetString            10007ef0 f   rt_matrx.obj
 0001:00006f70       _rtPrintfNoOp              10007f70 f   rt_printf.obj
 0001:00006f80       __vsnprintf_l              10007f80 f i rt_logging.obj
 0001:00006fc0       __vsprintf_l               10007fc0 f i rt_logging.obj
 0001:00007000       _fprintf                   10008000 f i rt_logging.obj
 0001:00007500       _printf                    10008500 f i rt_logging.obj
 0001:00007540       _rt_CreateLogVar           10008540 f   rt_logging.obj
 0001:000075d0       _rt_CreateLogVarWithConvert 100085d0 f   rt_logging.obj
 0001:00007f00       _rt_CreateStructLogVar     10008f00 f   rt_logging.obj
 0001:00008c80       _rt_GetMxIdFromDTypeId     10009c80 f   rt_logging.obj
 0001:00008cb0       _rt_GetMxIdFromDTypeIdForRSim 10009cb0 f   rt_logging.obj
 0001:0000b850       _rt_StartDataLogging       1000c850 f   rt_logging.obj
 0001:0000bd10       _rt_StartDataLoggingWithStartTime 1000cd10 f   rt_logging.obj
 0001:0000c190       _rt_StopDataLogging        1000d190 f   rt_logging.obj
 0001:0000c1b0       _rt_StopDataLoggingImpl    1000d1b0 f   rt_logging.obj
 0001:0000c5f0       _rt_UpdateLogVar           1000d5f0 f   rt_logging.obj
 0001:0000d830       _rt_UpdateStructLogVar     1000e830 f   rt_logging.obj
 0001:0000d8c0       _rt_UpdateTXXFYLogVars     1000e8c0 f   rt_logging.obj
 0001:0000dea0       _rt_UpdateTXYLogVars       1000eea0 f   rt_logging.obj
 0001:0000e0e0       _rt_getTempMemory          1000f0e0 f   rt_logging.obj
 0001:0000e130       _sprintf                   1000f130 f i rt_logging.obj
 0001:0000e170       _MdlInitialize             1000f170 f   dynamixel_control.obj
 0001:0000e180       _MdlInitializeSampleTimes  1000f180 f   dynamixel_control.obj
 0001:0000e190       _MdlInitializeSizes        1000f190 f   dynamixel_control.obj
 0001:0000e1a0       _MdlOutputs                1000f1a0 f   dynamixel_control.obj
 0001:0000e200       _MdlStart                  1000f200 f   dynamixel_control.obj
 0001:0000e210       _MdlTerminate              1000f210 f   dynamixel_control.obj
 0001:0000e2d0       _MdlUpdate                 1000f2d0 f   dynamixel_control.obj
 0001:0000e430       _dynamixel_co_RS232ISR_Start 1000f430 f   dynamixel_control.obj
 0001:0000e6d0       _dynamixel_con_RS232ISR_Term 1000f6d0 f   dynamixel_control.obj
 0001:0000e700       _dynamixel_control         1000f700 f   dynamixel_control.obj
 0001:0000f2f0       _dynamixel_control_RS232ISR 100102f0 f   dynamixel_control.obj
 0001:00010320       _rate_scheduler            10011320 f   dynamixel_control.obj
 0001:00010340       _rt_SimUpdateDiscreteEvents 10011340 f   dynamixel_control.obj
 0001:00010370       _xPCISR1                   10011370 f   dynamixel_control.obj
 0001:00010590       _dynamixel_control_GetCAPIStaticMap 10011590 f   dynamixel_control_capi.obj
 0001:000105a0       _dynamixel_control_InitializeDataMapInfo 100115a0 f   dynamixel_control_capi.obj
 0001:00010670       _mdlXcp_GetMdlXcpInfo      10011670 f   dynamixel_control_xcp.obj
 0001:00010680       _SLRT_update_TET           10011680 f   dynamixel_control_xcp_TET.obj
 0001:00010750       _rtGetInf                  10011750 f   rtGetInf.obj
 0001:00010780       _rtGetInfF                 10011780 f   rtGetInf.obj
 0001:000107a0       _rtGetMinusInf             100117a0 f   rtGetInf.obj
 0001:000107d0       _rtGetMinusInfF            100117d0 f   rtGetInf.obj
 0001:000107f0       _rtGetNaN                  100117f0 f   rtGetNaN.obj
 0001:00010820       _rtGetNaNF                 10011820 f   rtGetNaN.obj
 0001:00010840       _rtIsInf                   10011840 f   rt_nonfinite.obj
 0001:00010880       _rtIsInfF                  10011880 f   rt_nonfinite.obj
 0001:000108c0       _rtIsNaN                   100118c0 f   rt_nonfinite.obj
 0001:000108d0       _rtIsNaNF                  100118d0 f   rt_nonfinite.obj
 0001:000108e0       _rt_InitInfAndNaN          100118e0 f   rt_nonfinite.obj
 0001:00010940       _fiforead                  10011940 f   fiforeadwrite.obj
 0001:00010c60       _fifowrite                 10011c60 f   fiforeadwrite.obj
 0001:00010ec0       _rt_CleanUpForStateLogWithMMI 10011ec0 f   rt_logging_mmi.obj
 0001:00010fd0       _rt_FillStateSigInfoFromMMI 10011fd0 f   rt_logging_mmi.obj
 0001:000113a0       _rtwCAPI_CountSysRan       100123a0 f   rtw_modelmap_utils.obj
 0001:00011440       _rtwCAPI_EncodePath        10012440 f   rtw_modelmap_utils.obj
 0001:00011550       _rtwCAPI_FillSysRan        10012550 f   rtw_modelmap_utils.obj
 0001:00011640       _rtwCAPI_FreeFullPaths     10012640 f   rtw_modelmap_utils.obj
 0001:000116d0       _rtwCAPI_GetFullStateBlockPath 100126d0 f   rtw_modelmap_utils.obj
 0001:00011860       _rtwCAPI_GetNumContStateRecords 10012860 f   rtw_modelmap_utils.obj
 0001:00011920       _rtwCAPI_GetNumSigLogRecords 10012920 f   rtw_modelmap_utils.obj
 0001:00011970       _rtwCAPI_GetNumSigLogRecordsForRTWLogging 10012970 f   rtw_modelmap_utils.obj
 0001:00011a10       _rtwCAPI_GetNumStateRecords 10012a10 f   rtw_modelmap_utils.obj
 0001:00011a60       _rtwCAPI_GetNumStateRecordsForRTWLogging 10012a60 f   rtw_modelmap_utils.obj
 0001:00011b00       _rtwCAPI_GetSigAddrFromMap 10012b00 f   rtw_modelmap_utils.obj
 0001:00011bc0       _rtwCAPI_GetSigLogRecordInfo 10012bc0 f   rtw_modelmap_utils.obj
 0001:00011ff0       _rtwCAPI_GetStateRecordInfo 10012ff0 f   rtw_modelmap_utils.obj
 0001:000124f0       _rtwCAPI_GetStateWidth     100134f0 f   rtw_modelmap_utils.obj
 0001:00012550       _rtwCAPI_HasStates         10013550 f   rtw_modelmap_utils.obj
 0001:000125b0       _rtwCAPI_UpdateFullPaths   100135b0 f   rtw_modelmap_utils.obj
 0001:00012790       _timestamp_x86             10013790 f   host_timer_x86.obj
 0001:000127a0       _taskTimeEnd               100137a0 f   xpc_code_profiling_utility_functions.obj
 0001:000127b0       _taskTimeEnd_              100137b0 f   xpc_code_profiling_utility_functions.obj
 0001:000127c0       _taskTimeStart             100137c0 f   xpc_code_profiling_utility_functions.obj
 0001:000127d0       _taskTimeStart_            100137d0 f   xpc_code_profiling_utility_functions.obj
 0001:000127e0       _xilProfilingTimerFreeze   100137e0 f   xpc_code_profiling_utility_functions.obj
 0001:000127f0       _xilProfilingTimerUnFreeze 100137f0 f   xpc_code_profiling_utility_functions.obj
 0001:00012800       _xilUploadProfilingData    10013800 f   xpc_code_profiling_utility_functions.obj
 0001:00012810       _asciiencode               10013810 f   asciiencode.obj
 0001:000136b0       _sersetupbase              100146b0 f   sersetupbase.obj
 0001:00013700       _GetPCIDeviceFull          10014700 f   xpcruntime:xpcimports.obj
 0001:00013870       _GetPCIDeviceFunction      10014870 f   xpcruntime:xpcimports.obj
 0001:000139e0       _ShowPCIDevice             100149e0 f   xpcruntime:xpcimports.obj
 0001:00014010       _slrtGetPciConfigAtFunction 10015010 f   xpcruntime:xpcimports.obj
 0001:00014380       _xpcGetPciConfigAtSlot     10015380 f   xpcruntime:xpcimports.obj
 0001:000143a0       _xpcInitProcs              100153a0 f   xpcruntime:xpcimports.obj
 0001:00015a20       _xpceuploadevent           10016a20 f   xpcruntime:xpcimports.obj
 0001:00015a30       __ftoui3                   10016a30 f   LIBCMT:ftol3.obj
 0001:00015a3f       __ftoul3                   10016a3f f   LIBCMT:ftol3.obj
 0001:00015a4e       __ftol3                    10016a4e f   LIBCMT:ftol3.obj
 0001:00015a5b       __ftol3_NaN                10016a5b f   LIBCMT:ftol3.obj
 0001:00015a73       __ftol3_work               10016a73 f   LIBCMT:ftol3.obj
 0001:00015af9       __ftol3_common             10016af9 f   LIBCMT:ftol3.obj
 0001:00015bbb       __ftol3_arg_error          10016bbb f   LIBCMT:ftol3.obj
 0001:00015bcd       __ftol3_except             10016bcd f   LIBCMT:ftol3.obj
 0001:00015c11       __dtoui3                   10016c11 f   LIBCMT:ftol3.obj
 0001:00015c20       __dtoul3                   10016c20 f   LIBCMT:ftol3.obj
 0001:00015c2f       __dtol3                    10016c2f f   LIBCMT:ftol3.obj
 0001:00015c3c       __dtol3_NaN                10016c3c f   LIBCMT:ftol3.obj
 0001:00015c59       __dtol3_work               10016c59 f   LIBCMT:ftol3.obj
 0001:00015d40       __ultod3                   10016d40 f   LIBCMT:ftol3.obj
 0001:00015d80       __ltod3                    10016d80 f   LIBCMT:ftol3.obj
 0001:00015e84       ___raise_securityfailure   10016e84 f   LIBCMT:gs_report.obj
 0001:00015eb6       ___report_gsfailure        10016eb6 f   LIBCMT:gs_report.obj
 0001:00015fed       ___report_rangecheckfailure 10016fed f   LIBCMT:gs_report.obj
 0001:00015ffc       ___report_securityfailure  10016ffc f   LIBCMT:gs_report.obj
 0001:000160fd       ___report_securityfailureEx 100170fd f   LIBCMT:gs_report.obj
 0001:00016256       @__security_check_cookie@4 10017256 f   LIBCMT:secchk.obj
 0001:0001626b       ___isa_available_init      1001726b f   LIBCMT:cpu_disp.obj
 0001:0001684c       __CRT_INIT@12              1001784c f   LIBCMT:dll_dllmain.obj
 0001:00016857       __DllMainCRTStartup@12     10017857 f   LIBCMT:dll_dllmain.obj
 0001:000168e2       ___security_init_cookie    100178e2 f   LIBCMT:gs_support.obj
 0001:0001693f       ?__scrt_initialize_type_info@@YAXXZ 1001793f f   LIBCMT:tncleanup.obj
 0001:0001694e       ?__scrt_uninitialize_type_info@@YAXXZ 1001794e f   LIBCMT:tncleanup.obj
 0001:0001695d       ___local_stdio_scanf_options 1001795d f i LIBCMT:default_local_stdio_options.obj
 0001:00016963       ___scrt_initialize_default_local_stdio_options 10017963 f   LIBCMT:default_local_stdio_options.obj
 0001:00016987       ??$__crt_fast_decode_pointer@PAP6AXXZ@@YAPAP6AXXZQAP6AXXZ@Z 10017987 f i LIBCMT:utility.obj
 0001:000169a0       ??$__crt_fast_encode_pointer@PAP6AXXZ@@YAPAP6AXXZQAP6AXXZ@Z 100179a0 f i LIBCMT:utility.obj
 0001:000169c4       ?__crt_rotate_pointer_value@@YAIIH@Z 100179c4 f i LIBCMT:utility.obj
 0001:000169d4       ?configure_argv@__scrt_narrow_argv_policy@@SAHXZ 100179d4 f i LIBCMT:utility.obj
 0001:00016a39       ?initialize_environment@__scrt_narrow_environment_policy@@SAHXZ 10017a39 f i LIBCMT:utility.obj
 0001:00016a7f       _NtCurrentTeb              10017a7f f i LIBCMT:utility.obj
 0001:00016a86       ___scrt_acquire_startup_lock 10017a86 f   LIBCMT:utility.obj
 0001:00016ac4       ___scrt_dllmain_after_initialize_c 10017ac4 f   LIBCMT:utility.obj
 0001:00016af9       ___scrt_dllmain_before_initialize_c 10017af9 f   LIBCMT:utility.obj
 0001:00016b0a       ___scrt_dllmain_crt_thread_attach 10017b0a f   LIBCMT:utility.obj
 0001:00016b30       ___scrt_dllmain_crt_thread_detach 10017b30 f   LIBCMT:utility.obj
 0001:00016b40       ___scrt_dllmain_exception_filter 10017b40 f   LIBCMT:utility.obj
 0001:00016b81       ___scrt_dllmain_uninitialize_c 10017b81 f   LIBCMT:utility.obj
 0001:00016bac       ___scrt_dllmain_uninitialize_critical 10017bac f   LIBCMT:utility.obj
 0001:00016bbc       ___scrt_initialize_crt     10017bbc f   LIBCMT:utility.obj
 0001:00016c03       ___scrt_initialize_onexit_tables 10017c03 f   LIBCMT:utility.obj
 0001:00016cd1       ___scrt_is_nonwritable_in_current_image 10017cd1 f   LIBCMT:utility.obj
 0001:00016d8a       ___scrt_release_startup_lock 10017d8a f   LIBCMT:utility.obj
 0001:00016dae       ___scrt_uninitialize_crt   10017dae f   LIBCMT:utility.obj
 0001:00016de0       __onexit                   10017de0 f   LIBCMT:utility.obj
 0001:00016e29       _at_quick_exit             10017e29 f   LIBCMT:utility.obj
 0001:00016e66       _atexit                    10017e66 f   LIBCMT:utility.obj
 0001:00016e80       ___scrt_get_dyn_tls_init_callback 10017e80 f   LIBCMT:dyn_tls_init.obj
 0001:00016e86       ___scrt_fastfail           10017e86 f   LIBCMT:utility_desktop.obj
 0001:00016fe6       ___scrt_get_show_window_mode 10017fe6 f   LIBCMT:utility_desktop.obj
 0001:00017023       ___scrt_initialize_mta     10018023 f   LIBCMT:utility_desktop.obj
 0001:00017028       ___scrt_initialize_winrt   10018028 f   LIBCMT:utility_desktop.obj
 0001:0001702b       ___scrt_is_managed_app     1001802b f   LIBCMT:utility_desktop.obj
 0001:0001707e       ___scrt_set_unhandled_exception_filter 1001807e f   LIBCMT:utility_desktop.obj
 0001:0001708d       ___scrt_exe_initialize_mta 1001808d f   LIBCMT:utility_desktop.obj
 0001:0001708d       ___scrt_stub_for_initialize_mta 1001808d f   LIBCMT:utility_desktop.obj
 0001:00017090       ___scrt_unhandled_exception_filter@4 10018090 f   LIBCMT:utility_desktop.obj
 0001:000170e1       __crt_debugger_hook        100180e1 f   LIBCMT:utility_desktop.obj
 0001:000170eb       __RTC_Initialize           100180eb f   LIBCMT:initsect.obj
 0001:00017122       __RTC_Terminate            10018122 f   LIBCMT:initsect.obj
 0001:00017160       __SEH_prolog4              10018160 f   LIBCMT:sehprolg4.obj
 0001:000171a6       __SEH_epilog4              100181a6 f   LIBCMT:sehprolg4.obj
 0001:000171d1       @_guard_check_icall_nop@4  100181d1 f i LIBCMT:guard_support.obj
 0001:000171d2       _ReadNoFence               100181d2 f i LIBCMT:guard_support.obj
 0001:000171de       _ReadPointerNoFence        100181de f i LIBCMT:guard_support.obj
 0001:000171ea       __guard_icall_checks_enforced 100181ea f i LIBCMT:guard_support.obj
 0001:00017200       __get_startup_argv_mode    10018200 f   LIBCMT:argv_mode.obj
 0001:00017204       ___scrt_is_ucrt_dll_in_use 10018204 f   LIBCMT:ucrt_detection.obj
 0001:00017213       _GetModuleHandleA@4        10018213 f   kernel32:KERNEL32.dll
 0001:00017219       _GetProcAddress@8          10018219 f   kernel32:KERNEL32.dll
 0001:0001721f       _UnhandledExceptionFilter@4 1001821f f   kernel32:KERNEL32.dll
 0001:00017225       _SetUnhandledExceptionFilter@4 10018225 f   kernel32:KERNEL32.dll
 0001:0001722b       _GetCurrentProcess@0       1001822b f   kernel32:KERNEL32.dll
 0001:00017231       _TerminateProcess@8        10018231 f   kernel32:KERNEL32.dll
 0001:00017237       _IsProcessorFeaturePresent@4 10018237 f   kernel32:KERNEL32.dll
 0001:0001723d       _QueryPerformanceCounter@4 1001823d f   kernel32:KERNEL32.dll
 0001:00017243       _GetCurrentProcessId@0     10018243 f   kernel32:KERNEL32.dll
 0001:00017249       _GetCurrentThreadId@0      10018249 f   kernel32:KERNEL32.dll
 0001:0001724f       _GetSystemTimeAsFileTime@4 1001824f f   kernel32:KERNEL32.dll
 0001:00017255       _InitializeSListHead@4     10018255 f   kernel32:KERNEL32.dll
 0001:0001725b       _IsDebuggerPresent@0       1001825b f   kernel32:KERNEL32.dll
 0001:00017261       _GetStartupInfoW@4         10018261 f   kernel32:KERNEL32.dll
 0001:00017267       _GetModuleHandleW@4        10018267 f   kernel32:KERNEL32.dll
 0001:00017270       _memcpy                    10018270 f   libvcruntime:memcpy.obj
 0001:00017950       _strchr                    10018950 f   libvcruntime:strchr.obj
 0001:000179be       ___from_strstr_to_strchr   100189be     libvcruntime:strchr.obj
 0001:00017ad0       _memmove                   10018ad0 f   libvcruntime:memmove.obj
 0001:000181b0       _memset                    100191b0 f   libvcruntime:memset.obj
 0001:000183a0       __except_handler4          100193a0 f   libvcruntime:chandler4.obj
 0001:0001855c       ??$?RD@__crt_internal_free_policy@@QBEXQBD@Z 1001955c f i libvcruntime:std_type_info.obj
 0001:00018570       ??$?RX@__crt_internal_free_policy@@QBEXQBX@Z 10019570 f i libvcruntime:std_type_info.obj
 0001:00018584       ??$__crt_interlocked_compare_exchange_pointer@$$CBDPAD$$T@@YAPBDPDSBDQAD$$T@Z 10019584 f i libvcruntime:std_type_info.obj
 0001:0001859a       ??$__crt_interlocked_read_pointer@$$CBD@@YAPBDPDSBD@Z 1001959a f i libvcruntime:std_type_info.obj
 0001:000185a6       ??0?$__crt_unique_heap_ptr@DU__crt_internal_free_policy@@@@QAE@QAD@Z 100195a6 f i libvcruntime:std_type_info.obj
 0001:000185b7       ??0?$__crt_unique_heap_ptr@XU__crt_internal_free_policy@@@@QAE@QAX@Z 100195b7 f i libvcruntime:std_type_info.obj
 0001:000185c8       ??1?$__crt_unique_heap_ptr@DU__crt_internal_free_policy@@@@QAE@XZ 100195c8 f i libvcruntime:std_type_info.obj
 0001:000185dc       ??1?$__crt_unique_heap_ptr@XU__crt_internal_free_policy@@@@QAE@XZ 100195dc f i libvcruntime:std_type_info.obj
 0001:000185fc       ??B?$__crt_unique_heap_ptr@DU__crt_internal_free_policy@@@@QBE_NXZ 100195fc f i libvcruntime:std_type_info.obj
 0001:00018603       ??B?$__crt_unique_heap_ptr@XU__crt_internal_free_policy@@@@QBE_NXZ 10019603 f i libvcruntime:std_type_info.obj
 0001:00018632       ?__crt_interlocked_read_32@@YAHPDH@Z 10019632 f i libvcruntime:std_type_info.obj
 0001:0001863e       ?detach@?$__crt_unique_heap_ptr@XU__crt_internal_free_policy@@@@QAEPAXXZ 1001963e f i libvcruntime:std_type_info.obj
 0001:00018644       ?get@?$__crt_unique_heap_ptr@DU__crt_internal_free_policy@@@@QBEPADXZ 10019644 f i libvcruntime:std_type_info.obj
 0001:00018647       ?get@?$__crt_unique_heap_ptr@XU__crt_internal_free_policy@@@@QBEPAXXZ 10019647 f i libvcruntime:std_type_info.obj
 0001:0001864a       ?is_valid@?$__crt_unique_heap_ptr@DU__crt_internal_free_policy@@@@QBE_NXZ 1001964a f i libvcruntime:std_type_info.obj
 0001:00018651       ?is_valid@?$__crt_unique_heap_ptr@XU__crt_internal_free_policy@@@@QBE_NXZ 10019651 f i libvcruntime:std_type_info.obj
 0001:00018658       ?release@?$__crt_unique_heap_ptr@DU__crt_internal_free_policy@@@@QAEXXZ 10019658 f i libvcruntime:std_type_info.obj
 0001:0001866c       ?release@?$__crt_unique_heap_ptr@XU__crt_internal_free_policy@@@@QAEXXZ 1001966c f i libvcruntime:std_type_info.obj
 0001:00018680       ___std_type_info_compare   10019680 f   libvcruntime:std_type_info.obj
 0001:000186cb       ___std_type_info_destroy_list 100196cb f   libvcruntime:std_type_info.obj
 0001:000186f6       ___std_type_info_hash      100196f6 f   libvcruntime:std_type_info.obj
 0001:00018725       ___std_type_info_name      10019725 f   libvcruntime:std_type_info.obj
 0001:00018818       ___vcrt_initialize         10019818 f   libvcruntime:initialization.obj
 0001:0001884b       ___vcrt_thread_attach      1001984b f   libvcruntime:initialization.obj
 0001:00018858       ___vcrt_thread_detach      10019858 f   libvcruntime:initialization.obj
 0001:00018865       ___vcrt_uninitialize       10019865 f   libvcruntime:initialization.obj
 0001:0001888b       ___vcrt_uninitialize_critical 1001988b f   libvcruntime:initialization.obj
 0001:000188a0       __local_unwind4            100198a0 f   libvcruntime:exsup4.obj
 0001:00018978       __seh_longjmp_unwind4@4    10019978 f   libvcruntime:exsup4.obj
 0001:000189a0       @_EH4_CallFilterFunc@8     100199a0 f   libvcruntime:exsup4.obj
 0001:000189b8       @_EH4_TransferToHandler@8  100199b8 f   libvcruntime:exsup4.obj
 0001:000189d4       @_EH4_GlobalUnwind2@8      100199d4 f   libvcruntime:exsup4.obj
 0001:000189f0       @_EH4_LocalUnwind@16       100199f0 f   libvcruntime:exsup4.obj
 0001:00018a6d       ___except_validate_context_record 10019a6d f   libvcruntime:jbcxrval.obj
 0001:00018aa9       ___except_validate_jump_buffer 10019aa9 f   libvcruntime:jbcxrval.obj
 0001:00018ae1       ___except_validate_jump_buffer_common 10019ae1 f i libvcruntime:jbcxrval.obj
 0001:00018b28       ??0Block@_HeapManager@@QAE@XZ 10019b28 f i libvcruntime:undname.obj
 0001:00018b2e       ??0DName@@QAE@AAPBDD@Z     10019b2e f   libvcruntime:undname.obj
 0001:00018c0c       ??0DName@@QAE@ABV0@@Z      10019c0c f i libvcruntime:undname.obj
 0001:00018c27       ??0DName@@QAE@D@Z          10019c27 f   libvcruntime:undname.obj
 0001:00018c55       ??0DName@@QAE@PAV0@@Z      10019c55 f   libvcruntime:undname.obj
 0001:00018caf       ??0DName@@QAE@PBD@Z        10019caf f   libvcruntime:undname.obj
 0001:00018cee       ??0DName@@QAE@W4DNameStatus@@@Z 10019cee f   libvcruntime:undname.obj
 0001:00018d3e       ??0DName@@QAE@XZ           10019d3e f i libvcruntime:undname.obj
 0001:00018d4a       ??0DName@@QAE@_J@Z         10019d4a f   libvcruntime:undname.obj
 0001:00018df9       ??0DName@@QAE@_K@Z         10019df9 f   libvcruntime:undname.obj
 0001:00018e78       ??0DNameNode@@IAE@XZ       10019e78 f i libvcruntime:undname.obj
 0001:00018e83       ??0Replicator@@QAE@XZ      10019e83 f i libvcruntime:undname.obj
 0001:00018e94       ??0UnDecorator@@QAE@PBDP6APADJ@ZK@Z 10019e94 f i libvcruntime:undname.obj
 0001:00018ef3       ??0charNode@@QAE@D@Z       10019ef3 f i libvcruntime:undname.obj
 0001:00018f0d       ??0pDNameNode@@QAE@PAVDName@@@Z 10019f0d f   libvcruntime:undname.obj
 0001:00018f3f       ??0pairNode@@QAE@PBVDNameNode@@0@Z 10019f3f f i libvcruntime:undname.obj
 0001:00018f65       ??0pcharNode@@QAE@PBDH@Z   10019f65 f   libvcruntime:undname.obj
 0001:00018fdb       ??2@YAPAXIAAV_HeapManager@@H@Z 10019fdb f i libvcruntime:undname.obj
 0001:00018ff5       ??4DName@@QAEAAV0@ABV0@@Z  10019ff5 f   libvcruntime:undname.obj
 0001:00019010       ??4DName@@QAEAAV0@D@Z      1001a010 f i libvcruntime:undname.obj
 0001:0001903e       ??4DName@@QAEAAV0@PAV0@@Z  1001a03e f   libvcruntime:undname.obj
 0001:00019090       ??4DName@@QAEAAV0@PBD@Z    1001a090 f   libvcruntime:undname.obj
 0001:000190c5       ??4DName@@QAEAAV0@W4DNameStatus@@@Z 1001a0c5 f   libvcruntime:undname.obj
 0001:00019103       ??AReplicator@@QBE?AVDName@@H@Z 1001a103 f   libvcruntime:undname.obj
 0001:0001915a       ??H@YA?AVDName@@DABV0@@Z   1001a15a f i libvcruntime:undname.obj
 0001:00019184       ??H@YA?AVDName@@PBDABV0@@Z 1001a184 f i libvcruntime:undname.obj
 0001:000191ae       ??H@YA?AVDName@@W4DNameStatus@@ABV0@@Z 1001a1ae f i libvcruntime:undname.obj
 0001:000191d8       ??HDName@@QBE?AV0@ABV0@@Z  1001a1d8 f   libvcruntime:undname.obj
 0001:00019202       ??HDName@@QBE?AV0@D@Z      1001a202 f   libvcruntime:undname.obj
 0001:0001922c       ??HDName@@QBE?AV0@PAV0@@Z  1001a22c f   libvcruntime:undname.obj
 0001:00019256       ??HDName@@QBE?AV0@PBD@Z    1001a256 f   libvcruntime:undname.obj
 0001:00019280       ??HDName@@QBE?AV0@W4DNameStatus@@@Z 1001a280 f   libvcruntime:undname.obj
 0001:000192aa       ??YDName@@QAEAAV0@ABV0@@Z  1001a2aa f   libvcruntime:undname.obj
 0001:000192fb       ??YDName@@QAEAAV0@D@Z      1001a2fb f   libvcruntime:undname.obj
 0001:0001935f       ??YDName@@QAEAAV0@PAV0@@Z  1001a35f f   libvcruntime:undname.obj
 0001:000193dd       ??YDName@@QAEAAV0@PBD@Z    1001a3dd f   libvcruntime:undname.obj
 0001:00019456       ??YDName@@QAEAAV0@W4DNameStatus@@@Z 1001a456 f   libvcruntime:undname.obj
 0001:000194a6       ??YReplicator@@QAEAAV0@ABVDName@@@Z 1001a4a6 f   libvcruntime:undname.obj
 0001:00019502       ??_5DName@@QAEAAV0@ABV0@@Z 1001a502 f   libvcruntime:undname.obj
 0001:00019525       ?Constructor@_HeapManager@@QAEXP6APAXI@ZP6AXPAX@Z@Z 1001a525 f i libvcruntime:undname.obj
 0001:00019549       ?Destructor@_HeapManager@@QAEXXZ 1001a549 f i libvcruntime:undname.obj
 0001:0001958f       ?UScore@UnDecorator@@SAPBDW4Tokens@@@Z 1001a58f f   libvcruntime:undname.obj
 0001:000195b5       ?append@DName@@AAEXPBVDNameNode@@@Z 1001a5b5 f   libvcruntime:undname.obj
 0001:0001960c       ?composeDeclaration@UnDecorator@@CA?AVDName@@ABV2@@Z 1001a60c f i libvcruntime:undname.obj
 0001:0001a620       ?doAccessSpecifiers@UnDecorator@@SAHXZ 1001b620 f i libvcruntime:undname.obj
 0001:0001a631       ?doAllocationLanguage@UnDecorator@@SAHXZ 1001b631 f i libvcruntime:undname.obj
 0001:0001a642       ?doAllocationModel@UnDecorator@@SAHXZ 1001b642 f i libvcruntime:undname.obj
 0001:0001a653       ?doEcsu@UnDecorator@@SAHXZ 1001b653 f i libvcruntime:undname.obj
 0001:0001a664       ?doEllipsis@UnDecorator@@SAHXZ 1001b664 f i libvcruntime:undname.obj
 0001:0001a675       ?doFunctionReturns@UnDecorator@@SAHXZ 1001b675 f i libvcruntime:undname.obj
 0001:0001a686       ?doMSKeywords@UnDecorator@@SAHXZ 1001b686 f i libvcruntime:undname.obj
 0001:0001a696       ?doMemberTypes@UnDecorator@@SAHXZ 1001b696 f i libvcruntime:undname.obj
 0001:0001a6a7       ?doNameOnly@UnDecorator@@SAHXZ 1001b6a7 f i libvcruntime:undname.obj
 0001:0001a6b4       ?doNoIdentCharCheck@UnDecorator@@SAHXZ 1001b6b4 f i libvcruntime:undname.obj
 0001:0001a6c1       ?doPchar@DName@@AAEXPBDH@Z 1001b6c1 f   libvcruntime:undname.obj
 0001:0001a768       ?doPtr64@UnDecorator@@SAHXZ 1001b768 f i libvcruntime:undname.obj
 0001:0001a779       ?doRestrictionSpec@UnDecorator@@SAHXZ 1001b779 f i libvcruntime:undname.obj
 0001:0001a78a       ?doThisTypes@UnDecorator@@SAHXZ 1001b78a f i libvcruntime:undname.obj
 0001:0001a7a0       ?doThrowTypes@UnDecorator@@SAHXZ 1001b7a0 f i libvcruntime:undname.obj
 0001:0001a7b1       ?doTypeOnly@UnDecorator@@SAHXZ 1001b7b1 f i libvcruntime:undname.obj
 0001:0001a7be       ?doUnderScore@UnDecorator@@SAHXZ 1001b7be f i libvcruntime:undname.obj
 0001:0001a7cb       ?getArgumentList@UnDecorator@@CA?AVDName@@XZ 1001b7cb f   libvcruntime:undname.obj
 0001:0001a8fe       ?getArgumentTypes@UnDecorator@@CA?AVDName@@XZ 1001b8fe f   libvcruntime:undname.obj
 0001:0001a9fa       ?getArrayType@UnDecorator@@CA?AVDName@@ABV2@@Z 1001b9fa f i libvcruntime:undname.obj
 0001:0001ac17       ?getBasedType@UnDecorator@@CA?AVDName@@XZ 1001bc17 f   libvcruntime:undname.obj
 0001:0001acd5       ?getBasicDataType@UnDecorator@@CA?AVDName@@ABV2@@Z 1001bcd5 f   libvcruntime:undname.obj
 0001:0001b1ab       ?getCHPEName@UnDecorator@@QAEPADPADH@Z 1001c1ab f i libvcruntime:undname.obj
 0001:0001b2c1       ?getCallIndex@UnDecorator@@CA?AVDName@@XZ 1001c2c1 f i libvcruntime:undname.obj
 0001:0001b2da       ?getCallingConvention@UnDecorator@@CA?AVDName@@XZ 1001c2da f   libvcruntime:undname.obj
 0001:0001b3e1       ?getDataIndirectType@UnDecorator@@CA?AVDName@@ABV2@PBD0H@Z 1001c3e1 f   libvcruntime:undname.obj
 0001:0001bb45       ?getDataIndirectType@UnDecorator@@CA?AVDName@@XZ 1001cb45 f i libvcruntime:undname.obj
 0001:0001bb83       ?getDataType@UnDecorator@@CA?AVDName@@PAV2@@Z 1001cb83 f   libvcruntime:undname.obj
 0001:0001bc79       ?getDecoratedName@UnDecorator@@CA?AVDName@@XZ 1001cc79 f   libvcruntime:undname.obj
 0001:0001bf4b       ?getDimension@UnDecorator@@CA?AVDName@@_N@Z 1001cf4b f   libvcruntime:undname.obj
 0001:0001c0b1       ?getDispatchTarget@UnDecorator@@CA?AVDName@@XZ 1001d0b1 f   libvcruntime:undname.obj
 0001:0001c11a       ?getDisplacement@UnDecorator@@CA?AVDName@@XZ 1001d11a f i libvcruntime:undname.obj
 0001:0001c133       ?getECSUDataType@UnDecorator@@CA?AVDName@@XZ 1001d133 f   libvcruntime:undname.obj
 0001:0001c291       ?getECSUName@UnDecorator@@CA?AVDName@@XZ 1001d291 f i libvcruntime:undname.obj
 0001:0001c2a6       ?getEnumType@UnDecorator@@CA?AVDName@@XZ 1001d2a6 f i libvcruntime:undname.obj
 0001:0001c3d2       ?getExtendedDataIndirectType@UnDecorator@@CA?AVDName@@AAPBDAA_NH@Z 1001d3d2 f   libvcruntime:undname.obj
 0001:0001c5f6       ?getExternalDataType@UnDecorator@@CA?AVDName@@ABV2@@Z 1001d5f6 f i libvcruntime:undname.obj
 0001:0001c676       ?getFunctionIndirectType@UnDecorator@@CA?AVDName@@ABV2@@Z 1001d676 f   libvcruntime:undname.obj
 0001:0001cb44       ?getGuardNumber@UnDecorator@@CA?AVDName@@XZ 1001db44 f i libvcruntime:undname.obj
 0001:0001cb5d       ?getLastChar@DName@@QBEDXZ 1001db5d f i libvcruntime:undname.obj
 0001:0001cb85       ?getLastChar@DNameStatusNode@@UBEDXZ 1001db85 f i libvcruntime:undname.obj
 0001:0001cb94       ?getLastChar@charNode@@UBEDXZ 1001db94 f i libvcruntime:undname.obj
 0001:0001cb98       ?getLastChar@pDNameNode@@UBEDXZ 1001db98 f i libvcruntime:undname.obj
 0001:0001cba9       ?getLastChar@pairNode@@UBEDXZ 1001dba9 f i libvcruntime:undname.obj
 0001:0001cbeb       ?getLastChar@pcharNode@@UBEDXZ 1001dbeb f i libvcruntime:undname.obj
 0001:0001cc01       ?getLexicalFrame@UnDecorator@@CA?AVDName@@XZ 1001dc01 f i libvcruntime:undname.obj
 0001:0001cc4f       ?getMemory@_HeapManager@@QAEPAXIH@Z 1001dc4f f   libvcruntime:undname.obj
 0001:0001ccf7       ?getNoexcept@UnDecorator@@CA?AVDName@@XZ 1001dcf7 f   libvcruntime:undname.obj
 0001:0001cd4d       ?getNumberOfDimensions@UnDecorator@@CAHXZ 1001dd4d f   libvcruntime:undname.obj
 0001:0001cdc6       ?getOperatorName@UnDecorator@@CA?AVDName@@_NPA_N@Z 1001ddc6 f i libvcruntime:undname.obj
 0001:0001d5b4       ?getPointerType@UnDecorator@@CA?AVDName@@ABV2@0@Z 1001e5b4 f i libvcruntime:undname.obj
 0001:0001d5d9       ?getPointerTypeArray@UnDecorator@@CA?AVDName@@ABV2@0@Z 1001e5d9 f i libvcruntime:undname.obj
 0001:0001d5fe       ?getPrimaryDataType@UnDecorator@@CA?AVDName@@ABV2@@Z 1001e5fe f   libvcruntime:undname.obj
 0001:0001d85b       ?getPtrRefDataType@UnDecorator@@CA?AVDName@@ABV2@H@Z 1001e85b f   libvcruntime:undname.obj
 0001:0001d9ce       ?getPtrRefType@UnDecorator@@CA?AVDName@@ABV2@0PBD@Z 1001e9ce f   libvcruntime:undname.obj
 0001:0001db06       ?getReferenceType@UnDecorator@@CA?AVDName@@ABV2@0PBD@Z 1001eb06 f i libvcruntime:undname.obj
 0001:0001db29       ?getRestrictionSpec@UnDecorator@@CA?AVDName@@XZ 1001eb29 f   libvcruntime:undname.obj
 0001:0001dc60       ?getReturnType@UnDecorator@@CA?AVDName@@PAV2@@Z 1001ec60 f   libvcruntime:undname.obj
 0001:0001dc9a       ?getScope@UnDecorator@@CA?AVDName@@XZ 1001ec9a f   libvcruntime:undname.obj
 0001:0001e113       ?getScopedName@UnDecorator@@CA?AVDName@@XZ 1001f113 f   libvcruntime:undname.obj
 0001:0001e21c       ?getSignedDimension@UnDecorator@@CA?AVDName@@XZ 1001f21c f   libvcruntime:undname.obj
 0001:0001e281       ?getStorageConvention@UnDecorator@@CA?AVDName@@XZ 1001f281 f i libvcruntime:undname.obj
 0001:0001e296       ?getString@DName@@QBEPADPAD0@Z 1001f296 f i libvcruntime:undname.obj
 0001:0001e2ce       ?getString@DName@@QBEPADPADH@Z 1001f2ce f i libvcruntime:undname.obj
 0001:0001e339       ?getString@DNameStatusNode@@UBEPADPAD0@Z 1001f339 f i libvcruntime:undname.obj
 0001:0001e369       ?getString@charNode@@UBEPADPAD0@Z 1001f369 f i libvcruntime:undname.obj
 0001:0001e383       ?getString@pDNameNode@@UBEPADPAD0@Z 1001f383 f i libvcruntime:undname.obj
 0001:0001e39f       ?getString@pairNode@@UBEPADPAD0@Z 1001f39f f i libvcruntime:undname.obj
 0001:0001e3f6       ?getString@pcharNode@@UBEPADPAD0@Z 1001f3f6 f i libvcruntime:undname.obj
 0001:0001e417       ?getStringEncoding@UnDecorator@@CA?AVDName@@PBDH@Z 1001f417 f   libvcruntime:undname.obj
 0001:0001e4f3       ?getStringHelper@@YAPADPADPBD1H@Z 1001f4f3 f i libvcruntime:undname.obj
 0001:0001e537       ?getSymbolName@UnDecorator@@CA?AVDName@@XZ 1001f537 f i libvcruntime:undname.obj
 0001:0001e591       ?getTemplateArgumentList@UnDecorator@@CA?AVDName@@XZ 1001f591 f   libvcruntime:undname.obj
 0001:0001e8d5       ?getTemplateConstant@UnDecorator@@CA?AVDName@@XZ 1001f8d5 f   libvcruntime:undname.obj
 0001:0001ecd3       ?getTemplateName@UnDecorator@@CA?AVDName@@_N@Z 1001fcd3 f   libvcruntime:undname.obj
 0001:0001ee8d       ?getThisType@UnDecorator@@CA?AVDName@@XZ 1001fe8d f i libvcruntime:undname.obj
 0001:0001eecc       ?getThrowTypes@UnDecorator@@CA?AVDName@@XZ 1001fecc f   libvcruntime:undname.obj
 0001:0001eef7       ?getTypeEncoding@UnDecorator@@CAHXZ 1001fef7 f i libvcruntime:undname.obj
 0001:0001f2e9       ?getUndecoratedName@UnDecorator@@QAEPADPADH@Z 100202e9 f i libvcruntime:undname.obj
 0001:0001f3de       ?getVCallThunkType@UnDecorator@@CA?AVDName@@XZ 100203de f i libvcruntime:undname.obj
 0001:0001f436       ?getVbTableType@UnDecorator@@CA?AVDName@@ABV2@@Z 10020436 f i libvcruntime:undname.obj
 0001:0001f450       ?getVdispMapType@UnDecorator@@CA?AVDName@@ABV2@@Z 10020450 f i libvcruntime:undname.obj
 0001:0001f4b9       ?getVfTableType@UnDecorator@@CA?AVDName@@ABV2@@Z 100204b9 f i libvcruntime:undname.obj
 0001:0001f674       ?getZName@UnDecorator@@CA?AVDName@@_N0@Z 10020674 f   libvcruntime:undname.obj
 0001:0001f8f2       ?haveTemplateParameters@UnDecorator@@SAHXZ 100208f2 f i libvcruntime:undname.obj
 0001:0001f8ff       ?isArray@DName@@QBEHXZ     100208ff f i libvcruntime:undname.obj
 0001:0001f90b       ?isComArray@DName@@QBEHXZ  1002090b f i libvcruntime:undname.obj
 0001:0001f917       ?isEmpty@DName@@QBEHXZ     10020917 f i libvcruntime:undname.obj
 0001:0001f921       ?isFull@Replicator@@QBEHXZ 10020921 f i libvcruntime:undname.obj
 0001:0001f92c       ?isNoTE@DName@@QBEHXZ      1002092c f i libvcruntime:undname.obj
 0001:0001f938       ?isPinPtr@DName@@QBEHXZ    10020938 f i libvcruntime:undname.obj
 0001:0001f944       ?isPtrRef@DName@@QBEHXZ    10020944 f i libvcruntime:undname.obj
 0001:0001f950       ?isUDC@DName@@QBEHXZ       10020950 f i libvcruntime:undname.obj
 0001:0001f965       ?isUDTThunk@DName@@QBEHXZ  10020965 f i libvcruntime:undname.obj
 0001:0001f97a       ?isVCallThunk@DName@@QBEHXZ 1002097a f i libvcruntime:undname.obj
 0001:0001f986       ?isValid@DName@@QBEHXZ     10020986 f i libvcruntime:undname.obj
 0001:0001f992       ?length@DName@@QBEHXZ      10020992 f i libvcruntime:undname.obj
 0001:0001f9b8       ?length@DNameStatusNode@@UBEHXZ 100209b8 f i libvcruntime:undname.obj
 0001:0001f9bc       ?length@charNode@@UBEHXZ   100209bc f i libvcruntime:undname.obj
 0001:0001f9c0       ?length@pDNameNode@@UBEHXZ 100209c0 f i libvcruntime:undname.obj
 0001:0001f9d1       ?length@pairNode@@UBEHXZ   100209d1 f i libvcruntime:undname.obj
 0001:0001fa28       ?length@pcharNode@@UBEHXZ  10020a28 f i libvcruntime:undname.obj
 0001:0001fa2c       ?make@DNameStatusNode@@SAPBV1@W4DNameStatus@@@Z 10020a2c f i libvcruntime:undname.obj
 0001:0001fa4f       ?parseDecoratedName@UnDecorator@@CA?AVDName@@XZ 10020a4f f   libvcruntime:undname.obj
 0001:0001fb78       ?setIsArray@DName@@QAEXXZ  10020b78 f i libvcruntime:undname.obj
 0001:0001fb82       ?setIsComArray@DName@@QAEXXZ 10020b82 f i libvcruntime:undname.obj
 0001:0001fb8c       ?setIsNoTE@DName@@QAEXXZ   10020b8c f i libvcruntime:undname.obj
 0001:0001fb96       ?setIsPinPtr@DName@@QAEXXZ 10020b96 f i libvcruntime:undname.obj
 0001:0001fba0       ?setIsUDC@DName@@QAEXXZ    10020ba0 f i libvcruntime:undname.obj
 0001:0001fbb0       ?setIsVCallThunk@DName@@QAEXXZ 10020bb0 f i libvcruntime:undname.obj
 0001:0001fbba       ?setPtrRef@DName@@QAEAAV1@XZ 10020bba f i libvcruntime:undname.obj
 0001:0001fbc6       ?status@DName@@QBE?AW4DNameStatus@@XZ 10020bc6 f i libvcruntime:undname.obj
 0001:0001fc4b       ___unDName                 10020c4b f   libvcruntime:undname.obj
 0001:0001fc76       ___unDNameEx               10020c76 f   libvcruntime:undname.obj
 0001:0001fd3c       __vsprintf_s_l             10020d3c f i libvcruntime:undname.obj
 0001:0001fd74       _sprintf_s                 10020d74 f i libvcruntime:undname.obj
 0001:0001fd97       _unDNameGenerateCHPE       10020d97 f   libvcruntime:undname.obj
 0001:0001fe0a       ??$?RU__vcrt_ptd@@@__crt_internal_free_policy@@QBEXQBU__vcrt_ptd@@@Z 10020e0a f i libvcruntime:per_thread_data.obj
 0001:0001fe1e       ??0?$__crt_unique_heap_ptr@U__vcrt_ptd@@U__crt_internal_free_policy@@@@QAE@QAU__vcrt_ptd@@@Z 10020e1e f i libvcruntime:per_thread_data.obj
 0001:0001fe41       ??1?$__crt_unique_heap_ptr@U__vcrt_ptd@@U__crt_internal_free_policy@@@@QAE@XZ 10020e41 f i libvcruntime:per_thread_data.obj
 0001:0001fe60       ??B?$__crt_unique_heap_ptr@U__vcrt_ptd@@U__crt_internal_free_policy@@@@QBE_NXZ 10020e60 f i libvcruntime:per_thread_data.obj
 0001:0001fe67       ?detach@?$__crt_unique_heap_ptr@U__vcrt_ptd@@U__crt_internal_free_policy@@@@QAEPAU__vcrt_ptd@@XZ 10020e67 f i libvcruntime:per_thread_data.obj
 0001:0001fe6d       ?get@?$__crt_unique_heap_ptr@U__vcrt_ptd@@U__crt_internal_free_policy@@@@QBEPAU__vcrt_ptd@@XZ 10020e6d f i libvcruntime:per_thread_data.obj
 0001:0001fe70       ?is_valid@?$__crt_unique_heap_ptr@U__vcrt_ptd@@U__crt_internal_free_policy@@@@QBE_NXZ 10020e70 f i libvcruntime:per_thread_data.obj
 0001:0001fe77       ?release@?$__crt_unique_heap_ptr@U__vcrt_ptd@@U__crt_internal_free_policy@@@@QAEXXZ 10020e77 f i libvcruntime:per_thread_data.obj
 0001:0001feab       ___vcrt_freefls@4          10020eab f   libvcruntime:per_thread_data.obj
 0001:0001fece       ___vcrt_freeptd            10020ece f   libvcruntime:per_thread_data.obj
 0001:0001ff11       ___vcrt_getptd             10020f11 f   libvcruntime:per_thread_data.obj
 0001:0001ff22       ___vcrt_getptd_noexit      10020f22 f   libvcruntime:per_thread_data.obj
 0001:0001ffd8       ___vcrt_getptd_noinit      10020fd8 f   libvcruntime:per_thread_data.obj
 0001:0002001c       ___vcrt_initialize_ptd     1002101c f   libvcruntime:per_thread_data.obj
 0001:0002005b       ___vcrt_uninitialize_ptd   1002105b f   libvcruntime:per_thread_data.obj
 0001:0002007c       ___vcrt_initialize_locks   1002107c f   libvcruntime:locks.obj
 0001:000200c7       ___vcrt_lock               100210c7 f   libvcruntime:locks.obj
 0001:000200e1       ___vcrt_uninitialize_locks 100210e1 f   libvcruntime:locks.obj
 0001:0002011b       ___vcrt_unlock             1002111b f   libvcruntime:locks.obj
 0001:00020135       ??$?BX@__crt_fast_encoded_nullptr_t@@QBEPAXXZ 10021135 f i libvcruntime:winapi_downlevel.obj
 0001:0002013b       ??$__crt_fast_decode_pointer@PAX@@YAPAXQAX@Z 1002113b f i libvcruntime:winapi_downlevel.obj
 0001:00020154       ??$__crt_fast_encode_pointer@PAX@@YAPAXQAX@Z 10021154 f i libvcruntime:winapi_downlevel.obj
 0001:00020178       ??$__crt_interlocked_exchange_pointer@UHINSTANCE__@@PAU1@@@YAPAUHINSTANCE__@@PDSAU0@QAU0@@Z 10021178 f i libvcruntime:winapi_downlevel.obj
 0001:00020188       ??$__crt_interlocked_exchange_pointer@UHINSTANCE__@@PAX@@YAPAUHINSTANCE__@@PDSAU0@QAX@Z 10021188 f i libvcruntime:winapi_downlevel.obj
 0001:00020198       ??$__crt_interlocked_exchange_pointer@XPAX@@YAPAXPDSAXQAX@Z 10021198 f i libvcruntime:winapi_downlevel.obj
 0001:000201a8       ??$__crt_interlocked_read_pointer@UHINSTANCE__@@@@YAPAUHINSTANCE__@@PDSAU0@@Z 100211a8 f i libvcruntime:winapi_downlevel.obj
 0001:000201b4       ??$__crt_interlocked_read_pointer@X@@YAPAXPDSAX@Z 100211b4 f i libvcruntime:winapi_downlevel.obj
 0001:000201c0       ?__crt_fast_encode_pointer@@YA?AU__crt_fast_encoded_nullptr_t@@$$T@Z 100211c0 f i libvcruntime:winapi_downlevel.obj
 0001:000204f3       ___vcrt_FlsAlloc           100214f3 f   libvcruntime:winapi_downlevel.obj
 0001:0002053c       ___vcrt_FlsFree            1002153c f   libvcruntime:winapi_downlevel.obj
 0001:00020585       ___vcrt_FlsGetValue        10021585 f   libvcruntime:winapi_downlevel.obj
 0001:000205ce       ___vcrt_FlsSetValue        100215ce f   libvcruntime:winapi_downlevel.obj
 0001:0002061b       ___vcrt_InitializeCriticalSectionEx 1002161b f   libvcruntime:winapi_downlevel.obj
 0001:00020673       ___vcrt_initialize_winapi_thunks 10021673 f   libvcruntime:winapi_downlevel.obj
 0001:000206a6       ___vcrt_uninitialize_winapi_thunks 100216a6 f   libvcruntime:winapi_downlevel.obj
 0001:000206e4       ??$?B$$A6AXXZ@__crt_fast_encoded_nullptr_t@@QBEP6AXXZXZ 100216e4 f i libvcruntime:purevirt_data.obj
 0001:000206ea       ??$__crt_fast_encode_pointer@P6AXXZ@@YAP6AXXZQ6AXXZ@Z 100216ea f i libvcruntime:purevirt_data.obj
 0001:0002070e       ___vcrt_initialize_pure_virtual_call_handler 1002170e f   libvcruntime:purevirt_data.obj
 0001:00020720       __global_unwind2           10021720 f   libvcruntime:exsup.obj
 0001:00020786       __local_unwind2            10021786 f   libvcruntime:exsup.obj
 0001:0002080a       __abnormal_termination     1002180a f   libvcruntime:exsup.obj
 0001:00020830       __NLG_Notify1              10021830 f   libvcruntime:exsup.obj
 0001:0002083c       __NLG_Notify               1002183c f   libvcruntime:exsup.obj
 0001:00020853       __NLG_Dispatch2            10021853     libvcruntime:exsup.obj
 0001:00020853       __NLG_Dispatch             10021853     libvcruntime:exsup.obj
 0001:0002085b       __NLG_Call                 1002185b f   libvcruntime:exsup.obj
 0001:0002085d       __NLG_Return2              1002185d     libvcruntime:exsup.obj
 0001:000208ad       ??$__crt_fast_decode_pointer@P6AXXZ@@YAP6AXXZQ6AXXZ@Z 100218ad f i libvcruntime:purevirt.obj
 0001:000208c6       ??$__crt_interlocked_exchange_pointer@$$A6AXXZP6AXXZ@@YAP6AXXZPDS6AXXZQ6AXXZ@Z 100218c6 f i libvcruntime:purevirt.obj
 0001:000208d6       ??$__crt_interlocked_read_pointer@$$A6AXXZ@@YAP6AXXZPDS6AXXZ@Z 100218d6 f i libvcruntime:purevirt.obj
 0001:000208e2       __get_purecall_handler     100218e2 f   libvcruntime:purevirt.obj
 0001:000208fc       __purecall                 100218fc f   libvcruntime:purevirt.obj
 0001:0002091f       __set_purecall_handler     1002191f f   libvcruntime:purevirt.obj
 0001:0002094d       ??$?0AAViterator@TryBlockMap@__FrameHandler3@@AAV012@$0A@@?$pair@Viterator@TryBlockMap@__FrameHandler3@@V123@@std@@QAE@AAViterator@TryBlockMap@__FrameHandler3@@0@Z 1002194d f i libvcruntime:trnsctrl.obj
 0001:0002097a       ??$forward@AAViterator@TryBlockMap@__FrameHandler3@@@std@@YAAAViterator@TryBlockMap@__FrameHandler3@@AAV123@@Z 1002197a f i libvcruntime:trnsctrl.obj
 0001:00020984       ??0iterator@TryBlockMap@__FrameHandler3@@QAE@AAV12@I@Z 10021984 f i libvcruntime:trnsctrl.obj
 0001:0002099d       ?GetRangeOfTrysToCheck@__FrameHandler3@@SA?AU?$pair@Viterator@TryBlockMap@__FrameHandler3@@V123@@std@@AAVTryBlockMap@1@HH@Z 1002199d f   libvcruntime:trnsctrl.obj
 0001:00020a3f       ?_CallCatchBlock2@@YAPAXPAUEHRegistrationNode@@PBU_s_FuncInfo@@PAXHK@Z 10021a3f f   libvcruntime:trnsctrl.obj
 0001:00020ab4       ?_CallSETranslator@@YAHPAUEHExceptionRecord@@PAUEHRegistrationNode@@PAX2PBU_s_FuncInfo@@H1@Z 10021ab4 f   libvcruntime:trnsctrl.obj
 0001:00020bc5       ?_JumpToContinuation@@YGXPAXPAUEHRegistrationNode@@@Z 10021bc5 f   libvcruntime:trnsctrl.obj
 0001:00020c01       ?_UnwindNestedFrames@@YGXPAUEHRegistrationNode@@PAUEHExceptionRecord@@@Z 10021c01 f   libvcruntime:trnsctrl.obj
 0001:00020c68       ?getFuncInfo@TryBlockMap@__FrameHandler3@@QAEPBU_s_FuncInfo@@XZ 10021c68 f i libvcruntime:trnsctrl.obj
 0001:00020c6b       __CatchGuardHandler        10021c6b f   libvcruntime:trnsctrl.obj
 0001:00020ca8       __CreateFrameInfo          10021ca8 f   libvcruntime:trnsctrl.obj
 0001:00020cd5       __FindAndUnlinkFrame       10021cd5 f   libvcruntime:trnsctrl.obj
 0001:00020d2b       __TranslatorGuardHandler   10021d2b f   libvcruntime:trnsctrl.obj
 0001:00020def       ___CxxFrameHandler         10021def f   libvcruntime:trnsctrl.obj
 0001:00020e32       ___CxxFrameHandler2        10021e32 f   libvcruntime:trnsctrl.obj
 0001:00020e75       ___CxxFrameHandler3        10021e75 f   libvcruntime:trnsctrl.obj
 0001:00020eb8       ___CxxLongjmpUnwind@4      10021eb8 f   libvcruntime:trnsctrl.obj
 0001:00021799       ??$TypeMatchHelper@V__FrameHandler3@@@@YAHPBU_s_HandlerType@@PBU_s_CatchableType@@PBU_s_ThrowInfo@@@Z 10022799 f i libvcruntime:frame.obj
 0001:0002184a       ??$__InternalCxxFrameHandler@V__FrameHandler3@@@@YA?AW4_EXCEPTION_DISPOSITION@@PAUEHExceptionRecord@@PAUEHRegistrationNode@@PAU_CONTEXT@@PAXPBU_s_FuncInfo@@H1E@Z 1002284a f i libvcruntime:frame.obj
 0001:0002198c       ??0HandlerMap@__FrameHandler3@@QAE@PBU_s_TryBlockMapEntry@@PAX@Z 1002298c f i libvcruntime:frame.obj
 0001:000219a8       ??0TryBlockMap@__FrameHandler3@@QAE@PBU_s_FuncInfo@@PAX@Z 100229a8 f i libvcruntime:frame.obj
 0001:000219c1       ??0bad_exception@std@@QAE@ABV01@@Z 100229c1 f i libvcruntime:frame.obj
 0001:000219e2       ??0bad_exception@std@@QAE@XZ 100229e2 f i libvcruntime:frame.obj
 0001:00021a00       ??0exception@std@@QAE@ABV01@@Z 10022a00 f i libvcruntime:frame.obj
 0001:00021a37       ??0exception@std@@QAE@QBDH@Z 10022a37 f i libvcruntime:frame.obj
 0001:00021a5b       ??0iterator@HandlerMap@__FrameHandler3@@QAE@AAV12@I@Z 10022a5b f i libvcruntime:frame.obj
 0001:00021a74       ??1bad_exception@std@@UAE@XZ 10022a74 f i libvcruntime:frame.obj
 0001:00021a89       ??1exception@std@@UAE@XZ   10022a89 f i libvcruntime:frame.obj
 0001:00021a9e       ??8iterator@HandlerMap@__FrameHandler3@@QBE_NABV012@@Z 10022a9e f i libvcruntime:frame.obj
 0001:00021ab5       ??8type_info@@QBE_NABV0@@Z 10022ab5 f i libvcruntime:frame.obj
 0001:00021adb       ??9iterator@HandlerMap@__FrameHandler3@@QBE_NABV012@@Z 10022adb f i libvcruntime:frame.obj
 0001:00021af2       ??Diterator@HandlerMap@__FrameHandler3@@QAEPBU_s_HandlerType@@XZ 10022af2 f i libvcruntime:frame.obj
 0001:00021b01       ??Diterator@TryBlockMap@__FrameHandler3@@QAEPBU_s_TryBlockMapEntry@@XZ 10022b01 f i libvcruntime:frame.obj
 0001:00021b10       ??Eiterator@HandlerMap@__FrameHandler3@@QAEAAV012@XZ 10022b10 f i libvcruntime:frame.obj
 0001:00021b16       ??Eiterator@TryBlockMap@__FrameHandler3@@QAEAAV012@XZ 10022b16 f i libvcruntime:frame.obj
 0001:00021b1c       ??Miterator@TryBlockMap@__FrameHandler3@@QBE_NABV012@@Z 10022b1c f i libvcruntime:frame.obj
 0001:00021b33       ??_Ebad_exception@std@@UAEPAXI@Z 10022b33 f i libvcruntime:frame.obj
 0001:00021b33       ??_Gbad_exception@std@@UAEPAXI@Z 10022b33 f i libvcruntime:frame.obj
 0001:00021b6b       ??_Gexception@std@@UAEPAXI@Z 10022b6b f i libvcruntime:frame.obj
 0001:00021b6b       ??_Eexception@std@@UAEPAXI@Z 10022b6b f i libvcruntime:frame.obj
 0001:00021ba3       ?BuildCatchObject@__FrameHandler3@@SAXPAUEHExceptionRecord@@PAXPBU_s_HandlerType@@PBU_s_CatchableType@@@Z 10022ba3 f   libvcruntime:frame.obj
 0001:00021ba8       ?BuildCatchObjectHelper@__FrameHandler3@@SAHPAUEHExceptionRecord@@PAXPBU_s_HandlerType@@PBU_s_CatchableType@@@Z 10022ba8 f   libvcruntime:frame.obj
 0001:00021e8c       ?FrameUnwindToEmptyState@__FrameHandler3@@SAXPAUEHRegistrationNode@@PAXPBU_s_FuncInfo@@@Z 10022e8c f   libvcruntime:frame.obj
 0001:00021eaa       ?FrameUnwindToState@__FrameHandler3@@SAXPAUEHRegistrationNode@@PAXPBU_s_FuncInfo@@H@Z 10022eaa f   libvcruntime:frame.obj
 0001:00021fcc       ?GetMaxState@__FrameHandler3@@SAHPAXPBU_s_FuncInfo@@@Z 10022fcc f i libvcruntime:frame.obj
 0001:000220e0       ?TypeMatch@__FrameHandler3@@SAHPBU_s_HandlerType@@PBU_s_CatchableType@@PBU_s_ThrowInfo@@@Z 100230e0 f   libvcruntime:frame.obj
 0001:000220eb       ?_CallMemberFunction1@@YGXQAX00@Z 100230eb f i libvcruntime:frame.obj
 0001:000220ff       ?_CallMemberFunction2@@YGXQAX00H@Z 100230ff f i libvcruntime:frame.obj
 0001:00022116       ?_ValidateExecute@@YA_NP6GHXZ@Z 10023116 f i libvcruntime:frame.obj
 0001:00022125       ?_ValidateRead@@YA_NPBXI@Z 10023125 f i libvcruntime:frame.obj
 0001:00022134       ?_ValidateWrite@@YA_NPAXI@Z 10023134 f i libvcruntime:frame.obj
 0001:00022143       ?begin@HandlerMap@__FrameHandler3@@QAE?AViterator@12@XZ 10023143 f i libvcruntime:frame.obj
 0001:00022157       ?end@HandlerMap@__FrameHandler3@@QAE?AViterator@12@XZ 10023157 f i libvcruntime:frame.obj
 0001:0002216c       ?getESTypes@__FrameHandler3@@SAPBU_s_ESTypeList@@PBU_s_FuncInfo@@@Z 1002316c f i libvcruntime:frame.obj
 0001:00022179       ?getLastEntry@HandlerMap@__FrameHandler3@@QAEPBU_s_HandlerType@@XZ 10023179 f i libvcruntime:frame.obj
 0001:0002218a       ?getMagicNum@__FrameHandler3@@SAIPBU_s_FuncInfo@@@Z 1002318a f i libvcruntime:frame.obj
 0001:0002219c       ?getNumTryBlocks@TryBlockMap@__FrameHandler3@@QAEIXZ 1002319c f i libvcruntime:frame.obj
 0001:000221a2       ?isEHs@__FrameHandler3@@SA_NPBU_s_FuncInfo@@@Z 100231a2 f i libvcruntime:frame.obj
 0001:000221b2       ?isNoExcept@__FrameHandler3@@SA_NPBU_s_FuncInfo@@@Z 100231b2 f i libvcruntime:frame.obj
 0001:000221c6       ?what@exception@std@@UBEPBDXZ 100231c6 f i libvcruntime:frame.obj
 0001:000221d6       ___BuildCatchObject        100231d6 f   libvcruntime:frame.obj
 0001:000221db       ___BuildCatchObjectHelper  100231db f   libvcruntime:frame.obj
 0001:000221e6       ___TypeMatch               100231e6 f   libvcruntime:frame.obj
 0001:000221f1       ___vcrt_EncodePointer      100231f1 f i libvcruntime:frame.obj
 0001:00022210       __CallSettingFrame@12      10023210 f   libvcruntime:lowhelpr.obj
 0001:00022237       __NLG_Return               10023237     libvcruntime:lowhelpr.obj
 0001:00022288       __get_unexpected           10023288 f   libvcruntime:unexpected.obj
 0001:0002229e       _set_unexpected            1002329e f   libvcruntime:unexpected.obj
 0001:000222c3       _unexpected                100232c3 f   libvcruntime:unexpected.obj
 0001:000222e7       ?GetCurrentState@__FrameHandler3@@SAHPAUEHRegistrationNode@@PAXPBU_s_FuncInfo@@@Z 100232e7 f   libvcruntime:ehstate.obj
 0001:0002230b       ?SetState@__FrameHandler3@@SAXPAUEHRegistrationNode@@PBU_s_FuncInfo@@H@Z 1002330b f   libvcruntime:ehstate.obj
 0001:0002231c       ___DestructExceptionObject 1002331c f   libvcruntime:ehhelpers.obj
 0001:000223e4       ?_CallMemberFunction0@@YGXQAX0@Z 100233e4 f i libvcruntime:ehhelpers.obj
 0001:000223f4       ?raw_name@type_info@@QBEPBDXZ 100233f4 f i libvcruntime:ehhelpers.obj
 0001:000223f8       __IsExceptionObjectToBeDestroyed 100233f8 f   libvcruntime:ehhelpers.obj
 0001:00022427       __SetWinRTOutOfMemoryExceptionCallback 10023427 f   libvcruntime:ehhelpers.obj
 0001:00022437       ___AdjustPointer           10023437 f   libvcruntime:ehhelpers.obj
 0001:00022465       ___FrameUnwindFilter       10023465 f   libvcruntime:ehhelpers.obj
 0001:000224bb       ___GetPlatformExceptionInfo 100234bb f   libvcruntime:ehhelpers.obj
 0001:0002251a       ___current_exception       1002351a f   libvcruntime:ehhelpers.obj
 0001:00022525       ___current_exception_context 10023525 f   libvcruntime:ehhelpers.obj
 0001:00022530       ___processing_throw        10023530 f   libvcruntime:ehhelpers.obj
 0001:0002253b       ___std_terminate           1002353b f   libvcruntime:ehhelpers.obj
 0001:00022540       __is_exception_typeof      10023540 f   libvcruntime:ehhelpers.obj
 0001:0002260d       ??$?RD@__crt_public_free_policy@@QBEXQBD@Z 1002360d f i libvcruntime:std_exception.obj
 0001:00022621       ??0?$__crt_unique_heap_ptr@DU__crt_public_free_policy@@@@QAE@QAD@Z 10023621 f i libvcruntime:std_exception.obj
 0001:00022632       ??1?$__crt_unique_heap_ptr@DU__crt_public_free_policy@@@@QAE@XZ 10023632 f i libvcruntime:std_exception.obj
 0001:00022646       ??B?$__crt_unique_heap_ptr@DU__crt_public_free_policy@@@@QBE_NXZ 10023646 f i libvcruntime:std_exception.obj
 0001:0002264d       ?detach@?$__crt_unique_heap_ptr@DU__crt_public_free_policy@@@@QAEPADXZ 1002364d f i libvcruntime:std_exception.obj
 0001:00022653       ?get@?$__crt_unique_heap_ptr@DU__crt_public_free_policy@@@@QBEPADXZ 10023653 f i libvcruntime:std_exception.obj
 0001:00022656       ?is_valid@?$__crt_unique_heap_ptr@DU__crt_public_free_policy@@@@QBE_NXZ 10023656 f i libvcruntime:std_exception.obj
 0001:0002265d       ?release@?$__crt_unique_heap_ptr@DU__crt_public_free_policy@@@@QAEXXZ 1002365d f i libvcruntime:std_exception.obj
 0001:00022671       ___std_exception_copy      10023671 f   libvcruntime:std_exception.obj
 0001:000226ec       ___std_exception_destroy   100236ec f   libvcruntime:std_exception.obj
 0001:00022712       __CxxThrowException@8      10023712 f   libvcruntime:throw.obj
 0001:0002279a       _malloc                    1002379a f   libucrt:malloc.obj
 0001:000227a7       _free                      100237a7 f   libucrt:free.obj
 0001:000227cb       ??$?RPAU__crt_stdio_stream_data@@@__crt_internal_free_policy@@QBEXQBQAU__crt_stdio_stream_data@@@Z 100237cb f i libucrt:_file.obj
 0001:000227e1       ??0?$__crt_unique_heap_ptr@PAU__crt_stdio_stream_data@@U__crt_internal_free_policy@@@@QAE@QAPAU__crt_stdio_stream_data@@@Z 100237e1 f i libucrt:_file.obj
 0001:000227f5       ??0__crt_stdio_stream@@QAE@QAU_iobuf@@@Z 100237f5 f i libucrt:_file.obj
 0001:00022809       ??1?$__crt_unique_heap_ptr@PAU__crt_stdio_stream_data@@U__crt_internal_free_policy@@@@QAE@XZ 10023809 f i libucrt:_file.obj
 0001:0002281f       ??C__crt_stdio_stream@@QBEPAU__crt_stdio_stream_data@@XZ 1002381f f i libucrt:_file.obj
 0001:00022822       ?detach@?$__crt_unique_heap_ptr@PAU__crt_stdio_stream_data@@U__crt_internal_free_policy@@@@QAEPAPAU__crt_stdio_stream_data@@XZ 10023822 f i libucrt:_file.obj
 0001:00022828       ?release@?$__crt_unique_heap_ptr@PAU__crt_stdio_stream_data@@U__crt_internal_free_policy@@@@QAEXXZ 10023828 f i libucrt:_file.obj
 0001:0002283e       ___acrt_initialize_stdio   1002383e f   libucrt:_file.obj
 0001:00022938       ___acrt_iob_func           10023938 f   libucrt:_file.obj
 0001:0002294c       ___acrt_uninitialize_stdio 1002394c f   libucrt:_file.obj
 0001:000229ab       __get_stream_buffer_pointers 100239ab f   libucrt:_file.obj
 0001:00022a02       __lock_file                10023a02 f   libucrt:_file.obj
 0001:00022a1b       __unlock_file              10023a1b f   libucrt:_file.obj
 0001:00022a34       ??$?0ABV?$stream_output_adapter@D@__crt_stdio_output@@AB_KABQBDABQAU__crt_locale_pointers@@ABQAD@?$format_validation_base@DV?$stream_output_adapter@D@__crt_stdio_output@@@__crt_stdio_output@@IAE@ABV?$stream_output_adapter@D@1@AB_KABQBDABQAU__crt_locale_pointers@@ABQAD@Z 10023a34 f i libucrt:output.obj
 0001:00022a5f       ??$?0ABV?$stream_output_adapter@D@__crt_stdio_output@@AB_KABQBDABQAU__crt_locale_pointers@@ABQAD@?$positional_parameter_base@DV?$stream_output_adapter@D@__crt_stdio_output@@@__crt_stdio_output@@IAE@ABV?$stream_output_adapter@D@1@AB_KABQBDABQAU__crt_locale_pointers@@ABQAD@Z 10023a5f f i libucrt:output.obj
 0001:00022ab9       ??$?0ABV?$stream_output_adapter@D@__crt_stdio_output@@AB_KABQBDABQAU__crt_locale_pointers@@ABQAD@?$standard_base@DV?$stream_output_adapter@D@__crt_stdio_output@@@__crt_stdio_output@@IAE@ABV?$stream_output_adapter@D@1@AB_KABQBDABQAU__crt_locale_pointers@@ABQAD@Z 10023ab9 f i libucrt:output.obj
 0001:00022afb       ??$?0ABV?$stream_output_adapter@_W@__crt_stdio_output@@AB_KABQB_WABQAU__crt_locale_pointers@@ABQAD@?$format_validation_base@_WV?$stream_output_adapter@_W@__crt_stdio_output@@@__crt_stdio_output@@IAE@ABV?$stream_output_adapter@_W@1@AB_KABQB_WABQAU__crt_locale_pointers@@ABQAD@Z 10023afb f i libucrt:output.obj
 0001:00022b26       ??$?0ABV?$stream_output_adapter@_W@__crt_stdio_output@@AB_KABQB_WABQAU__crt_locale_pointers@@ABQAD@?$positional_parameter_base@_WV?$stream_output_adapter@_W@__crt_stdio_output@@@__crt_stdio_output@@IAE@ABV?$stream_output_adapter@_W@1@AB_KABQB_WABQAU__crt_locale_pointers@@ABQAD@Z 10023b26 f i libucrt:output.obj
 0001:00022b80       ??$?0ABV?$stream_output_adapter@_W@__crt_stdio_output@@AB_KABQB_WABQAU__crt_locale_pointers@@ABQAD@?$standard_base@_WV?$stream_output_adapter@_W@__crt_stdio_output@@@__crt_stdio_output@@IAE@ABV?$stream_output_adapter@_W@1@AB_KABQB_WABQAU__crt_locale_pointers@@ABQAD@Z 10023b80 f i libucrt:output.obj
 0001:00022bc2       ??$?0ABV?$string_output_adapter@D@__crt_stdio_output@@AB_KABQBDABQAU__crt_locale_pointers@@ABQAD@?$format_validation_base@DV?$string_output_adapter@D@__crt_stdio_output@@@__crt_stdio_output@@IAE@ABV?$string_output_adapter@D@1@AB_KABQBDABQAU__crt_locale_pointers@@ABQAD@Z 10023bc2 f i libucrt:output.obj
 0001:00022bed       ??$?0ABV?$string_output_adapter@D@__crt_stdio_output@@AB_KABQBDABQAU__crt_locale_pointers@@ABQAD@?$positional_parameter_base@DV?$string_output_adapter@D@__crt_stdio_output@@@__crt_stdio_output@@IAE@ABV?$string_output_adapter@D@1@AB_KABQBDABQAU__crt_locale_pointers@@ABQAD@Z 10023bed f i libucrt:output.obj
 0001:00022c47       ??$?0ABV?$string_output_adapter@D@__crt_stdio_output@@AB_KABQBDABQAU__crt_locale_pointers@@ABQAD@?$standard_base@DV?$string_output_adapter@D@__crt_stdio_output@@@__crt_stdio_output@@IAE@ABV?$string_output_adapter@D@1@AB_KABQBDABQAU__crt_locale_pointers@@ABQAD@Z 10023c47 f i libucrt:output.obj
 0001:00022c89       ??$?0ABV?$string_output_adapter@_W@__crt_stdio_output@@AB_KABQB_WABQAU__crt_locale_pointers@@ABQAD@?$format_validation_base@_WV?$string_output_adapter@_W@__crt_stdio_output@@@__crt_stdio_output@@IAE@ABV?$string_output_adapter@_W@1@AB_KABQB_WABQAU__crt_locale_pointers@@ABQAD@Z 10023c89 f i libucrt:output.obj
 0001:00022cb4       ??$?0ABV?$string_output_adapter@_W@__crt_stdio_output@@AB_KABQB_WABQAU__crt_locale_pointers@@ABQAD@?$positional_parameter_base@_WV?$string_output_adapter@_W@__crt_stdio_output@@@__crt_stdio_output@@IAE@ABV?$string_output_adapter@_W@1@AB_KABQB_WABQAU__crt_locale_pointers@@ABQAD@Z 10023cb4 f i libucrt:output.obj
 0001:00022d0e       ??$?0ABV?$string_output_adapter@_W@__crt_stdio_output@@AB_KABQB_WABQAU__crt_locale_pointers@@ABQAD@?$standard_base@_WV?$string_output_adapter@_W@__crt_stdio_output@@@__crt_stdio_output@@IAE@ABV?$string_output_adapter@_W@1@AB_KABQB_WABQAU__crt_locale_pointers@@ABQAD@Z 10023d0e f i libucrt:output.obj
 0001:000230da       ??$__crt_interlocked_read@J@@YAJPDJ@Z 100240da f i libucrt:output.obj
 0001:00024343       ??$count@D@formatting_buffer@__crt_stdio_output@@QBEIXZ 10025343 f i libucrt:output.obj
 0001:00024361       ??$count@_W@formatting_buffer@__crt_stdio_output@@QBEIXZ 10025361 f i libucrt:output.obj
 0001:00024380       ??$data@D@formatting_buffer@__crt_stdio_output@@QAEPADXZ 10025380 f i libucrt:output.obj
 0001:00024390       ??$data@_W@formatting_buffer@__crt_stdio_output@@QAEPA_WXZ 10025390 f i libucrt:output.obj
 0001:000243a0       ??$ensure_buffer_is_big_enough@D@formatting_buffer@__crt_stdio_output@@QAE_NI@Z 100253a0 f i libucrt:output.obj
 0001:0002443e       ??$ensure_buffer_is_big_enough@_W@formatting_buffer@__crt_stdio_output@@QAE_NI@Z 1002543e f i libucrt:output.obj
 0001:000244de       ??$extract_argument_from_va_list@C_J@?$positional_parameter_base@DV?$stream_output_adapter@D@__crt_stdio_output@@@__crt_stdio_output@@IAE_NAA_J@Z 100254de f i libucrt:output.obj
 0001:00024575       ??$extract_argument_from_va_list@C_J@?$positional_parameter_base@DV?$string_output_adapter@D@__crt_stdio_output@@@__crt_stdio_output@@IAE_NAA_J@Z 10025575 f i libucrt:output.obj
 0001:0002460c       ??$extract_argument_from_va_list@C_J@?$positional_parameter_base@_WV?$stream_output_adapter@_W@__crt_stdio_output@@@__crt_stdio_output@@IAE_NAA_J@Z 1002560c f i libucrt:output.obj
 0001:000246a3       ??$extract_argument_from_va_list@C_J@?$positional_parameter_base@_WV?$string_output_adapter@_W@__crt_stdio_output@@@__crt_stdio_output@@IAE_NAA_J@Z 100256a3 f i libucrt:output.obj
 0001:0002473a       ??$extract_argument_from_va_list@C_J@?$standard_base@DV?$stream_output_adapter@D@__crt_stdio_output@@@__crt_stdio_output@@IAE_NAA_J@Z 1002573a f i libucrt:output.obj
 0001:00024760       ??$extract_argument_from_va_list@C_J@?$standard_base@DV?$string_output_adapter@D@__crt_stdio_output@@@__crt_stdio_output@@IAE_NAA_J@Z 10025760 f i libucrt:output.obj
 0001:00024786       ??$extract_argument_from_va_list@C_J@?$standard_base@_WV?$stream_output_adapter@_W@__crt_stdio_output@@@__crt_stdio_output@@IAE_NAA_J@Z 10025786 f i libucrt:output.obj
 0001:000247ac       ??$extract_argument_from_va_list@C_J@?$standard_base@_WV?$string_output_adapter@_W@__crt_stdio_output@@@__crt_stdio_output@@IAE_NAA_J@Z 100257ac f i libucrt:output.obj
 0001:000247d2       ??$extract_argument_from_va_list@E_J@?$positional_parameter_base@DV?$stream_output_adapter@D@__crt_stdio_output@@@__crt_stdio_output@@IAE_NAA_J@Z 100257d2 f i libucrt:output.obj
 0001:00024869       ??$extract_argument_from_va_list@E_J@?$positional_parameter_base@DV?$string_output_adapter@D@__crt_stdio_output@@@__crt_stdio_output@@IAE_NAA_J@Z 10025869 f i libucrt:output.obj
 0001:00024900       ??$extract_argument_from_va_list@E_J@?$positional_parameter_base@_WV?$stream_output_adapter@_W@__crt_stdio_output@@@__crt_stdio_output@@IAE_NAA_J@Z 10025900 f i libucrt:output.obj
 0001:00024997       ??$extract_argument_from_va_list@E_J@?$positional_parameter_base@_WV?$string_output_adapter@_W@__crt_stdio_output@@@__crt_stdio_output@@IAE_NAA_J@Z 10025997 f i libucrt:output.obj
 0001:00024a2e       ??$extract_argument_from_va_list@E_J@?$standard_base@DV?$stream_output_adapter@D@__crt_stdio_output@@@__crt_stdio_output@@IAE_NAA_J@Z 10025a2e f i libucrt:output.obj
 0001:00024a54       ??$extract_argument_from_va_list@E_J@?$standard_base@DV?$string_output_adapter@D@__crt_stdio_output@@@__crt_stdio_output@@IAE_NAA_J@Z 10025a54 f i libucrt:output.obj
 0001:00024a7a       ??$extract_argument_from_va_list@E_J@?$standard_base@_WV?$stream_output_adapter@_W@__crt_stdio_output@@@__crt_stdio_output@@IAE_NAA_J@Z 10025a7a f i libucrt:output.obj
 0001:00024aa0       ??$extract_argument_from_va_list@E_J@?$standard_base@_WV?$string_output_adapter@_W@__crt_stdio_output@@@__crt_stdio_output@@IAE_NAA_J@Z 10025aa0 f i libucrt:output.obj
 0001:00024ac6       ??$extract_argument_from_va_list@F_J@?$positional_parameter_base@DV?$stream_output_adapter@D@__crt_stdio_output@@@__crt_stdio_output@@IAE_NAA_J@Z 10025ac6 f i libucrt:output.obj
 0001:00024b5d       ??$extract_argument_from_va_list@F_J@?$positional_parameter_base@DV?$string_output_adapter@D@__crt_stdio_output@@@__crt_stdio_output@@IAE_NAA_J@Z 10025b5d f i libucrt:output.obj
 0001:00024bf4       ??$extract_argument_from_va_list@F_J@?$positional_parameter_base@_WV?$stream_output_adapter@_W@__crt_stdio_output@@@__crt_stdio_output@@IAE_NAA_J@Z 10025bf4 f i libucrt:output.obj
 0001:00024c8b       ??$extract_argument_from_va_list@F_J@?$positional_parameter_base@_WV?$string_output_adapter@_W@__crt_stdio_output@@@__crt_stdio_output@@IAE_NAA_J@Z 10025c8b f i libucrt:output.obj
 0001:00024d22       ??$extract_argument_from_va_list@F_J@?$standard_base@DV?$stream_output_adapter@D@__crt_stdio_output@@@__crt_stdio_output@@IAE_NAA_J@Z 10025d22 f i libucrt:output.obj
 0001:00024d48       ??$extract_argument_from_va_list@F_J@?$standard_base@DV?$string_output_adapter@D@__crt_stdio_output@@@__crt_stdio_output@@IAE_NAA_J@Z 10025d48 f i libucrt:output.obj
 0001:00024d6e       ??$extract_argument_from_va_list@F_J@?$standard_base@_WV?$stream_output_adapter@_W@__crt_stdio_output@@@__crt_stdio_output@@IAE_NAA_J@Z 10025d6e f i libucrt:output.obj
 0001:00024d94       ??$extract_argument_from_va_list@F_J@?$standard_base@_WV?$string_output_adapter@_W@__crt_stdio_output@@@__crt_stdio_output@@IAE_NAA_J@Z 10025d94 f i libucrt:output.obj
 0001:00024dba       ??$extract_argument_from_va_list@GD@?$positional_parameter_base@DV?$stream_output_adapter@D@__crt_stdio_output@@@__crt_stdio_output@@IAE_NAAD@Z 10025dba f i libucrt:output.obj
 0001:00024e50       ??$extract_argument_from_va_list@GD@?$positional_parameter_base@DV?$string_output_adapter@D@__crt_stdio_output@@@__crt_stdio_output@@IAE_NAAD@Z 10025e50 f i libucrt:output.obj
 0001:00024ee6       ??$extract_argument_from_va_list@GD@?$standard_base@DV?$stream_output_adapter@D@__crt_stdio_output@@@__crt_stdio_output@@IAE_NAAD@Z 10025ee6 f i libucrt:output.obj
 0001:00024f06       ??$extract_argument_from_va_list@GD@?$standard_base@DV?$string_output_adapter@D@__crt_stdio_output@@@__crt_stdio_output@@IAE_NAAD@Z 10025f06 f i libucrt:output.obj
 0001:00024f26       ??$extract_argument_from_va_list@G_J@?$positional_parameter_base@DV?$stream_output_adapter@D@__crt_stdio_output@@@__crt_stdio_output@@IAE_NAA_J@Z 10025f26 f i libucrt:output.obj
 0001:00024fbd       ??$extract_argument_from_va_list@G_J@?$positional_parameter_base@DV?$string_output_adapter@D@__crt_stdio_output@@@__crt_stdio_output@@IAE_NAA_J@Z 10025fbd f i libucrt:output.obj
 0001:00025054       ??$extract_argument_from_va_list@G_J@?$positional_parameter_base@_WV?$stream_output_adapter@_W@__crt_stdio_output@@@__crt_stdio_output@@IAE_NAA_J@Z 10026054 f i libucrt:output.obj
 0001:000250eb       ??$extract_argument_from_va_list@G_J@?$positional_parameter_base@_WV?$string_output_adapter@_W@__crt_stdio_output@@@__crt_stdio_output@@IAE_NAA_J@Z 100260eb f i libucrt:output.obj
 0001:00025182       ??$extract_argument_from_va_list@G_J@?$standard_base@DV?$stream_output_adapter@D@__crt_stdio_output@@@__crt_stdio_output@@IAE_NAA_J@Z 10026182 f i libucrt:output.obj
 0001:000251a8       ??$extract_argument_from_va_list@G_J@?$standard_base@DV?$string_output_adapter@D@__crt_stdio_output@@@__crt_stdio_output@@IAE_NAA_J@Z 100261a8 f i libucrt:output.obj
 0001:000251ce       ??$extract_argument_from_va_list@G_J@?$standard_base@_WV?$stream_output_adapter@_W@__crt_stdio_output@@@__crt_stdio_output@@IAE_NAA_J@Z 100261ce f i libucrt:output.obj
 0001:000251f4       ??$extract_argument_from_va_list@G_J@?$standard_base@_WV?$string_output_adapter@_W@__crt_stdio_output@@@__crt_stdio_output@@IAE_NAA_J@Z 100261f4 f i libucrt:output.obj
 0001:0002521a       ??$extract_argument_from_va_list@H_J@?$positional_parameter_base@DV?$stream_output_adapter@D@__crt_stdio_output@@@__crt_stdio_output@@IAE_NAA_J@Z 1002621a f i libucrt:output.obj
 0001:000252ae       ??$extract_argument_from_va_list@H_J@?$positional_parameter_base@DV?$string_output_adapter@D@__crt_stdio_output@@@__crt_stdio_output@@IAE_NAA_J@Z 100262ae f i libucrt:output.obj
 0001:00025342       ??$extract_argument_from_va_list@H_J@?$positional_parameter_base@_WV?$stream_output_adapter@_W@__crt_stdio_output@@@__crt_stdio_output@@IAE_NAA_J@Z 10026342 f i libucrt:output.obj
 0001:000253d6       ??$extract_argument_from_va_list@H_J@?$positional_parameter_base@_WV?$string_output_adapter@_W@__crt_stdio_output@@@__crt_stdio_output@@IAE_NAA_J@Z 100263d6 f i libucrt:output.obj
 0001:0002546a       ??$extract_argument_from_va_list@H_J@?$standard_base@DV?$stream_output_adapter@D@__crt_stdio_output@@@__crt_stdio_output@@IAE_NAA_J@Z 1002646a f i libucrt:output.obj
 0001:0002548f       ??$extract_argument_from_va_list@H_J@?$standard_base@DV?$string_output_adapter@D@__crt_stdio_output@@@__crt_stdio_output@@IAE_NAA_J@Z 1002648f f i libucrt:output.obj
 0001:000254b4       ??$extract_argument_from_va_list@H_J@?$standard_base@_WV?$stream_output_adapter@_W@__crt_stdio_output@@@__crt_stdio_output@@IAE_NAA_J@Z 100264b4 f i libucrt:output.obj
 0001:000254d9       ??$extract_argument_from_va_list@H_J@?$standard_base@_WV?$string_output_adapter@_W@__crt_stdio_output@@@__crt_stdio_output@@IAE_NAA_J@Z 100264d9 f i libucrt:output.obj
 0001:000254fe       ??$extract_argument_from_va_list@I_J@?$positional_parameter_base@DV?$stream_output_adapter@D@__crt_stdio_output@@@__crt_stdio_output@@IAE_NAA_J@Z 100264fe f i libucrt:output.obj
 0001:0002559e       ??$extract_argument_from_va_list@I_J@?$positional_parameter_base@DV?$string_output_adapter@D@__crt_stdio_output@@@__crt_stdio_output@@IAE_NAA_J@Z 1002659e f i libucrt:output.obj
 0001:0002563e       ??$extract_argument_from_va_list@I_J@?$positional_parameter_base@_WV?$stream_output_adapter@_W@__crt_stdio_output@@@__crt_stdio_output@@IAE_NAA_J@Z 1002663e f i libucrt:output.obj
 0001:000256de       ??$extract_argument_from_va_list@I_J@?$positional_parameter_base@_WV?$string_output_adapter@_W@__crt_stdio_output@@@__crt_stdio_output@@IAE_NAA_J@Z 100266de f i libucrt:output.obj
 0001:0002577e       ??$extract_argument_from_va_list@I_J@?$standard_base@DV?$stream_output_adapter@D@__crt_stdio_output@@@__crt_stdio_output@@IAE_NAA_J@Z 1002677e f i libucrt:output.obj
 0001:000257a3       ??$extract_argument_from_va_list@I_J@?$standard_base@DV?$string_output_adapter@D@__crt_stdio_output@@@__crt_stdio_output@@IAE_NAA_J@Z 100267a3 f i libucrt:output.obj
 0001:000257c8       ??$extract_argument_from_va_list@I_J@?$standard_base@_WV?$stream_output_adapter@_W@__crt_stdio_output@@@__crt_stdio_output@@IAE_NAA_J@Z 100267c8 f i libucrt:output.obj
 0001:000257ed       ??$extract_argument_from_va_list@I_J@?$standard_base@_WV?$string_output_adapter@_W@__crt_stdio_output@@@__crt_stdio_output@@IAE_NAA_J@Z 100267ed f i libucrt:output.obj
 0001:00025812       ??$extract_argument_from_va_list@PADPAD@?$positional_parameter_base@DV?$stream_output_adapter@D@__crt_stdio_output@@@__crt_stdio_output@@IAE_NAAPAD@Z 10026812 f i libucrt:output.obj
 0001:000258a8       ??$extract_argument_from_va_list@PADPAD@?$positional_parameter_base@DV?$string_output_adapter@D@__crt_stdio_output@@@__crt_stdio_output@@IAE_NAAPAD@Z 100268a8 f i libucrt:output.obj
 0001:0002593e       ??$extract_argument_from_va_list@PADPAD@?$positional_parameter_base@_WV?$stream_output_adapter@_W@__crt_stdio_output@@@__crt_stdio_output@@IAE_NAAPAD@Z 1002693e f i libucrt:output.obj
 0001:000259d4       ??$extract_argument_from_va_list@PADPAD@?$positional_parameter_base@_WV?$string_output_adapter@_W@__crt_stdio_output@@@__crt_stdio_output@@IAE_NAAPAD@Z 100269d4 f i libucrt:output.obj
 0001:00025a6a       ??$extract_argument_from_va_list@PADPAD@?$standard_base@DV?$stream_output_adapter@D@__crt_stdio_output@@@__crt_stdio_output@@IAE_NAAPAD@Z 10026a6a f i libucrt:output.obj
 0001:00025a8a       ??$extract_argument_from_va_list@PADPAD@?$standard_base@DV?$string_output_adapter@D@__crt_stdio_output@@@__crt_stdio_output@@IAE_NAAPAD@Z 10026a8a f i libucrt:output.obj
 0001:00025aaa       ??$extract_argument_from_va_list@PADPAD@?$standard_base@_WV?$stream_output_adapter@_W@__crt_stdio_output@@@__crt_stdio_output@@IAE_NAAPAD@Z 10026aaa f i libucrt:output.obj
 0001:00025aca       ??$extract_argument_from_va_list@PADPAD@?$standard_base@_WV?$string_output_adapter@_W@__crt_stdio_output@@@__crt_stdio_output@@IAE_NAAPAD@Z 10026aca f i libucrt:output.obj
 0001:00025ec2       ??$extract_argument_from_va_list@PAXPAX@?$positional_parameter_base@DV?$stream_output_adapter@D@__crt_stdio_output@@@__crt_stdio_output@@IAE_NAAPAX@Z 10026ec2 f i libucrt:output.obj
 0001:00025f58       ??$extract_argument_from_va_list@PAXPAX@?$positional_parameter_base@DV?$string_output_adapter@D@__crt_stdio_output@@@__crt_stdio_output@@IAE_NAAPAX@Z 10026f58 f i libucrt:output.obj
 0001:00025fee       ??$extract_argument_from_va_list@PAXPAX@?$positional_parameter_base@_WV?$stream_output_adapter@_W@__crt_stdio_output@@@__crt_stdio_output@@IAE_NAAPAX@Z 10026fee f i libucrt:output.obj
 0001:00026084       ??$extract_argument_from_va_list@PAXPAX@?$positional_parameter_base@_WV?$string_output_adapter@_W@__crt_stdio_output@@@__crt_stdio_output@@IAE_NAAPAX@Z 10027084 f i libucrt:output.obj
 0001:0002611a       ??$extract_argument_from_va_list@PAXPAX@?$standard_base@DV?$stream_output_adapter@D@__crt_stdio_output@@@__crt_stdio_output@@IAE_NAAPAX@Z 1002711a f i libucrt:output.obj
 0001:0002613a       ??$extract_argument_from_va_list@PAXPAX@?$standard_base@DV?$string_output_adapter@D@__crt_stdio_output@@@__crt_stdio_output@@IAE_NAAPAX@Z 1002713a f i libucrt:output.obj
 0001:0002615a       ??$extract_argument_from_va_list@PAXPAX@?$standard_base@_WV?$stream_output_adapter@_W@__crt_stdio_output@@@__crt_stdio_output@@IAE_NAAPAX@Z 1002715a f i libucrt:output.obj
 0001:0002617a       ??$extract_argument_from_va_list@PAXPAX@?$standard_base@_WV?$string_output_adapter@_W@__crt_stdio_output@@@__crt_stdio_output@@IAE_NAAPAX@Z 1002717a f i libucrt:output.obj
 0001:0002619a       ??$extract_argument_from_va_list@U_CRT_DOUBLE@@U1@@?$positional_parameter_base@DV?$stream_output_adapter@D@__crt_stdio_output@@@__crt_stdio_output@@IAE_NAAU_CRT_DOUBLE@@@Z 1002719a f i libucrt:output.obj
 0001:00026241       ??$extract_argument_from_va_list@U_CRT_DOUBLE@@U1@@?$positional_parameter_base@DV?$string_output_adapter@D@__crt_stdio_output@@@__crt_stdio_output@@IAE_NAAU_CRT_DOUBLE@@@Z 10027241 f i libucrt:output.obj
 0001:000262e8       ??$extract_argument_from_va_list@U_CRT_DOUBLE@@U1@@?$positional_parameter_base@_WV?$stream_output_adapter@_W@__crt_stdio_output@@@__crt_stdio_output@@IAE_NAAU_CRT_DOUBLE@@@Z 100272e8 f i libucrt:output.obj
 0001:0002638f       ??$extract_argument_from_va_list@U_CRT_DOUBLE@@U1@@?$positional_parameter_base@_WV?$string_output_adapter@_W@__crt_stdio_output@@@__crt_stdio_output@@IAE_NAAU_CRT_DOUBLE@@@Z 1002738f f i libucrt:output.obj
 0001:00026436       ??$extract_argument_from_va_list@U_CRT_DOUBLE@@U1@@?$standard_base@DV?$stream_output_adapter@D@__crt_stdio_output@@@__crt_stdio_output@@IAE_NAAU_CRT_DOUBLE@@@Z 10027436 f i libucrt:output.obj
 0001:0002645e       ??$extract_argument_from_va_list@U_CRT_DOUBLE@@U1@@?$standard_base@DV?$string_output_adapter@D@__crt_stdio_output@@@__crt_stdio_output@@IAE_NAAU_CRT_DOUBLE@@@Z 1002745e f i libucrt:output.obj
 0001:00026486       ??$extract_argument_from_va_list@U_CRT_DOUBLE@@U1@@?$standard_base@_WV?$stream_output_adapter@_W@__crt_stdio_output@@@__crt_stdio_output@@IAE_NAAU_CRT_DOUBLE@@@Z 10027486 f i libucrt:output.obj
 0001:000264ae       ??$extract_argument_from_va_list@U_CRT_DOUBLE@@U1@@?$standard_base@_WV?$string_output_adapter@_W@__crt_stdio_output@@@__crt_stdio_output@@IAE_NAAU_CRT_DOUBLE@@@Z 100274ae f i libucrt:output.obj
 0001:000264d6       ??$extract_argument_from_va_list@_J_J@?$positional_parameter_base@DV?$stream_output_adapter@D@__crt_stdio_output@@@__crt_stdio_output@@IAE_NAA_J@Z 100274d6 f i libucrt:output.obj
 0001:0002657d       ??$extract_argument_from_va_list@_J_J@?$positional_parameter_base@DV?$string_output_adapter@D@__crt_stdio_output@@@__crt_stdio_output@@IAE_NAA_J@Z 1002757d f i libucrt:output.obj
 0001:00026624       ??$extract_argument_from_va_list@_J_J@?$positional_parameter_base@_WV?$stream_output_adapter@_W@__crt_stdio_output@@@__crt_stdio_output@@IAE_NAA_J@Z 10027624 f i libucrt:output.obj
 0001:000266cb       ??$extract_argument_from_va_list@_J_J@?$positional_parameter_base@_WV?$string_output_adapter@_W@__crt_stdio_output@@@__crt_stdio_output@@IAE_NAA_J@Z 100276cb f i libucrt:output.obj
 0001:00026772       ??$extract_argument_from_va_list@_J_J@?$standard_base@DV?$stream_output_adapter@D@__crt_stdio_output@@@__crt_stdio_output@@IAE_NAA_J@Z 10027772 f i libucrt:output.obj
 0001:0002679a       ??$extract_argument_from_va_list@_J_J@?$standard_base@DV?$string_output_adapter@D@__crt_stdio_output@@@__crt_stdio_output@@IAE_NAA_J@Z 1002779a f i libucrt:output.obj
 0001:000267c2       ??$extract_argument_from_va_list@_J_J@?$standard_base@_WV?$stream_output_adapter@_W@__crt_stdio_output@@@__crt_stdio_output@@IAE_NAA_J@Z 100277c2 f i libucrt:output.obj
 0001:000267ea       ??$extract_argument_from_va_list@_J_J@?$standard_base@_WV?$string_output_adapter@_W@__crt_stdio_output@@@__crt_stdio_output@@IAE_NAA_J@Z 100277ea f i libucrt:output.obj
 0001:00026812       ??$extract_argument_from_va_list@_K_J@?$positional_parameter_base@DV?$stream_output_adapter@D@__crt_stdio_output@@@__crt_stdio_output@@IAE_NAA_J@Z 10027812 f i libucrt:output.obj
 0001:000268b9       ??$extract_argument_from_va_list@_K_J@?$positional_parameter_base@DV?$string_output_adapter@D@__crt_stdio_output@@@__crt_stdio_output@@IAE_NAA_J@Z 100278b9 f i libucrt:output.obj
 0001:00026960       ??$extract_argument_from_va_list@_K_J@?$positional_parameter_base@_WV?$stream_output_adapter@_W@__crt_stdio_output@@@__crt_stdio_output@@IAE_NAA_J@Z 10027960 f i libucrt:output.obj
 0001:00026a07       ??$extract_argument_from_va_list@_K_J@?$positional_parameter_base@_WV?$string_output_adapter@_W@__crt_stdio_output@@@__crt_stdio_output@@IAE_NAA_J@Z 10027a07 f i libucrt:output.obj
 0001:00026aae       ??$extract_argument_from_va_list@_K_J@?$standard_base@DV?$stream_output_adapter@D@__crt_stdio_output@@@__crt_stdio_output@@IAE_NAA_J@Z 10027aae f i libucrt:output.obj
 0001:00026ad6       ??$extract_argument_from_va_list@_K_J@?$standard_base@DV?$string_output_adapter@D@__crt_stdio_output@@@__crt_stdio_output@@IAE_NAA_J@Z 10027ad6 f i libucrt:output.obj
 0001:00026afe       ??$extract_argument_from_va_list@_K_J@?$standard_base@_WV?$stream_output_adapter@_W@__crt_stdio_output@@@__crt_stdio_output@@IAE_NAA_J@Z 10027afe f i libucrt:output.obj
 0001:00026b26       ??$extract_argument_from_va_list@_K_J@?$standard_base@_WV?$string_output_adapter@_W@__crt_stdio_output@@@__crt_stdio_output@@IAE_NAA_J@Z 10027b26 f i libucrt:output.obj
 0001:00026b4e       ??$extract_argument_from_va_list@_W_W@?$positional_parameter_base@DV?$stream_output_adapter@D@__crt_stdio_output@@@__crt_stdio_output@@IAE_NAA_W@Z 10027b4e f i libucrt:output.obj
 0001:00026be9       ??$extract_argument_from_va_list@_W_W@?$positional_parameter_base@DV?$string_output_adapter@D@__crt_stdio_output@@@__crt_stdio_output@@IAE_NAA_W@Z 10027be9 f i libucrt:output.obj
 0001:00026c84       ??$extract_argument_from_va_list@_W_W@?$positional_parameter_base@_WV?$stream_output_adapter@_W@__crt_stdio_output@@@__crt_stdio_output@@IAE_NAA_W@Z 10027c84 f i libucrt:output.obj
 0001:00026d1f       ??$extract_argument_from_va_list@_W_W@?$positional_parameter_base@_WV?$string_output_adapter@_W@__crt_stdio_output@@@__crt_stdio_output@@IAE_NAA_W@Z 10027d1f f i libucrt:output.obj
 0001:00026dba       ??$extract_argument_from_va_list@_W_W@?$standard_base@DV?$stream_output_adapter@D@__crt_stdio_output@@@__crt_stdio_output@@IAE_NAA_W@Z 10027dba f i libucrt:output.obj
 0001:00026ddd       ??$extract_argument_from_va_list@_W_W@?$standard_base@DV?$string_output_adapter@D@__crt_stdio_output@@@__crt_stdio_output@@IAE_NAA_W@Z 10027ddd f i libucrt:output.obj
 0001:00026e00       ??$extract_argument_from_va_list@_W_W@?$standard_base@_WV?$stream_output_adapter@_W@__crt_stdio_output@@@__crt_stdio_output@@IAE_NAA_W@Z 10027e00 f i libucrt:output.obj
 0001:00026e23       ??$extract_argument_from_va_list@_W_W@?$standard_base@_WV?$string_output_adapter@_W@__crt_stdio_output@@@__crt_stdio_output@@IAE_NAA_W@Z 10027e23 f i libucrt:output.obj
 0001:00026e46       ??$get_parameter_type@D@?$positional_parameter_base@DV?$stream_output_adapter@D@__crt_stdio_output@@@__crt_stdio_output@@CA?AW4parameter_type@01@PAD@Z 10027e46 f i libucrt:output.obj
 0001:00026e4a       ??$get_parameter_type@D@?$positional_parameter_base@DV?$string_output_adapter@D@__crt_stdio_output@@@__crt_stdio_output@@CA?AW4parameter_type@01@PAD@Z 10027e4a f i libucrt:output.obj
 0001:00026e4e       ??$get_parameter_type@D@?$positional_parameter_base@_WV?$stream_output_adapter@_W@__crt_stdio_output@@@__crt_stdio_output@@CA?AW4parameter_type@01@PAD@Z 10027e4e f i libucrt:output.obj
 0001:00026e52       ??$get_parameter_type@D@?$positional_parameter_base@_WV?$string_output_adapter@_W@__crt_stdio_output@@@__crt_stdio_output@@CA?AW4parameter_type@01@PAD@Z 10027e52 f i libucrt:output.obj
 0001:00026e66       ??$get_parameter_type@X@?$positional_parameter_base@DV?$stream_output_adapter@D@__crt_stdio_output@@@__crt_stdio_output@@CA?AW4parameter_type@01@PAX@Z 10027e66 f i libucrt:output.obj
 0001:00026e6a       ??$get_parameter_type@X@?$positional_parameter_base@DV?$string_output_adapter@D@__crt_stdio_output@@@__crt_stdio_output@@CA?AW4parameter_type@01@PAX@Z 10027e6a f i libucrt:output.obj
 0001:00026e6e       ??$get_parameter_type@X@?$positional_parameter_base@_WV?$stream_output_adapter@_W@__crt_stdio_output@@@__crt_stdio_output@@CA?AW4parameter_type@01@PAX@Z 10027e6e f i libucrt:output.obj
 0001:00026e72       ??$get_parameter_type@X@?$positional_parameter_base@_WV?$string_output_adapter@_W@__crt_stdio_output@@@__crt_stdio_output@@CA?AW4parameter_type@01@PAX@Z 10027e72 f i libucrt:output.obj
 0001:00026e76       ??$is_character_specifier@D@?$positional_parameter_base@DV?$stream_output_adapter@D@__crt_stdio_output@@@__crt_stdio_output@@CA_ND@Z 10027e76 f i libucrt:output.obj
 0001:00026e94       ??$is_character_specifier@D@?$positional_parameter_base@DV?$string_output_adapter@D@__crt_stdio_output@@@__crt_stdio_output@@CA_ND@Z 10027e94 f i libucrt:output.obj
 0001:00026eb2       ??$is_character_specifier@_W@?$positional_parameter_base@_WV?$stream_output_adapter@_W@__crt_stdio_output@@@__crt_stdio_output@@CA_N_W@Z 10027eb2 f i libucrt:output.obj
 0001:00026ed3       ??$is_character_specifier@_W@?$positional_parameter_base@_WV?$string_output_adapter@_W@__crt_stdio_output@@@__crt_stdio_output@@CA_N_W@Z 10027ed3 f i libucrt:output.obj
 0001:00026ef4       ??$is_integral_specifier@D@?$positional_parameter_base@DV?$stream_output_adapter@D@__crt_stdio_output@@@__crt_stdio_output@@CA_ND@Z 10027ef4 f i libucrt:output.obj
 0001:00026f2b       ??$is_integral_specifier@D@?$positional_parameter_base@DV?$string_output_adapter@D@__crt_stdio_output@@@__crt_stdio_output@@CA_ND@Z 10027f2b f i libucrt:output.obj
 0001:00026f62       ??$is_integral_specifier@_W@?$positional_parameter_base@_WV?$stream_output_adapter@_W@__crt_stdio_output@@@__crt_stdio_output@@CA_N_W@Z 10027f62 f i libucrt:output.obj
 0001:00026fab       ??$is_integral_specifier@_W@?$positional_parameter_base@_WV?$string_output_adapter@_W@__crt_stdio_output@@@__crt_stdio_output@@CA_N_W@Z 10027fab f i libucrt:output.obj
 0001:00026ff4       ??$is_pointer_specifier@D@?$positional_parameter_base@DV?$stream_output_adapter@D@__crt_stdio_output@@@__crt_stdio_output@@CA_ND@Z 10027ff4 f i libucrt:output.obj
 0001:00027005       ??$is_pointer_specifier@D@?$positional_parameter_base@DV?$string_output_adapter@D@__crt_stdio_output@@@__crt_stdio_output@@CA_ND@Z 10028005 f i libucrt:output.obj
 0001:00027016       ??$is_pointer_specifier@_W@?$positional_parameter_base@_WV?$stream_output_adapter@_W@__crt_stdio_output@@@__crt_stdio_output@@CA_N_W@Z 10028016 f i libucrt:output.obj
 0001:00027028       ??$is_pointer_specifier@_W@?$positional_parameter_base@_WV?$string_output_adapter@_W@__crt_stdio_output@@@__crt_stdio_output@@CA_N_W@Z 10028028 f i libucrt:output.obj
 0001:0002703a       ??$is_string_specifier@D@?$positional_parameter_base@DV?$stream_output_adapter@D@__crt_stdio_output@@@__crt_stdio_output@@CA_ND@Z 1002803a f i libucrt:output.obj
 0001:00027058       ??$is_string_specifier@D@?$positional_parameter_base@DV?$string_output_adapter@D@__crt_stdio_output@@@__crt_stdio_output@@CA_ND@Z 10028058 f i libucrt:output.obj
 0001:00027076       ??$is_string_specifier@_W@?$positional_parameter_base@_WV?$stream_output_adapter@_W@__crt_stdio_output@@@__crt_stdio_output@@CA_N_W@Z 10028076 f i libucrt:output.obj
 0001:00027097       ??$is_string_specifier@_W@?$positional_parameter_base@_WV?$string_output_adapter@_W@__crt_stdio_output@@@__crt_stdio_output@@CA_N_W@Z 10028097 f i libucrt:output.obj
 0001:000270b8       ??$is_wide_character_specifier@D@__crt_stdio_output@@YA_N_KDW4length_modifier@0@@Z 100280b8 f i libucrt:output.obj
 0001:000270f5       ??$is_wide_character_specifier@_W@__crt_stdio_output@@YA_N_K_WW4length_modifier@0@@Z 100280f5 f i libucrt:output.obj
 0001:00027156       ??$peek_va_arg@C@__crt_stdio_output@@YACPAD@Z 10028156 f i libucrt:output.obj
 0001:00027165       ??$peek_va_arg@E@__crt_stdio_output@@YAEPAD@Z 10028165 f i libucrt:output.obj
 0001:00027174       ??$peek_va_arg@F@__crt_stdio_output@@YAFPAD@Z 10028174 f i libucrt:output.obj
 0001:00027184       ??$peek_va_arg@G@__crt_stdio_output@@YAGPAD@Z 10028184 f i libucrt:output.obj
 0001:00027194       ??$peek_va_arg@H@__crt_stdio_output@@YAHPAD@Z 10028194 f i libucrt:output.obj
 0001:000271a3       ??$peek_va_arg@I@__crt_stdio_output@@YAIPAD@Z 100281a3 f i libucrt:output.obj
 0001:000271b2       ??$peek_va_arg@PAD@__crt_stdio_output@@YAPADPAD@Z 100281b2 f i libucrt:output.obj
 0001:000271fd       ??$peek_va_arg@PAX@__crt_stdio_output@@YAPAXPAD@Z 100281fd f i libucrt:output.obj
 0001:0002720c       ??$peek_va_arg@U_CRT_DOUBLE@@@__crt_stdio_output@@YA?AU_CRT_DOUBLE@@PAD@Z 1002820c f i libucrt:output.obj
 0001:0002721e       ??$peek_va_arg@_J@__crt_stdio_output@@YA_JPAD@Z 1002821e f i libucrt:output.obj
 0001:00027230       ??$peek_va_arg@_K@__crt_stdio_output@@YA_KPAD@Z 10028230 f i libucrt:output.obj
 0001:00027242       ??$peek_va_arg@_W@__crt_stdio_output@@YA_WPAD@Z 10028242 f i libucrt:output.obj
 0001:00027252       ??$puttc_nolock@ABDPAU_iobuf@@@?$__crt_char_traits@D@@SAHABD$$QAPAU_iobuf@@@Z 10028252 f i libucrt:output.obj
 0001:00027272       ??$puttc_nolock@AB_WPAU_iobuf@@@?$__crt_char_traits@_W@@SAGAB_W$$QAPAU_iobuf@@@Z 10028272 f i libucrt:output.obj
 0001:00027292       ??$read_va_arg@C@__crt_stdio_output@@YACAAPAD@Z 10028292 f i libucrt:output.obj
 0001:000272a8       ??$read_va_arg@E@__crt_stdio_output@@YAEAAPAD@Z 100282a8 f i libucrt:output.obj
 0001:000272be       ??$read_va_arg@F@__crt_stdio_output@@YAFAAPAD@Z 100282be f i libucrt:output.obj
 0001:000272d5       ??$read_va_arg@G@__crt_stdio_output@@YAGAAPAD@Z 100282d5 f i libucrt:output.obj
 0001:000272ec       ??$read_va_arg@H@__crt_stdio_output@@YAHAAPAD@Z 100282ec f i libucrt:output.obj
 0001:00027302       ??$read_va_arg@I@__crt_stdio_output@@YAIAAPAD@Z 10028302 f i libucrt:output.obj
 0001:00027318       ??$read_va_arg@PAD@__crt_stdio_output@@YAPADAAPAD@Z 10028318 f i libucrt:output.obj
 0001:00027436       ??$read_va_arg@PAX@__crt_stdio_output@@YAPAXAAPAD@Z 10028436 f i libucrt:output.obj
 0001:0002744c       ??$read_va_arg@U_CRT_DOUBLE@@@__crt_stdio_output@@YA?AU_CRT_DOUBLE@@AAPAD@Z 1002844c f i libucrt:output.obj
 0001:00027467       ??$read_va_arg@_J@__crt_stdio_output@@YA_JAAPAD@Z 10028467 f i libucrt:output.obj
 0001:00027481       ??$read_va_arg@_K@__crt_stdio_output@@YA_KAAPAD@Z 10028481 f i libucrt:output.obj
 0001:0002749b       ??$read_va_arg@_W@__crt_stdio_output@@YA_WAAPAD@Z 1002849b f i libucrt:output.obj
 0001:000274b2       ??$scratch_count@D@formatting_buffer@__crt_stdio_output@@QBEIXZ 100284b2 f i libucrt:output.obj
 0001:000274b7       ??$scratch_data@D@formatting_buffer@__crt_stdio_output@@QAEPADXZ 100284b7 f i libucrt:output.obj
 0001:000274dc       ??$tcstol@AAPBDPAPADH@?$__crt_char_traits@D@@SAJAAPBD$$QAPAPAD$$QAH@Z 100284dc f i libucrt:output.obj
 0001:00027501       ??$tcstol@AAPB_WPAPA_WH@?$__crt_char_traits@_W@@SAJAAPB_W$$QAPAPA_W$$QAH@Z 10028501 f i libucrt:output.obj
 0001:00027526       ??$tcstol@PBDPAPADH@?$__crt_char_traits@D@@SAJ$$QAPBD$$QAPAPAD$$QAH@Z 10028526 f i libucrt:output.obj
 0001:0002754b       ??$tcstol@PB_WPAPA_WH@?$__crt_char_traits@_W@@SAJ$$QAPB_W$$QAPAPA_W$$QAH@Z 1002854b f i libucrt:output.obj
 0001:00027570       ??$type_case_integer_parse_into_buffer@I@?$output_processor@DV?$stream_output_adapter@D@__crt_stdio_output@@V?$format_validation_base@DV?$stream_output_adapter@D@__crt_stdio_output@@@2@@__crt_stdio_output@@AAEXII_N@Z 10028570 f i libucrt:output.obj
 0001:000275ff       ??$type_case_integer_parse_into_buffer@I@?$output_processor@DV?$stream_output_adapter@D@__crt_stdio_output@@V?$positional_parameter_base@DV?$stream_output_adapter@D@__crt_stdio_output@@@2@@__crt_stdio_output@@AAEXII_N@Z 100285ff f i libucrt:output.obj
 0001:0002768e       ??$type_case_integer_parse_into_buffer@I@?$output_processor@DV?$stream_output_adapter@D@__crt_stdio_output@@V?$standard_base@DV?$stream_output_adapter@D@__crt_stdio_output@@@2@@__crt_stdio_output@@AAEXII_N@Z 1002868e f i libucrt:output.obj
 0001:0002771d       ??$type_case_integer_parse_into_buffer@I@?$output_processor@DV?$string_output_adapter@D@__crt_stdio_output@@V?$format_validation_base@DV?$string_output_adapter@D@__crt_stdio_output@@@2@@__crt_stdio_output@@AAEXII_N@Z 1002871d f i libucrt:output.obj
 0001:000277ac       ??$type_case_integer_parse_into_buffer@I@?$output_processor@DV?$string_output_adapter@D@__crt_stdio_output@@V?$positional_parameter_base@DV?$string_output_adapter@D@__crt_stdio_output@@@2@@__crt_stdio_output@@AAEXII_N@Z 100287ac f i libucrt:output.obj
 0001:0002783b       ??$type_case_integer_parse_into_buffer@I@?$output_processor@DV?$string_output_adapter@D@__crt_stdio_output@@V?$standard_base@DV?$string_output_adapter@D@__crt_stdio_output@@@2@@__crt_stdio_output@@AAEXII_N@Z 1002883b f i libucrt:output.obj
 0001:000278ca       ??$type_case_integer_parse_into_buffer@I@?$output_processor@_WV?$stream_output_adapter@_W@__crt_stdio_output@@V?$format_validation_base@_WV?$stream_output_adapter@_W@__crt_stdio_output@@@2@@__crt_stdio_output@@AAEXII_N@Z 100288ca f i libucrt:output.obj
 0001:0002796a       ??$type_case_integer_parse_into_buffer@I@?$output_processor@_WV?$stream_output_adapter@_W@__crt_stdio_output@@V?$positional_parameter_base@_WV?$stream_output_adapter@_W@__crt_stdio_output@@@2@@__crt_stdio_output@@AAEXII_N@Z 1002896a f i libucrt:output.obj
 0001:00027a0a       ??$type_case_integer_parse_into_buffer@I@?$output_processor@_WV?$stream_output_adapter@_W@__crt_stdio_output@@V?$standard_base@_WV?$stream_output_adapter@_W@__crt_stdio_output@@@2@@__crt_stdio_output@@AAEXII_N@Z 10028a0a f i libucrt:output.obj
 0001:00027aaa       ??$type_case_integer_parse_into_buffer@I@?$output_processor@_WV?$string_output_adapter@_W@__crt_stdio_output@@V?$format_validation_base@_WV?$string_output_adapter@_W@__crt_stdio_output@@@2@@__crt_stdio_output@@AAEXII_N@Z 10028aaa f i libucrt:output.obj
 0001:00027b4a       ??$type_case_integer_parse_into_buffer@I@?$output_processor@_WV?$string_output_adapter@_W@__crt_stdio_output@@V?$positional_parameter_base@_WV?$string_output_adapter@_W@__crt_stdio_output@@@2@@__crt_stdio_output@@AAEXII_N@Z 10028b4a f i libucrt:output.obj
 0001:00027bea       ??$type_case_integer_parse_into_buffer@I@?$output_processor@_WV?$string_output_adapter@_W@__crt_stdio_output@@V?$standard_base@_WV?$string_output_adapter@_W@__crt_stdio_output@@@2@@__crt_stdio_output@@AAEXII_N@Z 10028bea f i libucrt:output.obj
 0001:00027c8a       ??$type_case_integer_parse_into_buffer@_K@?$output_processor@DV?$stream_output_adapter@D@__crt_stdio_output@@V?$format_validation_base@DV?$stream_output_adapter@D@__crt_stdio_output@@@2@@__crt_stdio_output@@AAEX_KI_N@Z 10028c8a f i libucrt:output.obj
 0001:00027d3c       ??$type_case_integer_parse_into_buffer@_K@?$output_processor@DV?$stream_output_adapter@D@__crt_stdio_output@@V?$positional_parameter_base@DV?$stream_output_adapter@D@__crt_stdio_output@@@2@@__crt_stdio_output@@AAEX_KI_N@Z 10028d3c f i libucrt:output.obj
 0001:00027dee       ??$type_case_integer_parse_into_buffer@_K@?$output_processor@DV?$stream_output_adapter@D@__crt_stdio_output@@V?$standard_base@DV?$stream_output_adapter@D@__crt_stdio_output@@@2@@__crt_stdio_output@@AAEX_KI_N@Z 10028dee f i libucrt:output.obj
 0001:00027ea0       ??$type_case_integer_parse_into_buffer@_K@?$output_processor@DV?$string_output_adapter@D@__crt_stdio_output@@V?$format_validation_base@DV?$string_output_adapter@D@__crt_stdio_output@@@2@@__crt_stdio_output@@AAEX_KI_N@Z 10028ea0 f i libucrt:output.obj
 0001:00027f52       ??$type_case_integer_parse_into_buffer@_K@?$output_processor@DV?$string_output_adapter@D@__crt_stdio_output@@V?$positional_parameter_base@DV?$string_output_adapter@D@__crt_stdio_output@@@2@@__crt_stdio_output@@AAEX_KI_N@Z 10028f52 f i libucrt:output.obj
 0001:00028004       ??$type_case_integer_parse_into_buffer@_K@?$output_processor@DV?$string_output_adapter@D@__crt_stdio_output@@V?$standard_base@DV?$string_output_adapter@D@__crt_stdio_output@@@2@@__crt_stdio_output@@AAEX_KI_N@Z 10029004 f i libucrt:output.obj
 0001:000280b6       ??$type_case_integer_parse_into_buffer@_K@?$output_processor@_WV?$stream_output_adapter@_W@__crt_stdio_output@@V?$format_validation_base@_WV?$stream_output_adapter@_W@__crt_stdio_output@@@2@@__crt_stdio_output@@AAEX_KI_N@Z 100290b6 f i libucrt:output.obj
 0001:00028179       ??$type_case_integer_parse_into_buffer@_K@?$output_processor@_WV?$stream_output_adapter@_W@__crt_stdio_output@@V?$positional_parameter_base@_WV?$stream_output_adapter@_W@__crt_stdio_output@@@2@@__crt_stdio_output@@AAEX_KI_N@Z 10029179 f i libucrt:output.obj
 0001:0002823c       ??$type_case_integer_parse_into_buffer@_K@?$output_processor@_WV?$stream_output_adapter@_W@__crt_stdio_output@@V?$standard_base@_WV?$stream_output_adapter@_W@__crt_stdio_output@@@2@@__crt_stdio_output@@AAEX_KI_N@Z 1002923c f i libucrt:output.obj
 0001:000282ff       ??$type_case_integer_parse_into_buffer@_K@?$output_processor@_WV?$string_output_adapter@_W@__crt_stdio_output@@V?$format_validation_base@_WV?$string_output_adapter@_W@__crt_stdio_output@@@2@@__crt_stdio_output@@AAEX_KI_N@Z 100292ff f i libucrt:output.obj
 0001:000283c2       ??$type_case_integer_parse_into_buffer@_K@?$output_processor@_WV?$string_output_adapter@_W@__crt_stdio_output@@V?$positional_parameter_base@_WV?$string_output_adapter@_W@__crt_stdio_output@@@2@@__crt_stdio_output@@AAEX_KI_N@Z 100293c2 f i libucrt:output.obj
 0001:00028485       ??$type_case_integer_parse_into_buffer@_K@?$output_processor@_WV?$string_output_adapter@_W@__crt_stdio_output@@V?$standard_base@_WV?$string_output_adapter@_W@__crt_stdio_output@@@2@@__crt_stdio_output@@AAEX_KI_N@Z 10029485 f i libucrt:output.obj
 0001:00028548       ??$write_multiple_characters@V?$stream_output_adapter@D@__crt_stdio_output@@D@__crt_stdio_output@@YAXABV?$stream_output_adapter@D@0@DHQAH@Z 10029548 f i libucrt:output.obj
 0001:00028591       ??$write_multiple_characters@V?$stream_output_adapter@_W@__crt_stdio_output@@D@__crt_stdio_output@@YAXABV?$stream_output_adapter@_W@0@DHQAH@Z 10029591 f i libucrt:output.obj
 0001:000285e1       ??$write_multiple_characters@V?$string_output_adapter@D@__crt_stdio_output@@D@__crt_stdio_output@@YAXABV?$string_output_adapter@D@0@DHQAH@Z 100295e1 f i libucrt:output.obj
 0001:00028618       ??$write_multiple_characters@V?$string_output_adapter@_W@__crt_stdio_output@@D@__crt_stdio_output@@YAXABV?$string_output_adapter@_W@0@DHQAH@Z 10029618 f i libucrt:output.obj
 0001:00028889       ??0?$common_data@D@__crt_stdio_output@@IAE@XZ 10029889 f i libucrt:output.obj
 0001:000288e1       ??0?$common_data@_W@__crt_stdio_output@@IAE@XZ 100298e1 f i libucrt:output.obj
 0001:00028940       ??0?$output_adapter_data@DV?$stream_output_adapter@D@__crt_stdio_output@@@__crt_stdio_output@@IAE@ABV?$stream_output_adapter@D@1@_KQBDQAU__crt_locale_pointers@@QAD@Z 10029940 f i libucrt:output.obj
 0001:0002898b       ??0?$output_adapter_data@DV?$string_output_adapter@D@__crt_stdio_output@@@__crt_stdio_output@@IAE@ABV?$string_output_adapter@D@1@_KQBDQAU__crt_locale_pointers@@QAD@Z 1002998b f i libucrt:output.obj
 0001:000289d6       ??0?$output_adapter_data@_WV?$stream_output_adapter@_W@__crt_stdio_output@@@__crt_stdio_output@@IAE@ABV?$stream_output_adapter@_W@1@_KQB_WQAU__crt_locale_pointers@@QAD@Z 100299d6 f i libucrt:output.obj
 0001:00028a21       ??0?$output_adapter_data@_WV?$string_output_adapter@_W@__crt_stdio_output@@@__crt_stdio_output@@IAE@ABV?$string_output_adapter@_W@1@_KQB_WQAU__crt_locale_pointers@@QAD@Z 10029a21 f i libucrt:output.obj
 0001:00028a6c       ??0?$output_processor@DV?$stream_output_adapter@D@__crt_stdio_output@@V?$format_validation_base@DV?$stream_output_adapter@D@__crt_stdio_output@@@2@@__crt_stdio_output@@QAE@ABV?$stream_output_adapter@D@1@_KQBDQAU__crt_locale_pointers@@QAD@Z 10029a6c f i libucrt:output.obj
 0001:00028aa4       ??0?$output_processor@DV?$stream_output_adapter@D@__crt_stdio_output@@V?$positional_parameter_base@DV?$stream_output_adapter@D@__crt_stdio_output@@@2@@__crt_stdio_output@@QAE@ABV?$stream_output_adapter@D@1@_KQBDQAU__crt_locale_pointers@@QAD@Z 10029aa4 f i libucrt:output.obj
 0001:00028ad4       ??0?$output_processor@DV?$stream_output_adapter@D@__crt_stdio_output@@V?$standard_base@DV?$stream_output_adapter@D@__crt_stdio_output@@@2@@__crt_stdio_output@@QAE@ABV?$stream_output_adapter@D@1@_KQBDQAU__crt_locale_pointers@@QAD@Z 10029ad4 f i libucrt:output.obj
 0001:00028b0c       ??0?$output_processor@DV?$string_output_adapter@D@__crt_stdio_output@@V?$format_validation_base@DV?$string_output_adapter@D@__crt_stdio_output@@@2@@__crt_stdio_output@@QAE@ABV?$string_output_adapter@D@1@_KQBDQAU__crt_locale_pointers@@QAD@Z 10029b0c f i libucrt:output.obj
 0001:00028b44       ??0?$output_processor@DV?$string_output_adapter@D@__crt_stdio_output@@V?$positional_parameter_base@DV?$string_output_adapter@D@__crt_stdio_output@@@2@@__crt_stdio_output@@QAE@ABV?$string_output_adapter@D@1@_KQBDQAU__crt_locale_pointers@@QAD@Z 10029b44 f i libucrt:output.obj
 0001:00028b74       ??0?$output_processor@DV?$string_output_adapter@D@__crt_stdio_output@@V?$standard_base@DV?$string_output_adapter@D@__crt_stdio_output@@@2@@__crt_stdio_output@@QAE@ABV?$string_output_adapter@D@1@_KQBDQAU__crt_locale_pointers@@QAD@Z 10029b74 f i libucrt:output.obj
 0001:00028bac       ??0?$output_processor@_WV?$stream_output_adapter@_W@__crt_stdio_output@@V?$format_validation_base@_WV?$stream_output_adapter@_W@__crt_stdio_output@@@2@@__crt_stdio_output@@QAE@ABV?$stream_output_adapter@_W@1@_KQB_WQAU__crt_locale_pointers@@QAD@Z 10029bac f i libucrt:output.obj
 0001:00028be4       ??0?$output_processor@_WV?$stream_output_adapter@_W@__crt_stdio_output@@V?$positional_parameter_base@_WV?$stream_output_adapter@_W@__crt_stdio_output@@@2@@__crt_stdio_output@@QAE@ABV?$stream_output_adapter@_W@1@_KQB_WQAU__crt_locale_pointers@@QAD@Z 10029be4 f i libucrt:output.obj
 0001:00028c14       ??0?$output_processor@_WV?$stream_output_adapter@_W@__crt_stdio_output@@V?$standard_base@_WV?$stream_output_adapter@_W@__crt_stdio_output@@@2@@__crt_stdio_output@@QAE@ABV?$stream_output_adapter@_W@1@_KQB_WQAU__crt_locale_pointers@@QAD@Z 10029c14 f i libucrt:output.obj
 0001:00028c4c       ??0?$output_processor@_WV?$string_output_adapter@_W@__crt_stdio_output@@V?$format_validation_base@_WV?$string_output_adapter@_W@__crt_stdio_output@@@2@@__crt_stdio_output@@QAE@ABV?$string_output_adapter@_W@1@_KQB_WQAU__crt_locale_pointers@@QAD@Z 10029c4c f i libucrt:output.obj
 0001:00028c84       ??0?$output_processor@_WV?$string_output_adapter@_W@__crt_stdio_output@@V?$positional_parameter_base@_WV?$string_output_adapter@_W@__crt_stdio_output@@@2@@__crt_stdio_output@@QAE@ABV?$string_output_adapter@_W@1@_KQB_WQAU__crt_locale_pointers@@QAD@Z 10029c84 f i libucrt:output.obj
 0001:00028cb4       ??0?$output_processor@_WV?$string_output_adapter@_W@__crt_stdio_output@@V?$standard_base@_WV?$string_output_adapter@_W@__crt_stdio_output@@@2@@__crt_stdio_output@@QAE@ABV?$string_output_adapter@_W@1@_KQB_WQAU__crt_locale_pointers@@QAD@Z 10029cb4 f i libucrt:output.obj
 0001:00028cec       ??0?$stream_output_adapter@D@__crt_stdio_output@@QAE@QAU_iobuf@@@Z 10029cec f i libucrt:output.obj
 0001:00028d00       ??0?$stream_output_adapter@_W@__crt_stdio_output@@QAE@QAU_iobuf@@@Z 10029d00 f i libucrt:output.obj
 0001:00028d14       ??0?$string_output_adapter@D@__crt_stdio_output@@QAE@QAU?$string_output_adapter_context@D@1@@Z 10029d14 f i libucrt:output.obj
 0001:00028d28       ??0?$string_output_adapter@_W@__crt_stdio_output@@QAE@QAU?$string_output_adapter_context@_W@1@@Z 10029d28 f i libucrt:output.obj
 0001:00028d3c       ??0_LocaleUpdate@@QAE@QAU__crt_locale_pointers@@@Z 10029d3c f i libucrt:output.obj
 0001:00028ddf       ??0__acrt_stdio_temporary_buffering_guard@@QAE@QAU_iobuf@@@Z 10029ddf f i libucrt:output.obj
 0001:00028e04       ??0__crt_deferred_errno_cache@@QAE@XZ 10029e04 f i libucrt:output.obj
 0001:00028e0a       ??0__crt_errno_guard@@QAE@QAH@Z 10029e0a f i libucrt:output.obj
 0001:00028e28       ??0formatting_buffer@__crt_stdio_output@@QAE@XZ 10029e28 f i libucrt:output.obj
 0001:00028e3d       ??1?$common_data@D@__crt_stdio_output@@QAE@XZ 10029e3d f i libucrt:output.obj
 0001:00028e47       ??1?$common_data@_W@__crt_stdio_output@@QAE@XZ 10029e47 f i libucrt:output.obj
 0001:00028e51       ??1?$format_validation_base@DV?$stream_output_adapter@D@__crt_stdio_output@@@__crt_stdio_output@@QAE@XZ 10029e51 f i libucrt:output.obj
 0001:00028e5b       ??1?$format_validation_base@DV?$string_output_adapter@D@__crt_stdio_output@@@__crt_stdio_output@@QAE@XZ 10029e5b f i libucrt:output.obj
 0001:00028e65       ??1?$format_validation_base@_WV?$stream_output_adapter@_W@__crt_stdio_output@@@__crt_stdio_output@@QAE@XZ 10029e65 f i libucrt:output.obj
 0001:00028e6f       ??1?$format_validation_base@_WV?$string_output_adapter@_W@__crt_stdio_output@@@__crt_stdio_output@@QAE@XZ 10029e6f f i libucrt:output.obj
 0001:00028e79       ??1?$output_adapter_data@DV?$stream_output_adapter@D@__crt_stdio_output@@@__crt_stdio_output@@QAE@XZ 10029e79 f i libucrt:output.obj
 0001:00028e83       ??1?$output_adapter_data@DV?$string_output_adapter@D@__crt_stdio_output@@@__crt_stdio_output@@QAE@XZ 10029e83 f i libucrt:output.obj
 0001:00028e8d       ??1?$output_adapter_data@_WV?$stream_output_adapter@_W@__crt_stdio_output@@@__crt_stdio_output@@QAE@XZ 10029e8d f i libucrt:output.obj
 0001:00028e97       ??1?$output_adapter_data@_WV?$string_output_adapter@_W@__crt_stdio_output@@@__crt_stdio_output@@QAE@XZ 10029e97 f i libucrt:output.obj
 0001:00028ea1       ??1?$output_processor@DV?$stream_output_adapter@D@__crt_stdio_output@@V?$format_validation_base@DV?$stream_output_adapter@D@__crt_stdio_output@@@2@@__crt_stdio_output@@QAE@XZ 10029ea1 f i libucrt:output.obj
 0001:00028eab       ??1?$output_processor@DV?$stream_output_adapter@D@__crt_stdio_output@@V?$positional_parameter_base@DV?$stream_output_adapter@D@__crt_stdio_output@@@2@@__crt_stdio_output@@QAE@XZ 10029eab f i libucrt:output.obj
 0001:00028eb5       ??1?$output_processor@DV?$stream_output_adapter@D@__crt_stdio_output@@V?$standard_base@DV?$stream_output_adapter@D@__crt_stdio_output@@@2@@__crt_stdio_output@@QAE@XZ 10029eb5 f i libucrt:output.obj
 0001:00028ebf       ??1?$output_processor@DV?$string_output_adapter@D@__crt_stdio_output@@V?$format_validation_base@DV?$string_output_adapter@D@__crt_stdio_output@@@2@@__crt_stdio_output@@QAE@XZ 10029ebf f i libucrt:output.obj
 0001:00028ec9       ??1?$output_processor@DV?$string_output_adapter@D@__crt_stdio_output@@V?$positional_parameter_base@DV?$string_output_adapter@D@__crt_stdio_output@@@2@@__crt_stdio_output@@QAE@XZ 10029ec9 f i libucrt:output.obj
 0001:00028ed3       ??1?$output_processor@DV?$string_output_adapter@D@__crt_stdio_output@@V?$standard_base@DV?$string_output_adapter@D@__crt_stdio_output@@@2@@__crt_stdio_output@@QAE@XZ 10029ed3 f i libucrt:output.obj
 0001:00028edd       ??1?$output_processor@_WV?$stream_output_adapter@_W@__crt_stdio_output@@V?$format_validation_base@_WV?$stream_output_adapter@_W@__crt_stdio_output@@@2@@__crt_stdio_output@@QAE@XZ 10029edd f i libucrt:output.obj
 0001:00028ee7       ??1?$output_processor@_WV?$stream_output_adapter@_W@__crt_stdio_output@@V?$positional_parameter_base@_WV?$stream_output_adapter@_W@__crt_stdio_output@@@2@@__crt_stdio_output@@QAE@XZ 10029ee7 f i libucrt:output.obj
 0001:00028ef1       ??1?$output_processor@_WV?$stream_output_adapter@_W@__crt_stdio_output@@V?$standard_base@_WV?$stream_output_adapter@_W@__crt_stdio_output@@@2@@__crt_stdio_output@@QAE@XZ 10029ef1 f i libucrt:output.obj
 0001:00028efb       ??1?$output_processor@_WV?$string_output_adapter@_W@__crt_stdio_output@@V?$format_validation_base@_WV?$string_output_adapter@_W@__crt_stdio_output@@@2@@__crt_stdio_output@@QAE@XZ 10029efb f i libucrt:output.obj
 0001:00028f05       ??1?$output_processor@_WV?$string_output_adapter@_W@__crt_stdio_output@@V?$positional_parameter_base@_WV?$string_output_adapter@_W@__crt_stdio_output@@@2@@__crt_stdio_output@@QAE@XZ 10029f05 f i libucrt:output.obj
 0001:00028f0f       ??1?$output_processor@_WV?$string_output_adapter@_W@__crt_stdio_output@@V?$standard_base@_WV?$string_output_adapter@_W@__crt_stdio_output@@@2@@__crt_stdio_output@@QAE@XZ 10029f0f f i libucrt:output.obj
 0001:00028f19       ??1?$positional_parameter_base@DV?$stream_output_adapter@D@__crt_stdio_output@@@__crt_stdio_output@@QAE@XZ 10029f19 f i libucrt:output.obj
 0001:00028f23       ??1?$positional_parameter_base@DV?$string_output_adapter@D@__crt_stdio_output@@@__crt_stdio_output@@QAE@XZ 10029f23 f i libucrt:output.obj
 0001:00028f2d       ??1?$positional_parameter_base@_WV?$stream_output_adapter@_W@__crt_stdio_output@@@__crt_stdio_output@@QAE@XZ 10029f2d f i libucrt:output.obj
 0001:00028f37       ??1?$positional_parameter_base@_WV?$string_output_adapter@_W@__crt_stdio_output@@@__crt_stdio_output@@QAE@XZ 10029f37 f i libucrt:output.obj
 0001:00028f41       ??1?$standard_base@DV?$stream_output_adapter@D@__crt_stdio_output@@@__crt_stdio_output@@QAE@XZ 10029f41 f i libucrt:output.obj
 0001:00028f4b       ??1?$standard_base@DV?$string_output_adapter@D@__crt_stdio_output@@@__crt_stdio_output@@QAE@XZ 10029f4b f i libucrt:output.obj
 0001:00028f55       ??1?$standard_base@_WV?$stream_output_adapter@_W@__crt_stdio_output@@@__crt_stdio_output@@QAE@XZ 10029f55 f i libucrt:output.obj
 0001:00028f5f       ??1?$standard_base@_WV?$string_output_adapter@_W@__crt_stdio_output@@@__crt_stdio_output@@QAE@XZ 10029f5f f i libucrt:output.obj
 0001:00028f69       ??1_LocaleUpdate@@QAE@XZ   10029f69 f i libucrt:output.obj
 0001:00028f7d       ??1__acrt_stdio_temporary_buffering_guard@@QAE@XZ 10029f7d f i libucrt:output.obj
 0001:00028f8f       ??1__crt_errno_guard@@QAE@XZ 10029f8f f i libucrt:output.obj
 0001:00028fa4       ??1formatting_buffer@__crt_stdio_output@@QAE@XZ 10029fa4 f i libucrt:output.obj
 0001:00028fc4       ??4?$__crt_unique_heap_ptr@DU__crt_internal_free_policy@@@@QAEAAV0@$$QAV0@@Z 10029fc4 f i libucrt:output.obj
 0001:0002969f       ?GetLocaleT@_LocaleUpdate@@QAEPAU__crt_locale_pointers@@XZ 1002a69f f i libucrt:output.obj
 0001:000296a3       ?adjust_hexit@?$output_processor@DV?$stream_output_adapter@D@__crt_stdio_output@@V?$format_validation_base@DV?$stream_output_adapter@D@__crt_stdio_output@@@2@@__crt_stdio_output@@CADH_N@Z 1002a6a3 f i libucrt:output.obj
 0001:000296bc       ?adjust_hexit@?$output_processor@DV?$stream_output_adapter@D@__crt_stdio_output@@V?$positional_parameter_base@DV?$stream_output_adapter@D@__crt_stdio_output@@@2@@__crt_stdio_output@@CADH_N@Z 1002a6bc f i libucrt:output.obj
 0001:000296d5       ?adjust_hexit@?$output_processor@DV?$stream_output_adapter@D@__crt_stdio_output@@V?$standard_base@DV?$stream_output_adapter@D@__crt_stdio_output@@@2@@__crt_stdio_output@@CADH_N@Z 1002a6d5 f i libucrt:output.obj
 0001:000296ee       ?adjust_hexit@?$output_processor@DV?$string_output_adapter@D@__crt_stdio_output@@V?$format_validation_base@DV?$string_output_adapter@D@__crt_stdio_output@@@2@@__crt_stdio_output@@CADH_N@Z 1002a6ee f i libucrt:output.obj
 0001:00029707       ?adjust_hexit@?$output_processor@DV?$string_output_adapter@D@__crt_stdio_output@@V?$positional_parameter_base@DV?$string_output_adapter@D@__crt_stdio_output@@@2@@__crt_stdio_output@@CADH_N@Z 1002a707 f i libucrt:output.obj
 0001:00029720       ?adjust_hexit@?$output_processor@DV?$string_output_adapter@D@__crt_stdio_output@@V?$standard_base@DV?$string_output_adapter@D@__crt_stdio_output@@@2@@__crt_stdio_output@@CADH_N@Z 1002a720 f i libucrt:output.obj
 0001:00029739       ?adjust_hexit@?$output_processor@_WV?$stream_output_adapter@_W@__crt_stdio_output@@V?$format_validation_base@_WV?$stream_output_adapter@_W@__crt_stdio_output@@@2@@__crt_stdio_output@@CADH_N@Z 1002a739 f i libucrt:output.obj
 0001:00029752       ?adjust_hexit@?$output_processor@_WV?$stream_output_adapter@_W@__crt_stdio_output@@V?$positional_parameter_base@_WV?$stream_output_adapter@_W@__crt_stdio_output@@@2@@__crt_stdio_output@@CADH_N@Z 1002a752 f i libucrt:output.obj
 0001:0002976b       ?adjust_hexit@?$output_processor@_WV?$stream_output_adapter@_W@__crt_stdio_output@@V?$standard_base@_WV?$stream_output_adapter@_W@__crt_stdio_output@@@2@@__crt_stdio_output@@CADH_N@Z 1002a76b f i libucrt:output.obj
 0001:00029784       ?adjust_hexit@?$output_processor@_WV?$string_output_adapter@_W@__crt_stdio_output@@V?$format_validation_base@_WV?$string_output_adapter@_W@__crt_stdio_output@@@2@@__crt_stdio_output@@CADH_N@Z 1002a784 f i libucrt:output.obj
 0001:0002979d       ?adjust_hexit@?$output_processor@_WV?$string_output_adapter@_W@__crt_stdio_output@@V?$positional_parameter_base@_WV?$string_output_adapter@_W@__crt_stdio_output@@@2@@__crt_stdio_output@@CADH_N@Z 1002a79d f i libucrt:output.obj
 0001:000297b6       ?adjust_hexit@?$output_processor@_WV?$string_output_adapter@_W@__crt_stdio_output@@V?$standard_base@_WV?$string_output_adapter@_W@__crt_stdio_output@@@2@@__crt_stdio_output@@CADH_N@Z 1002a7b6 f i libucrt:output.obj
 0001:000297cf       ?advance_to_next_pass@?$positional_parameter_base@DV?$stream_output_adapter@D@__crt_stdio_output@@@__crt_stdio_output@@IAE_NXZ 1002a7cf f i libucrt:output.obj
 0001:0002982e       ?advance_to_next_pass@?$positional_parameter_base@DV?$string_output_adapter@D@__crt_stdio_output@@@__crt_stdio_output@@IAE_NXZ 1002a82e f i libucrt:output.obj
 0001:0002988d       ?advance_to_next_pass@?$positional_parameter_base@_WV?$stream_output_adapter@_W@__crt_stdio_output@@@__crt_stdio_output@@IAE_NXZ 1002a88d f i libucrt:output.obj
 0001:000298ec       ?advance_to_next_pass@?$positional_parameter_base@_WV?$string_output_adapter@_W@__crt_stdio_output@@@__crt_stdio_output@@IAE_NXZ 1002a8ec f i libucrt:output.obj
 0001:0002994b       ?advance_to_next_pass@?$standard_base@DV?$stream_output_adapter@D@__crt_stdio_output@@@__crt_stdio_output@@IAE_NXZ 1002a94b f i libucrt:output.obj
 0001:00029960       ?advance_to_next_pass@?$standard_base@DV?$string_output_adapter@D@__crt_stdio_output@@@__crt_stdio_output@@IAE_NXZ 1002a960 f i libucrt:output.obj
 0001:00029975       ?advance_to_next_pass@?$standard_base@_WV?$stream_output_adapter@_W@__crt_stdio_output@@@__crt_stdio_output@@IAE_NXZ 1002a975 f i libucrt:output.obj
 0001:0002998a       ?advance_to_next_pass@?$standard_base@_WV?$string_output_adapter@_W@__crt_stdio_output@@@__crt_stdio_output@@IAE_NXZ 1002a98a f i libucrt:output.obj
 0001:0002999f       ?crop_zeroes@__crt_stdio_output@@YAXPADQAU__crt_locale_pointers@@@Z 1002a99f f i libucrt:output.obj
 0001:00029a17       ?find_next_state@?$output_processor@DV?$stream_output_adapter@D@__crt_stdio_output@@V?$format_validation_base@DV?$stream_output_adapter@D@__crt_stdio_output@@@2@@__crt_stdio_output@@ABE?AW4state@2@DW432@@Z 1002aa17 f i libucrt:output.obj
 0001:00029a69       ?find_next_state@?$output_processor@DV?$stream_output_adapter@D@__crt_stdio_output@@V?$positional_parameter_base@DV?$stream_output_adapter@D@__crt_stdio_output@@@2@@__crt_stdio_output@@ABE?AW4state@2@DW432@@Z 1002aa69 f i libucrt:output.obj
 0001:00029abb       ?find_next_state@?$output_processor@DV?$stream_output_adapter@D@__crt_stdio_output@@V?$standard_base@DV?$stream_output_adapter@D@__crt_stdio_output@@@2@@__crt_stdio_output@@ABE?AW4state@2@DW432@@Z 1002aabb f i libucrt:output.obj
 0001:00029b09       ?find_next_state@?$output_processor@DV?$string_output_adapter@D@__crt_stdio_output@@V?$format_validation_base@DV?$string_output_adapter@D@__crt_stdio_output@@@2@@__crt_stdio_output@@ABE?AW4state@2@DW432@@Z 1002ab09 f i libucrt:output.obj
 0001:00029b5b       ?find_next_state@?$output_processor@DV?$string_output_adapter@D@__crt_stdio_output@@V?$positional_parameter_base@DV?$string_output_adapter@D@__crt_stdio_output@@@2@@__crt_stdio_output@@ABE?AW4state@2@DW432@@Z 1002ab5b f i libucrt:output.obj
 0001:00029bad       ?find_next_state@?$output_processor@DV?$string_output_adapter@D@__crt_stdio_output@@V?$standard_base@DV?$string_output_adapter@D@__crt_stdio_output@@@2@@__crt_stdio_output@@ABE?AW4state@2@DW432@@Z 1002abad f i libucrt:output.obj
 0001:00029bfb       ?find_next_state@?$output_processor@_WV?$stream_output_adapter@_W@__crt_stdio_output@@V?$format_validation_base@_WV?$stream_output_adapter@_W@__crt_stdio_output@@@2@@__crt_stdio_output@@ABE?AW4state@2@_WW432@@Z 1002abfb f i libucrt:output.obj
 0001:00029c50       ?find_next_state@?$output_processor@_WV?$stream_output_adapter@_W@__crt_stdio_output@@V?$positional_parameter_base@_WV?$stream_output_adapter@_W@__crt_stdio_output@@@2@@__crt_stdio_output@@ABE?AW4state@2@_WW432@@Z 1002ac50 f i libucrt:output.obj
 0001:00029ca5       ?find_next_state@?$output_processor@_WV?$stream_output_adapter@_W@__crt_stdio_output@@V?$standard_base@_WV?$stream_output_adapter@_W@__crt_stdio_output@@@2@@__crt_stdio_output@@ABE?AW4state@2@_WW432@@Z 1002aca5 f i libucrt:output.obj
 0001:00029cf6       ?find_next_state@?$output_processor@_WV?$string_output_adapter@_W@__crt_stdio_output@@V?$format_validation_base@_WV?$string_output_adapter@_W@__crt_stdio_output@@@2@@__crt_stdio_output@@ABE?AW4state@2@_WW432@@Z 1002acf6 f i libucrt:output.obj
 0001:00029d4b       ?find_next_state@?$output_processor@_WV?$string_output_adapter@_W@__crt_stdio_output@@V?$positional_parameter_base@_WV?$string_output_adapter@_W@__crt_stdio_output@@@2@@__crt_stdio_output@@ABE?AW4state@2@_WW432@@Z 1002ad4b f i libucrt:output.obj
 0001:00029da0       ?find_next_state@?$output_processor@_WV?$string_output_adapter@_W@__crt_stdio_output@@V?$standard_base@_WV?$string_output_adapter@_W@__crt_stdio_output@@@2@@__crt_stdio_output@@ABE?AW4state@2@_WW432@@Z 1002ada0 f i libucrt:output.obj
 0001:00029df1       ?force_decimal_point@__crt_stdio_output@@YAXPADQAU__crt_locale_pointers@@@Z 1002adf1 f i libucrt:output.obj
 0001:00029e64       ?get@__crt_deferred_errno_cache@@QAEAAHXZ 1002ae64 f i libucrt:output.obj
 0001:00029e7d       ?get_flags@__crt_stdio_stream@@QBEJXZ 1002ae7d f i libucrt:output.obj
 0001:00029e83       ?get_parameter_type@?$positional_parameter_base@DV?$stream_output_adapter@D@__crt_stdio_output@@@__crt_stdio_output@@CA?AW4parameter_type@12@F@Z 1002ae83 f i libucrt:output.obj
 0001:00029e87       ?get_parameter_type@?$positional_parameter_base@DV?$stream_output_adapter@D@__crt_stdio_output@@@__crt_stdio_output@@CA?AW4parameter_type@12@G@Z 1002ae87 f i libucrt:output.obj
 0001:00029e8b       ?get_parameter_type@?$positional_parameter_base@DV?$stream_output_adapter@D@__crt_stdio_output@@@__crt_stdio_output@@CA?AW4parameter_type@12@H@Z 1002ae8b f i libucrt:output.obj
 0001:00029e8f       ?get_parameter_type@?$positional_parameter_base@DV?$stream_output_adapter@D@__crt_stdio_output@@@__crt_stdio_output@@CA?AW4parameter_type@12@I@Z 1002ae8f f i libucrt:output.obj
 0001:00029e93       ?get_parameter_type@?$positional_parameter_base@DV?$stream_output_adapter@D@__crt_stdio_output@@@__crt_stdio_output@@CA?AW4parameter_type@12@U_CRT_DOUBLE@@@Z 1002ae93 f i libucrt:output.obj
 0001:00029e97       ?get_parameter_type@?$positional_parameter_base@DV?$stream_output_adapter@D@__crt_stdio_output@@@__crt_stdio_output@@CA?AW4parameter_type@12@_J@Z 1002ae97 f i libucrt:output.obj
 0001:00029e9b       ?get_parameter_type@?$positional_parameter_base@DV?$stream_output_adapter@D@__crt_stdio_output@@@__crt_stdio_output@@CA?AW4parameter_type@12@_K@Z 1002ae9b f i libucrt:output.obj
 0001:00029e9f       ?get_parameter_type@?$positional_parameter_base@DV?$stream_output_adapter@D@__crt_stdio_output@@@__crt_stdio_output@@CA?AW4parameter_type@12@_W@Z 1002ae9f f i libucrt:output.obj
 0001:00029ea3       ?get_parameter_type@?$positional_parameter_base@DV?$string_output_adapter@D@__crt_stdio_output@@@__crt_stdio_output@@CA?AW4parameter_type@12@F@Z 1002aea3 f i libucrt:output.obj
 0001:00029ea7       ?get_parameter_type@?$positional_parameter_base@DV?$string_output_adapter@D@__crt_stdio_output@@@__crt_stdio_output@@CA?AW4parameter_type@12@G@Z 1002aea7 f i libucrt:output.obj
 0001:00029eab       ?get_parameter_type@?$positional_parameter_base@DV?$string_output_adapter@D@__crt_stdio_output@@@__crt_stdio_output@@CA?AW4parameter_type@12@H@Z 1002aeab f i libucrt:output.obj
 0001:00029eaf       ?get_parameter_type@?$positional_parameter_base@DV?$string_output_adapter@D@__crt_stdio_output@@@__crt_stdio_output@@CA?AW4parameter_type@12@I@Z 1002aeaf f i libucrt:output.obj
 0001:00029eb3       ?get_parameter_type@?$positional_parameter_base@DV?$string_output_adapter@D@__crt_stdio_output@@@__crt_stdio_output@@CA?AW4parameter_type@12@U_CRT_DOUBLE@@@Z 1002aeb3 f i libucrt:output.obj
 0001:00029eb7       ?get_parameter_type@?$positional_parameter_base@DV?$string_output_adapter@D@__crt_stdio_output@@@__crt_stdio_output@@CA?AW4parameter_type@12@_J@Z 1002aeb7 f i libucrt:output.obj
 0001:00029ebb       ?get_parameter_type@?$positional_parameter_base@DV?$string_output_adapter@D@__crt_stdio_output@@@__crt_stdio_output@@CA?AW4parameter_type@12@_K@Z 1002aebb f i libucrt:output.obj
 0001:00029ebf       ?get_parameter_type@?$positional_parameter_base@DV?$string_output_adapter@D@__crt_stdio_output@@@__crt_stdio_output@@CA?AW4parameter_type@12@_W@Z 1002aebf f i libucrt:output.obj
 0001:00029ec3       ?get_parameter_type@?$positional_parameter_base@_WV?$stream_output_adapter@_W@__crt_stdio_output@@@__crt_stdio_output@@CA?AW4parameter_type@12@F@Z 1002aec3 f i libucrt:output.obj
 0001:00029ec7       ?get_parameter_type@?$positional_parameter_base@_WV?$stream_output_adapter@_W@__crt_stdio_output@@@__crt_stdio_output@@CA?AW4parameter_type@12@G@Z 1002aec7 f i libucrt:output.obj
 0001:00029ecb       ?get_parameter_type@?$positional_parameter_base@_WV?$stream_output_adapter@_W@__crt_stdio_output@@@__crt_stdio_output@@CA?AW4parameter_type@12@H@Z 1002aecb f i libucrt:output.obj
 0001:00029ecf       ?get_parameter_type@?$positional_parameter_base@_WV?$stream_output_adapter@_W@__crt_stdio_output@@@__crt_stdio_output@@CA?AW4parameter_type@12@I@Z 1002aecf f i libucrt:output.obj
 0001:00029ed3       ?get_parameter_type@?$positional_parameter_base@_WV?$stream_output_adapter@_W@__crt_stdio_output@@@__crt_stdio_output@@CA?AW4parameter_type@12@U_CRT_DOUBLE@@@Z 1002aed3 f i libucrt:output.obj
 0001:00029ed7       ?get_parameter_type@?$positional_parameter_base@_WV?$stream_output_adapter@_W@__crt_stdio_output@@@__crt_stdio_output@@CA?AW4parameter_type@12@_J@Z 1002aed7 f i libucrt:output.obj
 0001:00029edb       ?get_parameter_type@?$positional_parameter_base@_WV?$stream_output_adapter@_W@__crt_stdio_output@@@__crt_stdio_output@@CA?AW4parameter_type@12@_K@Z 1002aedb f i libucrt:output.obj
 0001:00029edf       ?get_parameter_type@?$positional_parameter_base@_WV?$stream_output_adapter@_W@__crt_stdio_output@@@__crt_stdio_output@@CA?AW4parameter_type@12@_W@Z 1002aedf f i libucrt:output.obj
 0001:00029ee3       ?get_parameter_type@?$positional_parameter_base@_WV?$string_output_adapter@_W@__crt_stdio_output@@@__crt_stdio_output@@CA?AW4parameter_type@12@F@Z 1002aee3 f i libucrt:output.obj
 0001:00029ee7       ?get_parameter_type@?$positional_parameter_base@_WV?$string_output_adapter@_W@__crt_stdio_output@@@__crt_stdio_output@@CA?AW4parameter_type@12@G@Z 1002aee7 f i libucrt:output.obj
 0001:00029eeb       ?get_parameter_type@?$positional_parameter_base@_WV?$string_output_adapter@_W@__crt_stdio_output@@@__crt_stdio_output@@CA?AW4parameter_type@12@H@Z 1002aeeb f i libucrt:output.obj
 0001:00029eef       ?get_parameter_type@?$positional_parameter_base@_WV?$string_output_adapter@_W@__crt_stdio_output@@@__crt_stdio_output@@CA?AW4parameter_type@12@I@Z 1002aeef f i libucrt:output.obj
 0001:00029ef3       ?get_parameter_type@?$positional_parameter_base@_WV?$string_output_adapter@_W@__crt_stdio_output@@@__crt_stdio_output@@CA?AW4parameter_type@12@U_CRT_DOUBLE@@@Z 1002aef3 f i libucrt:output.obj
 0001:00029ef7       ?get_parameter_type@?$positional_parameter_base@_WV?$string_output_adapter@_W@__crt_stdio_output@@@__crt_stdio_output@@CA?AW4parameter_type@12@_J@Z 1002aef7 f i libucrt:output.obj
 0001:00029efb       ?get_parameter_type@?$positional_parameter_base@_WV?$string_output_adapter@_W@__crt_stdio_output@@@__crt_stdio_output@@CA?AW4parameter_type@12@_K@Z 1002aefb f i libucrt:output.obj
 0001:00029eff       ?get_parameter_type@?$positional_parameter_base@_WV?$string_output_adapter@_W@__crt_stdio_output@@@__crt_stdio_output@@CA?AW4parameter_type@12@_W@Z 1002aeff f i libucrt:output.obj
 0001:00029f03       ?has_flag@?$output_processor@DV?$stream_output_adapter@D@__crt_stdio_output@@V?$format_validation_base@DV?$stream_output_adapter@D@__crt_stdio_output@@@2@@__crt_stdio_output@@ABE_NI@Z 1002af03 f i libucrt:output.obj
 0001:00029f19       ?has_flag@?$output_processor@DV?$stream_output_adapter@D@__crt_stdio_output@@V?$positional_parameter_base@DV?$stream_output_adapter@D@__crt_stdio_output@@@2@@__crt_stdio_output@@ABE_NI@Z 1002af19 f i libucrt:output.obj
 0001:00029f2f       ?has_flag@?$output_processor@DV?$stream_output_adapter@D@__crt_stdio_output@@V?$standard_base@DV?$stream_output_adapter@D@__crt_stdio_output@@@2@@__crt_stdio_output@@ABE_NI@Z 1002af2f f i libucrt:output.obj
 0001:00029f45       ?has_flag@?$output_processor@DV?$string_output_adapter@D@__crt_stdio_output@@V?$format_validation_base@DV?$string_output_adapter@D@__crt_stdio_output@@@2@@__crt_stdio_output@@ABE_NI@Z 1002af45 f i libucrt:output.obj
 0001:00029f5b       ?has_flag@?$output_processor@DV?$string_output_adapter@D@__crt_stdio_output@@V?$positional_parameter_base@DV?$string_output_adapter@D@__crt_stdio_output@@@2@@__crt_stdio_output@@ABE_NI@Z 1002af5b f i libucrt:output.obj
 0001:00029f71       ?has_flag@?$output_processor@DV?$string_output_adapter@D@__crt_stdio_output@@V?$standard_base@DV?$string_output_adapter@D@__crt_stdio_output@@@2@@__crt_stdio_output@@ABE_NI@Z 1002af71 f i libucrt:output.obj
 0001:00029f87       ?has_flag@?$output_processor@_WV?$stream_output_adapter@_W@__crt_stdio_output@@V?$format_validation_base@_WV?$stream_output_adapter@_W@__crt_stdio_output@@@2@@__crt_stdio_output@@ABE_NI@Z 1002af87 f i libucrt:output.obj
 0001:00029f9d       ?has_flag@?$output_processor@_WV?$stream_output_adapter@_W@__crt_stdio_output@@V?$positional_parameter_base@_WV?$stream_output_adapter@_W@__crt_stdio_output@@@2@@__crt_stdio_output@@ABE_NI@Z 1002af9d f i libucrt:output.obj
 0001:00029fb3       ?has_flag@?$output_processor@_WV?$stream_output_adapter@_W@__crt_stdio_output@@V?$standard_base@_WV?$stream_output_adapter@_W@__crt_stdio_output@@@2@@__crt_stdio_output@@ABE_NI@Z 1002afb3 f i libucrt:output.obj
 0001:00029fc9       ?has_flag@?$output_processor@_WV?$string_output_adapter@_W@__crt_stdio_output@@V?$format_validation_base@_WV?$string_output_adapter@_W@__crt_stdio_output@@@2@@__crt_stdio_output@@ABE_NI@Z 1002afc9 f i libucrt:output.obj
 0001:00029fdf       ?has_flag@?$output_processor@_WV?$string_output_adapter@_W@__crt_stdio_output@@V?$positional_parameter_base@_WV?$string_output_adapter@_W@__crt_stdio_output@@@2@@__crt_stdio_output@@ABE_NI@Z 1002afdf f i libucrt:output.obj
 0001:00029ff5       ?has_flag@?$output_processor@_WV?$string_output_adapter@_W@__crt_stdio_output@@V?$standard_base@_WV?$string_output_adapter@_W@__crt_stdio_output@@@2@@__crt_stdio_output@@ABE_NI@Z 1002aff5 f i libucrt:output.obj
 0001:0002a00b       ?is_positional_parameter_reappearance_consistent@?$positional_parameter_base@DV?$stream_output_adapter@D@__crt_stdio_output@@@__crt_stdio_output@@AAE_NABUparameter_data@12@W4parameter_type@12@DW4length_modifier@2@@Z 1002b00b f i libucrt:output.obj
 0001:0002a16b       ?is_positional_parameter_reappearance_consistent@?$positional_parameter_base@DV?$string_output_adapter@D@__crt_stdio_output@@@__crt_stdio_output@@AAE_NABUparameter_data@12@W4parameter_type@12@DW4length_modifier@2@@Z 1002b16b f i libucrt:output.obj
 0001:0002a2cb       ?is_positional_parameter_reappearance_consistent@?$positional_parameter_base@_WV?$stream_output_adapter@_W@__crt_stdio_output@@@__crt_stdio_output@@AAE_NABUparameter_data@12@W4parameter_type@12@_WW4length_modifier@2@@Z 1002b2cb f i libucrt:output.obj
 0001:0002a42a       ?is_positional_parameter_reappearance_consistent@?$positional_parameter_base@_WV?$string_output_adapter@_W@__crt_stdio_output@@@__crt_stdio_output@@AAE_NABUparameter_data@12@W4parameter_type@12@_WW4length_modifier@2@@Z 1002b42a f i libucrt:output.obj
 0001:0002a589       ?is_string_backed@__crt_stdio_stream@@QBE_NXZ 1002b589 f i libucrt:output.obj
 0001:0002a596       ?narrow_null_string@?$output_processor@DV?$stream_output_adapter@D@__crt_stdio_output@@V?$format_validation_base@DV?$stream_output_adapter@D@__crt_stdio_output@@@2@@__crt_stdio_output@@CAPADXZ 1002b596 f i libucrt:output.obj
 0001:0002a59c       ?narrow_null_string@?$output_processor@DV?$stream_output_adapter@D@__crt_stdio_output@@V?$positional_parameter_base@DV?$stream_output_adapter@D@__crt_stdio_output@@@2@@__crt_stdio_output@@CAPADXZ 1002b59c f i libucrt:output.obj
 0001:0002a5a2       ?narrow_null_string@?$output_processor@DV?$stream_output_adapter@D@__crt_stdio_output@@V?$standard_base@DV?$stream_output_adapter@D@__crt_stdio_output@@@2@@__crt_stdio_output@@CAPADXZ 1002b5a2 f i libucrt:output.obj
 0001:0002a5a8       ?narrow_null_string@?$output_processor@DV?$string_output_adapter@D@__crt_stdio_output@@V?$format_validation_base@DV?$string_output_adapter@D@__crt_stdio_output@@@2@@__crt_stdio_output@@CAPADXZ 1002b5a8 f i libucrt:output.obj
 0001:0002a5ae       ?narrow_null_string@?$output_processor@DV?$string_output_adapter@D@__crt_stdio_output@@V?$positional_parameter_base@DV?$string_output_adapter@D@__crt_stdio_output@@@2@@__crt_stdio_output@@CAPADXZ 1002b5ae f i libucrt:output.obj
 0001:0002a5b4       ?narrow_null_string@?$output_processor@DV?$string_output_adapter@D@__crt_stdio_output@@V?$standard_base@DV?$string_output_adapter@D@__crt_stdio_output@@@2@@__crt_stdio_output@@CAPADXZ 1002b5b4 f i libucrt:output.obj
 0001:0002a5ba       ?narrow_null_string@?$output_processor@_WV?$stream_output_adapter@_W@__crt_stdio_output@@V?$format_validation_base@_WV?$stream_output_adapter@_W@__crt_stdio_output@@@2@@__crt_stdio_output@@CAPADXZ 1002b5ba f i libucrt:output.obj
 0001:0002a5c0       ?narrow_null_string@?$output_processor@_WV?$stream_output_adapter@_W@__crt_stdio_output@@V?$positional_parameter_base@_WV?$stream_output_adapter@_W@__crt_stdio_output@@@2@@__crt_stdio_output@@CAPADXZ 1002b5c0 f i libucrt:output.obj
 0001:0002a5c6       ?narrow_null_string@?$output_processor@_WV?$stream_output_adapter@_W@__crt_stdio_output@@V?$standard_base@_WV?$stream_output_adapter@_W@__crt_stdio_output@@@2@@__crt_stdio_output@@CAPADXZ 1002b5c6 f i libucrt:output.obj
 0001:0002a5cc       ?narrow_null_string@?$output_processor@_WV?$string_output_adapter@_W@__crt_stdio_output@@V?$format_validation_base@_WV?$string_output_adapter@_W@__crt_stdio_output@@@2@@__crt_stdio_output@@CAPADXZ 1002b5cc f i libucrt:output.obj
 0001:0002a5d2       ?narrow_null_string@?$output_processor@_WV?$string_output_adapter@_W@__crt_stdio_output@@V?$positional_parameter_base@_WV?$string_output_adapter@_W@__crt_stdio_output@@@2@@__crt_stdio_output@@CAPADXZ 1002b5d2 f i libucrt:output.obj
 0001:0002a5d8       ?narrow_null_string@?$output_processor@_WV?$string_output_adapter@_W@__crt_stdio_output@@V?$standard_base@_WV?$string_output_adapter@_W@__crt_stdio_output@@@2@@__crt_stdio_output@@CAPADXZ 1002b5d8 f i libucrt:output.obj
 0001:0002a5de       ?parse_int_from_format_string@?$output_processor@DV?$stream_output_adapter@D@__crt_stdio_output@@V?$format_validation_base@DV?$stream_output_adapter@D@__crt_stdio_output@@@2@@__crt_stdio_output@@AAE_NQAH@Z 1002b5de f i libucrt:output.obj
 0001:0002a671       ?parse_int_from_format_string@?$output_processor@DV?$stream_output_adapter@D@__crt_stdio_output@@V?$positional_parameter_base@DV?$stream_output_adapter@D@__crt_stdio_output@@@2@@__crt_stdio_output@@AAE_NQAH@Z 1002b671 f i libucrt:output.obj
 0001:0002a704       ?parse_int_from_format_string@?$output_processor@DV?$stream_output_adapter@D@__crt_stdio_output@@V?$standard_base@DV?$stream_output_adapter@D@__crt_stdio_output@@@2@@__crt_stdio_output@@AAE_NQAH@Z 1002b704 f i libucrt:output.obj
 0001:0002a797       ?parse_int_from_format_string@?$output_processor@DV?$string_output_adapter@D@__crt_stdio_output@@V?$format_validation_base@DV?$string_output_adapter@D@__crt_stdio_output@@@2@@__crt_stdio_output@@AAE_NQAH@Z 1002b797 f i libucrt:output.obj
 0001:0002a82a       ?parse_int_from_format_string@?$output_processor@DV?$string_output_adapter@D@__crt_stdio_output@@V?$positional_parameter_base@DV?$string_output_adapter@D@__crt_stdio_output@@@2@@__crt_stdio_output@@AAE_NQAH@Z 1002b82a f i libucrt:output.obj
 0001:0002a8bd       ?parse_int_from_format_string@?$output_processor@DV?$string_output_adapter@D@__crt_stdio_output@@V?$standard_base@DV?$string_output_adapter@D@__crt_stdio_output@@@2@@__crt_stdio_output@@AAE_NQAH@Z 1002b8bd f i libucrt:output.obj
 0001:0002a950       ?parse_int_from_format_string@?$output_processor@_WV?$stream_output_adapter@_W@__crt_stdio_output@@V?$format_validation_base@_WV?$stream_output_adapter@_W@__crt_stdio_output@@@2@@__crt_stdio_output@@AAE_NQAH@Z 1002b950 f i libucrt:output.obj
 0001:0002a9e6       ?parse_int_from_format_string@?$output_processor@_WV?$stream_output_adapter@_W@__crt_stdio_output@@V?$positional_parameter_base@_WV?$stream_output_adapter@_W@__crt_stdio_output@@@2@@__crt_stdio_output@@AAE_NQAH@Z 1002b9e6 f i libucrt:output.obj
 0001:0002aa7c       ?parse_int_from_format_string@?$output_processor@_WV?$stream_output_adapter@_W@__crt_stdio_output@@V?$standard_base@_WV?$stream_output_adapter@_W@__crt_stdio_output@@@2@@__crt_stdio_output@@AAE_NQAH@Z 1002ba7c f i libucrt:output.obj
 0001:0002ab12       ?parse_int_from_format_string@?$output_processor@_WV?$string_output_adapter@_W@__crt_stdio_output@@V?$format_validation_base@_WV?$string_output_adapter@_W@__crt_stdio_output@@@2@@__crt_stdio_output@@AAE_NQAH@Z 1002bb12 f i libucrt:output.obj
 0001:0002aba8       ?parse_int_from_format_string@?$output_processor@_WV?$string_output_adapter@_W@__crt_stdio_output@@V?$positional_parameter_base@_WV?$string_output_adapter@_W@__crt_stdio_output@@@2@@__crt_stdio_output@@AAE_NQAH@Z 1002bba8 f i libucrt:output.obj
 0001:0002ac3e       ?parse_int_from_format_string@?$output_processor@_WV?$string_output_adapter@_W@__crt_stdio_output@@V?$standard_base@_WV?$string_output_adapter@_W@__crt_stdio_output@@@2@@__crt_stdio_output@@AAE_NQAH@Z 1002bc3e f i libucrt:output.obj
 0001:0002acd4       ?process@?$output_processor@DV?$stream_output_adapter@D@__crt_stdio_output@@V?$format_validation_base@DV?$stream_output_adapter@D@__crt_stdio_output@@@2@@__crt_stdio_output@@QAEHXZ 1002bcd4 f i libucrt:output.obj
 0001:0002ae46       ?process@?$output_processor@DV?$stream_output_adapter@D@__crt_stdio_output@@V?$positional_parameter_base@DV?$stream_output_adapter@D@__crt_stdio_output@@@2@@__crt_stdio_output@@QAEHXZ 1002be46 f i libucrt:output.obj
 0001:0002aff9       ?process@?$output_processor@DV?$stream_output_adapter@D@__crt_stdio_output@@V?$standard_base@DV?$stream_output_adapter@D@__crt_stdio_output@@@2@@__crt_stdio_output@@QAEHXZ 1002bff9 f i libucrt:output.obj
 0001:0002b15c       ?process@?$output_processor@DV?$string_output_adapter@D@__crt_stdio_output@@V?$format_validation_base@DV?$string_output_adapter@D@__crt_stdio_output@@@2@@__crt_stdio_output@@QAEHXZ 1002c15c f i libucrt:output.obj
 0001:0002b2ce       ?process@?$output_processor@DV?$string_output_adapter@D@__crt_stdio_output@@V?$positional_parameter_base@DV?$string_output_adapter@D@__crt_stdio_output@@@2@@__crt_stdio_output@@QAEHXZ 1002c2ce f i libucrt:output.obj
 0001:0002b481       ?process@?$output_processor@DV?$string_output_adapter@D@__crt_stdio_output@@V?$standard_base@DV?$string_output_adapter@D@__crt_stdio_output@@@2@@__crt_stdio_output@@QAEHXZ 1002c481 f i libucrt:output.obj
 0001:0002b5e4       ?process@?$output_processor@_WV?$stream_output_adapter@_W@__crt_stdio_output@@V?$format_validation_base@_WV?$stream_output_adapter@_W@__crt_stdio_output@@@2@@__crt_stdio_output@@QAEHXZ 1002c5e4 f i libucrt:output.obj
 0001:0002b760       ?process@?$output_processor@_WV?$stream_output_adapter@_W@__crt_stdio_output@@V?$positional_parameter_base@_WV?$stream_output_adapter@_W@__crt_stdio_output@@@2@@__crt_stdio_output@@QAEHXZ 1002c760 f i libucrt:output.obj
 0001:0002b918       ?process@?$output_processor@_WV?$stream_output_adapter@_W@__crt_stdio_output@@V?$standard_base@_WV?$stream_output_adapter@_W@__crt_stdio_output@@@2@@__crt_stdio_output@@QAEHXZ 1002c918 f i libucrt:output.obj
 0001:0002ba80       ?process@?$output_processor@_WV?$string_output_adapter@_W@__crt_stdio_output@@V?$format_validation_base@_WV?$string_output_adapter@_W@__crt_stdio_output@@@2@@__crt_stdio_output@@QAEHXZ 1002ca80 f i libucrt:output.obj
 0001:0002bbfc       ?process@?$output_processor@_WV?$string_output_adapter@_W@__crt_stdio_output@@V?$positional_parameter_base@_WV?$string_output_adapter@_W@__crt_stdio_output@@@2@@__crt_stdio_output@@QAEHXZ 1002cbfc f i libucrt:output.obj
 0001:0002bdb4       ?process@?$output_processor@_WV?$string_output_adapter@_W@__crt_stdio_output@@V?$standard_base@_WV?$string_output_adapter@_W@__crt_stdio_output@@@2@@__crt_stdio_output@@QAEHXZ 1002cdb4 f i libucrt:output.obj
 0001:0002bf1c       ?public_stream@__crt_stdio_stream@@QBEPAU_iobuf@@XZ 1002cf1c f i libucrt:output.obj
 0001:0002bf1f       ?set_flag@?$output_processor@DV?$stream_output_adapter@D@__crt_stdio_output@@V?$format_validation_base@DV?$stream_output_adapter@D@__crt_stdio_output@@@2@@__crt_stdio_output@@AAEXI@Z 1002cf1f f i libucrt:output.obj
 0001:0002bf31       ?set_flag@?$output_processor@DV?$stream_output_adapter@D@__crt_stdio_output@@V?$positional_parameter_base@DV?$stream_output_adapter@D@__crt_stdio_output@@@2@@__crt_stdio_output@@AAEXI@Z 1002cf31 f i libucrt:output.obj
 0001:0002bf43       ?set_flag@?$output_processor@DV?$stream_output_adapter@D@__crt_stdio_output@@V?$standard_base@DV?$stream_output_adapter@D@__crt_stdio_output@@@2@@__crt_stdio_output@@AAEXI@Z 1002cf43 f i libucrt:output.obj
 0001:0002bf55       ?set_flag@?$output_processor@DV?$string_output_adapter@D@__crt_stdio_output@@V?$format_validation_base@DV?$string_output_adapter@D@__crt_stdio_output@@@2@@__crt_stdio_output@@AAEXI@Z 1002cf55 f i libucrt:output.obj
 0001:0002bf67       ?set_flag@?$output_processor@DV?$string_output_adapter@D@__crt_stdio_output@@V?$positional_parameter_base@DV?$string_output_adapter@D@__crt_stdio_output@@@2@@__crt_stdio_output@@AAEXI@Z 1002cf67 f i libucrt:output.obj
 0001:0002bf79       ?set_flag@?$output_processor@DV?$string_output_adapter@D@__crt_stdio_output@@V?$standard_base@DV?$string_output_adapter@D@__crt_stdio_output@@@2@@__crt_stdio_output@@AAEXI@Z 1002cf79 f i libucrt:output.obj
 0001:0002bf8b       ?set_flag@?$output_processor@_WV?$stream_output_adapter@_W@__crt_stdio_output@@V?$format_validation_base@_WV?$stream_output_adapter@_W@__crt_stdio_output@@@2@@__crt_stdio_output@@AAEXI@Z 1002cf8b f i libucrt:output.obj
 0001:0002bf9d       ?set_flag@?$output_processor@_WV?$stream_output_adapter@_W@__crt_stdio_output@@V?$positional_parameter_base@_WV?$stream_output_adapter@_W@__crt_stdio_output@@@2@@__crt_stdio_output@@AAEXI@Z 1002cf9d f i libucrt:output.obj
 0001:0002bfaf       ?set_flag@?$output_processor@_WV?$stream_output_adapter@_W@__crt_stdio_output@@V?$standard_base@_WV?$stream_output_adapter@_W@__crt_stdio_output@@@2@@__crt_stdio_output@@AAEXI@Z 1002cfaf f i libucrt:output.obj
 0001:0002bfc1       ?set_flag@?$output_processor@_WV?$string_output_adapter@_W@__crt_stdio_output@@V?$format_validation_base@_WV?$string_output_adapter@_W@__crt_stdio_output@@@2@@__crt_stdio_output@@AAEXI@Z 1002cfc1 f i libucrt:output.obj
 0001:0002bfd3       ?set_flag@?$output_processor@_WV?$string_output_adapter@_W@__crt_stdio_output@@V?$positional_parameter_base@_WV?$string_output_adapter@_W@__crt_stdio_output@@@2@@__crt_stdio_output@@AAEXI@Z 1002cfd3 f i libucrt:output.obj
 0001:0002bfe5       ?set_flag@?$output_processor@_WV?$string_output_adapter@_W@__crt_stdio_output@@V?$standard_base@_WV?$string_output_adapter@_W@__crt_stdio_output@@@2@@__crt_stdio_output@@AAEXI@Z 1002cfe5 f i libucrt:output.obj
 0001:0002bff7       ?should_format@?$positional_parameter_base@DV?$stream_output_adapter@D@__crt_stdio_output@@@__crt_stdio_output@@IAE_NXZ 1002cff7 f i libucrt:output.obj
 0001:0002c012       ?should_format@?$positional_parameter_base@DV?$string_output_adapter@D@__crt_stdio_output@@@__crt_stdio_output@@IAE_NXZ 1002d012 f i libucrt:output.obj
 0001:0002c02d       ?should_format@?$positional_parameter_base@_WV?$stream_output_adapter@_W@__crt_stdio_output@@@__crt_stdio_output@@IAE_NXZ 1002d02d f i libucrt:output.obj
 0001:0002c048       ?should_format@?$positional_parameter_base@_WV?$string_output_adapter@_W@__crt_stdio_output@@@__crt_stdio_output@@IAE_NXZ 1002d048 f i libucrt:output.obj
 0001:0002c063       ?should_format@?$standard_base@DV?$stream_output_adapter@D@__crt_stdio_output@@@__crt_stdio_output@@IAE_NXZ 1002d063 f i libucrt:output.obj
 0001:0002c066       ?should_format@?$standard_base@DV?$string_output_adapter@D@__crt_stdio_output@@@__crt_stdio_output@@IAE_NXZ 1002d066 f i libucrt:output.obj
 0001:0002c069       ?should_format@?$standard_base@_WV?$stream_output_adapter@_W@__crt_stdio_output@@@__crt_stdio_output@@IAE_NXZ 1002d069 f i libucrt:output.obj
 0001:0002c06c       ?should_format@?$standard_base@_WV?$string_output_adapter@_W@__crt_stdio_output@@@__crt_stdio_output@@IAE_NXZ 1002d06c f i libucrt:output.obj
 0001:0002c06f       ?should_skip_normal_state_processing@?$positional_parameter_base@DV?$stream_output_adapter@D@__crt_stdio_output@@@__crt_stdio_output@@IAE_NXZ 1002d06f f i libucrt:output.obj
 0001:0002c0a1       ?should_skip_normal_state_processing@?$positional_parameter_base@DV?$string_output_adapter@D@__crt_stdio_output@@@__crt_stdio_output@@IAE_NXZ 1002d0a1 f i libucrt:output.obj
 0001:0002c0d3       ?should_skip_normal_state_processing@?$positional_parameter_base@_WV?$stream_output_adapter@_W@__crt_stdio_output@@@__crt_stdio_output@@IAE_NXZ 1002d0d3 f i libucrt:output.obj
 0001:0002c105       ?should_skip_normal_state_processing@?$positional_parameter_base@_WV?$string_output_adapter@_W@__crt_stdio_output@@@__crt_stdio_output@@IAE_NXZ 1002d105 f i libucrt:output.obj
 0001:0002c137       ?should_skip_normal_state_processing@?$standard_base@DV?$stream_output_adapter@D@__crt_stdio_output@@@__crt_stdio_output@@IAE_NXZ 1002d137 f i libucrt:output.obj
 0001:0002c13a       ?should_skip_normal_state_processing@?$standard_base@DV?$string_output_adapter@D@__crt_stdio_output@@@__crt_stdio_output@@IAE_NXZ 1002d13a f i libucrt:output.obj
 0001:0002c13d       ?should_skip_normal_state_processing@?$standard_base@_WV?$stream_output_adapter@_W@__crt_stdio_output@@@__crt_stdio_output@@IAE_NXZ 1002d13d f i libucrt:output.obj
 0001:0002c140       ?should_skip_normal_state_processing@?$standard_base@_WV?$string_output_adapter@_W@__crt_stdio_output@@@__crt_stdio_output@@IAE_NXZ 1002d140 f i libucrt:output.obj
 0001:0002c143       ?should_skip_type_state_output@?$positional_parameter_base@DV?$stream_output_adapter@D@__crt_stdio_output@@@__crt_stdio_output@@IBE_NXZ 1002d143 f i libucrt:output.obj
 0001:0002c15f       ?should_skip_type_state_output@?$positional_parameter_base@DV?$string_output_adapter@D@__crt_stdio_output@@@__crt_stdio_output@@IBE_NXZ 1002d15f f i libucrt:output.obj
 0001:0002c17b       ?should_skip_type_state_output@?$positional_parameter_base@_WV?$stream_output_adapter@_W@__crt_stdio_output@@@__crt_stdio_output@@IBE_NXZ 1002d17b f i libucrt:output.obj
 0001:0002c197       ?should_skip_type_state_output@?$positional_parameter_base@_WV?$string_output_adapter@_W@__crt_stdio_output@@@__crt_stdio_output@@IBE_NXZ 1002d197 f i libucrt:output.obj
 0001:0002c1b3       ?should_skip_type_state_output@?$standard_base@DV?$stream_output_adapter@D@__crt_stdio_output@@@__crt_stdio_output@@IBE_NXZ 1002d1b3 f i libucrt:output.obj
 0001:0002c1b6       ?should_skip_type_state_output@?$standard_base@DV?$string_output_adapter@D@__crt_stdio_output@@@__crt_stdio_output@@IBE_NXZ 1002d1b6 f i libucrt:output.obj
 0001:0002c1b9       ?should_skip_type_state_output@?$standard_base@_WV?$stream_output_adapter@_W@__crt_stdio_output@@@__crt_stdio_output@@IBE_NXZ 1002d1b9 f i libucrt:output.obj
 0001:0002c1bc       ?should_skip_type_state_output@?$standard_base@_WV?$string_output_adapter@_W@__crt_stdio_output@@@__crt_stdio_output@@IBE_NXZ 1002d1bc f i libucrt:output.obj
 0001:0002c1bf       ?state_case_dot@?$output_processor@DV?$stream_output_adapter@D@__crt_stdio_output@@V?$format_validation_base@DV?$stream_output_adapter@D@__crt_stdio_output@@@2@@__crt_stdio_output@@AAE_NXZ 1002d1bf f i libucrt:output.obj
 0001:0002c1c6       ?state_case_dot@?$output_processor@DV?$stream_output_adapter@D@__crt_stdio_output@@V?$positional_parameter_base@DV?$stream_output_adapter@D@__crt_stdio_output@@@2@@__crt_stdio_output@@AAE_NXZ 1002d1c6 f i libucrt:output.obj
 0001:0002c1cd       ?state_case_dot@?$output_processor@DV?$stream_output_adapter@D@__crt_stdio_output@@V?$standard_base@DV?$stream_output_adapter@D@__crt_stdio_output@@@2@@__crt_stdio_output@@AAE_NXZ 1002d1cd f i libucrt:output.obj
 0001:0002c1d4       ?state_case_dot@?$output_processor@DV?$string_output_adapter@D@__crt_stdio_output@@V?$format_validation_base@DV?$string_output_adapter@D@__crt_stdio_output@@@2@@__crt_stdio_output@@AAE_NXZ 1002d1d4 f i libucrt:output.obj
 0001:0002c1db       ?state_case_dot@?$output_processor@DV?$string_output_adapter@D@__crt_stdio_output@@V?$positional_parameter_base@DV?$string_output_adapter@D@__crt_stdio_output@@@2@@__crt_stdio_output@@AAE_NXZ 1002d1db f i libucrt:output.obj
 0001:0002c1e2       ?state_case_dot@?$output_processor@DV?$string_output_adapter@D@__crt_stdio_output@@V?$standard_base@DV?$string_output_adapter@D@__crt_stdio_output@@@2@@__crt_stdio_output@@AAE_NXZ 1002d1e2 f i libucrt:output.obj
 0001:0002c1e9       ?state_case_dot@?$output_processor@_WV?$stream_output_adapter@_W@__crt_stdio_output@@V?$format_validation_base@_WV?$stream_output_adapter@_W@__crt_stdio_output@@@2@@__crt_stdio_output@@AAE_NXZ 1002d1e9 f i libucrt:output.obj
 0001:0002c1f0       ?state_case_dot@?$output_processor@_WV?$stream_output_adapter@_W@__crt_stdio_output@@V?$positional_parameter_base@_WV?$stream_output_adapter@_W@__crt_stdio_output@@@2@@__crt_stdio_output@@AAE_NXZ 1002d1f0 f i libucrt:output.obj
 0001:0002c1f7       ?state_case_dot@?$output_processor@_WV?$stream_output_adapter@_W@__crt_stdio_output@@V?$standard_base@_WV?$stream_output_adapter@_W@__crt_stdio_output@@@2@@__crt_stdio_output@@AAE_NXZ 1002d1f7 f i libucrt:output.obj
 0001:0002c1fe       ?state_case_dot@?$output_processor@_WV?$string_output_adapter@_W@__crt_stdio_output@@V?$format_validation_base@_WV?$string_output_adapter@_W@__crt_stdio_output@@@2@@__crt_stdio_output@@AAE_NXZ 1002d1fe f i libucrt:output.obj
 0001:0002c205       ?state_case_dot@?$output_processor@_WV?$string_output_adapter@_W@__crt_stdio_output@@V?$positional_parameter_base@_WV?$string_output_adapter@_W@__crt_stdio_output@@@2@@__crt_stdio_output@@AAE_NXZ 1002d205 f i libucrt:output.obj
 0001:0002c20c       ?state_case_dot@?$output_processor@_WV?$string_output_adapter@_W@__crt_stdio_output@@V?$standard_base@_WV?$string_output_adapter@_W@__crt_stdio_output@@@2@@__crt_stdio_output@@AAE_NXZ 1002d20c f i libucrt:output.obj
 0001:0002c213       ?state_case_flag@?$output_processor@DV?$stream_output_adapter@D@__crt_stdio_output@@V?$format_validation_base@DV?$stream_output_adapter@D@__crt_stdio_output@@@2@@__crt_stdio_output@@AAE_NXZ 1002d213 f i libucrt:output.obj
 0001:0002c25f       ?state_case_flag@?$output_processor@DV?$stream_output_adapter@D@__crt_stdio_output@@V?$positional_parameter_base@DV?$stream_output_adapter@D@__crt_stdio_output@@@2@@__crt_stdio_output@@AAE_NXZ 1002d25f f i libucrt:output.obj
 0001:0002c2ab       ?state_case_flag@?$output_processor@DV?$stream_output_adapter@D@__crt_stdio_output@@V?$standard_base@DV?$stream_output_adapter@D@__crt_stdio_output@@@2@@__crt_stdio_output@@AAE_NXZ 1002d2ab f i libucrt:output.obj
 0001:0002c2f7       ?state_case_flag@?$output_processor@DV?$string_output_adapter@D@__crt_stdio_output@@V?$format_validation_base@DV?$string_output_adapter@D@__crt_stdio_output@@@2@@__crt_stdio_output@@AAE_NXZ 1002d2f7 f i libucrt:output.obj
 0001:0002c343       ?state_case_flag@?$output_processor@DV?$string_output_adapter@D@__crt_stdio_output@@V?$positional_parameter_base@DV?$string_output_adapter@D@__crt_stdio_output@@@2@@__crt_stdio_output@@AAE_NXZ 1002d343 f i libucrt:output.obj
 0001:0002c38f       ?state_case_flag@?$output_processor@DV?$string_output_adapter@D@__crt_stdio_output@@V?$standard_base@DV?$string_output_adapter@D@__crt_stdio_output@@@2@@__crt_stdio_output@@AAE_NXZ 1002d38f f i libucrt:output.obj
 0001:0002c3db       ?state_case_flag@?$output_processor@_WV?$stream_output_adapter@_W@__crt_stdio_output@@V?$format_validation_base@_WV?$stream_output_adapter@_W@__crt_stdio_output@@@2@@__crt_stdio_output@@AAE_NXZ 1002d3db f i libucrt:output.obj
 0001:0002c427       ?state_case_flag@?$output_processor@_WV?$stream_output_adapter@_W@__crt_stdio_output@@V?$positional_parameter_base@_WV?$stream_output_adapter@_W@__crt_stdio_output@@@2@@__crt_stdio_output@@AAE_NXZ 1002d427 f i libucrt:output.obj
 0001:0002c473       ?state_case_flag@?$output_processor@_WV?$stream_output_adapter@_W@__crt_stdio_output@@V?$standard_base@_WV?$stream_output_adapter@_W@__crt_stdio_output@@@2@@__crt_stdio_output@@AAE_NXZ 1002d473 f i libucrt:output.obj
 0001:0002c4bf       ?state_case_flag@?$output_processor@_WV?$string_output_adapter@_W@__crt_stdio_output@@V?$format_validation_base@_WV?$string_output_adapter@_W@__crt_stdio_output@@@2@@__crt_stdio_output@@AAE_NXZ 1002d4bf f i libucrt:output.obj
 0001:0002c50b       ?state_case_flag@?$output_processor@_WV?$string_output_adapter@_W@__crt_stdio_output@@V?$positional_parameter_base@_WV?$string_output_adapter@_W@__crt_stdio_output@@@2@@__crt_stdio_output@@AAE_NXZ 1002d50b f i libucrt:output.obj
 0001:0002c557       ?state_case_flag@?$output_processor@_WV?$string_output_adapter@_W@__crt_stdio_output@@V?$standard_base@_WV?$string_output_adapter@_W@__crt_stdio_output@@@2@@__crt_stdio_output@@AAE_NXZ 1002d557 f i libucrt:output.obj
 0001:0002c5a3       ?state_case_normal@?$output_processor@DV?$stream_output_adapter@D@__crt_stdio_output@@V?$format_validation_base@DV?$stream_output_adapter@D@__crt_stdio_output@@@2@@__crt_stdio_output@@AAE_NXZ 1002d5a3 f i libucrt:output.obj
 0001:0002c5c9       ?state_case_normal@?$output_processor@DV?$stream_output_adapter@D@__crt_stdio_output@@V?$positional_parameter_base@DV?$stream_output_adapter@D@__crt_stdio_output@@@2@@__crt_stdio_output@@AAE_NXZ 1002d5c9 f i libucrt:output.obj
 0001:0002c606       ?state_case_normal@?$output_processor@DV?$stream_output_adapter@D@__crt_stdio_output@@V?$standard_base@DV?$stream_output_adapter@D@__crt_stdio_output@@@2@@__crt_stdio_output@@AAE_NXZ 1002d606 f i libucrt:output.obj
 0001:0002c62c       ?state_case_normal@?$output_processor@DV?$string_output_adapter@D@__crt_stdio_output@@V?$format_validation_base@DV?$string_output_adapter@D@__crt_stdio_output@@@2@@__crt_stdio_output@@AAE_NXZ 1002d62c f i libucrt:output.obj
 0001:0002c652       ?state_case_normal@?$output_processor@DV?$string_output_adapter@D@__crt_stdio_output@@V?$positional_parameter_base@DV?$string_output_adapter@D@__crt_stdio_output@@@2@@__crt_stdio_output@@AAE_NXZ 1002d652 f i libucrt:output.obj
 0001:0002c68f       ?state_case_normal@?$output_processor@DV?$string_output_adapter@D@__crt_stdio_output@@V?$standard_base@DV?$string_output_adapter@D@__crt_stdio_output@@@2@@__crt_stdio_output@@AAE_NXZ 1002d68f f i libucrt:output.obj
 0001:0002c6b5       ?state_case_normal@?$output_processor@_WV?$stream_output_adapter@_W@__crt_stdio_output@@V?$format_validation_base@_WV?$stream_output_adapter@_W@__crt_stdio_output@@@2@@__crt_stdio_output@@AAE_NXZ 1002d6b5 f i libucrt:output.obj
 0001:0002c6db       ?state_case_normal@?$output_processor@_WV?$stream_output_adapter@_W@__crt_stdio_output@@V?$positional_parameter_base@_WV?$stream_output_adapter@_W@__crt_stdio_output@@@2@@__crt_stdio_output@@AAE_NXZ 1002d6db f i libucrt:output.obj
 0001:0002c718       ?state_case_normal@?$output_processor@_WV?$stream_output_adapter@_W@__crt_stdio_output@@V?$standard_base@_WV?$stream_output_adapter@_W@__crt_stdio_output@@@2@@__crt_stdio_output@@AAE_NXZ 1002d718 f i libucrt:output.obj
 0001:0002c73e       ?state_case_normal@?$output_processor@_WV?$string_output_adapter@_W@__crt_stdio_output@@V?$format_validation_base@_WV?$string_output_adapter@_W@__crt_stdio_output@@@2@@__crt_stdio_output@@AAE_NXZ 1002d73e f i libucrt:output.obj
 0001:0002c764       ?state_case_normal@?$output_processor@_WV?$string_output_adapter@_W@__crt_stdio_output@@V?$positional_parameter_base@_WV?$string_output_adapter@_W@__crt_stdio_output@@@2@@__crt_stdio_output@@AAE_NXZ 1002d764 f i libucrt:output.obj
 0001:0002c7a1       ?state_case_normal@?$output_processor@_WV?$string_output_adapter@_W@__crt_stdio_output@@V?$standard_base@_WV?$string_output_adapter@_W@__crt_stdio_output@@@2@@__crt_stdio_output@@AAE_NXZ 1002d7a1 f i libucrt:output.obj
 0001:0002c7c7       ?state_case_normal_common@?$output_processor@DV?$stream_output_adapter@D@__crt_stdio_output@@V?$format_validation_base@DV?$stream_output_adapter@D@__crt_stdio_output@@@2@@__crt_stdio_output@@AAE_NXZ 1002d7c7 f i libucrt:output.obj
 0001:0002c812       ?state_case_normal_common@?$output_processor@DV?$stream_output_adapter@D@__crt_stdio_output@@V?$positional_parameter_base@DV?$stream_output_adapter@D@__crt_stdio_output@@@2@@__crt_stdio_output@@AAE_NXZ 1002d812 f i libucrt:output.obj
 0001:0002c85d       ?state_case_normal_common@?$output_processor@DV?$stream_output_adapter@D@__crt_stdio_output@@V?$standard_base@DV?$stream_output_adapter@D@__crt_stdio_output@@@2@@__crt_stdio_output@@AAE_NXZ 1002d85d f i libucrt:output.obj
 0001:0002c8a8       ?state_case_normal_common@?$output_processor@DV?$string_output_adapter@D@__crt_stdio_output@@V?$format_validation_base@DV?$string_output_adapter@D@__crt_stdio_output@@@2@@__crt_stdio_output@@AAE_NXZ 1002d8a8 f i libucrt:output.obj
 0001:0002c8dc       ?state_case_normal_common@?$output_processor@DV?$string_output_adapter@D@__crt_stdio_output@@V?$positional_parameter_base@DV?$string_output_adapter@D@__crt_stdio_output@@@2@@__crt_stdio_output@@AAE_NXZ 1002d8dc f i libucrt:output.obj
 0001:0002c910       ?state_case_normal_common@?$output_processor@DV?$string_output_adapter@D@__crt_stdio_output@@V?$standard_base@DV?$string_output_adapter@D@__crt_stdio_output@@@2@@__crt_stdio_output@@AAE_NXZ 1002d910 f i libucrt:output.obj
 0001:0002c944       ?state_case_normal_common@?$output_processor@_WV?$stream_output_adapter@_W@__crt_stdio_output@@V?$format_validation_base@_WV?$stream_output_adapter@_W@__crt_stdio_output@@@2@@__crt_stdio_output@@AAE_NXZ 1002d944 f i libucrt:output.obj
 0001:0002c978       ?state_case_normal_common@?$output_processor@_WV?$stream_output_adapter@_W@__crt_stdio_output@@V?$positional_parameter_base@_WV?$stream_output_adapter@_W@__crt_stdio_output@@@2@@__crt_stdio_output@@AAE_NXZ 1002d978 f i libucrt:output.obj
 0001:0002c9ac       ?state_case_normal_common@?$output_processor@_WV?$stream_output_adapter@_W@__crt_stdio_output@@V?$standard_base@_WV?$stream_output_adapter@_W@__crt_stdio_output@@@2@@__crt_stdio_output@@AAE_NXZ 1002d9ac f i libucrt:output.obj
 0001:0002c9e0       ?state_case_normal_common@?$output_processor@_WV?$string_output_adapter@_W@__crt_stdio_output@@V?$format_validation_base@_WV?$string_output_adapter@_W@__crt_stdio_output@@@2@@__crt_stdio_output@@AAE_NXZ 1002d9e0 f i libucrt:output.obj
 0001:0002ca01       ?state_case_normal_common@?$output_processor@_WV?$string_output_adapter@_W@__crt_stdio_output@@V?$positional_parameter_base@_WV?$string_output_adapter@_W@__crt_stdio_output@@@2@@__crt_stdio_output@@AAE_NXZ 1002da01 f i libucrt:output.obj
 0001:0002ca22       ?state_case_normal_common@?$output_processor@_WV?$string_output_adapter@_W@__crt_stdio_output@@V?$standard_base@_WV?$string_output_adapter@_W@__crt_stdio_output@@@2@@__crt_stdio_output@@AAE_NXZ 1002da22 f i libucrt:output.obj
 0001:0002ca43       ?state_case_normal_tchar@?$output_processor@DV?$stream_output_adapter@D@__crt_stdio_output@@V?$format_validation_base@DV?$stream_output_adapter@D@__crt_stdio_output@@@2@@__crt_stdio_output@@AAE_ND@Z 1002da43 f i libucrt:output.obj
 0001:0002cabd       ?state_case_normal_tchar@?$output_processor@DV?$stream_output_adapter@D@__crt_stdio_output@@V?$positional_parameter_base@DV?$stream_output_adapter@D@__crt_stdio_output@@@2@@__crt_stdio_output@@AAE_ND@Z 1002dabd f i libucrt:output.obj
 0001:0002cb37       ?state_case_normal_tchar@?$output_processor@DV?$stream_output_adapter@D@__crt_stdio_output@@V?$standard_base@DV?$stream_output_adapter@D@__crt_stdio_output@@@2@@__crt_stdio_output@@AAE_ND@Z 1002db37 f i libucrt:output.obj
 0001:0002cbb1       ?state_case_normal_tchar@?$output_processor@DV?$string_output_adapter@D@__crt_stdio_output@@V?$format_validation_base@DV?$string_output_adapter@D@__crt_stdio_output@@@2@@__crt_stdio_output@@AAE_ND@Z 1002dbb1 f i libucrt:output.obj
 0001:0002cc20       ?state_case_normal_tchar@?$output_processor@DV?$string_output_adapter@D@__crt_stdio_output@@V?$positional_parameter_base@DV?$string_output_adapter@D@__crt_stdio_output@@@2@@__crt_stdio_output@@AAE_ND@Z 1002dc20 f i libucrt:output.obj
 0001:0002cc8f       ?state_case_normal_tchar@?$output_processor@DV?$string_output_adapter@D@__crt_stdio_output@@V?$standard_base@DV?$string_output_adapter@D@__crt_stdio_output@@@2@@__crt_stdio_output@@AAE_ND@Z 1002dc8f f i libucrt:output.obj
 0001:0002ccfe       ?state_case_normal_tchar@?$output_processor@_WV?$stream_output_adapter@_W@__crt_stdio_output@@V?$format_validation_base@_WV?$stream_output_adapter@_W@__crt_stdio_output@@@2@@__crt_stdio_output@@AAE_N_W@Z 1002dcfe f i libucrt:output.obj
 0001:0002cd09       ?state_case_normal_tchar@?$output_processor@_WV?$stream_output_adapter@_W@__crt_stdio_output@@V?$positional_parameter_base@_WV?$stream_output_adapter@_W@__crt_stdio_output@@@2@@__crt_stdio_output@@AAE_N_W@Z 1002dd09 f i libucrt:output.obj
 0001:0002cd14       ?state_case_normal_tchar@?$output_processor@_WV?$stream_output_adapter@_W@__crt_stdio_output@@V?$standard_base@_WV?$stream_output_adapter@_W@__crt_stdio_output@@@2@@__crt_stdio_output@@AAE_N_W@Z 1002dd14 f i libucrt:output.obj
 0001:0002cd1f       ?state_case_normal_tchar@?$output_processor@_WV?$string_output_adapter@_W@__crt_stdio_output@@V?$format_validation_base@_WV?$string_output_adapter@_W@__crt_stdio_output@@@2@@__crt_stdio_output@@AAE_N_W@Z 1002dd1f f i libucrt:output.obj
 0001:0002cd2a       ?state_case_normal_tchar@?$output_processor@_WV?$string_output_adapter@_W@__crt_stdio_output@@V?$positional_parameter_base@_WV?$string_output_adapter@_W@__crt_stdio_output@@@2@@__crt_stdio_output@@AAE_N_W@Z 1002dd2a f i libucrt:output.obj
 0001:0002cd35       ?state_case_normal_tchar@?$output_processor@_WV?$string_output_adapter@_W@__crt_stdio_output@@V?$standard_base@_WV?$string_output_adapter@_W@__crt_stdio_output@@@2@@__crt_stdio_output@@AAE_N_W@Z 1002dd35 f i libucrt:output.obj
 0001:0002cd40       ?state_case_percent@?$output_processor@DV?$stream_output_adapter@D@__crt_stdio_output@@V?$format_validation_base@DV?$stream_output_adapter@D@__crt_stdio_output@@@2@@__crt_stdio_output@@AAE_NXZ 1002dd40 f i libucrt:output.obj
 0001:0002cd5e       ?state_case_percent@?$output_processor@DV?$stream_output_adapter@D@__crt_stdio_output@@V?$positional_parameter_base@DV?$stream_output_adapter@D@__crt_stdio_output@@@2@@__crt_stdio_output@@AAE_NXZ 1002dd5e f i libucrt:output.obj
 0001:0002cd7c       ?state_case_percent@?$output_processor@DV?$stream_output_adapter@D@__crt_stdio_output@@V?$standard_base@DV?$stream_output_adapter@D@__crt_stdio_output@@@2@@__crt_stdio_output@@AAE_NXZ 1002dd7c f i libucrt:output.obj
 0001:0002cd9a       ?state_case_percent@?$output_processor@DV?$string_output_adapter@D@__crt_stdio_output@@V?$format_validation_base@DV?$string_output_adapter@D@__crt_stdio_output@@@2@@__crt_stdio_output@@AAE_NXZ 1002dd9a f i libucrt:output.obj
 0001:0002cdb8       ?state_case_percent@?$output_processor@DV?$string_output_adapter@D@__crt_stdio_output@@V?$positional_parameter_base@DV?$string_output_adapter@D@__crt_stdio_output@@@2@@__crt_stdio_output@@AAE_NXZ 1002ddb8 f i libucrt:output.obj
 0001:0002cdd6       ?state_case_percent@?$output_processor@DV?$string_output_adapter@D@__crt_stdio_output@@V?$standard_base@DV?$string_output_adapter@D@__crt_stdio_output@@@2@@__crt_stdio_output@@AAE_NXZ 1002ddd6 f i libucrt:output.obj
 0001:0002cdf4       ?state_case_percent@?$output_processor@_WV?$stream_output_adapter@_W@__crt_stdio_output@@V?$format_validation_base@_WV?$stream_output_adapter@_W@__crt_stdio_output@@@2@@__crt_stdio_output@@AAE_NXZ 1002ddf4 f i libucrt:output.obj
 0001:0002ce12       ?state_case_percent@?$output_processor@_WV?$stream_output_adapter@_W@__crt_stdio_output@@V?$positional_parameter_base@_WV?$stream_output_adapter@_W@__crt_stdio_output@@@2@@__crt_stdio_output@@AAE_NXZ 1002de12 f i libucrt:output.obj
 0001:0002ce30       ?state_case_percent@?$output_processor@_WV?$stream_output_adapter@_W@__crt_stdio_output@@V?$standard_base@_WV?$stream_output_adapter@_W@__crt_stdio_output@@@2@@__crt_stdio_output@@AAE_NXZ 1002de30 f i libucrt:output.obj
 0001:0002ce4e       ?state_case_percent@?$output_processor@_WV?$string_output_adapter@_W@__crt_stdio_output@@V?$format_validation_base@_WV?$string_output_adapter@_W@__crt_stdio_output@@@2@@__crt_stdio_output@@AAE_NXZ 1002de4e f i libucrt:output.obj
 0001:0002ce6c       ?state_case_percent@?$output_processor@_WV?$string_output_adapter@_W@__crt_stdio_output@@V?$positional_parameter_base@_WV?$string_output_adapter@_W@__crt_stdio_output@@@2@@__crt_stdio_output@@AAE_NXZ 1002de6c f i libucrt:output.obj
 0001:0002ce8a       ?state_case_percent@?$output_processor@_WV?$string_output_adapter@_W@__crt_stdio_output@@V?$standard_base@_WV?$string_output_adapter@_W@__crt_stdio_output@@@2@@__crt_stdio_output@@AAE_NXZ 1002de8a f i libucrt:output.obj
 0001:0002cea8       ?state_case_precision@?$output_processor@DV?$stream_output_adapter@D@__crt_stdio_output@@V?$format_validation_base@DV?$stream_output_adapter@D@__crt_stdio_output@@@2@@__crt_stdio_output@@AAE_NXZ 1002dea8 f i libucrt:output.obj
 0001:0002ced7       ?state_case_precision@?$output_processor@DV?$stream_output_adapter@D@__crt_stdio_output@@V?$positional_parameter_base@DV?$stream_output_adapter@D@__crt_stdio_output@@@2@@__crt_stdio_output@@AAE_NXZ 1002ded7 f i libucrt:output.obj
 0001:0002cf1f       ?state_case_precision@?$output_processor@DV?$stream_output_adapter@D@__crt_stdio_output@@V?$standard_base@DV?$stream_output_adapter@D@__crt_stdio_output@@@2@@__crt_stdio_output@@AAE_NXZ 1002df1f f i libucrt:output.obj
 0001:0002cf4e       ?state_case_precision@?$output_processor@DV?$string_output_adapter@D@__crt_stdio_output@@V?$format_validation_base@DV?$string_output_adapter@D@__crt_stdio_output@@@2@@__crt_stdio_output@@AAE_NXZ 1002df4e f i libucrt:output.obj
 0001:0002cf7d       ?state_case_precision@?$output_processor@DV?$string_output_adapter@D@__crt_stdio_output@@V?$positional_parameter_base@DV?$string_output_adapter@D@__crt_stdio_output@@@2@@__crt_stdio_output@@AAE_NXZ 1002df7d f i libucrt:output.obj
 0001:0002cfc5       ?state_case_precision@?$output_processor@DV?$string_output_adapter@D@__crt_stdio_output@@V?$standard_base@DV?$string_output_adapter@D@__crt_stdio_output@@@2@@__crt_stdio_output@@AAE_NXZ 1002dfc5 f i libucrt:output.obj
 0001:0002cff4       ?state_case_precision@?$output_processor@_WV?$stream_output_adapter@_W@__crt_stdio_output@@V?$format_validation_base@_WV?$stream_output_adapter@_W@__crt_stdio_output@@@2@@__crt_stdio_output@@AAE_NXZ 1002dff4 f i libucrt:output.obj
 0001:0002d024       ?state_case_precision@?$output_processor@_WV?$stream_output_adapter@_W@__crt_stdio_output@@V?$positional_parameter_base@_WV?$stream_output_adapter@_W@__crt_stdio_output@@@2@@__crt_stdio_output@@AAE_NXZ 1002e024 f i libucrt:output.obj
 0001:0002d06d       ?state_case_precision@?$output_processor@_WV?$stream_output_adapter@_W@__crt_stdio_output@@V?$standard_base@_WV?$stream_output_adapter@_W@__crt_stdio_output@@@2@@__crt_stdio_output@@AAE_NXZ 1002e06d f i libucrt:output.obj
 0001:0002d09d       ?state_case_precision@?$output_processor@_WV?$string_output_adapter@_W@__crt_stdio_output@@V?$format_validation_base@_WV?$string_output_adapter@_W@__crt_stdio_output@@@2@@__crt_stdio_output@@AAE_NXZ 1002e09d f i libucrt:output.obj
 0001:0002d0cd       ?state_case_precision@?$output_processor@_WV?$string_output_adapter@_W@__crt_stdio_output@@V?$positional_parameter_base@_WV?$string_output_adapter@_W@__crt_stdio_output@@@2@@__crt_stdio_output@@AAE_NXZ 1002e0cd f i libucrt:output.obj
 0001:0002d116       ?state_case_precision@?$output_processor@_WV?$string_output_adapter@_W@__crt_stdio_output@@V?$standard_base@_WV?$string_output_adapter@_W@__crt_stdio_output@@@2@@__crt_stdio_output@@AAE_NXZ 1002e116 f i libucrt:output.obj
 0001:0002d146       ?state_case_size@?$output_processor@DV?$stream_output_adapter@D@__crt_stdio_output@@V?$format_validation_base@DV?$stream_output_adapter@D@__crt_stdio_output@@@2@@__crt_stdio_output@@AAE_NXZ 1002e146 f i libucrt:output.obj
 0001:0002d2f6       ?state_case_size@?$output_processor@DV?$stream_output_adapter@D@__crt_stdio_output@@V?$positional_parameter_base@DV?$stream_output_adapter@D@__crt_stdio_output@@@2@@__crt_stdio_output@@AAE_NXZ 1002e2f6 f i libucrt:output.obj
 0001:0002d4a6       ?state_case_size@?$output_processor@DV?$stream_output_adapter@D@__crt_stdio_output@@V?$standard_base@DV?$stream_output_adapter@D@__crt_stdio_output@@@2@@__crt_stdio_output@@AAE_NXZ 1002e4a6 f i libucrt:output.obj
 0001:0002d656       ?state_case_size@?$output_processor@DV?$string_output_adapter@D@__crt_stdio_output@@V?$format_validation_base@DV?$string_output_adapter@D@__crt_stdio_output@@@2@@__crt_stdio_output@@AAE_NXZ 1002e656 f i libucrt:output.obj
 0001:0002d806       ?state_case_size@?$output_processor@DV?$string_output_adapter@D@__crt_stdio_output@@V?$positional_parameter_base@DV?$string_output_adapter@D@__crt_stdio_output@@@2@@__crt_stdio_output@@AAE_NXZ 1002e806 f i libucrt:output.obj
 0001:0002d9b6       ?state_case_size@?$output_processor@DV?$string_output_adapter@D@__crt_stdio_output@@V?$standard_base@DV?$string_output_adapter@D@__crt_stdio_output@@@2@@__crt_stdio_output@@AAE_NXZ 1002e9b6 f i libucrt:output.obj
 0001:0002db66       ?state_case_size@?$output_processor@_WV?$stream_output_adapter@_W@__crt_stdio_output@@V?$format_validation_base@_WV?$stream_output_adapter@_W@__crt_stdio_output@@@2@@__crt_stdio_output@@AAE_NXZ 1002eb66 f i libucrt:output.obj
 0001:0002dd2e       ?state_case_size@?$output_processor@_WV?$stream_output_adapter@_W@__crt_stdio_output@@V?$positional_parameter_base@_WV?$stream_output_adapter@_W@__crt_stdio_output@@@2@@__crt_stdio_output@@AAE_NXZ 1002ed2e f i libucrt:output.obj
 0001:0002def6       ?state_case_size@?$output_processor@_WV?$stream_output_adapter@_W@__crt_stdio_output@@V?$standard_base@_WV?$stream_output_adapter@_W@__crt_stdio_output@@@2@@__crt_stdio_output@@AAE_NXZ 1002eef6 f i libucrt:output.obj
 0001:0002e0be       ?state_case_size@?$output_processor@_WV?$string_output_adapter@_W@__crt_stdio_output@@V?$format_validation_base@_WV?$string_output_adapter@_W@__crt_stdio_output@@@2@@__crt_stdio_output@@AAE_NXZ 1002f0be f i libucrt:output.obj
 0001:0002e286       ?state_case_size@?$output_processor@_WV?$string_output_adapter@_W@__crt_stdio_output@@V?$positional_parameter_base@_WV?$string_output_adapter@_W@__crt_stdio_output@@@2@@__crt_stdio_output@@AAE_NXZ 1002f286 f i libucrt:output.obj
 0001:0002e44e       ?state_case_size@?$output_processor@_WV?$string_output_adapter@_W@__crt_stdio_output@@V?$standard_base@_WV?$string_output_adapter@_W@__crt_stdio_output@@@2@@__crt_stdio_output@@AAE_NXZ 1002f44e f i libucrt:output.obj
 0001:0002e616       ?state_case_type@?$output_processor@DV?$stream_output_adapter@D@__crt_stdio_output@@V?$format_validation_base@DV?$stream_output_adapter@D@__crt_stdio_output@@@2@@__crt_stdio_output@@AAE_NXZ 1002f616 f i libucrt:output.obj
 0001:0002e8c9       ?state_case_type@?$output_processor@DV?$stream_output_adapter@D@__crt_stdio_output@@V?$positional_parameter_base@DV?$stream_output_adapter@D@__crt_stdio_output@@@2@@__crt_stdio_output@@AAE_NXZ 1002f8c9 f i libucrt:output.obj
 0001:0002eb8a       ?state_case_type@?$output_processor@DV?$stream_output_adapter@D@__crt_stdio_output@@V?$standard_base@DV?$stream_output_adapter@D@__crt_stdio_output@@@2@@__crt_stdio_output@@AAE_NXZ 1002fb8a f i libucrt:output.obj
 0001:0002ee3d       ?state_case_type@?$output_processor@DV?$string_output_adapter@D@__crt_stdio_output@@V?$format_validation_base@DV?$string_output_adapter@D@__crt_stdio_output@@@2@@__crt_stdio_output@@AAE_NXZ 1002fe3d f i libucrt:output.obj
 0001:0002f0f0       ?state_case_type@?$output_processor@DV?$string_output_adapter@D@__crt_stdio_output@@V?$positional_parameter_base@DV?$string_output_adapter@D@__crt_stdio_output@@@2@@__crt_stdio_output@@AAE_NXZ 100300f0 f i libucrt:output.obj
 0001:0002f3b1       ?state_case_type@?$output_processor@DV?$string_output_adapter@D@__crt_stdio_output@@V?$standard_base@DV?$string_output_adapter@D@__crt_stdio_output@@@2@@__crt_stdio_output@@AAE_NXZ 100303b1 f i libucrt:output.obj
 0001:0002f664       ?state_case_type@?$output_processor@_WV?$stream_output_adapter@_W@__crt_stdio_output@@V?$format_validation_base@_WV?$stream_output_adapter@_W@__crt_stdio_output@@@2@@__crt_stdio_output@@AAE_NXZ 10030664 f i libucrt:output.obj
 0001:0002f964       ?state_case_type@?$output_processor@_WV?$stream_output_adapter@_W@__crt_stdio_output@@V?$positional_parameter_base@_WV?$stream_output_adapter@_W@__crt_stdio_output@@@2@@__crt_stdio_output@@AAE_NXZ 10030964 f i libucrt:output.obj
 0001:0002fc77       ?state_case_type@?$output_processor@_WV?$stream_output_adapter@_W@__crt_stdio_output@@V?$standard_base@_WV?$stream_output_adapter@_W@__crt_stdio_output@@@2@@__crt_stdio_output@@AAE_NXZ 10030c77 f i libucrt:output.obj
 0001:0002ff77       ?state_case_type@?$output_processor@_WV?$string_output_adapter@_W@__crt_stdio_output@@V?$format_validation_base@_WV?$string_output_adapter@_W@__crt_stdio_output@@@2@@__crt_stdio_output@@AAE_NXZ 10030f77 f i libucrt:output.obj
 0001:00030277       ?state_case_type@?$output_processor@_WV?$string_output_adapter@_W@__crt_stdio_output@@V?$positional_parameter_base@_WV?$string_output_adapter@_W@__crt_stdio_output@@@2@@__crt_stdio_output@@AAE_NXZ 10031277 f i libucrt:output.obj
 0001:0003058a       ?state_case_type@?$output_processor@_WV?$string_output_adapter@_W@__crt_stdio_output@@V?$standard_base@_WV?$string_output_adapter@_W@__crt_stdio_output@@@2@@__crt_stdio_output@@AAE_NXZ 1003158a f i libucrt:output.obj
 0001:0003088a       ?state_case_width@?$output_processor@DV?$stream_output_adapter@D@__crt_stdio_output@@V?$format_validation_base@DV?$stream_output_adapter@D@__crt_stdio_output@@@2@@__crt_stdio_output@@AAE_NXZ 1003188a f i libucrt:output.obj
 0001:000308bf       ?state_case_width@?$output_processor@DV?$stream_output_adapter@D@__crt_stdio_output@@V?$positional_parameter_base@DV?$stream_output_adapter@D@__crt_stdio_output@@@2@@__crt_stdio_output@@AAE_NXZ 100318bf f i libucrt:output.obj
 0001:0003090f       ?state_case_width@?$output_processor@DV?$stream_output_adapter@D@__crt_stdio_output@@V?$standard_base@DV?$stream_output_adapter@D@__crt_stdio_output@@@2@@__crt_stdio_output@@AAE_NXZ 1003190f f i libucrt:output.obj
 0001:00030944       ?state_case_width@?$output_processor@DV?$string_output_adapter@D@__crt_stdio_output@@V?$format_validation_base@DV?$string_output_adapter@D@__crt_stdio_output@@@2@@__crt_stdio_output@@AAE_NXZ 10031944 f i libucrt:output.obj
 0001:00030979       ?state_case_width@?$output_processor@DV?$string_output_adapter@D@__crt_stdio_output@@V?$positional_parameter_base@DV?$string_output_adapter@D@__crt_stdio_output@@@2@@__crt_stdio_output@@AAE_NXZ 10031979 f i libucrt:output.obj
 0001:000309c9       ?state_case_width@?$output_processor@DV?$string_output_adapter@D@__crt_stdio_output@@V?$standard_base@DV?$string_output_adapter@D@__crt_stdio_output@@@2@@__crt_stdio_output@@AAE_NXZ 100319c9 f i libucrt:output.obj
 0001:000309fe       ?state_case_width@?$output_processor@_WV?$stream_output_adapter@_W@__crt_stdio_output@@V?$format_validation_base@_WV?$stream_output_adapter@_W@__crt_stdio_output@@@2@@__crt_stdio_output@@AAE_NXZ 100319fe f i libucrt:output.obj
 0001:00030a35       ?state_case_width@?$output_processor@_WV?$stream_output_adapter@_W@__crt_stdio_output@@V?$positional_parameter_base@_WV?$stream_output_adapter@_W@__crt_stdio_output@@@2@@__crt_stdio_output@@AAE_NXZ 10031a35 f i libucrt:output.obj
 0001:00030a86       ?state_case_width@?$output_processor@_WV?$stream_output_adapter@_W@__crt_stdio_output@@V?$standard_base@_WV?$stream_output_adapter@_W@__crt_stdio_output@@@2@@__crt_stdio_output@@AAE_NXZ 10031a86 f i libucrt:output.obj
 0001:00030abd       ?state_case_width@?$output_processor@_WV?$string_output_adapter@_W@__crt_stdio_output@@V?$format_validation_base@_WV?$string_output_adapter@_W@__crt_stdio_output@@@2@@__crt_stdio_output@@AAE_NXZ 10031abd f i libucrt:output.obj
 0001:00030af4       ?state_case_width@?$output_processor@_WV?$string_output_adapter@_W@__crt_stdio_output@@V?$positional_parameter_base@_WV?$string_output_adapter@_W@__crt_stdio_output@@@2@@__crt_stdio_output@@AAE_NXZ 10031af4 f i libucrt:output.obj
 0001:00030b45       ?state_case_width@?$output_processor@_WV?$string_output_adapter@_W@__crt_stdio_output@@V?$standard_base@_WV?$string_output_adapter@_W@__crt_stdio_output@@@2@@__crt_stdio_output@@AAE_NXZ 10031b45 f i libucrt:output.obj
 0001:00030b7c       ?state_count@?$format_validation_base@DV?$stream_output_adapter@D@__crt_stdio_output@@@__crt_stdio_output@@KAIXZ 10031b7c f i libucrt:output.obj
 0001:00030b80       ?state_count@?$format_validation_base@DV?$string_output_adapter@D@__crt_stdio_output@@@__crt_stdio_output@@KAIXZ 10031b80 f i libucrt:output.obj
 0001:00030b84       ?state_count@?$format_validation_base@_WV?$stream_output_adapter@_W@__crt_stdio_output@@@__crt_stdio_output@@KAIXZ 10031b84 f i libucrt:output.obj
 0001:00030b88       ?state_count@?$format_validation_base@_WV?$string_output_adapter@_W@__crt_stdio_output@@@__crt_stdio_output@@KAIXZ 10031b88 f i libucrt:output.obj
 0001:00030b8c       ?state_count@?$standard_base@DV?$stream_output_adapter@D@__crt_stdio_output@@@__crt_stdio_output@@KAIXZ 10031b8c f i libucrt:output.obj
 0001:00030b90       ?state_count@?$standard_base@DV?$string_output_adapter@D@__crt_stdio_output@@@__crt_stdio_output@@KAIXZ 10031b90 f i libucrt:output.obj
 0001:00030b94       ?state_count@?$standard_base@_WV?$stream_output_adapter@_W@__crt_stdio_output@@@__crt_stdio_output@@KAIXZ 10031b94 f i libucrt:output.obj
 0001:00030b98       ?state_count@?$standard_base@_WV?$string_output_adapter@_W@__crt_stdio_output@@@__crt_stdio_output@@KAIXZ 10031b98 f i libucrt:output.obj
 0001:00030b9c       ?state_transition_table@?$format_validation_base@DV?$stream_output_adapter@D@__crt_stdio_output@@@__crt_stdio_output@@KAPBEXZ 10031b9c f i libucrt:output.obj
 0001:00030ba2       ?state_transition_table@?$format_validation_base@DV?$string_output_adapter@D@__crt_stdio_output@@@__crt_stdio_output@@KAPBEXZ 10031ba2 f i libucrt:output.obj
 0001:00030ba8       ?state_transition_table@?$format_validation_base@_WV?$stream_output_adapter@_W@__crt_stdio_output@@@__crt_stdio_output@@KAPBEXZ 10031ba8 f i libucrt:output.obj
 0001:00030bae       ?state_transition_table@?$format_validation_base@_WV?$string_output_adapter@_W@__crt_stdio_output@@@__crt_stdio_output@@KAPBEXZ 10031bae f i libucrt:output.obj
 0001:00030bb4       ?state_transition_table@?$standard_base@DV?$stream_output_adapter@D@__crt_stdio_output@@@__crt_stdio_output@@KAPBEXZ 10031bb4 f i libucrt:output.obj
 0001:00030bba       ?state_transition_table@?$standard_base@DV?$string_output_adapter@D@__crt_stdio_output@@@__crt_stdio_output@@KAPBEXZ 10031bba f i libucrt:output.obj
 0001:00030bc0       ?state_transition_table@?$standard_base@_WV?$stream_output_adapter@_W@__crt_stdio_output@@@__crt_stdio_output@@KAPBEXZ 10031bc0 f i libucrt:output.obj
 0001:00030bc6       ?state_transition_table@?$standard_base@_WV?$string_output_adapter@_W@__crt_stdio_output@@@__crt_stdio_output@@KAPBEXZ 10031bc6 f i libucrt:output.obj
 0001:00030bcc       ?tchar_string@?$common_data@D@__crt_stdio_output@@IAEAAPADD@Z 10031bcc f i libucrt:output.obj
 0001:00030bd2       ?tchar_string@?$common_data@D@__crt_stdio_output@@IAEAAPADXZ 10031bd2 f i libucrt:output.obj
 0001:00030bd6       ?tchar_string@?$common_data@_W@__crt_stdio_output@@IAEAAPA_WXZ 10031bd6 f i libucrt:output.obj
 0001:00030bda       ?tchar_string@?$common_data@_W@__crt_stdio_output@@IAEAAPA_W_W@Z 10031bda f i libucrt:output.obj
 0001:00030be0       ?to_integer_size@__crt_stdio_output@@YAIW4length_modifier@1@@Z 10031be0 f i libucrt:output.obj
 0001:00030c53       ?type_case_X@?$output_processor@DV?$stream_output_adapter@D@__crt_stdio_output@@V?$format_validation_base@DV?$stream_output_adapter@D@__crt_stdio_output@@@2@@__crt_stdio_output@@AAE_NXZ 10031c53 f i libucrt:output.obj
 0001:00030c5f       ?type_case_X@?$output_processor@DV?$stream_output_adapter@D@__crt_stdio_output@@V?$positional_parameter_base@DV?$stream_output_adapter@D@__crt_stdio_output@@@2@@__crt_stdio_output@@AAE_NXZ 10031c5f f i libucrt:output.obj
 0001:00030c6b       ?type_case_X@?$output_processor@DV?$stream_output_adapter@D@__crt_stdio_output@@V?$standard_base@DV?$stream_output_adapter@D@__crt_stdio_output@@@2@@__crt_stdio_output@@AAE_NXZ 10031c6b f i libucrt:output.obj
 0001:00030c77       ?type_case_X@?$output_processor@DV?$string_output_adapter@D@__crt_stdio_output@@V?$format_validation_base@DV?$string_output_adapter@D@__crt_stdio_output@@@2@@__crt_stdio_output@@AAE_NXZ 10031c77 f i libucrt:output.obj
 0001:00030c83       ?type_case_X@?$output_processor@DV?$string_output_adapter@D@__crt_stdio_output@@V?$positional_parameter_base@DV?$string_output_adapter@D@__crt_stdio_output@@@2@@__crt_stdio_output@@AAE_NXZ 10031c83 f i libucrt:output.obj
 0001:00030c8f       ?type_case_X@?$output_processor@DV?$string_output_adapter@D@__crt_stdio_output@@V?$standard_base@DV?$string_output_adapter@D@__crt_stdio_output@@@2@@__crt_stdio_output@@AAE_NXZ 10031c8f f i libucrt:output.obj
 0001:00030c9b       ?type_case_X@?$output_processor@_WV?$stream_output_adapter@_W@__crt_stdio_output@@V?$format_validation_base@_WV?$stream_output_adapter@_W@__crt_stdio_output@@@2@@__crt_stdio_output@@AAE_NXZ 10031c9b f i libucrt:output.obj
 0001:00030ca7       ?type_case_X@?$output_processor@_WV?$stream_output_adapter@_W@__crt_stdio_output@@V?$positional_parameter_base@_WV?$stream_output_adapter@_W@__crt_stdio_output@@@2@@__crt_stdio_output@@AAE_NXZ 10031ca7 f i libucrt:output.obj
 0001:00030cb3       ?type_case_X@?$output_processor@_WV?$stream_output_adapter@_W@__crt_stdio_output@@V?$standard_base@_WV?$stream_output_adapter@_W@__crt_stdio_output@@@2@@__crt_stdio_output@@AAE_NXZ 10031cb3 f i libucrt:output.obj
 0001:00030cbf       ?type_case_X@?$output_processor@_WV?$string_output_adapter@_W@__crt_stdio_output@@V?$format_validation_base@_WV?$string_output_adapter@_W@__crt_stdio_output@@@2@@__crt_stdio_output@@AAE_NXZ 10031cbf f i libucrt:output.obj
 0001:00030ccb       ?type_case_X@?$output_processor@_WV?$string_output_adapter@_W@__crt_stdio_output@@V?$positional_parameter_base@_WV?$string_output_adapter@_W@__crt_stdio_output@@@2@@__crt_stdio_output@@AAE_NXZ 10031ccb f i libucrt:output.obj
 0001:00030cd7       ?type_case_X@?$output_processor@_WV?$string_output_adapter@_W@__crt_stdio_output@@V?$standard_base@_WV?$string_output_adapter@_W@__crt_stdio_output@@@2@@__crt_stdio_output@@AAE_NXZ 10031cd7 f i libucrt:output.obj
 0001:00030ce3       ?type_case_Z@?$output_processor@DV?$stream_output_adapter@D@__crt_stdio_output@@V?$format_validation_base@DV?$stream_output_adapter@D@__crt_stdio_output@@@2@@__crt_stdio_output@@AAE_NXZ 10031ce3 f i libucrt:output.obj
 0001:00030d5c       ?type_case_Z@?$output_processor@DV?$stream_output_adapter@D@__crt_stdio_output@@V?$positional_parameter_base@DV?$stream_output_adapter@D@__crt_stdio_output@@@2@@__crt_stdio_output@@AAE_NXZ 10031d5c f i libucrt:output.obj
 0001:00030e72       ?type_case_Z@?$output_processor@DV?$stream_output_adapter@D@__crt_stdio_output@@V?$standard_base@DV?$stream_output_adapter@D@__crt_stdio_output@@@2@@__crt_stdio_output@@AAE_NXZ 10031e72 f i libucrt:output.obj
 0001:00030eeb       ?type_case_Z@?$output_processor@DV?$string_output_adapter@D@__crt_stdio_output@@V?$format_validation_base@DV?$string_output_adapter@D@__crt_stdio_output@@@2@@__crt_stdio_output@@AAE_NXZ 10031eeb f i libucrt:output.obj
 0001:00030f64       ?type_case_Z@?$output_processor@DV?$string_output_adapter@D@__crt_stdio_output@@V?$positional_parameter_base@DV?$string_output_adapter@D@__crt_stdio_output@@@2@@__crt_stdio_output@@AAE_NXZ 10031f64 f i libucrt:output.obj
 0001:0003107a       ?type_case_Z@?$output_processor@DV?$string_output_adapter@D@__crt_stdio_output@@V?$standard_base@DV?$string_output_adapter@D@__crt_stdio_output@@@2@@__crt_stdio_output@@AAE_NXZ 1003207a f i libucrt:output.obj
 0001:000310f3       ?type_case_Z@?$output_processor@_WV?$stream_output_adapter@_W@__crt_stdio_output@@V?$format_validation_base@_WV?$stream_output_adapter@_W@__crt_stdio_output@@@2@@__crt_stdio_output@@AAE_NXZ 100320f3 f i libucrt:output.obj
 0001:0003116c       ?type_case_Z@?$output_processor@_WV?$stream_output_adapter@_W@__crt_stdio_output@@V?$positional_parameter_base@_WV?$stream_output_adapter@_W@__crt_stdio_output@@@2@@__crt_stdio_output@@AAE_NXZ 1003216c f i libucrt:output.obj
 0001:00031282       ?type_case_Z@?$output_processor@_WV?$stream_output_adapter@_W@__crt_stdio_output@@V?$standard_base@_WV?$stream_output_adapter@_W@__crt_stdio_output@@@2@@__crt_stdio_output@@AAE_NXZ 10032282 f i libucrt:output.obj
 0001:000312fb       ?type_case_Z@?$output_processor@_WV?$string_output_adapter@_W@__crt_stdio_output@@V?$format_validation_base@_WV?$string_output_adapter@_W@__crt_stdio_output@@@2@@__crt_stdio_output@@AAE_NXZ 100322fb f i libucrt:output.obj
 0001:00031374       ?type_case_Z@?$output_processor@_WV?$string_output_adapter@_W@__crt_stdio_output@@V?$positional_parameter_base@_WV?$string_output_adapter@_W@__crt_stdio_output@@@2@@__crt_stdio_output@@AAE_NXZ 10032374 f i libucrt:output.obj
 0001:0003148a       ?type_case_Z@?$output_processor@_WV?$string_output_adapter@_W@__crt_stdio_output@@V?$standard_base@_WV?$string_output_adapter@_W@__crt_stdio_output@@@2@@__crt_stdio_output@@AAE_NXZ 1003248a f i libucrt:output.obj
 0001:00031503       ?type_case_a@?$output_processor@DV?$stream_output_adapter@D@__crt_stdio_output@@V?$format_validation_base@DV?$stream_output_adapter@D@__crt_stdio_output@@@2@@__crt_stdio_output@@AAE_NXZ 10032503 f i libucrt:output.obj
 0001:000316b2       ?type_case_a@?$output_processor@DV?$stream_output_adapter@D@__crt_stdio_output@@V?$positional_parameter_base@DV?$stream_output_adapter@D@__crt_stdio_output@@@2@@__crt_stdio_output@@AAE_NXZ 100326b2 f i libucrt:output.obj
 0001:00031888       ?type_case_a@?$output_processor@DV?$stream_output_adapter@D@__crt_stdio_output@@V?$standard_base@DV?$stream_output_adapter@D@__crt_stdio_output@@@2@@__crt_stdio_output@@AAE_NXZ 10032888 f i libucrt:output.obj
 0001:00031a37       ?type_case_a@?$output_processor@DV?$string_output_adapter@D@__crt_stdio_output@@V?$format_validation_base@DV?$string_output_adapter@D@__crt_stdio_output@@@2@@__crt_stdio_output@@AAE_NXZ 10032a37 f i libucrt:output.obj
 0001:00031be6       ?type_case_a@?$output_processor@DV?$string_output_adapter@D@__crt_stdio_output@@V?$positional_parameter_base@DV?$string_output_adapter@D@__crt_stdio_output@@@2@@__crt_stdio_output@@AAE_NXZ 10032be6 f i libucrt:output.obj
 0001:00031dbc       ?type_case_a@?$output_processor@DV?$string_output_adapter@D@__crt_stdio_output@@V?$standard_base@DV?$string_output_adapter@D@__crt_stdio_output@@@2@@__crt_stdio_output@@AAE_NXZ 10032dbc f i libucrt:output.obj
 0001:00031f6b       ?type_case_a@?$output_processor@_WV?$stream_output_adapter@_W@__crt_stdio_output@@V?$format_validation_base@_WV?$stream_output_adapter@_W@__crt_stdio_output@@@2@@__crt_stdio_output@@AAE_NXZ 10032f6b f i libucrt:output.obj
 0001:00032135       ?type_case_a@?$output_processor@_WV?$stream_output_adapter@_W@__crt_stdio_output@@V?$positional_parameter_base@_WV?$stream_output_adapter@_W@__crt_stdio_output@@@2@@__crt_stdio_output@@AAE_NXZ 10033135 f i libucrt:output.obj
 0001:00032326       ?type_case_a@?$output_processor@_WV?$stream_output_adapter@_W@__crt_stdio_output@@V?$standard_base@_WV?$stream_output_adapter@_W@__crt_stdio_output@@@2@@__crt_stdio_output@@AAE_NXZ 10033326 f i libucrt:output.obj
 0001:000324f0       ?type_case_a@?$output_processor@_WV?$string_output_adapter@_W@__crt_stdio_output@@V?$format_validation_base@_WV?$string_output_adapter@_W@__crt_stdio_output@@@2@@__crt_stdio_output@@AAE_NXZ 100334f0 f i libucrt:output.obj
 0001:000326ba       ?type_case_a@?$output_processor@_WV?$string_output_adapter@_W@__crt_stdio_output@@V?$positional_parameter_base@_WV?$string_output_adapter@_W@__crt_stdio_output@@@2@@__crt_stdio_output@@AAE_NXZ 100336ba f i libucrt:output.obj
 0001:000328ab       ?type_case_a@?$output_processor@_WV?$string_output_adapter@_W@__crt_stdio_output@@V?$standard_base@_WV?$string_output_adapter@_W@__crt_stdio_output@@@2@@__crt_stdio_output@@AAE_NXZ 100338ab f i libucrt:output.obj
 0001:00032a75       ?type_case_c@?$output_processor@DV?$stream_output_adapter@D@__crt_stdio_output@@V?$format_validation_base@DV?$stream_output_adapter@D@__crt_stdio_output@@@2@@__crt_stdio_output@@AAE_NXZ 10033a75 f i libucrt:output.obj
 0001:00032a7f       ?type_case_c@?$output_processor@DV?$stream_output_adapter@D@__crt_stdio_output@@V?$positional_parameter_base@DV?$stream_output_adapter@D@__crt_stdio_output@@@2@@__crt_stdio_output@@AAE_NXZ 10033a7f f i libucrt:output.obj
 0001:00032a89       ?type_case_c@?$output_processor@DV?$stream_output_adapter@D@__crt_stdio_output@@V?$standard_base@DV?$stream_output_adapter@D@__crt_stdio_output@@@2@@__crt_stdio_output@@AAE_NXZ 10033a89 f i libucrt:output.obj
 0001:00032a93       ?type_case_c@?$output_processor@DV?$string_output_adapter@D@__crt_stdio_output@@V?$format_validation_base@DV?$string_output_adapter@D@__crt_stdio_output@@@2@@__crt_stdio_output@@AAE_NXZ 10033a93 f i libucrt:output.obj
 0001:00032a9d       ?type_case_c@?$output_processor@DV?$string_output_adapter@D@__crt_stdio_output@@V?$positional_parameter_base@DV?$string_output_adapter@D@__crt_stdio_output@@@2@@__crt_stdio_output@@AAE_NXZ 10033a9d f i libucrt:output.obj
 0001:00032aa7       ?type_case_c@?$output_processor@DV?$string_output_adapter@D@__crt_stdio_output@@V?$standard_base@DV?$string_output_adapter@D@__crt_stdio_output@@@2@@__crt_stdio_output@@AAE_NXZ 10033aa7 f i libucrt:output.obj
 0001:00032ab1       ?type_case_c@?$output_processor@_WV?$stream_output_adapter@_W@__crt_stdio_output@@V?$format_validation_base@_WV?$stream_output_adapter@_W@__crt_stdio_output@@@2@@__crt_stdio_output@@AAE_NXZ 10033ab1 f i libucrt:output.obj
 0001:00032abb       ?type_case_c@?$output_processor@_WV?$stream_output_adapter@_W@__crt_stdio_output@@V?$positional_parameter_base@_WV?$stream_output_adapter@_W@__crt_stdio_output@@@2@@__crt_stdio_output@@AAE_NXZ 10033abb f i libucrt:output.obj
 0001:00032ac5       ?type_case_c@?$output_processor@_WV?$stream_output_adapter@_W@__crt_stdio_output@@V?$standard_base@_WV?$stream_output_adapter@_W@__crt_stdio_output@@@2@@__crt_stdio_output@@AAE_NXZ 10033ac5 f i libucrt:output.obj
 0001:00032acf       ?type_case_c@?$output_processor@_WV?$string_output_adapter@_W@__crt_stdio_output@@V?$format_validation_base@_WV?$string_output_adapter@_W@__crt_stdio_output@@@2@@__crt_stdio_output@@AAE_NXZ 10033acf f i libucrt:output.obj
 0001:00032ad9       ?type_case_c@?$output_processor@_WV?$string_output_adapter@_W@__crt_stdio_output@@V?$positional_parameter_base@_WV?$string_output_adapter@_W@__crt_stdio_output@@@2@@__crt_stdio_output@@AAE_NXZ 10033ad9 f i libucrt:output.obj
 0001:00032ae3       ?type_case_c@?$output_processor@_WV?$string_output_adapter@_W@__crt_stdio_output@@V?$standard_base@_WV?$string_output_adapter@_W@__crt_stdio_output@@@2@@__crt_stdio_output@@AAE_NXZ 10033ae3 f i libucrt:output.obj
 0001:00032aed       ?type_case_c_tchar@?$output_processor@DV?$stream_output_adapter@D@__crt_stdio_output@@V?$format_validation_base@DV?$stream_output_adapter@D@__crt_stdio_output@@@2@@__crt_stdio_output@@AAE_ND@Z 10033aed f i libucrt:output.obj
 0001:00032ba1       ?type_case_c_tchar@?$output_processor@DV?$stream_output_adapter@D@__crt_stdio_output@@V?$positional_parameter_base@DV?$stream_output_adapter@D@__crt_stdio_output@@@2@@__crt_stdio_output@@AAE_ND@Z 10033ba1 f i libucrt:output.obj
 0001:00032c91       ?type_case_c_tchar@?$output_processor@DV?$stream_output_adapter@D@__crt_stdio_output@@V?$standard_base@DV?$stream_output_adapter@D@__crt_stdio_output@@@2@@__crt_stdio_output@@AAE_ND@Z 10033c91 f i libucrt:output.obj
 0001:00032d45       ?type_case_c_tchar@?$output_processor@DV?$string_output_adapter@D@__crt_stdio_output@@V?$format_validation_base@DV?$string_output_adapter@D@__crt_stdio_output@@@2@@__crt_stdio_output@@AAE_ND@Z 10033d45 f i libucrt:output.obj
 0001:00032df9       ?type_case_c_tchar@?$output_processor@DV?$string_output_adapter@D@__crt_stdio_output@@V?$positional_parameter_base@DV?$string_output_adapter@D@__crt_stdio_output@@@2@@__crt_stdio_output@@AAE_ND@Z 10033df9 f i libucrt:output.obj
 0001:00032ee9       ?type_case_c_tchar@?$output_processor@DV?$string_output_adapter@D@__crt_stdio_output@@V?$standard_base@DV?$string_output_adapter@D@__crt_stdio_output@@@2@@__crt_stdio_output@@AAE_ND@Z 10033ee9 f i libucrt:output.obj
 0001:00032f9d       ?type_case_c_tchar@?$output_processor@_WV?$stream_output_adapter@_W@__crt_stdio_output@@V?$format_validation_base@_WV?$stream_output_adapter@_W@__crt_stdio_output@@@2@@__crt_stdio_output@@AAE_N_W@Z 10033f9d f i libucrt:output.obj
 0001:0003305b       ?type_case_c_tchar@?$output_processor@_WV?$stream_output_adapter@_W@__crt_stdio_output@@V?$positional_parameter_base@_WV?$stream_output_adapter@_W@__crt_stdio_output@@@2@@__crt_stdio_output@@AAE_N_W@Z 1003405b f i libucrt:output.obj
 0001:00033135       ?type_case_c_tchar@?$output_processor@_WV?$stream_output_adapter@_W@__crt_stdio_output@@V?$standard_base@_WV?$stream_output_adapter@_W@__crt_stdio_output@@@2@@__crt_stdio_output@@AAE_N_W@Z 10034135 f i libucrt:output.obj
 0001:000331f3       ?type_case_c_tchar@?$output_processor@_WV?$string_output_adapter@_W@__crt_stdio_output@@V?$format_validation_base@_WV?$string_output_adapter@_W@__crt_stdio_output@@@2@@__crt_stdio_output@@AAE_N_W@Z 100341f3 f i libucrt:output.obj
 0001:000332b1       ?type_case_c_tchar@?$output_processor@_WV?$string_output_adapter@_W@__crt_stdio_output@@V?$positional_parameter_base@_WV?$string_output_adapter@_W@__crt_stdio_output@@@2@@__crt_stdio_output@@AAE_N_W@Z 100342b1 f i libucrt:output.obj
 0001:0003338b       ?type_case_c_tchar@?$output_processor@_WV?$string_output_adapter@_W@__crt_stdio_output@@V?$standard_base@_WV?$string_output_adapter@_W@__crt_stdio_output@@@2@@__crt_stdio_output@@AAE_N_W@Z 1003438b f i libucrt:output.obj
 0001:00033449       ?type_case_d@?$output_processor@DV?$stream_output_adapter@D@__crt_stdio_output@@V?$format_validation_base@DV?$stream_output_adapter@D@__crt_stdio_output@@@2@@__crt_stdio_output@@AAE_NXZ 10034449 f i libucrt:output.obj
 0001:0003345a       ?type_case_d@?$output_processor@DV?$stream_output_adapter@D@__crt_stdio_output@@V?$positional_parameter_base@DV?$stream_output_adapter@D@__crt_stdio_output@@@2@@__crt_stdio_output@@AAE_NXZ 1003445a f i libucrt:output.obj
 0001:0003346b       ?type_case_d@?$output_processor@DV?$stream_output_adapter@D@__crt_stdio_output@@V?$standard_base@DV?$stream_output_adapter@D@__crt_stdio_output@@@2@@__crt_stdio_output@@AAE_NXZ 1003446b f i libucrt:output.obj
 0001:0003347c       ?type_case_d@?$output_processor@DV?$string_output_adapter@D@__crt_stdio_output@@V?$format_validation_base@DV?$string_output_adapter@D@__crt_stdio_output@@@2@@__crt_stdio_output@@AAE_NXZ 1003447c f i libucrt:output.obj
 0001:0003348d       ?type_case_d@?$output_processor@DV?$string_output_adapter@D@__crt_stdio_output@@V?$positional_parameter_base@DV?$string_output_adapter@D@__crt_stdio_output@@@2@@__crt_stdio_output@@AAE_NXZ 1003448d f i libucrt:output.obj
 0001:0003349e       ?type_case_d@?$output_processor@DV?$string_output_adapter@D@__crt_stdio_output@@V?$standard_base@DV?$string_output_adapter@D@__crt_stdio_output@@@2@@__crt_stdio_output@@AAE_NXZ 1003449e f i libucrt:output.obj
 0001:000334af       ?type_case_d@?$output_processor@_WV?$stream_output_adapter@_W@__crt_stdio_output@@V?$format_validation_base@_WV?$stream_output_adapter@_W@__crt_stdio_output@@@2@@__crt_stdio_output@@AAE_NXZ 100344af f i libucrt:output.obj
 0001:000334c0       ?type_case_d@?$output_processor@_WV?$stream_output_adapter@_W@__crt_stdio_output@@V?$positional_parameter_base@_WV?$stream_output_adapter@_W@__crt_stdio_output@@@2@@__crt_stdio_output@@AAE_NXZ 100344c0 f i libucrt:output.obj
 0001:000334d1       ?type_case_d@?$output_processor@_WV?$stream_output_adapter@_W@__crt_stdio_output@@V?$standard_base@_WV?$stream_output_adapter@_W@__crt_stdio_output@@@2@@__crt_stdio_output@@AAE_NXZ 100344d1 f i libucrt:output.obj
 0001:000334e2       ?type_case_d@?$output_processor@_WV?$string_output_adapter@_W@__crt_stdio_output@@V?$format_validation_base@_WV?$string_output_adapter@_W@__crt_stdio_output@@@2@@__crt_stdio_output@@AAE_NXZ 100344e2 f i libucrt:output.obj
 0001:000334f3       ?type_case_d@?$output_processor@_WV?$string_output_adapter@_W@__crt_stdio_output@@V?$positional_parameter_base@_WV?$string_output_adapter@_W@__crt_stdio_output@@@2@@__crt_stdio_output@@AAE_NXZ 100344f3 f i libucrt:output.obj
 0001:00033504       ?type_case_d@?$output_processor@_WV?$string_output_adapter@_W@__crt_stdio_output@@V?$standard_base@_WV?$string_output_adapter@_W@__crt_stdio_output@@@2@@__crt_stdio_output@@AAE_NXZ 10034504 f i libucrt:output.obj
 0001:00033515       ?type_case_integer@?$output_processor@DV?$stream_output_adapter@D@__crt_stdio_output@@V?$format_validation_base@DV?$stream_output_adapter@D@__crt_stdio_output@@@2@@__crt_stdio_output@@AAE_NI_N@Z 10034515 f i libucrt:output.obj
 0001:000336bc       ?type_case_integer@?$output_processor@DV?$stream_output_adapter@D@__crt_stdio_output@@V?$positional_parameter_base@DV?$stream_output_adapter@D@__crt_stdio_output@@@2@@__crt_stdio_output@@AAE_NI_N@Z 100346bc f i libucrt:output.obj
 0001:0003389f       ?type_case_integer@?$output_processor@DV?$stream_output_adapter@D@__crt_stdio_output@@V?$standard_base@DV?$stream_output_adapter@D@__crt_stdio_output@@@2@@__crt_stdio_output@@AAE_NI_N@Z 1003489f f i libucrt:output.obj
 0001:00033a46       ?type_case_integer@?$output_processor@DV?$string_output_adapter@D@__crt_stdio_output@@V?$format_validation_base@DV?$string_output_adapter@D@__crt_stdio_output@@@2@@__crt_stdio_output@@AAE_NI_N@Z 10034a46 f i libucrt:output.obj
 0001:00033bed       ?type_case_integer@?$output_processor@DV?$string_output_adapter@D@__crt_stdio_output@@V?$positional_parameter_base@DV?$string_output_adapter@D@__crt_stdio_output@@@2@@__crt_stdio_output@@AAE_NI_N@Z 10034bed f i libucrt:output.obj
 0001:00033dd0       ?type_case_integer@?$output_processor@DV?$string_output_adapter@D@__crt_stdio_output@@V?$standard_base@DV?$string_output_adapter@D@__crt_stdio_output@@@2@@__crt_stdio_output@@AAE_NI_N@Z 10034dd0 f i libucrt:output.obj
 0001:00033f77       ?type_case_integer@?$output_processor@_WV?$stream_output_adapter@_W@__crt_stdio_output@@V?$format_validation_base@_WV?$stream_output_adapter@_W@__crt_stdio_output@@@2@@__crt_stdio_output@@AAE_NI_N@Z 10034f77 f i libucrt:output.obj
 0001:00034123       ?type_case_integer@?$output_processor@_WV?$stream_output_adapter@_W@__crt_stdio_output@@V?$positional_parameter_base@_WV?$stream_output_adapter@_W@__crt_stdio_output@@@2@@__crt_stdio_output@@AAE_NI_N@Z 10035123 f i libucrt:output.obj
 0001:0003430b       ?type_case_integer@?$output_processor@_WV?$stream_output_adapter@_W@__crt_stdio_output@@V?$standard_base@_WV?$stream_output_adapter@_W@__crt_stdio_output@@@2@@__crt_stdio_output@@AAE_NI_N@Z 1003530b f i libucrt:output.obj
 0001:000344b7       ?type_case_integer@?$output_processor@_WV?$string_output_adapter@_W@__crt_stdio_output@@V?$format_validation_base@_WV?$string_output_adapter@_W@__crt_stdio_output@@@2@@__crt_stdio_output@@AAE_NI_N@Z 100354b7 f i libucrt:output.obj
 0001:00034663       ?type_case_integer@?$output_processor@_WV?$string_output_adapter@_W@__crt_stdio_output@@V?$positional_parameter_base@_WV?$string_output_adapter@_W@__crt_stdio_output@@@2@@__crt_stdio_output@@AAE_NI_N@Z 10035663 f i libucrt:output.obj
 0001:0003484b       ?type_case_integer@?$output_processor@_WV?$string_output_adapter@_W@__crt_stdio_output@@V?$standard_base@_WV?$string_output_adapter@_W@__crt_stdio_output@@@2@@__crt_stdio_output@@AAE_NI_N@Z 1003584b f i libucrt:output.obj
 0001:000349f7       ?type_case_n@?$output_processor@DV?$stream_output_adapter@D@__crt_stdio_output@@V?$format_validation_base@DV?$stream_output_adapter@D@__crt_stdio_output@@@2@@__crt_stdio_output@@AAE_NXZ 100359f7 f i libucrt:output.obj
 0001:00034a88       ?type_case_n@?$output_processor@DV?$stream_output_adapter@D@__crt_stdio_output@@V?$positional_parameter_base@DV?$stream_output_adapter@D@__crt_stdio_output@@@2@@__crt_stdio_output@@AAE_NXZ 10035a88 f i libucrt:output.obj
 0001:00034b47       ?type_case_n@?$output_processor@DV?$stream_output_adapter@D@__crt_stdio_output@@V?$standard_base@DV?$stream_output_adapter@D@__crt_stdio_output@@@2@@__crt_stdio_output@@AAE_NXZ 10035b47 f i libucrt:output.obj
 0001:00034bd8       ?type_case_n@?$output_processor@DV?$string_output_adapter@D@__crt_stdio_output@@V?$format_validation_base@DV?$string_output_adapter@D@__crt_stdio_output@@@2@@__crt_stdio_output@@AAE_NXZ 10035bd8 f i libucrt:output.obj
 0001:00034c69       ?type_case_n@?$output_processor@DV?$string_output_adapter@D@__crt_stdio_output@@V?$positional_parameter_base@DV?$string_output_adapter@D@__crt_stdio_output@@@2@@__crt_stdio_output@@AAE_NXZ 10035c69 f i libucrt:output.obj
 0001:00034d28       ?type_case_n@?$output_processor@DV?$string_output_adapter@D@__crt_stdio_output@@V?$standard_base@DV?$string_output_adapter@D@__crt_stdio_output@@@2@@__crt_stdio_output@@AAE_NXZ 10035d28 f i libucrt:output.obj
 0001:00034db9       ?type_case_n@?$output_processor@_WV?$stream_output_adapter@_W@__crt_stdio_output@@V?$format_validation_base@_WV?$stream_output_adapter@_W@__crt_stdio_output@@@2@@__crt_stdio_output@@AAE_NXZ 10035db9 f i libucrt:output.obj
 0001:00034e4a       ?type_case_n@?$output_processor@_WV?$stream_output_adapter@_W@__crt_stdio_output@@V?$positional_parameter_base@_WV?$stream_output_adapter@_W@__crt_stdio_output@@@2@@__crt_stdio_output@@AAE_NXZ 10035e4a f i libucrt:output.obj
 0001:00034f09       ?type_case_n@?$output_processor@_WV?$stream_output_adapter@_W@__crt_stdio_output@@V?$standard_base@_WV?$stream_output_adapter@_W@__crt_stdio_output@@@2@@__crt_stdio_output@@AAE_NXZ 10035f09 f i libucrt:output.obj
 0001:00034f9a       ?type_case_n@?$output_processor@_WV?$string_output_adapter@_W@__crt_stdio_output@@V?$format_validation_base@_WV?$string_output_adapter@_W@__crt_stdio_output@@@2@@__crt_stdio_output@@AAE_NXZ 10035f9a f i libucrt:output.obj
 0001:0003502b       ?type_case_n@?$output_processor@_WV?$string_output_adapter@_W@__crt_stdio_output@@V?$positional_parameter_base@_WV?$string_output_adapter@_W@__crt_stdio_output@@@2@@__crt_stdio_output@@AAE_NXZ 1003602b f i libucrt:output.obj
 0001:000350ea       ?type_case_n@?$output_processor@_WV?$string_output_adapter@_W@__crt_stdio_output@@V?$standard_base@_WV?$string_output_adapter@_W@__crt_stdio_output@@@2@@__crt_stdio_output@@AAE_NXZ 100360ea f i libucrt:output.obj
 0001:0003517b       ?type_case_o@?$output_processor@DV?$stream_output_adapter@D@__crt_stdio_output@@V?$format_validation_base@DV?$stream_output_adapter@D@__crt_stdio_output@@@2@@__crt_stdio_output@@AAE_NXZ 1003617b f i libucrt:output.obj
 0001:000351a1       ?type_case_o@?$output_processor@DV?$stream_output_adapter@D@__crt_stdio_output@@V?$positional_parameter_base@DV?$stream_output_adapter@D@__crt_stdio_output@@@2@@__crt_stdio_output@@AAE_NXZ 100361a1 f i libucrt:output.obj
 0001:000351c7       ?type_case_o@?$output_processor@DV?$stream_output_adapter@D@__crt_stdio_output@@V?$standard_base@DV?$stream_output_adapter@D@__crt_stdio_output@@@2@@__crt_stdio_output@@AAE_NXZ 100361c7 f i libucrt:output.obj
 0001:000351ed       ?type_case_o@?$output_processor@DV?$string_output_adapter@D@__crt_stdio_output@@V?$format_validation_base@DV?$string_output_adapter@D@__crt_stdio_output@@@2@@__crt_stdio_output@@AAE_NXZ 100361ed f i libucrt:output.obj
 0001:00035213       ?type_case_o@?$output_processor@DV?$string_output_adapter@D@__crt_stdio_output@@V?$positional_parameter_base@DV?$string_output_adapter@D@__crt_stdio_output@@@2@@__crt_stdio_output@@AAE_NXZ 10036213 f i libucrt:output.obj
 0001:00035239       ?type_case_o@?$output_processor@DV?$string_output_adapter@D@__crt_stdio_output@@V?$standard_base@DV?$string_output_adapter@D@__crt_stdio_output@@@2@@__crt_stdio_output@@AAE_NXZ 10036239 f i libucrt:output.obj
 0001:0003525f       ?type_case_o@?$output_processor@_WV?$stream_output_adapter@_W@__crt_stdio_output@@V?$format_validation_base@_WV?$stream_output_adapter@_W@__crt_stdio_output@@@2@@__crt_stdio_output@@AAE_NXZ 1003625f f i libucrt:output.obj
 0001:00035285       ?type_case_o@?$output_processor@_WV?$stream_output_adapter@_W@__crt_stdio_output@@V?$positional_parameter_base@_WV?$stream_output_adapter@_W@__crt_stdio_output@@@2@@__crt_stdio_output@@AAE_NXZ 10036285 f i libucrt:output.obj
 0001:000352ab       ?type_case_o@?$output_processor@_WV?$stream_output_adapter@_W@__crt_stdio_output@@V?$standard_base@_WV?$stream_output_adapter@_W@__crt_stdio_output@@@2@@__crt_stdio_output@@AAE_NXZ 100362ab f i libucrt:output.obj
 0001:000352d1       ?type_case_o@?$output_processor@_WV?$string_output_adapter@_W@__crt_stdio_output@@V?$format_validation_base@_WV?$string_output_adapter@_W@__crt_stdio_output@@@2@@__crt_stdio_output@@AAE_NXZ 100362d1 f i libucrt:output.obj
 0001:000352f7       ?type_case_o@?$output_processor@_WV?$string_output_adapter@_W@__crt_stdio_output@@V?$positional_parameter_base@_WV?$string_output_adapter@_W@__crt_stdio_output@@@2@@__crt_stdio_output@@AAE_NXZ 100362f7 f i libucrt:output.obj
 0001:0003531d       ?type_case_o@?$output_processor@_WV?$string_output_adapter@_W@__crt_stdio_output@@V?$standard_base@_WV?$string_output_adapter@_W@__crt_stdio_output@@@2@@__crt_stdio_output@@AAE_NXZ 1003631d f i libucrt:output.obj
 0001:00035343       ?type_case_p@?$output_processor@DV?$stream_output_adapter@D@__crt_stdio_output@@V?$format_validation_base@DV?$stream_output_adapter@D@__crt_stdio_output@@@2@@__crt_stdio_output@@AAE_NXZ 10036343 f i libucrt:output.obj
 0001:00035361       ?type_case_p@?$output_processor@DV?$stream_output_adapter@D@__crt_stdio_output@@V?$positional_parameter_base@DV?$stream_output_adapter@D@__crt_stdio_output@@@2@@__crt_stdio_output@@AAE_NXZ 10036361 f i libucrt:output.obj
 0001:0003537f       ?type_case_p@?$output_processor@DV?$stream_output_adapter@D@__crt_stdio_output@@V?$standard_base@DV?$stream_output_adapter@D@__crt_stdio_output@@@2@@__crt_stdio_output@@AAE_NXZ 1003637f f i libucrt:output.obj
 0001:0003539d       ?type_case_p@?$output_processor@DV?$string_output_adapter@D@__crt_stdio_output@@V?$format_validation_base@DV?$string_output_adapter@D@__crt_stdio_output@@@2@@__crt_stdio_output@@AAE_NXZ 1003639d f i libucrt:output.obj
 0001:000353bb       ?type_case_p@?$output_processor@DV?$string_output_adapter@D@__crt_stdio_output@@V?$positional_parameter_base@DV?$string_output_adapter@D@__crt_stdio_output@@@2@@__crt_stdio_output@@AAE_NXZ 100363bb f i libucrt:output.obj
 0001:000353d9       ?type_case_p@?$output_processor@DV?$string_output_adapter@D@__crt_stdio_output@@V?$standard_base@DV?$string_output_adapter@D@__crt_stdio_output@@@2@@__crt_stdio_output@@AAE_NXZ 100363d9 f i libucrt:output.obj
 0001:000353f7       ?type_case_p@?$output_processor@_WV?$stream_output_adapter@_W@__crt_stdio_output@@V?$format_validation_base@_WV?$stream_output_adapter@_W@__crt_stdio_output@@@2@@__crt_stdio_output@@AAE_NXZ 100363f7 f i libucrt:output.obj
 0001:00035415       ?type_case_p@?$output_processor@_WV?$stream_output_adapter@_W@__crt_stdio_output@@V?$positional_parameter_base@_WV?$stream_output_adapter@_W@__crt_stdio_output@@@2@@__crt_stdio_output@@AAE_NXZ 10036415 f i libucrt:output.obj
 0001:00035433       ?type_case_p@?$output_processor@_WV?$stream_output_adapter@_W@__crt_stdio_output@@V?$standard_base@_WV?$stream_output_adapter@_W@__crt_stdio_output@@@2@@__crt_stdio_output@@AAE_NXZ 10036433 f i libucrt:output.obj
 0001:00035451       ?type_case_p@?$output_processor@_WV?$string_output_adapter@_W@__crt_stdio_output@@V?$format_validation_base@_WV?$string_output_adapter@_W@__crt_stdio_output@@@2@@__crt_stdio_output@@AAE_NXZ 10036451 f i libucrt:output.obj
 0001:0003546f       ?type_case_p@?$output_processor@_WV?$string_output_adapter@_W@__crt_stdio_output@@V?$positional_parameter_base@_WV?$string_output_adapter@_W@__crt_stdio_output@@@2@@__crt_stdio_output@@AAE_NXZ 1003646f f i libucrt:output.obj
 0001:0003548d       ?type_case_p@?$output_processor@_WV?$string_output_adapter@_W@__crt_stdio_output@@V?$standard_base@_WV?$string_output_adapter@_W@__crt_stdio_output@@@2@@__crt_stdio_output@@AAE_NXZ 1003648d f i libucrt:output.obj
 0001:000354ab       ?type_case_s@?$output_processor@DV?$stream_output_adapter@D@__crt_stdio_output@@V?$format_validation_base@DV?$stream_output_adapter@D@__crt_stdio_output@@@2@@__crt_stdio_output@@AAE_NXZ 100364ab f i libucrt:output.obj
 0001:00035538       ?type_case_s@?$output_processor@DV?$stream_output_adapter@D@__crt_stdio_output@@V?$positional_parameter_base@DV?$stream_output_adapter@D@__crt_stdio_output@@@2@@__crt_stdio_output@@AAE_NXZ 10036538 f i libucrt:output.obj
 0001:000355d5       ?type_case_s@?$output_processor@DV?$stream_output_adapter@D@__crt_stdio_output@@V?$standard_base@DV?$stream_output_adapter@D@__crt_stdio_output@@@2@@__crt_stdio_output@@AAE_NXZ 100365d5 f i libucrt:output.obj
 0001:00035662       ?type_case_s@?$output_processor@DV?$string_output_adapter@D@__crt_stdio_output@@V?$format_validation_base@DV?$string_output_adapter@D@__crt_stdio_output@@@2@@__crt_stdio_output@@AAE_NXZ 10036662 f i libucrt:output.obj
 0001:000356ef       ?type_case_s@?$output_processor@DV?$string_output_adapter@D@__crt_stdio_output@@V?$positional_parameter_base@DV?$string_output_adapter@D@__crt_stdio_output@@@2@@__crt_stdio_output@@AAE_NXZ 100366ef f i libucrt:output.obj
 0001:0003578c       ?type_case_s@?$output_processor@DV?$string_output_adapter@D@__crt_stdio_output@@V?$standard_base@DV?$string_output_adapter@D@__crt_stdio_output@@@2@@__crt_stdio_output@@AAE_NXZ 1003678c f i libucrt:output.obj
 0001:00035819       ?type_case_s@?$output_processor@_WV?$stream_output_adapter@_W@__crt_stdio_output@@V?$format_validation_base@_WV?$stream_output_adapter@_W@__crt_stdio_output@@@2@@__crt_stdio_output@@AAE_NXZ 10036819 f i libucrt:output.obj
 0001:000358a8       ?type_case_s@?$output_processor@_WV?$stream_output_adapter@_W@__crt_stdio_output@@V?$positional_parameter_base@_WV?$stream_output_adapter@_W@__crt_stdio_output@@@2@@__crt_stdio_output@@AAE_NXZ 100368a8 f i libucrt:output.obj
 0001:00035948       ?type_case_s@?$output_processor@_WV?$stream_output_adapter@_W@__crt_stdio_output@@V?$standard_base@_WV?$stream_output_adapter@_W@__crt_stdio_output@@@2@@__crt_stdio_output@@AAE_NXZ 10036948 f i libucrt:output.obj
 0001:000359d7       ?type_case_s@?$output_processor@_WV?$string_output_adapter@_W@__crt_stdio_output@@V?$format_validation_base@_WV?$string_output_adapter@_W@__crt_stdio_output@@@2@@__crt_stdio_output@@AAE_NXZ 100369d7 f i libucrt:output.obj
 0001:00035a66       ?type_case_s@?$output_processor@_WV?$string_output_adapter@_W@__crt_stdio_output@@V?$positional_parameter_base@_WV?$string_output_adapter@_W@__crt_stdio_output@@@2@@__crt_stdio_output@@AAE_NXZ 10036a66 f i libucrt:output.obj
 0001:00035b06       ?type_case_s@?$output_processor@_WV?$string_output_adapter@_W@__crt_stdio_output@@V?$standard_base@_WV?$string_output_adapter@_W@__crt_stdio_output@@@2@@__crt_stdio_output@@AAE_NXZ 10036b06 f i libucrt:output.obj
 0001:00035b95       ?type_case_s_compute_narrow_string_length@?$output_processor@DV?$stream_output_adapter@D@__crt_stdio_output@@V?$format_validation_base@DV?$stream_output_adapter@D@__crt_stdio_output@@@2@@__crt_stdio_output@@ABEHHD@Z 10036b95 f i libucrt:output.obj
 0001:00035bb0       ?type_case_s_compute_narrow_string_length@?$output_processor@DV?$stream_output_adapter@D@__crt_stdio_output@@V?$positional_parameter_base@DV?$stream_output_adapter@D@__crt_stdio_output@@@2@@__crt_stdio_output@@ABEHHD@Z 10036bb0 f i libucrt:output.obj
 0001:00035bcb       ?type_case_s_compute_narrow_string_length@?$output_processor@DV?$stream_output_adapter@D@__crt_stdio_output@@V?$standard_base@DV?$stream_output_adapter@D@__crt_stdio_output@@@2@@__crt_stdio_output@@ABEHHD@Z 10036bcb f i libucrt:output.obj
 0001:00035be6       ?type_case_s_compute_narrow_string_length@?$output_processor@DV?$string_output_adapter@D@__crt_stdio_output@@V?$format_validation_base@DV?$string_output_adapter@D@__crt_stdio_output@@@2@@__crt_stdio_output@@ABEHHD@Z 10036be6 f i libucrt:output.obj
 0001:00035c01       ?type_case_s_compute_narrow_string_length@?$output_processor@DV?$string_output_adapter@D@__crt_stdio_output@@V?$positional_parameter_base@DV?$string_output_adapter@D@__crt_stdio_output@@@2@@__crt_stdio_output@@ABEHHD@Z 10036c01 f i libucrt:output.obj
 0001:00035c1c       ?type_case_s_compute_narrow_string_length@?$output_processor@DV?$string_output_adapter@D@__crt_stdio_output@@V?$standard_base@DV?$string_output_adapter@D@__crt_stdio_output@@@2@@__crt_stdio_output@@ABEHHD@Z 10036c1c f i libucrt:output.obj
 0001:00035c37       ?type_case_s_compute_narrow_string_length@?$output_processor@_WV?$stream_output_adapter@_W@__crt_stdio_output@@V?$format_validation_base@_WV?$stream_output_adapter@_W@__crt_stdio_output@@@2@@__crt_stdio_output@@ABEHH_W@Z 10036c37 f i libucrt:output.obj
 0001:00035c83       ?type_case_s_compute_narrow_string_length@?$output_processor@_WV?$stream_output_adapter@_W@__crt_stdio_output@@V?$positional_parameter_base@_WV?$stream_output_adapter@_W@__crt_stdio_output@@@2@@__crt_stdio_output@@ABEHH_W@Z 10036c83 f i libucrt:output.obj
 0001:00035ccf       ?type_case_s_compute_narrow_string_length@?$output_processor@_WV?$stream_output_adapter@_W@__crt_stdio_output@@V?$standard_base@_WV?$stream_output_adapter@_W@__crt_stdio_output@@@2@@__crt_stdio_output@@ABEHH_W@Z 10036ccf f i libucrt:output.obj
 0001:00035d1b       ?type_case_s_compute_narrow_string_length@?$output_processor@_WV?$string_output_adapter@_W@__crt_stdio_output@@V?$format_validation_base@_WV?$string_output_adapter@_W@__crt_stdio_output@@@2@@__crt_stdio_output@@ABEHH_W@Z 10036d1b f i libucrt:output.obj
 0001:00035d67       ?type_case_s_compute_narrow_string_length@?$output_processor@_WV?$string_output_adapter@_W@__crt_stdio_output@@V?$positional_parameter_base@_WV?$string_output_adapter@_W@__crt_stdio_output@@@2@@__crt_stdio_output@@ABEHH_W@Z 10036d67 f i libucrt:output.obj
 0001:00035db3       ?type_case_s_compute_narrow_string_length@?$output_processor@_WV?$string_output_adapter@_W@__crt_stdio_output@@V?$standard_base@_WV?$string_output_adapter@_W@__crt_stdio_output@@@2@@__crt_stdio_output@@ABEHH_W@Z 10036db3 f i libucrt:output.obj
 0001:00035dff       ?type_case_u@?$output_processor@DV?$stream_output_adapter@D@__crt_stdio_output@@V?$format_validation_base@DV?$stream_output_adapter@D@__crt_stdio_output@@@2@@__crt_stdio_output@@AAE_NXZ 10036dff f i libucrt:output.obj
 0001:00035e0b       ?type_case_u@?$output_processor@DV?$stream_output_adapter@D@__crt_stdio_output@@V?$positional_parameter_base@DV?$stream_output_adapter@D@__crt_stdio_output@@@2@@__crt_stdio_output@@AAE_NXZ 10036e0b f i libucrt:output.obj
 0001:00035e17       ?type_case_u@?$output_processor@DV?$stream_output_adapter@D@__crt_stdio_output@@V?$standard_base@DV?$stream_output_adapter@D@__crt_stdio_output@@@2@@__crt_stdio_output@@AAE_NXZ 10036e17 f i libucrt:output.obj
 0001:00035e23       ?type_case_u@?$output_processor@DV?$string_output_adapter@D@__crt_stdio_output@@V?$format_validation_base@DV?$string_output_adapter@D@__crt_stdio_output@@@2@@__crt_stdio_output@@AAE_NXZ 10036e23 f i libucrt:output.obj
 0001:00035e2f       ?type_case_u@?$output_processor@DV?$string_output_adapter@D@__crt_stdio_output@@V?$positional_parameter_base@DV?$string_output_adapter@D@__crt_stdio_output@@@2@@__crt_stdio_output@@AAE_NXZ 10036e2f f i libucrt:output.obj
 0001:00035e3b       ?type_case_u@?$output_processor@DV?$string_output_adapter@D@__crt_stdio_output@@V?$standard_base@DV?$string_output_adapter@D@__crt_stdio_output@@@2@@__crt_stdio_output@@AAE_NXZ 10036e3b f i libucrt:output.obj
 0001:00035e47       ?type_case_u@?$output_processor@_WV?$stream_output_adapter@_W@__crt_stdio_output@@V?$format_validation_base@_WV?$stream_output_adapter@_W@__crt_stdio_output@@@2@@__crt_stdio_output@@AAE_NXZ 10036e47 f i libucrt:output.obj
 0001:00035e53       ?type_case_u@?$output_processor@_WV?$stream_output_adapter@_W@__crt_stdio_output@@V?$positional_parameter_base@_WV?$stream_output_adapter@_W@__crt_stdio_output@@@2@@__crt_stdio_output@@AAE_NXZ 10036e53 f i libucrt:output.obj
 0001:00035e5f       ?type_case_u@?$output_processor@_WV?$stream_output_adapter@_W@__crt_stdio_output@@V?$standard_base@_WV?$stream_output_adapter@_W@__crt_stdio_output@@@2@@__crt_stdio_output@@AAE_NXZ 10036e5f f i libucrt:output.obj
 0001:00035e6b       ?type_case_u@?$output_processor@_WV?$string_output_adapter@_W@__crt_stdio_output@@V?$format_validation_base@_WV?$string_output_adapter@_W@__crt_stdio_output@@@2@@__crt_stdio_output@@AAE_NXZ 10036e6b f i libucrt:output.obj
 0001:00035e77       ?type_case_u@?$output_processor@_WV?$string_output_adapter@_W@__crt_stdio_output@@V?$positional_parameter_base@_WV?$string_output_adapter@_W@__crt_stdio_output@@@2@@__crt_stdio_output@@AAE_NXZ 10036e77 f i libucrt:output.obj
 0001:00035e83       ?type_case_u@?$output_processor@_WV?$string_output_adapter@_W@__crt_stdio_output@@V?$standard_base@_WV?$string_output_adapter@_W@__crt_stdio_output@@@2@@__crt_stdio_output@@AAE_NXZ 10036e83 f i libucrt:output.obj
 0001:00035e8f       ?type_case_x@?$output_processor@DV?$stream_output_adapter@D@__crt_stdio_output@@V?$format_validation_base@DV?$stream_output_adapter@D@__crt_stdio_output@@@2@@__crt_stdio_output@@AAE_NXZ 10036e8f f i libucrt:output.obj
 0001:00035e9b       ?type_case_x@?$output_processor@DV?$stream_output_adapter@D@__crt_stdio_output@@V?$positional_parameter_base@DV?$stream_output_adapter@D@__crt_stdio_output@@@2@@__crt_stdio_output@@AAE_NXZ 10036e9b f i libucrt:output.obj
 0001:00035ea7       ?type_case_x@?$output_processor@DV?$stream_output_adapter@D@__crt_stdio_output@@V?$standard_base@DV?$stream_output_adapter@D@__crt_stdio_output@@@2@@__crt_stdio_output@@AAE_NXZ 10036ea7 f i libucrt:output.obj
 0001:00035eb3       ?type_case_x@?$output_processor@DV?$string_output_adapter@D@__crt_stdio_output@@V?$format_validation_base@DV?$string_output_adapter@D@__crt_stdio_output@@@2@@__crt_stdio_output@@AAE_NXZ 10036eb3 f i libucrt:output.obj
 0001:00035ebf       ?type_case_x@?$output_processor@DV?$string_output_adapter@D@__crt_stdio_output@@V?$positional_parameter_base@DV?$string_output_adapter@D@__crt_stdio_output@@@2@@__crt_stdio_output@@AAE_NXZ 10036ebf f i libucrt:output.obj
 0001:00035ecb       ?type_case_x@?$output_processor@DV?$string_output_adapter@D@__crt_stdio_output@@V?$standard_base@DV?$string_output_adapter@D@__crt_stdio_output@@@2@@__crt_stdio_output@@AAE_NXZ 10036ecb f i libucrt:output.obj
 0001:00035ed7       ?type_case_x@?$output_processor@_WV?$stream_output_adapter@_W@__crt_stdio_output@@V?$format_validation_base@_WV?$stream_output_adapter@_W@__crt_stdio_output@@@2@@__crt_stdio_output@@AAE_NXZ 10036ed7 f i libucrt:output.obj
 0001:00035ee3       ?type_case_x@?$output_processor@_WV?$stream_output_adapter@_W@__crt_stdio_output@@V?$positional_parameter_base@_WV?$stream_output_adapter@_W@__crt_stdio_output@@@2@@__crt_stdio_output@@AAE_NXZ 10036ee3 f i libucrt:output.obj
 0001:00035eef       ?type_case_x@?$output_processor@_WV?$stream_output_adapter@_W@__crt_stdio_output@@V?$standard_base@_WV?$stream_output_adapter@_W@__crt_stdio_output@@@2@@__crt_stdio_output@@AAE_NXZ 10036eef f i libucrt:output.obj
 0001:00035efb       ?type_case_x@?$output_processor@_WV?$string_output_adapter@_W@__crt_stdio_output@@V?$format_validation_base@_WV?$string_output_adapter@_W@__crt_stdio_output@@@2@@__crt_stdio_output@@AAE_NXZ 10036efb f i libucrt:output.obj
 0001:00035f07       ?type_case_x@?$output_processor@_WV?$string_output_adapter@_W@__crt_stdio_output@@V?$positional_parameter_base@_WV?$string_output_adapter@_W@__crt_stdio_output@@@2@@__crt_stdio_output@@AAE_NXZ 10036f07 f i libucrt:output.obj
 0001:00035f13       ?type_case_x@?$output_processor@_WV?$string_output_adapter@_W@__crt_stdio_output@@V?$standard_base@_WV?$string_output_adapter@_W@__crt_stdio_output@@@2@@__crt_stdio_output@@AAE_NXZ 10036f13 f i libucrt:output.obj
 0001:00035f1f       ?unset_flag@?$output_processor@DV?$stream_output_adapter@D@__crt_stdio_output@@V?$format_validation_base@DV?$stream_output_adapter@D@__crt_stdio_output@@@2@@__crt_stdio_output@@AAEXI@Z 10036f1f f i libucrt:output.obj
 0001:00035f34       ?unset_flag@?$output_processor@DV?$stream_output_adapter@D@__crt_stdio_output@@V?$positional_parameter_base@DV?$stream_output_adapter@D@__crt_stdio_output@@@2@@__crt_stdio_output@@AAEXI@Z 10036f34 f i libucrt:output.obj
 0001:00035f49       ?unset_flag@?$output_processor@DV?$stream_output_adapter@D@__crt_stdio_output@@V?$standard_base@DV?$stream_output_adapter@D@__crt_stdio_output@@@2@@__crt_stdio_output@@AAEXI@Z 10036f49 f i libucrt:output.obj
 0001:00035f5e       ?unset_flag@?$output_processor@DV?$string_output_adapter@D@__crt_stdio_output@@V?$format_validation_base@DV?$string_output_adapter@D@__crt_stdio_output@@@2@@__crt_stdio_output@@AAEXI@Z 10036f5e f i libucrt:output.obj
 0001:00035f73       ?unset_flag@?$output_processor@DV?$string_output_adapter@D@__crt_stdio_output@@V?$positional_parameter_base@DV?$string_output_adapter@D@__crt_stdio_output@@@2@@__crt_stdio_output@@AAEXI@Z 10036f73 f i libucrt:output.obj
 0001:00035f88       ?unset_flag@?$output_processor@DV?$string_output_adapter@D@__crt_stdio_output@@V?$standard_base@DV?$string_output_adapter@D@__crt_stdio_output@@@2@@__crt_stdio_output@@AAEXI@Z 10036f88 f i libucrt:output.obj
 0001:00035f9d       ?unset_flag@?$output_processor@_WV?$stream_output_adapter@_W@__crt_stdio_output@@V?$format_validation_base@_WV?$stream_output_adapter@_W@__crt_stdio_output@@@2@@__crt_stdio_output@@AAEXI@Z 10036f9d f i libucrt:output.obj
 0001:00035fb2       ?unset_flag@?$output_processor@_WV?$stream_output_adapter@_W@__crt_stdio_output@@V?$positional_parameter_base@_WV?$stream_output_adapter@_W@__crt_stdio_output@@@2@@__crt_stdio_output@@AAEXI@Z 10036fb2 f i libucrt:output.obj
 0001:00035fc7       ?unset_flag@?$output_processor@_WV?$stream_output_adapter@_W@__crt_stdio_output@@V?$standard_base@_WV?$stream_output_adapter@_W@__crt_stdio_output@@@2@@__crt_stdio_output@@AAEXI@Z 10036fc7 f i libucrt:output.obj
 0001:00035fdc       ?unset_flag@?$output_processor@_WV?$string_output_adapter@_W@__crt_stdio_output@@V?$format_validation_base@_WV?$string_output_adapter@_W@__crt_stdio_output@@@2@@__crt_stdio_output@@AAEXI@Z 10036fdc f i libucrt:output.obj
 0001:00035ff1       ?unset_flag@?$output_processor@_WV?$string_output_adapter@_W@__crt_stdio_output@@V?$positional_parameter_base@_WV?$string_output_adapter@_W@__crt_stdio_output@@@2@@__crt_stdio_output@@AAEXI@Z 10036ff1 f i libucrt:output.obj
 0001:00036006       ?unset_flag@?$output_processor@_WV?$string_output_adapter@_W@__crt_stdio_output@@V?$standard_base@_WV?$string_output_adapter@_W@__crt_stdio_output@@@2@@__crt_stdio_output@@AAEXI@Z 10037006 f i libucrt:output.obj
 0001:0003601b       ?update_field_width@?$positional_parameter_base@DV?$stream_output_adapter@D@__crt_stdio_output@@@__crt_stdio_output@@IAE_NXZ 1003701b f i libucrt:output.obj
 0001:000360fe       ?update_field_width@?$positional_parameter_base@DV?$string_output_adapter@D@__crt_stdio_output@@@__crt_stdio_output@@IAE_NXZ 100370fe f i libucrt:output.obj
 0001:000361e1       ?update_field_width@?$positional_parameter_base@_WV?$stream_output_adapter@_W@__crt_stdio_output@@@__crt_stdio_output@@IAE_NXZ 100371e1 f i libucrt:output.obj
 0001:000362c5       ?update_field_width@?$positional_parameter_base@_WV?$string_output_adapter@_W@__crt_stdio_output@@@__crt_stdio_output@@IAE_NXZ 100372c5 f i libucrt:output.obj
 0001:000363a9       ?update_field_width@?$standard_base@DV?$stream_output_adapter@D@__crt_stdio_output@@@__crt_stdio_output@@IAE_NXZ 100373a9 f i libucrt:output.obj
 0001:000363bd       ?update_field_width@?$standard_base@DV?$string_output_adapter@D@__crt_stdio_output@@@__crt_stdio_output@@IAE_NXZ 100373bd f i libucrt:output.obj
 0001:000363d1       ?update_field_width@?$standard_base@_WV?$stream_output_adapter@_W@__crt_stdio_output@@@__crt_stdio_output@@IAE_NXZ 100373d1 f i libucrt:output.obj
 0001:000363e5       ?update_field_width@?$standard_base@_WV?$string_output_adapter@_W@__crt_stdio_output@@@__crt_stdio_output@@IAE_NXZ 100373e5 f i libucrt:output.obj
 0001:000363f9       ?update_precision@?$positional_parameter_base@DV?$stream_output_adapter@D@__crt_stdio_output@@@__crt_stdio_output@@IAE_NXZ 100373f9 f i libucrt:output.obj
 0001:000364dc       ?update_precision@?$positional_parameter_base@DV?$string_output_adapter@D@__crt_stdio_output@@@__crt_stdio_output@@IAE_NXZ 100374dc f i libucrt:output.obj
 0001:000365bf       ?update_precision@?$positional_parameter_base@_WV?$stream_output_adapter@_W@__crt_stdio_output@@@__crt_stdio_output@@IAE_NXZ 100375bf f i libucrt:output.obj
 0001:000366a3       ?update_precision@?$positional_parameter_base@_WV?$string_output_adapter@_W@__crt_stdio_output@@@__crt_stdio_output@@IAE_NXZ 100376a3 f i libucrt:output.obj
 0001:00036787       ?update_precision@?$standard_base@DV?$stream_output_adapter@D@__crt_stdio_output@@@__crt_stdio_output@@IAE_NXZ 10037787 f i libucrt:output.obj
 0001:0003679b       ?update_precision@?$standard_base@DV?$string_output_adapter@D@__crt_stdio_output@@@__crt_stdio_output@@IAE_NXZ 1003779b f i libucrt:output.obj
 0001:000367af       ?update_precision@?$standard_base@_WV?$stream_output_adapter@_W@__crt_stdio_output@@@__crt_stdio_output@@IAE_NXZ 100377af f i libucrt:output.obj
 0001:000367c3       ?update_precision@?$standard_base@_WV?$string_output_adapter@_W@__crt_stdio_output@@@__crt_stdio_output@@IAE_NXZ 100377c3 f i libucrt:output.obj
 0001:000367d7       ?valid@__crt_stdio_stream@@QBE_NXZ 100377d7 f i libucrt:output.obj
 0001:000367de       ?validate@?$stream_output_adapter@D@__crt_stdio_output@@QBE_NXZ 100377de f i libucrt:output.obj
 0001:00036807       ?validate@?$stream_output_adapter@_W@__crt_stdio_output@@QBE_NXZ 10037807 f i libucrt:output.obj
 0001:00036828       ?validate@?$string_output_adapter@D@__crt_stdio_output@@QBE_NXZ 10037828 f i libucrt:output.obj
 0001:00036849       ?validate@?$string_output_adapter@_W@__crt_stdio_output@@QBE_NXZ 10037849 f i libucrt:output.obj
 0001:0003686a       ?validate_and_store_parameter_data@?$positional_parameter_base@DV?$stream_output_adapter@D@__crt_stdio_output@@@__crt_stdio_output@@AAE_NAAUparameter_data@12@W4parameter_type@12@DW4length_modifier@2@@Z 1003786a f i libucrt:output.obj
 0001:000368c7       ?validate_and_store_parameter_data@?$positional_parameter_base@DV?$string_output_adapter@D@__crt_stdio_output@@@__crt_stdio_output@@AAE_NAAUparameter_data@12@W4parameter_type@12@DW4length_modifier@2@@Z 100378c7 f i libucrt:output.obj
 0001:00036924       ?validate_and_store_parameter_data@?$positional_parameter_base@_WV?$stream_output_adapter@_W@__crt_stdio_output@@@__crt_stdio_output@@AAE_NAAUparameter_data@12@W4parameter_type@12@_WW4length_modifier@2@@Z 10037924 f i libucrt:output.obj
 0001:00036984       ?validate_and_store_parameter_data@?$positional_parameter_base@_WV?$string_output_adapter@_W@__crt_stdio_output@@@__crt_stdio_output@@AAE_NAAUparameter_data@12@W4parameter_type@12@_WW4length_modifier@2@@Z 10037984 f i libucrt:output.obj
 0001:000369e4       ?validate_and_update_state_at_beginning_of_format_character@?$positional_parameter_base@DV?$stream_output_adapter@D@__crt_stdio_output@@@__crt_stdio_output@@IAE_NXZ 100379e4 f i libucrt:output.obj
 0001:00036b1c       ?validate_and_update_state_at_beginning_of_format_character@?$positional_parameter_base@DV?$string_output_adapter@D@__crt_stdio_output@@@__crt_stdio_output@@IAE_NXZ 10037b1c f i libucrt:output.obj
 0001:00036c54       ?validate_and_update_state_at_beginning_of_format_character@?$positional_parameter_base@_WV?$stream_output_adapter@_W@__crt_stdio_output@@@__crt_stdio_output@@IAE_NXZ 10037c54 f i libucrt:output.obj
 0001:00036d97       ?validate_and_update_state_at_beginning_of_format_character@?$positional_parameter_base@_WV?$string_output_adapter@_W@__crt_stdio_output@@@__crt_stdio_output@@IAE_NXZ 10037d97 f i libucrt:output.obj
 0001:00036eda       ?validate_and_update_state_at_beginning_of_format_character@?$standard_base@DV?$stream_output_adapter@D@__crt_stdio_output@@@__crt_stdio_output@@IAE_NXZ 10037eda f i libucrt:output.obj
 0001:00036edd       ?validate_and_update_state_at_beginning_of_format_character@?$standard_base@DV?$string_output_adapter@D@__crt_stdio_output@@@__crt_stdio_output@@IAE_NXZ 10037edd f i libucrt:output.obj
 0001:00036ee0       ?validate_and_update_state_at_beginning_of_format_character@?$standard_base@_WV?$stream_output_adapter@_W@__crt_stdio_output@@@__crt_stdio_output@@IAE_NXZ 10037ee0 f i libucrt:output.obj
 0001:00036ee3       ?validate_and_update_state_at_beginning_of_format_character@?$standard_base@_WV?$string_output_adapter@_W@__crt_stdio_output@@@__crt_stdio_output@@IAE_NXZ 10037ee3 f i libucrt:output.obj
 0001:00036ee6       ?validate_and_update_state_at_end_of_format_string@?$format_validation_base@DV?$stream_output_adapter@D@__crt_stdio_output@@@__crt_stdio_output@@IBE_NXZ 10037ee6 f i libucrt:output.obj
 0001:00036f10       ?validate_and_update_state_at_end_of_format_string@?$format_validation_base@DV?$string_output_adapter@D@__crt_stdio_output@@@__crt_stdio_output@@IBE_NXZ 10037f10 f i libucrt:output.obj
 0001:00036f3a       ?validate_and_update_state_at_end_of_format_string@?$format_validation_base@_WV?$stream_output_adapter@_W@__crt_stdio_output@@@__crt_stdio_output@@IBE_NXZ 10037f3a f i libucrt:output.obj
 0001:00036f64       ?validate_and_update_state_at_end_of_format_string@?$format_validation_base@_WV?$string_output_adapter@_W@__crt_stdio_output@@@__crt_stdio_output@@IBE_NXZ 10037f64 f i libucrt:output.obj
 0001:00036f8e       ?validate_and_update_state_at_end_of_format_string@?$positional_parameter_base@DV?$stream_output_adapter@D@__crt_stdio_output@@@__crt_stdio_output@@IAE_NXZ 10037f8e f i libucrt:output.obj
 0001:00037034       ?validate_and_update_state_at_end_of_format_string@?$positional_parameter_base@DV?$string_output_adapter@D@__crt_stdio_output@@@__crt_stdio_output@@IAE_NXZ 10038034 f i libucrt:output.obj
 0001:000370da       ?validate_and_update_state_at_end_of_format_string@?$positional_parameter_base@_WV?$stream_output_adapter@_W@__crt_stdio_output@@@__crt_stdio_output@@IAE_NXZ 100380da f i libucrt:output.obj
 0001:00037180       ?validate_and_update_state_at_end_of_format_string@?$positional_parameter_base@_WV?$string_output_adapter@_W@__crt_stdio_output@@@__crt_stdio_output@@IAE_NXZ 10038180 f i libucrt:output.obj
 0001:00037226       ?validate_and_update_state_at_end_of_format_string@?$standard_base@DV?$stream_output_adapter@D@__crt_stdio_output@@@__crt_stdio_output@@IBE_NXZ 10038226 f i libucrt:output.obj
 0001:00037229       ?validate_and_update_state_at_end_of_format_string@?$standard_base@DV?$string_output_adapter@D@__crt_stdio_output@@@__crt_stdio_output@@IBE_NXZ 10038229 f i libucrt:output.obj
 0001:0003722c       ?validate_and_update_state_at_end_of_format_string@?$standard_base@_WV?$stream_output_adapter@_W@__crt_stdio_output@@@__crt_stdio_output@@IBE_NXZ 1003822c f i libucrt:output.obj
 0001:0003722f       ?validate_and_update_state_at_end_of_format_string@?$standard_base@_WV?$string_output_adapter@_W@__crt_stdio_output@@@__crt_stdio_output@@IBE_NXZ 1003822f f i libucrt:output.obj
 0001:00037232       ?validate_state_for_type_case_a@?$positional_parameter_base@DV?$stream_output_adapter@D@__crt_stdio_output@@@__crt_stdio_output@@IAE_NXZ 10038232 f i libucrt:output.obj
 0001:00037294       ?validate_state_for_type_case_a@?$positional_parameter_base@DV?$string_output_adapter@D@__crt_stdio_output@@@__crt_stdio_output@@IAE_NXZ 10038294 f i libucrt:output.obj
 0001:000372f6       ?validate_state_for_type_case_a@?$positional_parameter_base@_WV?$stream_output_adapter@_W@__crt_stdio_output@@@__crt_stdio_output@@IAE_NXZ 100382f6 f i libucrt:output.obj
 0001:00037358       ?validate_state_for_type_case_a@?$positional_parameter_base@_WV?$string_output_adapter@_W@__crt_stdio_output@@@__crt_stdio_output@@IAE_NXZ 10038358 f i libucrt:output.obj
 0001:000373ba       ?validate_state_for_type_case_a@?$standard_base@DV?$stream_output_adapter@D@__crt_stdio_output@@@__crt_stdio_output@@IBE_NXZ 100383ba f i libucrt:output.obj
 0001:000373bd       ?validate_state_for_type_case_a@?$standard_base@DV?$string_output_adapter@D@__crt_stdio_output@@@__crt_stdio_output@@IBE_NXZ 100383bd f i libucrt:output.obj
 0001:000373c0       ?validate_state_for_type_case_a@?$standard_base@_WV?$stream_output_adapter@_W@__crt_stdio_output@@@__crt_stdio_output@@IBE_NXZ 100383c0 f i libucrt:output.obj
 0001:000373c3       ?validate_state_for_type_case_a@?$standard_base@_WV?$string_output_adapter@_W@__crt_stdio_output@@@__crt_stdio_output@@IBE_NXZ 100383c3 f i libucrt:output.obj
 0001:000373c6       ?validate_stream_is_ansi_if_required@?$__acrt_stdio_char_traits@D@@SA_NQAU_iobuf@@@Z 100383c6 f i libucrt:output.obj
 0001:0003746d       ?validate_stream_is_ansi_if_required@?$__acrt_stdio_char_traits@_W@@SA_NQAU_iobuf@@@Z 1003846d f i libucrt:output.obj
 0001:00037470       ?wide_null_string@?$output_processor@DV?$stream_output_adapter@D@__crt_stdio_output@@V?$format_validation_base@DV?$stream_output_adapter@D@__crt_stdio_output@@@2@@__crt_stdio_output@@CAPA_WXZ 10038470 f i libucrt:output.obj
 0001:00037476       ?wide_null_string@?$output_processor@DV?$stream_output_adapter@D@__crt_stdio_output@@V?$positional_parameter_base@DV?$stream_output_adapter@D@__crt_stdio_output@@@2@@__crt_stdio_output@@CAPA_WXZ 10038476 f i libucrt:output.obj
 0001:0003747c       ?wide_null_string@?$output_processor@DV?$stream_output_adapter@D@__crt_stdio_output@@V?$standard_base@DV?$stream_output_adapter@D@__crt_stdio_output@@@2@@__crt_stdio_output@@CAPA_WXZ 1003847c f i libucrt:output.obj
 0001:00037482       ?wide_null_string@?$output_processor@DV?$string_output_adapter@D@__crt_stdio_output@@V?$format_validation_base@DV?$string_output_adapter@D@__crt_stdio_output@@@2@@__crt_stdio_output@@CAPA_WXZ 10038482 f i libucrt:output.obj
 0001:00037488       ?wide_null_string@?$output_processor@DV?$string_output_adapter@D@__crt_stdio_output@@V?$positional_parameter_base@DV?$string_output_adapter@D@__crt_stdio_output@@@2@@__crt_stdio_output@@CAPA_WXZ 10038488 f i libucrt:output.obj
 0001:0003748e       ?wide_null_string@?$output_processor@DV?$string_output_adapter@D@__crt_stdio_output@@V?$standard_base@DV?$string_output_adapter@D@__crt_stdio_output@@@2@@__crt_stdio_output@@CAPA_WXZ 1003848e f i libucrt:output.obj
 0001:00037494       ?wide_null_string@?$output_processor@_WV?$stream_output_adapter@_W@__crt_stdio_output@@V?$format_validation_base@_WV?$stream_output_adapter@_W@__crt_stdio_output@@@2@@__crt_stdio_output@@CAPA_WXZ 10038494 f i libucrt:output.obj
 0001:0003749a       ?wide_null_string@?$output_processor@_WV?$stream_output_adapter@_W@__crt_stdio_output@@V?$positional_parameter_base@_WV?$stream_output_adapter@_W@__crt_stdio_output@@@2@@__crt_stdio_output@@CAPA_WXZ 1003849a f i libucrt:output.obj
 0001:000374a0       ?wide_null_string@?$output_processor@_WV?$stream_output_adapter@_W@__crt_stdio_output@@V?$standard_base@_WV?$stream_output_adapter@_W@__crt_stdio_output@@@2@@__crt_stdio_output@@CAPA_WXZ 100384a0 f i libucrt:output.obj
 0001:000374a6       ?wide_null_string@?$output_processor@_WV?$string_output_adapter@_W@__crt_stdio_output@@V?$format_validation_base@_WV?$string_output_adapter@_W@__crt_stdio_output@@@2@@__crt_stdio_output@@CAPA_WXZ 100384a6 f i libucrt:output.obj
 0001:000374ac       ?wide_null_string@?$output_processor@_WV?$string_output_adapter@_W@__crt_stdio_output@@V?$positional_parameter_base@_WV?$string_output_adapter@_W@__crt_stdio_output@@@2@@__crt_stdio_output@@CAPA_WXZ 100384ac f i libucrt:output.obj
 0001:000374b2       ?wide_null_string@?$output_processor@_WV?$string_output_adapter@_W@__crt_stdio_output@@V?$standard_base@_WV?$string_output_adapter@_W@__crt_stdio_output@@@2@@__crt_stdio_output@@CAPA_WXZ 100384b2 f i libucrt:output.obj
 0001:000374b8       ?write_character@?$output_adapter_common@DV?$stream_output_adapter@D@__crt_stdio_output@@@__crt_stdio_output@@QBEXDQAH@Z 100384b8 f i libucrt:output.obj
 0001:000374de       ?write_character@?$output_adapter_common@_WV?$stream_output_adapter@_W@__crt_stdio_output@@@__crt_stdio_output@@QBEX_WQAH@Z 100384de f i libucrt:output.obj
 0001:00037504       ?write_character@?$string_output_adapter@D@__crt_stdio_output@@QBE_NDQAH@Z 10038504 f i libucrt:output.obj
 0001:00037556       ?write_character@?$string_output_adapter@_W@__crt_stdio_output@@QBE_N_WQAH@Z 10038556 f i libucrt:output.obj
 0001:000375ac       ?write_character_without_count_update@?$stream_output_adapter@D@__crt_stdio_output@@QBE_ND@Z 100385ac f i libucrt:output.obj
 0001:000375ee       ?write_character_without_count_update@?$stream_output_adapter@_W@__crt_stdio_output@@QBE_N_W@Z 100385ee f i libucrt:output.obj
 0001:00037634       ?write_stored_string_tchar@?$output_processor@DV?$stream_output_adapter@D@__crt_stdio_output@@V?$format_validation_base@DV?$stream_output_adapter@D@__crt_stdio_output@@@2@@__crt_stdio_output@@AAE_ND@Z 10038634 f i libucrt:output.obj
 0001:00037707       ?write_stored_string_tchar@?$output_processor@DV?$stream_output_adapter@D@__crt_stdio_output@@V?$positional_parameter_base@DV?$stream_output_adapter@D@__crt_stdio_output@@@2@@__crt_stdio_output@@AAE_ND@Z 10038707 f i libucrt:output.obj
 0001:000377da       ?write_stored_string_tchar@?$output_processor@DV?$stream_output_adapter@D@__crt_stdio_output@@V?$standard_base@DV?$stream_output_adapter@D@__crt_stdio_output@@@2@@__crt_stdio_output@@AAE_ND@Z 100387da f i libucrt:output.obj
 0001:000378ad       ?write_stored_string_tchar@?$output_processor@DV?$string_output_adapter@D@__crt_stdio_output@@V?$format_validation_base@DV?$string_output_adapter@D@__crt_stdio_output@@@2@@__crt_stdio_output@@AAE_ND@Z 100388ad f i libucrt:output.obj
 0001:00037980       ?write_stored_string_tchar@?$output_processor@DV?$string_output_adapter@D@__crt_stdio_output@@V?$positional_parameter_base@DV?$string_output_adapter@D@__crt_stdio_output@@@2@@__crt_stdio_output@@AAE_ND@Z 10038980 f i libucrt:output.obj
 0001:00037a53       ?write_stored_string_tchar@?$output_processor@DV?$string_output_adapter@D@__crt_stdio_output@@V?$standard_base@DV?$string_output_adapter@D@__crt_stdio_output@@@2@@__crt_stdio_output@@AAE_ND@Z 10038a53 f i libucrt:output.obj
 0001:00037b26       ?write_stored_string_tchar@?$output_processor@_WV?$stream_output_adapter@_W@__crt_stdio_output@@V?$format_validation_base@_WV?$stream_output_adapter@_W@__crt_stdio_output@@@2@@__crt_stdio_output@@AAE_N_W@Z 10038b26 f i libucrt:output.obj
 0001:00037be0       ?write_stored_string_tchar@?$output_processor@_WV?$stream_output_adapter@_W@__crt_stdio_output@@V?$positional_parameter_base@_WV?$stream_output_adapter@_W@__crt_stdio_output@@@2@@__crt_stdio_output@@AAE_N_W@Z 10038be0 f i libucrt:output.obj
 0001:00037c9a       ?write_stored_string_tchar@?$output_processor@_WV?$stream_output_adapter@_W@__crt_stdio_output@@V?$standard_base@_WV?$stream_output_adapter@_W@__crt_stdio_output@@@2@@__crt_stdio_output@@AAE_N_W@Z 10038c9a f i libucrt:output.obj
 0001:00037d54       ?write_stored_string_tchar@?$output_processor@_WV?$string_output_adapter@_W@__crt_stdio_output@@V?$format_validation_base@_WV?$string_output_adapter@_W@__crt_stdio_output@@@2@@__crt_stdio_output@@AAE_N_W@Z 10038d54 f i libucrt:output.obj
 0001:00037e0e       ?write_stored_string_tchar@?$output_processor@_WV?$string_output_adapter@_W@__crt_stdio_output@@V?$positional_parameter_base@_WV?$string_output_adapter@_W@__crt_stdio_output@@@2@@__crt_stdio_output@@AAE_N_W@Z 10038e0e f i libucrt:output.obj
 0001:00037ec8       ?write_stored_string_tchar@?$output_processor@_WV?$string_output_adapter@_W@__crt_stdio_output@@V?$standard_base@_WV?$string_output_adapter@_W@__crt_stdio_output@@@2@@__crt_stdio_output@@AAE_N_W@Z 10038ec8 f i libucrt:output.obj
 0001:00037f82       ?write_string@?$stream_output_adapter@D@__crt_stdio_output@@QBEXQBDHQAHAAV__crt_deferred_errno_cache@@@Z 10038f82 f i libucrt:output.obj
 0001:00037fb7       ?write_string@?$stream_output_adapter@_W@__crt_stdio_output@@QBEXQB_WHQAHAAV__crt_deferred_errno_cache@@@Z 10038fb7 f i libucrt:output.obj
 0001:00037fec       ?write_string@?$string_output_adapter@D@__crt_stdio_output@@QBEXQBDHQAHAAV__crt_deferred_errno_cache@@@Z 10038fec f i libucrt:output.obj
 0001:0003806c       ?write_string@?$string_output_adapter@_W@__crt_stdio_output@@QBEXQB_WHQAHAAV__crt_deferred_errno_cache@@@Z 1003906c f i libucrt:output.obj
 0001:000380fb       ?write_string_impl@?$output_adapter_common@DV?$stream_output_adapter@D@__crt_stdio_output@@@__crt_stdio_output@@IBEXQBDHQAHAAV__crt_deferred_errno_cache@@@Z 100390fb f i libucrt:output.obj
 0001:000381c3       ?write_string_impl@?$output_adapter_common@_WV?$stream_output_adapter@_W@__crt_stdio_output@@@__crt_stdio_output@@IBEXQB_WHQAHAAV__crt_deferred_errno_cache@@@Z 100391c3 f i libucrt:output.obj
 0001:0003828e       ___acrt_isleadbyte_l_noupdate 1003928e f i libucrt:output.obj
 0001:000382af       ___acrt_locale_changed     100392af f i libucrt:output.obj
 0001:000382bc       ___stdio_common_vfprintf   100392bc f   libucrt:output.obj
 0001:00038362       ___stdio_common_vfprintf_p 10039362 f   libucrt:output.obj
 0001:00038408       ___stdio_common_vfprintf_s 10039408 f   libucrt:output.obj
 0001:000384ae       ___stdio_common_vfwprintf  100394ae f   libucrt:output.obj
 0001:00038554       ___stdio_common_vfwprintf_p 10039554 f   libucrt:output.obj
 0001:000385fa       ___stdio_common_vfwprintf_s 100395fa f   libucrt:output.obj
 0001:000386a0       ___stdio_common_vsnprintf_s 100396a0 f   libucrt:output.obj
 0001:000386d0       ___stdio_common_vsnwprintf_s 100396d0 f   libucrt:output.obj
 0001:00038700       ___stdio_common_vsprintf   10039700 f   libucrt:output.obj
 0001:0003872d       ___stdio_common_vsprintf_p 1003972d f   libucrt:output.obj
 0001:0003875a       ___stdio_common_vsprintf_s 1003975a f   libucrt:output.obj
 0001:00038787       ___stdio_common_vswprintf  10039787 f   libucrt:output.obj
 0001:000387b4       ___stdio_common_vswprintf_p 100397b4 f   libucrt:output.obj
 0001:000387e1       ___stdio_common_vswprintf_s 100397e1 f   libucrt:output.obj
 0001:0003880e       _calloc                    1003980e f   libucrt:calloc.obj
 0001:0003881b       _realloc                   1003981b f   libucrt:realloc.obj
 0001:00038828       ??$?B$$A6GXPAXK0@Z@__crt_fast_encoded_nullptr_t@@QBEP6GXPAXK0@ZXZ 10039828 f i libucrt:exit.obj
 0001:000388cb       ??$__crt_fast_decode_pointer@P6GXPAXK0@Z@@YAP6GXPAXK0@ZQ6GX0K0@Z@Z 100398cb f i libucrt:exit.obj
 0001:000388e6       ??$__crt_fast_encode_pointer@P6GXPAXK0@Z@@YAP6GXPAXK0@ZQ6GX0K0@Z@Z 100398e6 f i libucrt:exit.obj
 0001:0003890c       ??$__crt_get_proc_address@P6GXI@Z@@YAP6GXI@ZQAUHINSTANCE__@@QBD@Z 1003990c f i libucrt:exit.obj
 0001:00038972       ??0?$__crt_unique_handle_t@U__crt_hmodule_traits@@@@QAE@QAUHINSTANCE__@@@Z 10039972 f i libucrt:exit.obj
 0001:00038986       ??1?$__crt_unique_handle_t@U__crt_hmodule_traits@@@@QAE@XZ 10039986 f i libucrt:exit.obj
 0001:00038acb       ?__acrt_select_exit_lock@@YA?AW4__acrt_lock_id@@XZ 10039acb f i libucrt:exit.obj
 0001:00038ae6       ?close@?$__crt_unique_handle_t@U__crt_hmodule_traits@@@@QAEXXZ 10039ae6 f i libucrt:exit.obj
 0001:00038b02       ?close@__crt_hmodule_traits@@SA_NPAUHINSTANCE__@@@Z 10039b02 f i libucrt:exit.obj
 0001:00038bed       ?get@?$__crt_unique_handle_t@U__crt_hmodule_traits@@@@QBEPAUHINSTANCE__@@XZ 10039bed f i libucrt:exit.obj
 0001:00038bf0       ?get_address_of@?$__crt_unique_handle_t@U__crt_hmodule_traits@@@@QAEPAPAUHINSTANCE__@@XZ 10039bf0 f i libucrt:exit.obj
 0001:00038bf3       ?get_invalid_value@__crt_hmodule_traits@@SAPAUHINSTANCE__@@XZ 10039bf3 f i libucrt:exit.obj
 0001:00038cf4       __Exit                     10039cf4 f   libucrt:exit.obj
 0001:00038d0f       ___acrt_initialize_thread_local_exit_callback 10039d0f f   libucrt:exit.obj
 0001:00038d21       __c_exit                   10039d21 f   libucrt:exit.obj
 0001:00038d33       __cexit                    10039d33 f   libucrt:exit.obj
 0001:00038d45       __exit                     10039d45 f   libucrt:exit.obj
 0001:00038d60       __is_c_termination_complete 10039d60 f   libucrt:exit.obj
 0001:00038d66       __register_thread_local_exe_atexit_callback 10039d66 f   libucrt:exit.obj
 0001:00038dac       _exit                      10039dac f   libucrt:exit.obj
 0001:00038dc7       _quick_exit                10039dc7 f   libucrt:exit.obj
 0001:00038df0       _strncat                   10039df0 f   libucrt:strncat.obj
 0001:00038f80       _strncpy                   10039f80 f   libucrt:strncpy.obj
 0001:000390ed       ?is_in_use@__crt_stdio_stream@@QBE_NXZ 1003a0ed f i libucrt:fclose.obj
 0001:000390fa       __fclose_nolock            1003a0fa f   libucrt:fclose.obj
 0001:0003918d       _fclose                    1003a18d f   libucrt:fclose.obj
 0001:00039483       ??$open_file@ABQBDABQBDABHPAU_iobuf@@@?$__crt_char_traits@D@@SAPAU_iobuf@@ABQBD0ABH$$QAPAU1@@Z 1003a483 f i libucrt:fopen.obj
 0001:000394ae       ??$open_file@ABQB_WABQB_WABHPAU_iobuf@@@?$__crt_char_traits@_W@@SAPAU_iobuf@@ABQB_W0ABH$$QAPAU1@@Z 1003a4ae f i libucrt:fopen.obj
 0001:000394d9       ?unlock@__crt_stdio_stream@@QBEXXZ 1003a4d9 f i libucrt:fopen.obj
 0001:000394e4       __fsopen                   1003a4e4 f   libucrt:fopen.obj
 0001:000394f1       __wfopen                   1003a4f1 f   libucrt:fopen.obj
 0001:0003950d       __wfopen_s                 1003a50d f   libucrt:fopen.obj
 0001:00039565       __wfsopen                  1003a565 f   libucrt:fopen.obj
 0001:00039572       _fopen                     1003a572 f   libucrt:fopen.obj
 0001:0003958e       _fopen_s                   1003a58e f   libucrt:fopen.obj
 0001:000395e6       ?__acrt_stdio_reset_buffer@@YAXV__crt_stdio_stream@@@Z 1003a5e6 f i libucrt:fread.obj
 0001:00039601       ?has_any_buffer@__crt_stdio_stream@@QBE_NXZ 1003a601 f i libucrt:fread.obj
 0001:00039612       ?has_any_of@__crt_stdio_stream@@QBE_NJ@Z 1003a612 f i libucrt:fread.obj
 0001:0003962b       ?set_flags@__crt_stdio_stream@@QBE_NJ@Z 1003a62b f i libucrt:fread.obj
 0001:00039658       __fread_nolock             1003a658 f   libucrt:fread.obj
 0001:0003967c       __fread_nolock_s           1003a67c f   libucrt:fread.obj
 0001:000398cb       _fread                     1003a8cb f   libucrt:fread.obj
 0001:000398ef       _fread_s                   1003a8ef f   libucrt:fread.obj
 0001:00039ba0       ?has_big_buffer@__crt_stdio_stream@@QBE_NXZ 1003aba0 f i libucrt:fwrite.obj
 0001:00039bad       __fwrite_nolock            1003abad f   libucrt:fwrite.obj
 0001:00039d86       _fwrite                    1003ad86 f   libucrt:fwrite.obj
 0001:00039ea9       ??$__acrt_mbs_to_wcs_cp@U__crt_win32_buffer_internal_dynamic_resizing@@@@YAHQBDAAV?$__crt_win32_buffer@_WU__crt_win32_buffer_internal_dynamic_resizing@@@@I@Z 1003aea9 f i libucrt:unlink.obj
 0001:00039ecf       ??0?$__crt_win32_buffer@_WU__crt_win32_buffer_internal_dynamic_resizing@@@@QAE@XZ 1003aecf f i libucrt:unlink.obj
 0001:00039eea       ??1?$__crt_win32_buffer@_WU__crt_win32_buffer_internal_dynamic_resizing@@@@QAE@XZ 1003aeea f i libucrt:unlink.obj
 0001:00039f18       ?__acrt_get_utf8_acp_compatibility_codepage@@YAIXZ 1003af18 f i libucrt:unlink.obj
 0001:00039f69       ?_deallocate@?$__crt_win32_buffer@_WU__crt_win32_buffer_internal_dynamic_resizing@@@@AAEXXZ 1003af69 f i libucrt:unlink.obj
 0001:00039f89       ?allocate@?$__crt_win32_buffer@_WU__crt_win32_buffer_internal_dynamic_resizing@@@@QAEHI@Z 1003af89 f i libucrt:unlink.obj
 0001:00039fd7       ?allocate@__crt_win32_buffer_internal_dynamic_resizing@@SAHQAPAXIABV__crt_win32_buffer_empty_debug_info@@@Z 1003afd7 f i libucrt:unlink.obj
 0001:00039ffd       ?capacity@?$__crt_win32_buffer@_WU__crt_win32_buffer_internal_dynamic_resizing@@@@QBEIXZ 1003affd f i libucrt:unlink.obj
 0001:0003a001       ?data@?$__crt_win32_buffer@_WU__crt_win32_buffer_internal_dynamic_resizing@@@@QAEPA_WXZ 1003b001 f i libucrt:unlink.obj
 0001:0003a005       ?deallocate@__crt_win32_buffer_internal_dynamic_resizing@@SAXQAXABV__crt_win32_buffer_empty_debug_info@@@Z 1003b005 f i libucrt:unlink.obj
 0001:0003a019       ?debug_info@?$__crt_win32_buffer@_WU__crt_win32_buffer_internal_dynamic_resizing@@@@QBEABV__crt_win32_buffer_empty_debug_info@@XZ 1003b019 f i libucrt:unlink.obj
 0001:0003a01c       ?size@?$__crt_win32_buffer@_WU__crt_win32_buffer_internal_dynamic_resizing@@@@QAEXI@Z 1003b01c f i libucrt:unlink.obj
 0001:0003a02e       __unlink                   1003b02e f   libucrt:unlink.obj
 0001:0003a03b       _remove                    1003b03b f   libucrt:unlink.obj
 0001:0003a0c2       ?has_all_of@__crt_stdio_stream@@QBE_NJ@Z 1003b0c2 f i libucrt:rewind.obj
 0001:0003a0de       ?unset_flags@__crt_stdio_stream@@QBE_NJ@Z 1003b0de f i libucrt:rewind.obj
 0001:0003a111       _rewind                    1003b111 f   libucrt:rewind.obj
 0001:0003a203       _ldexp                     1003b203 f   libucrt:ldexp.obj
 0001:0003a480       _strncmp                   1003b480 f   libucrt:strncmp.obj
 0001:0003a516       ??$__vcrt_va_start_verify_argument_type@QBD@@YAXXZ 1003b516 f i libucrt:assert.obj
 0001:0003a517       ??$__vcrt_va_start_verify_argument_type@QB_W@@YAXXZ 1003b517 f i libucrt:assert.obj
 0001:0003b4b9       ??$ftprintf@PAU_iobuf@@PBDABQBDABQBDABI@?$__crt_char_traits@D@@SAH$$QAPAU_iobuf@@$$QAPBDABQBD2ABI@Z 1003c4b9 f i libucrt:assert.obj
 0001:0003b4eb       ??$ftprintf@PAU_iobuf@@PB_WABQB_WABQB_WABI@?$__crt_char_traits@_W@@SAH$$QAPAU_iobuf@@$$QAPB_WABQB_W2ABI@Z 1003c4eb f i libucrt:assert.obj
 0001:0003b51d       ??$get_module_file_name@AAPAUHINSTANCE__@@AAY0BAF@DK@?$__crt_char_traits@D@@SAKAAPAUHINSTANCE__@@AAY0BAF@D$$QAK@Z 1003c51d f i libucrt:assert.obj
 0001:0003b540       ??$get_module_file_name@AAPAUHINSTANCE__@@AAY0BAF@_WK@?$__crt_char_traits@_W@@SAKAAPAUHINSTANCE__@@AAY0BAF@_W$$QAK@Z 1003c540 f i libucrt:assert.obj
 0001:0003b560       ??$itot_s@ABIPADIH@?$__crt_char_traits@D@@SAHABI$$QAPAD$$QAI$$QAH@Z 1003c560 f i libucrt:assert.obj
 0001:0003b58b       ??$itot_s@ABIPA_WIH@?$__crt_char_traits@_W@@SAHABI$$QAPA_W$$QAI$$QAH@Z 1003c58b f i libucrt:assert.obj
 0001:0003b5b6       ??$show_message_box@AAY0CEA@DPBDJ@?$__crt_char_traits@D@@SAHAAY0CEA@D$$QAPBD$$QAJ@Z 1003c5b6 f i libucrt:assert.obj
 0001:0003b5d9       ??$show_message_box@AAY0CEA@_WPB_WJ@?$__crt_char_traits@_W@@SAHAAY0CEA@_W$$QAPB_W$$QAJ@Z 1003c5d9 f i libucrt:assert.obj
 0001:0003b5fc       ??$tcscat_s@ABQADABIAAPAD@?$__crt_char_traits@D@@SAHABQADABIAAPAD@Z 1003c5fc f i libucrt:assert.obj
 0001:0003b621       ??$tcscat_s@ABQADABIABQBD@?$__crt_char_traits@D@@SAHABQADABIABQBD@Z 1003c621 f i libucrt:assert.obj
 0001:0003b646       ??$tcscat_s@ABQADABIPBD@?$__crt_char_traits@D@@SAHABQADABI$$QAPBD@Z 1003c646 f i libucrt:assert.obj
 0001:0003b66b       ??$tcscat_s@ABQA_WABIAAPA_W@?$__crt_char_traits@_W@@SAHABQA_WABIAAPA_W@Z 1003c66b f i libucrt:assert.obj
 0001:0003b690       ??$tcscat_s@ABQA_WABIABQB_W@?$__crt_char_traits@_W@@SAHABQA_WABIABQB_W@Z 1003c690 f i libucrt:assert.obj
 0001:0003b6b5       ??$tcscat_s@ABQA_WABIPB_W@?$__crt_char_traits@_W@@SAHABQA_WABI$$QAPB_W@Z 1003c6b5 f i libucrt:assert.obj
 0001:0003b6da       ??$tcscpy_s@AAY0BAF@DIPBD@?$__crt_char_traits@D@@SAHAAY0BAF@D$$QAI$$QAPBD@Z 1003c6da f i libucrt:assert.obj
 0001:0003b6fd       ??$tcscpy_s@AAY0BAF@_WIPB_W@?$__crt_char_traits@_W@@SAHAAY0BAF@_W$$QAI$$QAPB_W@Z 1003c6fd f i libucrt:assert.obj
 0001:0003b720       ??$tcscpy_s@ABQADABIPBD@?$__crt_char_traits@D@@SAHABQADABI$$QAPBD@Z 1003c720 f i libucrt:assert.obj
 0001:0003b745       ??$tcscpy_s@ABQA_WABIPB_W@?$__crt_char_traits@_W@@SAHABQA_WABI$$QAPB_W@Z 1003c745 f i libucrt:assert.obj
 0001:0003b76a       ??$tcslen@AAY0BAF@D@?$__crt_char_traits@D@@SAIAAY0BAF@D@Z 1003c76a f i libucrt:assert.obj
 0001:0003b785       ??$tcslen@AAY0BAF@_W@?$__crt_char_traits@_W@@SAIAAY0BAF@_W@Z 1003c785 f i libucrt:assert.obj
 0001:0003b7a8       ??$tcslen@ABQAD@?$__crt_char_traits@D@@SAIABQAD@Z 1003c7a8 f i libucrt:assert.obj
 0001:0003b7c6       ??$tcslen@ABQA_W@?$__crt_char_traits@_W@@SAIABQA_W@Z 1003c7c6 f i libucrt:assert.obj
 0001:0003b7eb       ??$tcslen@ABQBD@?$__crt_char_traits@D@@SAIABQBD@Z 1003c7eb f i libucrt:assert.obj
 0001:0003b809       ??$tcslen@ABQB_W@?$__crt_char_traits@_W@@SAIABQB_W@Z 1003c809 f i libucrt:assert.obj
 0001:0003b82e       ??$tcsncat_s@ABQADABIAAPBDI@?$__crt_char_traits@D@@SAHABQADABIAAPBD$$QAI@Z 1003c82e f i libucrt:assert.obj
 0001:0003b859       ??$tcsncat_s@ABQADABIABQBDABI@?$__crt_char_traits@D@@SAHABQADABIABQBD1@Z 1003c859 f i libucrt:assert.obj
 0001:0003b884       ??$tcsncat_s@ABQADABIPBDI@?$__crt_char_traits@D@@SAHABQADABI$$QAPBD$$QAI@Z 1003c884 f i libucrt:assert.obj
 0001:0003b8af       ??$tcsncat_s@ABQA_WABIAAPB_WI@?$__crt_char_traits@_W@@SAHABQA_WABIAAPB_W$$QAI@Z 1003c8af f i libucrt:assert.obj
 0001:0003b8da       ??$tcsncat_s@ABQA_WABIABQB_WABI@?$__crt_char_traits@_W@@SAHABQA_WABIABQB_W1@Z 1003c8da f i libucrt:assert.obj
 0001:0003b905       ??$tcsncat_s@ABQA_WABIPB_WI@?$__crt_char_traits@_W@@SAHABQA_WABI$$QAPB_W$$QAI@Z 1003c905 f i libucrt:assert.obj
 0001:0003baaa       __assert                   1003caaa f   libucrt:assert.obj
 0001:0003bb04       __invoke_watson_if_error   1003cb04 f i libucrt:assert.obj
 0001:0003bb2e       __vfwprintf_l              1003cb2e f i libucrt:assert.obj
 0001:0003bb5c       __vswprintf_c_l            1003cb5c f i libucrt:assert.obj
 0001:0003bb96       __wassert                  1003cb96 f   libucrt:assert.obj
 0001:0003bbf0       _fwprintf                  1003cbf0 f i libucrt:assert.obj
 0001:0003bcb2       _swprintf                  1003ccb2 f i libucrt:assert.obj
 0001:0003bcd7       __errcode                  1003ccd7 f   libucrt:fpexcept.obj
 0001:0003bd18       __except1                  1003cd18 f   libucrt:fpexcept.obj
 0001:0003be19       __except2                  1003ce19 f   libucrt:fpexcept.obj
 0001:0003bf62       __handle_exc               1003cf62 f   libucrt:fpexcept.obj
 0001:0003c1ca       __handle_qnan2             1003d1ca f   libucrt:fpexcept.obj
 0001:0003c1da       __raise_exc                1003d1da f   libucrt:fpexcept.obj
 0001:0003c205       __raise_exc_ex             1003d205 f   libucrt:fpexcept.obj
 0001:0003c5b8       __raise_excf               1003d5b8 f   libucrt:fpexcept.obj
 0001:0003c5e3       __set_errno_from_matherr   1003d5e3 f   libucrt:fpexcept.obj
 0001:0003c61d       __umatherr                 1003d61d f   libucrt:fpexcept.obj
 0001:0003c6e7       __initterm                 1003d6e7 f   libucrt:initterm.obj
 0001:0003c75a       __initterm_e               1003d75a f   libucrt:initterm.obj
 0001:0003c7dd       __seh_filter_dll           1003d7dd f   libucrt:exception_filter.obj
 0001:0003c805       __seh_filter_exe           1003d805 f   libucrt:exception_filter.obj
 0001:0003c9c4       ??$?RE@__crt_internal_free_policy@@QBEXQBE@Z 1003d9c4 f i libucrt:argv_parsing.obj
 0001:0003c9da       ??$?RPAD@__crt_internal_free_policy@@QBEXQBQAD@Z 1003d9da f i libucrt:argv_parsing.obj
 0001:0003c9f0       ??$?RPA_W@__crt_internal_free_policy@@QBEXQBQA_W@Z 1003d9f0 f i libucrt:argv_parsing.obj
 0001:0003cd09       ??$get_module_file_name@$$TAAY0BAF@DH@?$__crt_char_traits@D@@SAK$$QA$$TAAY0BAF@D$$QAH@Z 1003dd09 f i libucrt:argv_parsing.obj
 0001:0003cd2c       ??$get_module_file_name@$$TAAY0BAF@_WH@?$__crt_char_traits@_W@@SAK$$QA$$TAAY0BAF@_W$$QAH@Z 1003dd2c f i libucrt:argv_parsing.obj
 0001:0003d11f       ??$set_program_name@PAD@?$__crt_char_traits@D@@SAX$$QAPAD@Z 1003e11f f i libucrt:argv_parsing.obj
 0001:0003d134       ??$set_program_name@PA_W@?$__crt_char_traits@_W@@SAX$$QAPA_W@Z 1003e134 f i libucrt:argv_parsing.obj
 0001:0003d171       ??0?$__crt_unique_heap_ptr@EU__crt_internal_free_policy@@@@QAE@QAE@Z 1003e171 f i libucrt:argv_parsing.obj
 0001:0003d185       ??0?$__crt_unique_heap_ptr@PADU__crt_internal_free_policy@@@@QAE@QAPAD@Z 1003e185 f i libucrt:argv_parsing.obj
 0001:0003d199       ??0?$__crt_unique_heap_ptr@PA_WU__crt_internal_free_policy@@@@QAE@QAPA_W@Z 1003e199 f i libucrt:argv_parsing.obj
 0001:0003d1ad       ??1?$__crt_unique_heap_ptr@EU__crt_internal_free_policy@@@@QAE@XZ 1003e1ad f i libucrt:argv_parsing.obj
 0001:0003d1c3       ??1?$__crt_unique_heap_ptr@PADU__crt_internal_free_policy@@@@QAE@XZ 1003e1c3 f i libucrt:argv_parsing.obj
 0001:0003d1d9       ??1?$__crt_unique_heap_ptr@PA_WU__crt_internal_free_policy@@@@QAE@XZ 1003e1d9 f i libucrt:argv_parsing.obj
 0001:0003d1ef       ??B?$__crt_unique_heap_ptr@EU__crt_internal_free_policy@@@@QBE_NXZ 1003e1ef f i libucrt:argv_parsing.obj
 0001:0003d22c       ?detach@?$__crt_unique_heap_ptr@EU__crt_internal_free_policy@@@@QAEPAEXZ 1003e22c f i libucrt:argv_parsing.obj
 0001:0003d232       ?detach@?$__crt_unique_heap_ptr@PADU__crt_internal_free_policy@@@@QAEPAPADXZ 1003e232 f i libucrt:argv_parsing.obj
 0001:0003d238       ?detach@?$__crt_unique_heap_ptr@PA_WU__crt_internal_free_policy@@@@QAEPAPA_WXZ 1003e238 f i libucrt:argv_parsing.obj
 0001:0003d25e       ?get@?$__crt_unique_heap_ptr@EU__crt_internal_free_policy@@@@QBEPAEXZ 1003e25e f i libucrt:argv_parsing.obj
 0001:0003d261       ?get@?$__crt_unique_heap_ptr@PADU__crt_internal_free_policy@@@@QBEPAPADXZ 1003e261 f i libucrt:argv_parsing.obj
 0001:0003d264       ?get@?$__crt_unique_heap_ptr@PA_WU__crt_internal_free_policy@@@@QBEPAPA_WXZ 1003e264 f i libucrt:argv_parsing.obj
 0001:0003d267       ?get_address_of@?$__crt_unique_heap_ptr@PADU__crt_internal_free_policy@@@@QAEPAPAPADXZ 1003e267 f i libucrt:argv_parsing.obj
 0001:0003d26a       ?get_address_of@?$__crt_unique_heap_ptr@PA_WU__crt_internal_free_policy@@@@QAEPAPAPA_WXZ 1003e26a f i libucrt:argv_parsing.obj
 0001:0003d285       ?is_valid@?$__crt_unique_heap_ptr@EU__crt_internal_free_policy@@@@QBE_NXZ 1003e285 f i libucrt:argv_parsing.obj
 0001:0003d28c       ?release@?$__crt_unique_heap_ptr@EU__crt_internal_free_policy@@@@QAEXXZ 1003e28c f i libucrt:argv_parsing.obj
 0001:0003d2a2       ?release@?$__crt_unique_heap_ptr@PADU__crt_internal_free_policy@@@@QAEXXZ 1003e2a2 f i libucrt:argv_parsing.obj
 0001:0003d2b8       ?release@?$__crt_unique_heap_ptr@PA_WU__crt_internal_free_policy@@@@QAEXXZ 1003e2b8 f i libucrt:argv_parsing.obj
 0001:0003d2ed       ___acrt_allocate_buffer_for_argv 1003e2ed f   libucrt:argv_parsing.obj
 0001:0003d34f       __configure_narrow_argv    1003e34f f   libucrt:argv_parsing.obj
 0001:0003d35c       __configure_wide_argv      1003e35c f   libucrt:argv_parsing.obj
 0001:0003d369       __set_pgmptr               1003e369 f i libucrt:argv_parsing.obj
 0001:0003d37b       __set_wpgmptr              1003e37b f i libucrt:argv_parsing.obj
 0001:0003d38d       ??$?R_W@__crt_internal_free_policy@@QBEXQB_W@Z 1003e38d f i libucrt:environment_initialization.obj
 0001:0003d873       ??$get_environment_from_os@$$V@?$__crt_char_traits@D@@SAPADXZ 1003e873 f i libucrt:environment_initialization.obj
 0001:0003d878       ??$get_environment_from_os@$$V@?$__crt_char_traits@_W@@SAPA_WXZ 1003e878 f i libucrt:environment_initialization.obj
 0001:0003d9c9       ??$set_variable_in_environment_nolock@PADH@?$__crt_char_traits@D@@SAH$$QAPAD$$QAH@Z 1003e9c9 f i libucrt:environment_initialization.obj
 0001:0003d9e7       ??$set_variable_in_environment_nolock@PA_WH@?$__crt_char_traits@_W@@SAH$$QAPA_W$$QAH@Z 1003e9e7 f i libucrt:environment_initialization.obj
 0001:0003da05       ??$tcscpy_s@PADABIAAPAD@?$__crt_char_traits@D@@SAH$$QAPADABIAAPAD@Z 1003ea05 f i libucrt:environment_initialization.obj
 0001:0003da2a       ??$tcscpy_s@PA_WABIAAPA_W@?$__crt_char_traits@_W@@SAH$$QAPA_WABIAAPA_W@Z 1003ea2a f i libucrt:environment_initialization.obj
 0001:0003da4f       ??$tcslen@AAPAD@?$__crt_char_traits@D@@SAIAAPAD@Z 1003ea4f f i libucrt:environment_initialization.obj
 0001:0003da6d       ??$tcslen@AAPA_W@?$__crt_char_traits@_W@@SAIAAPA_W@Z 1003ea6d f i libucrt:environment_initialization.obj
 0001:0003da92       ??$uninitialize@A6AXAAPAPAD@Z@?$dual_state_global@PAPAD@__crt_state_management@@QAEXA6AXAAPAPAD@Z@Z 1003ea92 f i libucrt:environment_initialization.obj
 0001:0003dae2       ??$uninitialize@A6AXAAPAPA_W@Z@?$dual_state_global@PAPA_W@__crt_state_management@@QAEXA6AXAAPAPA_W@Z@Z 1003eae2 f i libucrt:environment_initialization.obj
 0001:0003db74       ??0?$__crt_unique_heap_ptr@_WU__crt_internal_free_policy@@@@QAE@QA_W@Z 1003eb74 f i libucrt:environment_initialization.obj
 0001:0003db88       ??1?$__crt_unique_heap_ptr@_WU__crt_internal_free_policy@@@@QAE@XZ 1003eb88 f i libucrt:environment_initialization.obj
 0001:0003db9e       ??B?$__crt_unique_heap_ptr@PADU__crt_internal_free_policy@@@@QBE_NXZ 1003eb9e f i libucrt:environment_initialization.obj
 0001:0003dba5       ??B?$__crt_unique_heap_ptr@PA_WU__crt_internal_free_policy@@@@QBE_NXZ 1003eba5 f i libucrt:environment_initialization.obj
 0001:0003dbac       ??B?$__crt_unique_heap_ptr@_WU__crt_internal_free_policy@@@@QBE_NXZ 1003ebac f i libucrt:environment_initialization.obj
 0001:0003dbb3       ?__crt_compute_required_transform_buffer_count@@YAIIQBD@Z 1003ebb3 f i libucrt:environment_initialization.obj
 0001:0003dbd6       ?__crt_compute_required_transform_buffer_count@@YAIIQB_W@Z 1003ebd6 f i libucrt:environment_initialization.obj
 0001:0003dbfb       ?__crt_transform_string@@YAIIQBDQA_WI@Z 1003ebfb f i libucrt:environment_initialization.obj
 0001:0003dc21       ?__crt_transform_string@@YAIIQB_WQADI@Z 1003ec21 f i libucrt:environment_initialization.obj
 0001:0003dc4b       ?detach@?$__crt_unique_heap_ptr@DU__crt_internal_free_policy@@@@QAEPADXZ 1003ec4b f i libucrt:environment_initialization.obj
 0001:0003dc51       ?detach@?$__crt_unique_heap_ptr@_WU__crt_internal_free_policy@@@@QAEPA_WXZ 1003ec51 f i libucrt:environment_initialization.obj
 0001:0003dc57       ?get@?$__crt_unique_heap_ptr@_WU__crt_internal_free_policy@@@@QBEPA_WXZ 1003ec57 f i libucrt:environment_initialization.obj
 0001:0003dc5a       ?get_current_state_index@__crt_state_management@@YAIXZ 1003ec5a f i libucrt:environment_initialization.obj
 0001:0003dc81       ?initialize@?$dual_state_global@PAPAD@__crt_state_management@@QAEXQAPAD@Z 1003ec81 f i libucrt:environment_initialization.obj
 0001:0003dcb0       ?initialize@?$dual_state_global@PAPA_W@__crt_state_management@@QAEXQAPA_W@Z 1003ecb0 f i libucrt:environment_initialization.obj
 0001:0003dcdf       ?is_valid@?$__crt_unique_heap_ptr@PADU__crt_internal_free_policy@@@@QBE_NXZ 1003ecdf f i libucrt:environment_initialization.obj
 0001:0003dce6       ?is_valid@?$__crt_unique_heap_ptr@PA_WU__crt_internal_free_policy@@@@QBE_NXZ 1003ece6 f i libucrt:environment_initialization.obj
 0001:0003dced       ?is_valid@?$__crt_unique_heap_ptr@_WU__crt_internal_free_policy@@@@QBE_NXZ 1003eced f i libucrt:environment_initialization.obj
 0001:0003dcfa       ?release@?$__crt_unique_heap_ptr@_WU__crt_internal_free_policy@@@@QAEXXZ 1003ecfa f i libucrt:environment_initialization.obj
 0001:0003dd10       ?value@?$dual_state_global@PAPAD@__crt_state_management@@QAEAAPAPADXZ 1003ed10 f i libucrt:environment_initialization.obj
 0001:0003dd13       ?value@?$dual_state_global@PAPA_W@__crt_state_management@@QAEAAPAPA_WXZ 1003ed13 f i libucrt:environment_initialization.obj
 0001:0003dd16       ___dcrt_get_or_create_narrow_environment_nolock 1003ed16 f   libucrt:environment_initialization.obj
 0001:0003dd1b       ___dcrt_get_or_create_wide_environment_nolock 1003ed1b f   libucrt:environment_initialization.obj
 0001:0003dd20       ___dcrt_uninitialize_environments_nolock 1003ed20 f   libucrt:environment_initialization.obj
 0001:0003dd64       ___p__environ              1003ed64 f   libucrt:environment_initialization.obj
 0001:0003dd6a       ___p__wenviron             1003ed6a f   libucrt:environment_initialization.obj
 0001:0003dd70       __get_initial_narrow_environment 1003ed70 f   libucrt:environment_initialization.obj
 0001:0003dd89       __get_initial_wide_environment 1003ed89 f   libucrt:environment_initialization.obj
 0001:0003dda2       __initialize_narrow_environment 1003eda2 f   libucrt:environment_initialization.obj
 0001:0003dda7       __initialize_wide_environment 1003eda7 f   libucrt:environment_initialization.obj
 0001:0003ddac       ??$?BP6AXXZ@__crt_fast_encoded_nullptr_t@@QBEPAP6AXXZXZ 1003edac f i libucrt:onexit.obj
 0001:0003ddca       ??$?RP6AXXZ@__crt_internal_free_policy@@QBEXQBQ6AXXZ@Z 1003edca f i libucrt:onexit.obj
 0001:0003df0e       ??$__crt_fast_encode_pointer@P6AHXZ@@YAP6AHXZQ6AHXZ@Z 1003ef0e f i libucrt:onexit.obj
 0001:0003dfbb       ??0?$__crt_unique_heap_ptr@P6AXXZU__crt_internal_free_policy@@@@QAE@QAP6AXXZ@Z 1003efbb f i libucrt:onexit.obj
 0001:0003dfcf       ??1?$__crt_unique_heap_ptr@P6AXXZU__crt_internal_free_policy@@@@QAE@XZ 1003efcf f i libucrt:onexit.obj
 0001:0003dfe5       ??1scoped_global_state_reset@__crt_state_management@@QAE@XZ 1003efe5 f i libucrt:onexit.obj
 0001:0003e310       ?detach@?$__crt_unique_heap_ptr@P6AXXZU__crt_internal_free_policy@@@@QAEPAP6AXXZXZ 1003f310 f i libucrt:onexit.obj
 0001:0003e316       ?release@?$__crt_unique_heap_ptr@P6AXXZU__crt_internal_free_policy@@@@QAEXXZ 1003f316 f i libucrt:onexit.obj
 0001:0003e32c       __crt_at_quick_exit        1003f32c f   libucrt:onexit.obj
 0001:0003e347       __crt_atexit               1003f347 f   libucrt:onexit.obj
 0001:0003e362       __execute_onexit_table     1003f362 f   libucrt:onexit.obj
 0001:0003e39c       __initialize_onexit_table  1003f39c f   libucrt:onexit.obj
 0001:0003e3e8       __register_onexit_function 1003f3e8 f   libucrt:onexit.obj
 0001:0003e5b3       ?__acrt_stdio_is_initialized@@YA_NXZ 1003f5b3 f i libucrt:initialization.obj
 0001:0003e5c0       ?initialize@?$dual_state_global@PAU__crt_locale_data@@@__crt_state_management@@QAEXQAU__crt_locale_data@@@Z 1003f5c0 f i libucrt:initialization.obj
 0001:0003e5ef       ___acrt_initialize         1003f5ef f   libucrt:initialization.obj
 0001:0003e605       ___acrt_thread_attach      1003f605 f   libucrt:initialization.obj
 0001:0003e612       ___acrt_thread_detach      1003f612 f   libucrt:initialization.obj
 0001:0003e61c       ___acrt_uninitialize       1003f61c f   libucrt:initialization.obj
 0001:0003e658       ___acrt_uninitialize_critical 1003f658 f   libucrt:initialization.obj
 0001:0003e689       __get_terminate            1003f689 f   libucrt:terminate.obj
 0001:0003e69f       _set_terminate             1003f69f f   libucrt:terminate.obj
 0001:0003e6c7       _terminate                 1003f6c7 f   libucrt:terminate.obj
 0001:0003e782       _strcpy_s                  1003f782 f   libucrt:strcpy_s.obj
 0001:0003e7f2       ??$is_overflow_condition@K@__crt_strtox@@YA_NIK@Z 1003f7f2 f i libucrt:atox.obj
 0001:0003e82f       ??$is_overflow_condition@_K@__crt_strtox@@YA_NI_K@Z 1003f82f f i libucrt:atox.obj
 0001:0003e880       ??$make_c_string_character_source@D$$T@__crt_strtox@@YA?AV?$c_string_character_source@D@0@QBD$$T@Z 1003f880 f i libucrt:atox.obj
 0001:0003e8a1       ??$make_c_string_character_source@_W$$T@__crt_strtox@@YA?AV?$c_string_character_source@_W@0@QB_W$$T@Z 1003f8a1 f i libucrt:atox.obj
 0001:0003e8c2       ??$parse_integer@KV?$c_string_character_source@D@__crt_strtox@@@__crt_strtox@@YAKQAU__crt_locale_pointers@@V?$c_string_character_source@D@0@H_N@Z 1003f8c2 f i libucrt:atox.obj
 0001:0003eb75       ??$parse_integer@KV?$c_string_character_source@_W@__crt_strtox@@@__crt_strtox@@YAKQAU__crt_locale_pointers@@V?$c_string_character_source@_W@0@H_N@Z 1003fb75 f i libucrt:atox.obj
 0001:0003f346       ??$parse_integer@_KV?$c_string_character_source@D@__crt_strtox@@@__crt_strtox@@YA_KQAU__crt_locale_pointers@@V?$c_string_character_source@D@0@H_N@Z 10040346 f i libucrt:atox.obj
 0001:0003f696       ??$parse_integer@_KV?$c_string_character_source@_W@__crt_strtox@@@__crt_strtox@@YA_KQAU__crt_locale_pointers@@V?$c_string_character_source@_W@0@H_N@Z 10040696 f i libucrt:atox.obj
 0001:0003ff63       ??$parse_integer_from_string@JD$$T@__crt_strtox@@YAJQBD$$THQAU__crt_locale_pointers@@@Z 10040f63 f i libucrt:atox.obj
 0001:0003ff9b       ??$parse_integer_from_string@J_W$$T@__crt_strtox@@YAJQB_W$$THQAU__crt_locale_pointers@@@Z 10040f9b f i libucrt:atox.obj
 0001:0003ffd3       ??$parse_integer_from_string@_JD$$T@__crt_strtox@@YA_JQBD$$THQAU__crt_locale_pointers@@@Z 10040fd3 f i libucrt:atox.obj
 0001:0004000b       ??$parse_integer_from_string@_J_W$$T@__crt_strtox@@YA_JQB_W$$THQAU__crt_locale_pointers@@@Z 1004100b f i libucrt:atox.obj
 0001:00040043       ??0?$c_string_character_source@D@__crt_strtox@@QAE@QBDQAPBD@Z 10041043 f i libucrt:atox.obj
 0001:00040066       ??0?$c_string_character_source@_W@__crt_strtox@@QAE@QB_WQAPB_W@Z 10041066 f i libucrt:atox.obj
 0001:00040089       ??1?$c_string_character_source@D@__crt_strtox@@QAE@XZ 10041089 f i libucrt:atox.obj
 0001:00040098       ??1?$c_string_character_source@_W@__crt_strtox@@QAE@XZ 10041098 f i libucrt:atox.obj
 0001:000400a7       ?get@?$c_string_character_source@D@__crt_strtox@@QAEDXZ 100410a7 f i libucrt:atox.obj
 0001:000400b1       ?get@?$c_string_character_source@_W@__crt_strtox@@QAE_WXZ 100410b1 f i libucrt:atox.obj
 0001:000400be       ?is_space@__crt_strtox@@YA_NDQAU__crt_locale_pointers@@@Z 100410be f i libucrt:atox.obj
 0001:000400e3       ?is_space@__crt_strtox@@YA_N_WPAU__crt_locale_pointers@@@Z 100410e3 f i libucrt:atox.obj
 0001:00040101       ?maximum_signed_value@__crt_strtox@@YAJK@Z 10041101 f i libucrt:atox.obj
 0001:00040107       ?maximum_signed_value@__crt_strtox@@YA_J_K@Z 10041107 f i libucrt:atox.obj
 0001:00040112       ?minimum_signed_value@__crt_strtox@@YAJK@Z 10041112 f i libucrt:atox.obj
 0001:00040118       ?minimum_signed_value@__crt_strtox@@YA_J_K@Z 10041118 f i libucrt:atox.obj
 0001:00040122       ?parse_digit@__crt_strtox@@YAID@Z 10041122 f i libucrt:atox.obj
 0001:0004016a       ?parse_digit@__crt_strtox@@YAI_W@Z 1004116a f i libucrt:atox.obj
 0001:000403db       ?restore_state@?$c_string_character_source@D@__crt_strtox@@QAE_NQBD@Z 100413db f i libucrt:atox.obj
 0001:000403ef       ?restore_state@?$c_string_character_source@_W@__crt_strtox@@QAE_NQB_W@Z 100413ef f i libucrt:atox.obj
 0001:00040403       ?save_state@?$c_string_character_source@D@__crt_strtox@@QBEPBDXZ 10041403 f i libucrt:atox.obj
 0001:00040406       ?save_state@?$c_string_character_source@_W@__crt_strtox@@QBEPB_WXZ 10041406 f i libucrt:atox.obj
 0001:00040409       ?unget@?$c_string_character_source@D@__crt_strtox@@QAEXD@Z 10041409 f i libucrt:atox.obj
 0001:0004043c       ?unget@?$c_string_character_source@_W@__crt_strtox@@QAEX_W@Z 1004143c f i libucrt:atox.obj
 0001:00040475       ?validate@?$c_string_character_source@D@__crt_strtox@@QBE_NXZ 10041475 f i libucrt:atox.obj
 0001:00040496       ?validate@?$c_string_character_source@_W@__crt_strtox@@QBE_NXZ 10041496 f i libucrt:atox.obj
 0001:000404b7       ?wide_character_to_digit@__crt_strtox@@YAH_W@Z 100414b7 f i libucrt:atox.obj
 0001:000406c0       ___acrt_get_locale_data_prefix 100416c0 f i libucrt:atox.obj
 0001:000406cf       __atoi64                   100416cf f   libucrt:atox.obj
 0001:000406fd       __atoi64_l                 100416fd f   libucrt:atox.obj
 0001:0004072c       __atoi_l                   1004172c f   libucrt:atox.obj
 0001:0004075b       __atol_l                   1004175b f   libucrt:atox.obj
 0001:0004078a       __atoll_l                  1004178a f   libucrt:atox.obj
 0001:000407b9       __chvalidchk_l             100417b9 f i libucrt:atox.obj
 0001:000407e8       __ischartype_l             100417e8 f i libucrt:atox.obj
 0001:00040827       __wtoi                     10041827 f   libucrt:atox.obj
 0001:00040855       __wtoi64                   10041855 f   libucrt:atox.obj
 0001:00040883       __wtoi64_l                 10041883 f   libucrt:atox.obj
 0001:000408b2       __wtoi_l                   100418b2 f   libucrt:atox.obj
 0001:000408e1       __wtol                     100418e1 f   libucrt:atox.obj
 0001:0004090f       __wtol_l                   1004190f f   libucrt:atox.obj
 0001:0004093e       __wtoll                    1004193e f   libucrt:atox.obj
 0001:0004096c       __wtoll_l                  1004196c f   libucrt:atox.obj
 0001:0004099b       _atoi                      1004199b f   libucrt:atox.obj
 0001:000409c9       _atol                      100419c9 f   libucrt:atox.obj
 0001:000409f7       _atoll                     100419f7 f   libucrt:atox.obj
 0001:00040a25       __set_abort_behavior       10041a25 f   libucrt:abort.obj
 0001:00040a4e       _abort                     10041a4e f   libucrt:abort.obj
 0001:00040aa3       _wcsncmp                   10041aa3 f   libucrt:wcsncmp.obj
 0001:00040aeb       __malloc_base              10041aeb f   libucrt:malloc_base.obj
 0001:00040b52       __free_base                10041b52 f   libucrt:free_base.obj
 0001:00040b9a       ??$__crt_fast_decode_pointer@P6AXPB_W00II@Z@@YAP6AXPB_W00II@ZQ6AX000II@Z@Z 10041b9a f i libucrt:invalid_parameter.obj
 0001:00040bb5       ??$__crt_fast_encode_pointer@P6AXPB_W00II@Z@@YAP6AXPB_W00II@ZQ6AX000II@Z@Z 10041bb5 f i libucrt:invalid_parameter.obj
 0001:00040bdb       ??$initialize_from_array@$$BY00Q6AXPB_W00II@Z@?$dual_state_global@P6AXPB_W00II@Z@__crt_state_management@@QAAXAAY00Q6AXPB_W00II@Z@Z 10041bdb f i libucrt:invalid_parameter.obj
 0001:00040bf0       ?dangerous_get_state_array@?$dual_state_global@P6AXPB_W00II@Z@__crt_state_management@@QAEPAP6AXPB_W00II@ZXZ 10041bf0 f i libucrt:invalid_parameter.obj
 0001:00040bf3       ?value@?$dual_state_global@P6AXPB_W00II@Z@__crt_state_management@@QAEAAP6AXPB_W00II@ZXZ 10041bf3 f i libucrt:invalid_parameter.obj
 0001:00040bf6       ___acrt_call_reportfault   10041bf6 f   libucrt:invalid_parameter.obj
 0001:00040d7f       ___acrt_initialize_invalid_parameter_handler 10041d7f f   libucrt:invalid_parameter.obj
 0001:00040d91       __get_invalid_parameter_handler 10041d91 f   libucrt:invalid_parameter.obj
 0001:00040da8       __get_thread_local_invalid_parameter_handler 10041da8 f   libucrt:invalid_parameter.obj
 0001:00040dbd       __invalid_parameter        10041dbd f   libucrt:invalid_parameter.obj
 0001:00040e56       __invalid_parameter_noinfo 10041e56 f   libucrt:invalid_parameter.obj
 0001:00040e6a       __invalid_parameter_noinfo_noreturn 10041e6a f   libucrt:invalid_parameter.obj
 0001:00040e8e       __invoke_watson            10041e8e f   libucrt:invalid_parameter.obj
 0001:00040ecf       __set_invalid_parameter_handler 10041ecf f   libucrt:invalid_parameter.obj
 0001:00040f0b       __set_thread_local_invalid_parameter_handler 10041f0b f   libucrt:invalid_parameter.obj
 0001:00040f2f       ___acrt_errno_from_os_error 10041f2f f   libucrt:errno.obj
 0001:00040f82       ___acrt_errno_map_os_error 10041f82 f   libucrt:errno.obj
 0001:00040fad       ___doserrno                10041fad f   libucrt:errno.obj
 0001:00040fc4       __errno                    10041fc4 f   libucrt:errno.obj
 0001:00040fdb       __get_doserrno             10041fdb f   libucrt:errno.obj
 0001:00041009       __get_errno                10042009 f   libucrt:errno.obj
 0001:00041037       __set_doserrno             10042037 f   libucrt:errno.obj
 0001:00041060       __set_errno                10042060 f   libucrt:errno.obj
 0001:00041089       __calloc_base              10042089 f   libucrt:calloc_base.obj
 0001:0004110d       ??$?B$$A6GHPA_WKJ@Z@__crt_fast_encoded_nullptr_t@@QBEP6GHPA_WKJ@ZXZ 1004210d f i libucrt:winapi_thunks.obj
 0001:00041207       ??$__crt_fast_decode_pointer@P6GHPA_WKJ@Z@@YAP6GHPA_WKJ@ZQ6GH0KJ@Z@Z 10042207 f i libucrt:winapi_thunks.obj
 0001:00041222       ??$__crt_fast_encode_pointer@P6GHPA_WKJ@Z@@YAP6GHPA_WKJ@ZQ6GH0KJ@Z@Z 10042222 f i libucrt:winapi_thunks.obj
 0001:00041a81       _GetCurrentThreadEffectiveToken 10042a81 f i libucrt:winapi_thunks.obj
 0001:00041a85       ___acrt_AppPolicyGetProcessTerminationMethodInternal@4 10042a85 f   libucrt:winapi_thunks.obj
 0001:00041af1       ___acrt_AppPolicyGetShowDeveloperDiagnosticInternal@4 10042af1 f   libucrt:winapi_thunks.obj
 0001:00041b5d       ___acrt_AppPolicyGetThreadInitializationTypeInternal@4 10042b5d f   libucrt:winapi_thunks.obj
 0001:00041bc9       ___acrt_AppPolicyGetWindowingModelInternal@4 10042bc9 f   libucrt:winapi_thunks.obj
 0001:00041c35       ___acrt_AreFileApisANSI@0  10042c35 f   libucrt:winapi_thunks.obj
 0001:00041c7d       ___acrt_CompareStringEx@36 10042c7d f   libucrt:winapi_thunks.obj
 0001:00041d0e       ___acrt_EnumSystemLocalesEx@16 10042d0e f   libucrt:winapi_thunks.obj
 0001:00041d92       ___acrt_FlsAlloc@4         10042d92 f   libucrt:winapi_thunks.obj
 0001:00041dfd       ___acrt_FlsFree@4          10042dfd f   libucrt:winapi_thunks.obj
 0001:00041e68       ___acrt_FlsGetValue@4      10042e68 f   libucrt:winapi_thunks.obj
 0001:00041ed3       ___acrt_FlsSetValue@8      10042ed3 f   libucrt:winapi_thunks.obj
 0001:00041f42       ___acrt_GetDateFormatEx@28 10042f42 f   libucrt:winapi_thunks.obj
 0001:00041fcb       ___acrt_GetEnabledXStateFeatures@0 10042fcb f   libucrt:winapi_thunks.obj
 0001:0004202d       ___acrt_GetLocaleInfoEx@16 1004302d f   libucrt:winapi_thunks.obj
 0001:00042098       ___acrt_GetSystemTimePreciseAsFileTime@4 10043098 f   libucrt:winapi_thunks.obj
 0001:00042103       ___acrt_GetTimeFormatEx@24 10043103 f   libucrt:winapi_thunks.obj
 0001:00042176       ___acrt_GetUserDefaultLocaleName@8 10043176 f   libucrt:winapi_thunks.obj
 0001:000421dd       ___acrt_GetXStateFeaturesMask@8 100431dd f   libucrt:winapi_thunks.obj
 0001:00042249       ___acrt_InitializeCriticalSectionEx@12 10043249 f   libucrt:winapi_thunks.obj
 0001:000422c3       ___acrt_IsValidLocaleName@4 100432c3 f   libucrt:winapi_thunks.obj
 0001:00042325       ___acrt_LCIDToLocaleName@16 10043325 f   libucrt:winapi_thunks.obj
 0001:00042390       ___acrt_LCMapStringEx@36   10043390 f   libucrt:winapi_thunks.obj
 0001:00042421       ___acrt_LocaleNameToLCID@8 10043421 f   libucrt:winapi_thunks.obj
 0001:0004247b       ___acrt_LocateXStateFeature@12 1004347b f   libucrt:winapi_thunks.obj
 0001:000424d2       ___acrt_MessageBoxA@16     100434d2 f   libucrt:winapi_thunks.obj
 0001:0004252d       ___acrt_MessageBoxW@16     1004352d f   libucrt:winapi_thunks.obj
 0001:00042588       ___acrt_RoInitialize@4     10043588 f   libucrt:winapi_thunks.obj
 0001:000425ee       ___acrt_RoUninitialize@0   100435ee f   libucrt:winapi_thunks.obj
 0001:00042649       ___acrt_RtlGenRandom@8     10043649 f   libucrt:winapi_thunks.obj
 0001:000426b5       ___acrt_SetThreadStackGuarantee@4 100436b5 f   libucrt:winapi_thunks.obj
 0001:0004271b       ___acrt_can_show_message_box 1004371b f   libucrt:winapi_thunks.obj
 0001:0004274b       ___acrt_can_use_vista_locale_apis 1004374b f   libucrt:winapi_thunks.obj
 0001:00042758       ___acrt_can_use_xstate_apis 10043758 f   libucrt:winapi_thunks.obj
 0001:00042765       ___acrt_eagerly_load_locale_apis 10043765 f   libucrt:winapi_thunks.obj
 0001:000427a9       ___acrt_get_parent_window  100437a9 f   libucrt:winapi_thunks.obj
 0001:00042847       ___acrt_initialize_winapi_thunks 10043847 f   libucrt:winapi_thunks.obj
 0001:00042892       ___acrt_is_interactive     10043892 f   libucrt:winapi_thunks.obj
 0001:00042961       ___acrt_uninitialize_winapi_thunks 10043961 f   libucrt:winapi_thunks.obj
 0001:000429a4       ??0__crt_stdio_stream@@QAE@QAU__crt_stdio_stream_data@@@Z 100439a4 f i libucrt:closeall.obj
 0001:000429b8       __fcloseall                100439b8 f   libucrt:closeall.obj
 0001:00043026       ___acrt_stdio_flush_nolock 10044026 f   libucrt:fflush.obj
 0001:000430a1       __fflush_nolock            100440a1 f   libucrt:fflush.obj
 0001:000430f9       __flushall                 100440f9 f   libucrt:fflush.obj
 0001:00043104       _fflush                    10044104 f   libucrt:fflush.obj
 0001:0004316d       ?has_crt_buffer@__crt_stdio_stream@@QBE_NXZ 1004416d f i libucrt:_freebuf.obj
 0001:0004317a       ___acrt_stdio_free_buffer_nolock 1004417a f   libucrt:_freebuf.obj
 0001:000433b8       ___acrt_initialize_lowio   100443b8 f   libucrt:ioinit.obj
 0001:00043423       ___acrt_uninitialize_lowio 10044423 f   libucrt:ioinit.obj
 0001:00043476       ___isascii                 10044476 f i libucrt:_ctype.obj
 0001:0004348c       ___iscsym                  1004448c f i libucrt:_ctype.obj
 0001:000434b6       ___iscsymf                 100444b6 f i libucrt:_ctype.obj
 0001:000434dc       ___toascii                 100444dc f i libucrt:_ctype.obj
 0001:000434ec       __isalnum_l                100444ec f i libucrt:_ctype.obj
 0001:00043535       __isalpha_l                10044535 f i libucrt:_ctype.obj
 0001:0004357e       __isblank_l                1004457e f i libucrt:_ctype.obj
 0001:000435d1       __iscntrl_l                100445d1 f i libucrt:_ctype.obj
 0001:00043617       __iscsym_l                 10044617 f i libucrt:_ctype.obj
 0001:00043642       __iscsymf_l                10044642 f i libucrt:_ctype.obj
 0001:0004366d       __isdigit_l                1004466d f i libucrt:_ctype.obj
 0001:000436b3       __isgraph_l                100446b3 f i libucrt:_ctype.obj
 0001:000436fc       __islower_l                100446fc f i libucrt:_ctype.obj
 0001:00043742       __isprint_l                10044742 f i libucrt:_ctype.obj
 0001:0004378b       __ispunct_l                1004478b f i libucrt:_ctype.obj
 0001:000437d1       __isspace_l                100447d1 f i libucrt:_ctype.obj
 0001:00043817       __isupper_l                10044817 f i libucrt:_ctype.obj
 0001:0004385d       __isxdigit_l               1004485d f i libucrt:_ctype.obj
 0001:000438a6       _isalnum                   100448a6 f i libucrt:_ctype.obj
 0001:000438e2       _isalpha                   100448e2 f i libucrt:_ctype.obj
 0001:0004391e       _isblank                   1004491e f i libucrt:_ctype.obj
 0001:00043966       _iscntrl                   10044966 f i libucrt:_ctype.obj
 0001:0004399f       _isdigit                   1004499f f i libucrt:_ctype.obj
 0001:000439d8       _isgraph                   100449d8 f i libucrt:_ctype.obj
 0001:00043a14       _islower                   10044a14 f i libucrt:_ctype.obj
 0001:00043a4d       _isprint                   10044a4d f i libucrt:_ctype.obj
 0001:00043a89       _ispunct                   10044a89 f i libucrt:_ctype.obj
 0001:00043ac2       _isspace                   10044ac2 f i libucrt:_ctype.obj
 0001:00043afb       _isupper                   10044afb f i libucrt:_ctype.obj
 0001:00043b34       _isxdigit                  10044b34 f i libucrt:_ctype.obj
 0001:00043f2c       __tolower                  10044f2c f   libucrt:tolower_toupper.obj
 0001:00043f3c       __tolower_l                10044f3c f   libucrt:tolower_toupper.obj
 0001:00043f5c       __toupper                  10044f5c f   libucrt:tolower_toupper.obj
 0001:00043f6c       __toupper_l                10044f6c f   libucrt:tolower_toupper.obj
 0001:00043f8c       _tolower                   10044f8c f   libucrt:tolower_toupper.obj
 0001:00043fc8       _toupper                   10044fc8 f   libucrt:tolower_toupper.obj
 0001:00044004       ??$make_c_string_character_source@DPAPAD@__crt_strtox@@YA?AV?$c_string_character_source@D@0@QBDQAPAD@Z 10045004 f i libucrt:strtox.obj
 0001:00044025       ??$make_c_string_character_source@_WPAPA_W@__crt_strtox@@YA?AV?$c_string_character_source@_W@0@QB_WQAPA_W@Z 10045025 f i libucrt:strtox.obj
 0001:00044046       ??$parse_integer_from_string@JDPAPAD@__crt_strtox@@YAJQBDQAPADHQAU__crt_locale_pointers@@@Z 10045046 f i libucrt:strtox.obj
 0001:0004407e       ??$parse_integer_from_string@J_WPAPA_W@__crt_strtox@@YAJQB_WQAPA_WHQAU__crt_locale_pointers@@@Z 1004507e f i libucrt:strtox.obj
 0001:000440b6       ??$parse_integer_from_string@KDPAPAD@__crt_strtox@@YAKQBDQAPADHQAU__crt_locale_pointers@@@Z 100450b6 f i libucrt:strtox.obj
 0001:000440ee       ??$parse_integer_from_string@K_WPAPA_W@__crt_strtox@@YAKQB_WQAPA_WHQAU__crt_locale_pointers@@@Z 100450ee f i libucrt:strtox.obj
 0001:00044126       ??$parse_integer_from_string@_JDPAPAD@__crt_strtox@@YA_JQBDQAPADHQAU__crt_locale_pointers@@@Z 10045126 f i libucrt:strtox.obj
 0001:0004415e       ??$parse_integer_from_string@_J_WPAPA_W@__crt_strtox@@YA_JQB_WQAPA_WHQAU__crt_locale_pointers@@@Z 1004515e f i libucrt:strtox.obj
 0001:00044196       ??$parse_integer_from_string@_KDPAPAD@__crt_strtox@@YA_KQBDQAPADHQAU__crt_locale_pointers@@@Z 10045196 f i libucrt:strtox.obj
 0001:000441ce       ??$parse_integer_from_string@_K_WPAPA_W@__crt_strtox@@YA_KQB_WQAPA_WHQAU__crt_locale_pointers@@@Z 100451ce f i libucrt:strtox.obj
 0001:00044206       __strtoi64                 10045206 f   libucrt:strtox.obj
 0001:0004423d       __strtoi64_l               1004523d f   libucrt:strtox.obj
 0001:00044275       __strtoimax_l              10045275 f   libucrt:strtox.obj
 0001:000442ad       __strtol_l                 100452ad f   libucrt:strtox.obj
 0001:000442e5       __strtoll_l                100452e5 f   libucrt:strtox.obj
 0001:0004431d       __strtoui64                1004531d f   libucrt:strtox.obj
 0001:00044354       __strtoui64_l              10045354 f   libucrt:strtox.obj
 0001:0004438c       __strtoul_l                1004538c f   libucrt:strtox.obj
 0001:000443c4       __strtoull_l               100453c4 f   libucrt:strtox.obj
 0001:000443fc       __strtoumax_l              100453fc f   libucrt:strtox.obj
 0001:00044434       __wcstoi64                 10045434 f   libucrt:strtox.obj
 0001:0004446b       __wcstoi64_l               1004546b f   libucrt:strtox.obj
 0001:000444a3       __wcstoimax_l              100454a3 f   libucrt:strtox.obj
 0001:000444db       __wcstol_l                 100454db f   libucrt:strtox.obj
 0001:00044513       __wcstoll_l                10045513 f   libucrt:strtox.obj
 0001:0004454b       __wcstoui64                1004554b f   libucrt:strtox.obj
 0001:00044582       __wcstoui64_l              10045582 f   libucrt:strtox.obj
 0001:000445ba       __wcstoul_l                100455ba f   libucrt:strtox.obj
 0001:000445f2       __wcstoull_l               100455f2 f   libucrt:strtox.obj
 0001:0004462a       __wcstoumax_l              1004562a f   libucrt:strtox.obj
 0001:00044662       _strtoimax                 10045662 f   libucrt:strtox.obj
 0001:00044699       _strtol                    10045699 f   libucrt:strtox.obj
 0001:000446d0       _strtoll                   100456d0 f   libucrt:strtox.obj
 0001:00044707       _strtoul                   10045707 f   libucrt:strtox.obj
 0001:0004473e       _strtoull                  1004573e f   libucrt:strtox.obj
 0001:00044775       _strtoumax                 10045775 f   libucrt:strtox.obj
 0001:000447ac       _wcstoimax                 100457ac f   libucrt:strtox.obj
 0001:000447e3       _wcstol                    100457e3 f   libucrt:strtox.obj
 0001:0004481a       _wcstoll                   1004581a f   libucrt:strtox.obj
 0001:00044851       _wcstoul                   10045851 f   libucrt:strtox.obj
 0001:00044888       _wcstoull                  10045888 f   libucrt:strtox.obj
 0001:000448bf       _wcstoumax                 100458bf f   libucrt:strtox.obj
 0001:000448f6       __mbtowc_l                 100458f6 f   libucrt:mbtowc.obj
 0001:00044a8b       _mbtowc                    10045a8b f   libucrt:mbtowc.obj
 0001:00044aab       __wctomb_l                 10045aab f   libucrt:wctomb.obj
 0001:00044b12       __wctomb_s_l               10045b12 f   libucrt:wctomb.obj
 0001:00044c7d       _wctomb                    10045c7d f   libucrt:wctomb.obj
 0001:00044cbe       _wctomb_s                  10045cbe f   libucrt:wctomb.obj
 0001:000456db       ??1?$__crt_simd_cleanup_guard@$00@@QAE@XZ 100466db f i libucrt:strnlen.obj
 0001:000456df       ??1?$__crt_simd_cleanup_guard@$0A@@@QAE@XZ 100466df f i libucrt:strnlen.obj
 0001:000456e0       ?compare_equals@?$__crt_simd_traits@$00E@@SA?AT__m256i@@T2@0@Z 100466e0 f i libucrt:strnlen.obj
 0001:000456e5       ?compare_equals@?$__crt_simd_traits@$00G@@SA?AT__m256i@@T2@0@Z 100466e5 f i libucrt:strnlen.obj
 0001:000456ea       ?compare_equals@?$__crt_simd_traits@$0A@E@@SA?AT__m128i@@T2@0@Z 100466ea f i libucrt:strnlen.obj
 0001:000456ef       ?compare_equals@?$__crt_simd_traits@$0A@G@@SA?AT__m128i@@T2@0@Z 100466ef f i libucrt:strnlen.obj
 0001:000456f4       ?compute_byte_mask@?$__crt_simd_pack_traits@$00@@SAHT__m256i@@@Z 100466f4 f i libucrt:strnlen.obj
 0001:000456f9       ?compute_byte_mask@?$__crt_simd_pack_traits@$0A@@@SAHT__m128i@@@Z 100466f9 f i libucrt:strnlen.obj
 0001:000456fe       ?get_zero_pack@?$__crt_simd_pack_traits@$00@@SA?AT__m256i@@XZ 100466fe f i libucrt:strnlen.obj
 0001:00045703       ?get_zero_pack@?$__crt_simd_pack_traits@$0A@@@SA?AT__m128i@@XZ 10046703 f i libucrt:strnlen.obj
 0001:00045707       _strnlen                   10046707 f   libucrt:strnlen.obj
 0001:00045871       _wcslen                    10046871 f   libucrt:strnlen.obj
 0001:000459e3       _wcsnlen                   100469e3 f   libucrt:strnlen.obj
 0001:00045bff       ??$?RU__acrt_ptd@@@__crt_internal_free_policy@@QBEXQBU__acrt_ptd@@@Z 10046bff f i libucrt:per_thread_data.obj
 0001:00045f78       ??0?$__crt_unique_heap_ptr@U__acrt_ptd@@U__crt_internal_free_policy@@@@QAE@QAU__acrt_ptd@@@Z 10046f78 f i libucrt:per_thread_data.obj
 0001:00045f8c       ??0__crt_scoped_get_last_error_reset@@QAE@XZ 10046f8c f i libucrt:per_thread_data.obj
 0001:00045fa1       ??1?$__crt_unique_heap_ptr@U__acrt_ptd@@U__crt_internal_free_policy@@@@QAE@XZ 10046fa1 f i libucrt:per_thread_data.obj
 0001:00045fb7       ??1__crt_scoped_get_last_error_reset@@QAE@XZ 10046fb7 f i libucrt:per_thread_data.obj
 0001:00045fc2       ??B?$__crt_unique_heap_ptr@U__acrt_ptd@@U__crt_internal_free_policy@@@@QBE_NXZ 10046fc2 f i libucrt:per_thread_data.obj
 0001:0004615f       ?dangerous_get_state_array@?$dual_state_global@PAU__crt_locale_data@@@__crt_state_management@@QAEPAPAU__crt_locale_data@@XZ 1004715f f i libucrt:per_thread_data.obj
 0001:00046292       ?detach@?$__crt_unique_heap_ptr@U__acrt_ptd@@U__crt_internal_free_policy@@@@QAEPAU__acrt_ptd@@XZ 10047292 f i libucrt:per_thread_data.obj
 0001:00046298       ?get@?$__crt_unique_heap_ptr@U__acrt_ptd@@U__crt_internal_free_policy@@@@QBEPAU__acrt_ptd@@XZ 10047298 f i libucrt:per_thread_data.obj
 0001:0004629b       ?get_current_state_index@__crt_state_management@@YAIABV__crt_scoped_get_last_error_reset@@@Z 1004729b f i libucrt:per_thread_data.obj
 0001:00046421       ?is_valid@?$__crt_unique_heap_ptr@U__acrt_ptd@@U__crt_internal_free_policy@@@@QBE_NXZ 10047421 f i libucrt:per_thread_data.obj
 0001:00046428       ?release@?$__crt_unique_heap_ptr@U__acrt_ptd@@U__crt_internal_free_policy@@@@QAEXXZ 10047428 f i libucrt:per_thread_data.obj
 0001:000464b4       ?value@?$dual_state_global@PAU__crt_locale_data@@@__crt_state_management@@QAEAAPAU__crt_locale_data@@XZ 100474b4 f i libucrt:per_thread_data.obj
 0001:000464b7       ___acrt_freeptd            100474b7 f   libucrt:per_thread_data.obj
 0001:000464ee       ___acrt_getptd             100474ee f   libucrt:per_thread_data.obj
 0001:000465d2       ___acrt_getptd_head        100475d2 f   libucrt:per_thread_data.obj
 0001:00046692       ___acrt_getptd_noexit      10047692 f   libucrt:per_thread_data.obj
 0001:0004676a       ___acrt_initialize_ptd     1004776a f   libucrt:per_thread_data.obj
 0001:000467a1       ___acrt_uninitialize_ptd   100477a1 f   libucrt:per_thread_data.obj
 0001:000467c1       ___threadhandle            100477c1 f   libucrt:per_thread_data.obj
 0001:000467c7       ___threadid                100477c7 f   libucrt:per_thread_data.obj
 0001:000467cd       ?value@?$dual_state_global@PAU__crt_multibyte_data@@@__crt_state_management@@QAEAAPAU__crt_multibyte_data@@XZ 100477cd f i libucrt:locale_update.obj
 0001:000467d0       ___acrt_update_locale_info 100477d0 f   libucrt:locale_update.obj
 0001:00046808       ___acrt_update_multibyte_info 10047808 f   libucrt:locale_update.obj
 0001:00046840       ?__acrt_fp_classify@@YA?AW4__acrt_fp_class@@ABN@Z 10047840 f i libucrt:cvt.obj
 0001:000468ba       ?__acrt_fp_is_negative@@YA_NABN@Z 100478ba f i libucrt:cvt.obj
 0001:0004733f       ?strrchr@@YAPADQADH@Z      1004833f f i libucrt:cvt.obj
 0001:0004734c       ___acrt_fp_format          1004834c f   libucrt:cvt.obj
 0001:00047514       __fputwc_nolock            10048514 f   libucrt:fputwc.obj
 0001:00047688       __fputwchar                10048688 f   libucrt:fputwc.obj
 0001:000476a8       __putwc_nolock             100486a8 f   libucrt:fputwc.obj
 0001:000476b5       _fputwc                    100486b5 f   libucrt:fputwc.obj
 0001:00047746       _putwc                     10048746 f   libucrt:fputwc.obj
 0001:00047753       _putwchar                  10048753 f   libucrt:fputwc.obj
 0001:00047760       ?lowio_handle@__crt_stdio_stream@@QBEHXZ 10048760 f i libucrt:fileno.obj
 0001:00047766       __fileno                   10048766 f   libucrt:fileno.obj
 0001:00047795       __fputc_nolock             10048795 f   libucrt:fputc.obj
 0001:000477c8       __fputchar                 100487c8 f   libucrt:fputc.obj
 0001:000477e8       __putc_nolock              100487e8 f   libucrt:fputc.obj
 0001:000477f5       _fputc                     100487f5 f   libucrt:fputc.obj
 0001:00047933       _putc                      10048933 f   libucrt:fputc.obj
 0001:00047940       _putchar                   10048940 f   libucrt:fputc.obj
 0001:0004794d       __get_printf_count_output  1004894d f   libucrt:printf_count_output.obj
 0001:00047967       __set_printf_count_output  10048967 f   libucrt:printf_count_output.obj
 0001:0004799b       ?has_temporary_buffer@__crt_stdio_stream@@QBE_NXZ 1004899b f i libucrt:_sftbuf.obj
 0001:000479a8       ___acrt_stdio_begin_temporary_buffering_nolock 100489a8 f   libucrt:_sftbuf.obj
 0001:00047a8a       ___acrt_stdio_end_temporary_buffering_nolock 10048a8a f   libucrt:_sftbuf.obj
 0001:00047ad4       ??$?RU__crt_locale_data@@@__crt_internal_free_policy@@QBEXQBU__crt_locale_data@@@Z 10048ad4 f i libucrt:wsetlocale.obj
 0001:00047aea       ??$?RU__crt_locale_pointers@@@__crt_internal_free_policy@@QBEXQBU__crt_locale_pointers@@@Z 10048aea f i libucrt:wsetlocale.obj
 0001:00047b00       ??$?RU__crt_multibyte_data@@@__crt_internal_free_policy@@QBEXQBU__crt_multibyte_data@@@Z 10048b00 f i libucrt:wsetlocale.obj
 0001:00047dd0       ??$__vcrt_va_start_verify_argument_type@H@@YAXXZ 10048dd0 f i libucrt:wsetlocale.obj
 0001:00047f5b       ??0?$__crt_unique_heap_ptr@U__crt_locale_data@@U__crt_internal_free_policy@@@@QAE@QAU__crt_locale_data@@@Z 10048f5b f i libucrt:wsetlocale.obj
 0001:00047f6f       ??0?$__crt_unique_heap_ptr@U__crt_locale_pointers@@U__crt_internal_free_policy@@@@QAE@QAU__crt_locale_pointers@@@Z 10048f6f f i libucrt:wsetlocale.obj
 0001:00047f83       ??0?$__crt_unique_heap_ptr@U__crt_multibyte_data@@U__crt_internal_free_policy@@@@QAE@QAU__crt_multibyte_data@@@Z 10048f83 f i libucrt:wsetlocale.obj
 0001:00047f97       ??1?$__crt_unique_heap_ptr@U__crt_locale_data@@U__crt_internal_free_policy@@@@QAE@XZ 10048f97 f i libucrt:wsetlocale.obj
 0001:00047fad       ??1?$__crt_unique_heap_ptr@U__crt_locale_pointers@@U__crt_internal_free_policy@@@@QAE@XZ 10048fad f i libucrt:wsetlocale.obj
 0001:00047fc3       ??1?$__crt_unique_heap_ptr@U__crt_multibyte_data@@U__crt_internal_free_policy@@@@QAE@XZ 10048fc3 f i libucrt:wsetlocale.obj
 0001:00047fd9       ??B?$__crt_unique_heap_ptr@U__crt_locale_data@@U__crt_internal_free_policy@@@@QBE_NXZ 10048fd9 f i libucrt:wsetlocale.obj
 0001:00047fe0       ??B?$__crt_unique_heap_ptr@U__crt_locale_pointers@@U__crt_internal_free_policy@@@@QBE_NXZ 10048fe0 f i libucrt:wsetlocale.obj
 0001:00047fe7       ??B?$__crt_unique_heap_ptr@U__crt_multibyte_data@@U__crt_internal_free_policy@@@@QBE_NXZ 10048fe7 f i libucrt:wsetlocale.obj
 0001:00048289       ?detach@?$__crt_unique_heap_ptr@U__crt_locale_data@@U__crt_internal_free_policy@@@@QAEPAU__crt_locale_data@@XZ 10049289 f i libucrt:wsetlocale.obj
 0001:0004828f       ?detach@?$__crt_unique_heap_ptr@U__crt_locale_pointers@@U__crt_internal_free_policy@@@@QAEPAU__crt_locale_pointers@@XZ 1004928f f i libucrt:wsetlocale.obj
 0001:00048295       ?detach@?$__crt_unique_heap_ptr@U__crt_multibyte_data@@U__crt_internal_free_policy@@@@QAEPAU__crt_multibyte_data@@XZ 10049295 f i libucrt:wsetlocale.obj
 0001:0004829b       ?get@?$__crt_unique_heap_ptr@U__crt_locale_data@@U__crt_internal_free_policy@@@@QBEPAU__crt_locale_data@@XZ 1004929b f i libucrt:wsetlocale.obj
 0001:0004829e       ?get@?$__crt_unique_heap_ptr@U__crt_locale_pointers@@U__crt_internal_free_policy@@@@QBEPAU__crt_locale_pointers@@XZ 1004929e f i libucrt:wsetlocale.obj
 0001:000482a1       ?get@?$__crt_unique_heap_ptr@U__crt_multibyte_data@@U__crt_internal_free_policy@@@@QBEPAU__crt_multibyte_data@@XZ 100492a1 f i libucrt:wsetlocale.obj
 0001:000482a4       ?is_valid@?$__crt_unique_heap_ptr@U__crt_locale_data@@U__crt_internal_free_policy@@@@QBE_NXZ 100492a4 f i libucrt:wsetlocale.obj
 0001:000482ab       ?is_valid@?$__crt_unique_heap_ptr@U__crt_locale_pointers@@U__crt_internal_free_policy@@@@QBE_NXZ 100492ab f i libucrt:wsetlocale.obj
 0001:000482b2       ?is_valid@?$__crt_unique_heap_ptr@U__crt_multibyte_data@@U__crt_internal_free_policy@@@@QBE_NXZ 100492b2 f i libucrt:wsetlocale.obj
 0001:000482b9       ?release@?$__crt_unique_heap_ptr@U__crt_locale_data@@U__crt_internal_free_policy@@@@QAEXXZ 100492b9 f i libucrt:wsetlocale.obj
 0001:000482cf       ?release@?$__crt_unique_heap_ptr@U__crt_locale_pointers@@U__crt_internal_free_policy@@@@QAEXXZ 100492cf f i libucrt:wsetlocale.obj
 0001:000482e5       ?release@?$__crt_unique_heap_ptr@U__crt_multibyte_data@@U__crt_internal_free_policy@@@@QAEXXZ 100492e5 f i libucrt:wsetlocale.obj
 0001:000482fb       ___acrt_copy_locale_name   100492fb f   libucrt:wsetlocale.obj
 0001:0004837a       ___acrt_set_locale_changed 1004937a f   libucrt:wsetlocale.obj
 0001:00048387       ___acrt_uninitialize_locale 10049387 f   libucrt:wsetlocale.obj
 0001:000483ba       ___lc_lctowcs              100493ba f   libucrt:wsetlocale.obj
 0001:00048446       ___lc_wcstolc              10049446 f   libucrt:wsetlocale.obj
 0001:000485e6       __configthreadlocale       100495e6 f   libucrt:wsetlocale.obj
 0001:0004869a       __create_locale            1004969a f   libucrt:wsetlocale.obj
 0001:00048719       __expandlocale             10049719 f   libucrt:wsetlocale.obj
 0001:00048bed       __free_locale              10049bed f   libucrt:wsetlocale.obj
 0001:00048cd3       __get_current_locale       10049cd3 f   libucrt:wsetlocale.obj
 0001:00048d97       __wcreate_locale           10049d97 f   libucrt:wsetlocale.obj
 0001:00048ee2       __wcscats                  10049ee2 f   libucrt:wsetlocale.obj
 0001:00048f33       __wsetlocale               10049f33 f   libucrt:wsetlocale.obj
 0001:00049a6a       ___p___mb_cur_max          1004aa6a f   libucrt:nlsdata.obj
 0001:00049a9a       __realloc_base             1004aa9a f   libucrt:realloc_base.obj
 0001:00049b1d       ___acrt_initialize_locks   1004ab1d f   libucrt:locks.obj
 0001:00049b6e       ___acrt_lock               1004ab6e f   libucrt:locks.obj
 0001:00049b8a       ___acrt_uninitialize_locks 1004ab8a f   libucrt:locks.obj
 0001:00049bc7       ___acrt_unlock             1004abc7 f   libucrt:locks.obj
 0001:00049be3       __lock_locales             1004abe3 f   libucrt:locks.obj
 0001:00049bf4       __unlock_locales           1004abf4 f   libucrt:locks.obj
 0001:00049e12       ___acrt_get_begin_thread_init_policy 1004ae12 f   libucrt:win_policies.obj
 0001:00049e68       ___acrt_get_developer_information_policy 1004ae68 f   libucrt:win_policies.obj
 0001:00049ebe       ___acrt_get_process_end_policy 1004aebe f   libucrt:win_policies.obj
 0001:00049efd       ___acrt_get_windowing_model_policy 1004aefd f   libucrt:win_policies.obj
 0001:0004a166       __close                    1004b166 f   libucrt:close.obj
 0001:0004a218       __close_nolock             1004b218 f   libucrt:close.obj
 0001:0004a2db       ??$?RU__crt_stdio_stream_data@@@__crt_internal_free_policy@@QBEXQBU__crt_stdio_stream_data@@@Z 1004b2db f i libucrt:stream.obj
 0001:0004a2f1       ??0?$__crt_unique_heap_ptr@U__crt_stdio_stream_data@@U__crt_internal_free_policy@@@@QAE@QAU__crt_stdio_stream_data@@@Z 1004b2f1 f i libucrt:stream.obj
 0001:0004a305       ??0__crt_stdio_stream@@QAE@XZ 1004b305 f i libucrt:stream.obj
 0001:0004a30b       ??1?$__crt_unique_heap_ptr@U__crt_stdio_stream_data@@U__crt_internal_free_policy@@@@QAE@XZ 1004b30b f i libucrt:stream.obj
 0001:0004a321       ?__acrt_stdio_allocate_stream@@YA?AV__crt_stdio_stream@@XZ 1004b321 f   libucrt:stream.obj
 0001:0004a397       ?__acrt_stdio_free_stream@@YAXV__crt_stdio_stream@@@Z 1004b397 f   libucrt:stream.obj
 0001:0004a3e0       ?deallocate@__crt_stdio_stream@@QAEXXZ 1004b3e0 f i libucrt:stream.obj
 0001:0004a3ec       ?detach@?$__crt_unique_heap_ptr@U__crt_stdio_stream_data@@U__crt_internal_free_policy@@@@QAEPAU__crt_stdio_stream_data@@XZ 1004b3ec f i libucrt:stream.obj
 0001:0004a4e5       ?lock@__crt_stdio_stream@@QBEXXZ 1004b4e5 f i libucrt:stream.obj
 0001:0004a4f0       ?release@?$__crt_unique_heap_ptr@U__crt_stdio_stream_data@@U__crt_internal_free_policy@@@@QAEXXZ 1004b4f0 f i libucrt:stream.obj
 0001:0004a506       ?try_allocate@__crt_stdio_stream@@QAE_NXZ 1004b506 f i libucrt:stream.obj
 0001:0004a52e       ??$__acrt_stdio_parse_mode@D@@YA?AU__acrt_stdio_stream_mode@@QBD@Z 1004b52e f i libucrt:openfile.obj
 0001:0004a7e8       ??$__acrt_stdio_parse_mode@_W@@YA?AU__acrt_stdio_stream_mode@@QB_W@Z 1004b7e8 f i libucrt:openfile.obj
 0001:0004ac3d       ??$tcsncmp@AAPBDAAY02$$CBDI@?$__crt_char_traits@D@@SAHAAPBDAAY02$$CBD$$QAI@Z 1004bc3d f i libucrt:openfile.obj
 0001:0004ac60       ??$tcsncmp@AAPB_WAAY02$$CB_WI@?$__crt_char_traits@_W@@SAHAAPB_WAAY02$$CB_W$$QAI@Z 1004bc60 f i libucrt:openfile.obj
 0001:0004ac83       ??$tcsnicmp@AAPBDAAY04$$CBDI@?$__crt_char_traits@D@@SAHAAPBDAAY04$$CBD$$QAI@Z 1004bc83 f i libucrt:openfile.obj
 0001:0004aca6       ??$tcsnicmp@AAPBDAAY06$$CBDI@?$__crt_char_traits@D@@SAHAAPBDAAY06$$CBD$$QAI@Z 1004bca6 f i libucrt:openfile.obj
 0001:0004acc9       ??$tcsnicmp@AAPBDAAY07$$CBDI@?$__crt_char_traits@D@@SAHAAPBDAAY07$$CBD$$QAI@Z 1004bcc9 f i libucrt:openfile.obj
 0001:0004acec       ??$tcsnicmp@AAPB_WAAY04$$CB_WI@?$__crt_char_traits@_W@@SAHAAPB_WAAY04$$CB_W$$QAI@Z 1004bcec f i libucrt:openfile.obj
 0001:0004ad0f       ??$tcsnicmp@AAPB_WAAY06$$CB_WI@?$__crt_char_traits@_W@@SAHAAPB_WAAY06$$CB_W$$QAI@Z 1004bd0f f i libucrt:openfile.obj
 0001:0004ad32       ??$tcsnicmp@AAPB_WAAY07$$CB_WI@?$__crt_char_traits@_W@@SAHAAPB_WAAY07$$CB_W$$QAI@Z 1004bd32 f i libucrt:openfile.obj
 0001:0004ad55       ??$tsopen_s@PAHABQBDABHABHH@?$__crt_char_traits@D@@SAH$$QAPAHABQBDABH2$$QAH@Z 1004bd55 f i libucrt:openfile.obj
 0001:0004ad87       ??$tsopen_s@PAHABQB_WABHABHH@?$__crt_char_traits@_W@@SAH$$QAPAHABQB_WABH2$$QAH@Z 1004bd87 f i libucrt:openfile.obj
 0001:0004adb9       ?__acrt_stdio_parse_mode_D@@YA_NAAU__acrt_stdio_stream_mode@@@Z 1004bdb9 f i libucrt:openfile.obj
 0001:0004adda       ?__acrt_stdio_parse_mode_N@@YA_NAAU__acrt_stdio_stream_mode@@@Z 1004bdda f i libucrt:openfile.obj
 0001:0004adf0       ?__acrt_stdio_parse_mode_R@@YA_NAAU__acrt_stdio_stream_mode@@AA_N@Z 1004bdf0 f i libucrt:openfile.obj
 0001:0004ae15       ?__acrt_stdio_parse_mode_S@@YA_NAAU__acrt_stdio_stream_mode@@AA_N@Z 1004be15 f i libucrt:openfile.obj
 0001:0004ae3a       ?__acrt_stdio_parse_mode_T@@YA_NAAU__acrt_stdio_stream_mode@@@Z 1004be3a f i libucrt:openfile.obj
 0001:0004ae60       ?__acrt_stdio_parse_mode_b@@YA_NAAU__acrt_stdio_stream_mode@@@Z 1004be60 f i libucrt:openfile.obj
 0001:0004ae88       ?__acrt_stdio_parse_mode_c@@YA_NAAU__acrt_stdio_stream_mode@@AA_N@Z 1004be88 f i libucrt:openfile.obj
 0001:0004aeb2       ?__acrt_stdio_parse_mode_n@@YA_NAAU__acrt_stdio_stream_mode@@AA_N@Z 1004beb2 f i libucrt:openfile.obj
 0001:0004aedc       ?__acrt_stdio_parse_mode_plus@@YA_NAAU__acrt_stdio_stream_mode@@AA_N@Z 1004bedc f i libucrt:openfile.obj
 0001:0004af1e       ?__acrt_stdio_parse_mode_t@@YA_NAAU__acrt_stdio_stream_mode@@@Z 1004bf1e f i libucrt:openfile.obj
 0001:0004af46       ?__acrt_stdio_parse_mode_x@@YA_NAAU__acrt_stdio_stream_mode@@@Z 1004bf46 f i libucrt:openfile.obj
 0001:0004af6e       __openfile                 1004bf6e f   libucrt:openfile.obj
 0001:0004af7b       __wopenfile                1004bf7b f   libucrt:openfile.obj
 0001:0004b64e       __read                     1004c64e f   libucrt:read.obj
 0001:0004b79a       __read_nolock              1004c79a f   libucrt:read.obj
 0001:0004bc38       __utf8_no_of_trailbytes    1004cc38 f i libucrt:read.obj
 0001:0004c157       ___acrt_stdio_refill_and_read_narrow_nolock 1004d157 f   libucrt:_filbuf.obj
 0001:0004c164       ___acrt_stdio_refill_and_read_wide_nolock 1004d164 f   libucrt:_filbuf.obj
 0001:0004c8e6       __write                    1004d8e6 f   libucrt:write.obj
 0001:0004ca08       __write_nolock             1004da08 f   libucrt:write.obj
 0001:0004d14a       ___acrt_stdio_flush_and_write_narrow_nolock 1004e14a f   libucrt:_flsbuf.obj
 0001:0004d157       ___acrt_stdio_flush_and_write_wide_nolock 1004e157 f   libucrt:_flsbuf.obj
 0001:0004d1e6       ___acrt_MultiByteToWideChar 1004e1e6 f   libucrt:multibytetowidechar.obj
 0001:0004d281       __wremove                  1004e281 f   libucrt:wunlink.obj
 0001:0004d2b3       __wunlink                  1004e2b3 f   libucrt:wunlink.obj
 0001:0004d720       __lseek                    1004e720 f   libucrt:lseek.obj
 0001:0004d72d       __lseek_nolock             1004e72d f   libucrt:lseek.obj
 0001:0004d73a       __lseeki64                 1004e73a f   libucrt:lseek.obj
 0001:0004d75b       __lseeki64_nolock          1004e75b f   libucrt:lseek.obj
 0001:0004d77c       __chgsign                  1004e77c f   libucrt:ieeemisc.obj
 0001:0004d7b6       __chgsignf                 1004e7b6 f   libucrt:ieeemisc.obj
 0001:0004d7e1       __copysign                 1004e7e1 f   libucrt:ieeemisc.obj
 0001:0004d815       __copysignf                1004e815 f   libucrt:ieeemisc.obj
 0001:0004d83a       __finite                   1004e83a f   libucrt:ieeemisc.obj
 0001:0004d85a       __fpclass                  1004e85a f   libucrt:ieeemisc.obj
 0001:0004d927       __isnan                    1004e927 f   libucrt:ieeemisc.obj
 0001:0004d96a       __logb                     1004e96a f   libucrt:ieeemisc.obj
 0001:0004da6f       __nextafter                1004ea6f f   libucrt:ieeemisc.obj
 0001:0004da95       __scalb                    1004ea95 f   libucrt:ieeemisc.obj
 0001:0004dab5       __add_exp                  1004eab5 f   libucrt:util.obj
 0001:0004daef       __decomp                   1004eaef f   libucrt:util.obj
 0001:0004dc04       __get_exp                  1004ec04 f   libucrt:util.obj
 0001:0004dc22       __set_bexp                 1004ec22 f   libucrt:util.obj
 0001:0004dc55       __set_exp                  1004ec55 f   libucrt:util.obj
 0001:0004dc8f       __sptype                   1004ec8f f   libucrt:util.obj
 0001:0004dd04       ___clrfp_sse2              1004ed04 f   libucrt:fpctrl.obj
 0001:0004dd2d       ___ctrlfp_sse2             1004ed2d f   libucrt:fpctrl.obj
 0001:0004dd76       ___fclrf_sse2              1004ed76 f   libucrt:fpctrl.obj
 0001:0004dd9c       ___get_fpsr_sse2           1004ed9c f   libucrt:fpctrl.obj
 0001:0004ddc1       ___set_fpsr_sse2           1004edc1 f   libucrt:fpctrl.obj
 0001:0004de54       ___set_statfp_sse2         1004ee54 f   libucrt:fpctrl.obj
 0001:0004de75       ___statfp_sse2             1004ee75 f   libucrt:fpctrl.obj
 0001:0004de8f       __clrfp                    1004ee8f f   libucrt:fpctrl.obj
 0001:0004dea6       __ctrlfp                   1004eea6 f   libucrt:fpctrl.obj
 0001:0004dedd       __set_statfp               1004eedd f   libucrt:fpctrl.obj
 0001:0004df4e       __statfp                   1004ef4e f   libucrt:fpctrl.obj
 0001:0004e02b       ___acrt_report_runtime_error 1004f02b f   libucrt:report_runtime_error.obj
 0001:0004e185       __query_app_type           1004f185 f   libucrt:report_runtime_error.obj
 0001:0004e18b       __set_app_type             1004f18b f   libucrt:report_runtime_error.obj
 0001:0004e7a2       __i64toa                   1004f7a2 f   libucrt:xtoa.obj
 0001:0004e7f5       __i64toa_s                 1004f7f5 f   libucrt:xtoa.obj
 0001:0004e846       __i64tow                   1004f846 f   libucrt:xtoa.obj
 0001:0004e899       __i64tow_s                 1004f899 f   libucrt:xtoa.obj
 0001:0004e8ea       __itoa                     1004f8ea f   libucrt:xtoa.obj
 0001:0004e92e       __itoa_s                   1004f92e f   libucrt:xtoa.obj
 0001:0004e970       __itow                     1004f970 f   libucrt:xtoa.obj
 0001:0004e9b4       __itow_s                   1004f9b4 f   libucrt:xtoa.obj
 0001:0004e9f6       __ltoa                     1004f9f6 f   libucrt:xtoa.obj
 0001:0004ea3a       __ltoa_s                   1004fa3a f   libucrt:xtoa.obj
 0001:0004ea7c       __ltow                     1004fa7c f   libucrt:xtoa.obj
 0001:0004eac0       __ltow_s                   1004fac0 f   libucrt:xtoa.obj
 0001:0004eb02       __ui64toa                  1004fb02 f   libucrt:xtoa.obj
 0001:0004eb2c       __ui64toa_s                1004fb2c f   libucrt:xtoa.obj
 0001:0004eb54       __ui64tow                  1004fb54 f   libucrt:xtoa.obj
 0001:0004eb7e       __ui64tow_s                1004fb7e f   libucrt:xtoa.obj
 0001:0004eba6       __ultoa                    1004fba6 f   libucrt:xtoa.obj
 0001:0004ebcc       __ultoa_s                  1004fbcc f   libucrt:xtoa.obj
 0001:0004ebf0       __ultow                    1004fbf0 f   libucrt:xtoa.obj
 0001:0004ec16       __ultow_s                  1004fc16 f   libucrt:xtoa.obj
 0001:0004ec3a       __set_error_mode           1004fc3a f   libucrt:set_error_mode.obj
 0001:0004ed16       _wcscat_s                  1004fd16 f   libucrt:wcscat_s.obj
 0001:0004ee20       _wcscpy_s                  1004fe20 f   libucrt:wcscpy_s.obj
 0001:0004efc0       _wcsncat_s                 1004ffc0 f   libucrt:wcsncat_s.obj
 0001:0004f050       _strcat_s                  10050050 f   libucrt:strcat_s.obj
 0001:0004f1d7       _strncat_s                 100501d7 f   libucrt:strncat_s.obj
 0001:0004f1e4       ___acrt_GetModuleFileNameA 100501e4 f   libucrt:getmodulefilenamea.obj
 0001:0004f39c       ??$message_box@$$TABQBDABQBDK@?$__crt_char_traits@D@@SAH$$QA$$TABQBD1$$QAK@Z 1005039c f i libucrt:crtmbox.obj
 0001:0004f3c4       ??$message_box@$$TABQB_WABQB_WK@?$__crt_char_traits@_W@@SAH$$QA$$TABQB_W1$$QAK@Z 100503c4 f i libucrt:crtmbox.obj
 0001:0004f3ec       ??$message_box@PAUHWND__@@ABQBDABQBDABI@?$__crt_char_traits@D@@SAH$$QAPAUHWND__@@ABQBD1ABI@Z 100503ec f i libucrt:crtmbox.obj
 0001:0004f414       ??$message_box@PAUHWND__@@ABQB_WABQB_WABI@?$__crt_char_traits@_W@@SAH$$QAPAUHWND__@@ABQB_W1ABI@Z 10050414 f i libucrt:crtmbox.obj
 0001:0004f43c       ??$output_debug_string@ABQBD@?$__crt_char_traits@D@@SAXABQBD@Z 1005043c f i libucrt:crtmbox.obj
 0001:0004f451       ??$output_debug_string@ABQB_W@?$__crt_char_traits@_W@@SAXABQB_W@Z 10050451 f i libucrt:crtmbox.obj
 0001:0004f467       ___acrt_show_narrow_message_box 10050467 f   libucrt:crtmbox.obj
 0001:0004f474       ___acrt_show_wide_message_box 10050474 f   libucrt:crtmbox.obj
 0001:0004f683       _setvbuf                   10050683 f   libucrt:setvbuf.obj
 0001:0004f728       ??$?B$$A6AXH@Z@__crt_fast_encoded_nullptr_t@@QBEP6AXH@ZXZ 10050728 f i libucrt:signal.obj
 0001:0004f7e8       ??$__crt_fast_decode_pointer@P6AXH@Z@@YAP6AXH@ZQ6AXH@Z@Z 100507e8 f i libucrt:signal.obj
 0001:0004f803       ??$__crt_fast_encode_pointer@P6AXH@Z@@YAP6AXH@ZQ6AXH@Z@Z 10050803 f i libucrt:signal.obj
 0001:0004f9ad       ?initialize@?$dual_state_global@P6AXH@Z@__crt_state_management@@QAEXQ6AXH@Z@Z 100509ad f i libucrt:signal.obj
 0001:0004fa8b       ?value@?$dual_state_global@P6AXH@Z@__crt_state_management@@QAEAAP6AXH@ZXZ 10050a8b f i libucrt:signal.obj
 0001:0004fa8e       ___acrt_get_sigabrt_handler 10050a8e f   libucrt:signal.obj
 0001:0004fac1       ___acrt_initialize_signal_handlers 10050ac1 f   libucrt:signal.obj
 0001:0004fae6       ___fpecode                 10050ae6 f   libucrt:signal.obj
 0001:0004faf1       ___pxcptinfoptrs           10050af1 f   libucrt:signal.obj
 0001:0004fafc       _raise                     10050afc f   libucrt:signal.obj
 0001:0004fd7e       _signal                    10050d7e f   libucrt:signal.obj
 0001:0004ff9b       ??$__crt_fast_decode_pointer@P6AHPAU_exception@@@Z@@YAP6AHPAU_exception@@@ZQ6AH0@Z@Z 10050f9b f i libucrt:matherr.obj
 0001:0004ffb6       ??$__crt_fast_encode_pointer@P6AHPAU_exception@@@Z@@YAP6AHPAU_exception@@@ZQ6AH0@Z@Z 10050fb6 f i libucrt:matherr.obj
 0001:0004ffdc       ?initialize@?$dual_state_global@P6AHPAU_exception@@@Z@__crt_state_management@@QAEXQ6AHPAU_exception@@@Z@Z 10050fdc f i libucrt:matherr.obj
 0001:0005000b       ?value@?$dual_state_global@P6AHPAU_exception@@@Z@__crt_state_management@@QAEAAP6AHPAU_exception@@@ZXZ 1005100b f i libucrt:matherr.obj
 0001:0005000e       ___acrt_has_user_matherr   1005100e f   libucrt:matherr.obj
 0001:0005002c       ___acrt_initialize_user_matherr 1005102c f   libucrt:matherr.obj
 0001:0005003e       ___acrt_invoke_user_matherr 1005103e f   libucrt:matherr.obj
 0001:00050099       ___setusermatherr          10051099 f   libucrt:matherr.obj
 0001:00050ba4       ??$find_first_file_ex@ABQADW4_FINDEX_INFO_LEVELS@@PAU_WIN32_FIND_DATAA@@W4_FINDEX_SEARCH_OPS@@$$TH@?$__crt_char_traits@D@@SAPAXABQAD$$QAW4_FINDEX_INFO_LEVELS@@$$QAPAU_WIN32_FIND_DATAA@@$$QAW4_FINDEX_SEARCH_OPS@@$$QA$$T$$QAH@Z 10051ba4 f i libucrt:argv_wildcards.obj
 0001:00050bdc       ??$find_first_file_ex@ABQA_WW4_FINDEX_INFO_LEVELS@@PAU_WIN32_FIND_DATAW@@W4_FINDEX_SEARCH_OPS@@$$TH@?$__crt_char_traits@_W@@SAPAXABQA_W$$QAW4_FINDEX_INFO_LEVELS@@$$QAPAU_WIN32_FIND_DATAW@@$$QAW4_FINDEX_SEARCH_OPS@@$$QA$$T$$QAH@Z 10051bdc f i libucrt:argv_wildcards.obj
 0001:00050c11       ??$find_next_file@PAXPAU_WIN32_FIND_DATAA@@@?$__crt_char_traits@D@@SAH$$QAPAX$$QAPAU_WIN32_FIND_DATAA@@@Z 10051c11 f i libucrt:argv_wildcards.obj
 0001:00050c2f       ??$find_next_file@PAXPAU_WIN32_FIND_DATAW@@@?$__crt_char_traits@_W@@SAH$$QAPAX$$QAPAU_WIN32_FIND_DATAW@@@Z 10051c2f f i libucrt:argv_wildcards.obj
 0001:00050c4b       ??$tcsncpy_s@AAPADIAAPADABI@?$__crt_char_traits@D@@SAHAAPAD$$QAI0ABI@Z 10051c4b f i libucrt:argv_wildcards.obj
 0001:00050c76       ??$tcsncpy_s@AAPA_WIAAPA_WABI@?$__crt_char_traits@_W@@SAHAAPA_W$$QAI0ABI@Z 10051c76 f i libucrt:argv_wildcards.obj
 0001:00050ca1       ??$tcsncpy_s@PADABIABQBDABI@?$__crt_char_traits@D@@SAH$$QAPADABIABQBD1@Z 10051ca1 f i libucrt:argv_wildcards.obj
 0001:00050ccc       ??$tcsncpy_s@PADIABQBDABI@?$__crt_char_traits@D@@SAH$$QAPAD$$QAIABQBDABI@Z 10051ccc f i libucrt:argv_wildcards.obj
 0001:00050cf7       ??$tcsncpy_s@PA_WABIABQB_WABI@?$__crt_char_traits@_W@@SAH$$QAPA_WABIABQB_W1@Z 10051cf7 f i libucrt:argv_wildcards.obj
 0001:00050d22       ??$tcsncpy_s@PA_WIABQB_WABI@?$__crt_char_traits@_W@@SAH$$QAPA_W$$QAIABQB_WABI@Z 10051d22 f i libucrt:argv_wildcards.obj
 0001:00050d4d       ??$tcspbrk@AAPADAAY02$$CBD@?$__crt_char_traits@D@@SAPADAAPADAAY02$$CBD@Z 10051d4d f i libucrt:argv_wildcards.obj
 0001:00050d68       ??$tcspbrk@AAPA_WAAY02$$CB_W@?$__crt_char_traits@_W@@SAPA_WAAPA_WAAY02$$CB_W@Z 10051d68 f i libucrt:argv_wildcards.obj
 0001:00050d83       ??0?$__crt_unique_handle_t@U__crt_findfile_traits@@@@QAE@QAX@Z 10051d83 f i libucrt:argv_wildcards.obj
 0001:00050db7       ??1?$__crt_unique_handle_t@U__crt_findfile_traits@@@@QAE@XZ 10051db7 f i libucrt:argv_wildcards.obj
 0001:00050f61       ?close@?$__crt_unique_handle_t@U__crt_findfile_traits@@@@QAEXXZ 10051f61 f i libucrt:argv_wildcards.obj
 0001:00050f7d       ?close@__crt_findfile_traits@@SA_NPAX@Z 10051f7d f i libucrt:argv_wildcards.obj
 0001:000510ef       ?get@?$__crt_unique_handle_t@U__crt_findfile_traits@@@@QBEPAXXZ 100520ef f i libucrt:argv_wildcards.obj
 0001:000510f2       ?get_invalid_value@__crt_findfile_traits@@SAPAXXZ 100520f2 f i libucrt:argv_wildcards.obj
 0001:00051129       ?strpbrk@@YAPADQADQBD@Z    10052129 f i libucrt:argv_wildcards.obj
 0001:00051136       ?wcspbrk@@YAPA_WPA_WPB_W@Z 10052136 f i libucrt:argv_wildcards.obj
 0001:00051143       ___acrt_expand_narrow_argv_wildcards 10052143 f   libucrt:argv_wildcards.obj
 0001:00051150       ___acrt_expand_wide_argv_wildcards 10052150 f   libucrt:argv_wildcards.obj
 0001:000511e2       ??$initialize_from_array@$$BY10BAA@E@?$dual_state_global@PAE@__crt_state_management@@QAAXAAY10BAA@E@Z 100521e2 f i libucrt:mbctype.obj
 0001:000511f4       ??$initialize_from_array@$$BY10BAB@E@?$dual_state_global@PAE@__crt_state_management@@QAAXAAY10BAB@E@Z 100521f4 f i libucrt:mbctype.obj
 0001:00051353       ?dangerous_get_state_array@?$dual_state_global@PAE@__crt_state_management@@QAEPAPAEXZ 10052353 f i libucrt:mbctype.obj
 0001:00051356       ?dangerous_get_state_array@?$dual_state_global@PAU__crt_multibyte_data@@@__crt_state_management@@QAEPAPAU__crt_multibyte_data@@XZ 10052356 f i libucrt:mbctype.obj
 0001:000513e8       ?initialize@?$dual_state_global@PAU__crt_multibyte_data@@@__crt_state_management@@QAEXQAU__crt_multibyte_data@@@Z 100523e8 f i libucrt:mbctype.obj
 0001:000518d7       ?value@?$dual_state_global@PAE@__crt_state_management@@QAEAAPAEXZ 100528d7 f i libucrt:mbctype.obj
 0001:000518da       ___acrt_initialize_multibyte 100528da f   libucrt:mbctype.obj
 0001:00051934       ___acrt_update_thread_multibyte_data 10052934 f   libucrt:mbctype.obj
 0001:0005194b       ___p__mbcasemap            1005294b f   libucrt:mbctype.obj
 0001:00051951       ___p__mbctype              10052951 f   libucrt:mbctype.obj
 0001:00051957       __getmbcp                  10052957 f   libucrt:mbctype.obj
 0001:0005199a       __setmbcp                  1005299a f   libucrt:mbctype.obj
 0001:000519c0       __setmbcp_nolock           100529c0 f   libucrt:mbctype.obj
 0001:00051d49       __ismbbalnum               10052d49 f   libucrt:ismbbyte.obj
 0001:00051d6a       __ismbbalnum_l             10052d6a f   libucrt:ismbbyte.obj
 0001:00051d8d       __ismbbalpha               10052d8d f   libucrt:ismbbyte.obj
 0001:00051dae       __ismbbalpha_l             10052dae f   libucrt:ismbbyte.obj
 0001:00051dd1       __ismbbblank               10052dd1 f   libucrt:ismbbyte.obj
 0001:00051dfc       __ismbbblank_l             10052dfc f   libucrt:ismbbyte.obj
 0001:00051e29       __ismbbgraph               10052e29 f   libucrt:ismbbyte.obj
 0001:00051e4a       __ismbbgraph_l             10052e4a f   libucrt:ismbbyte.obj
 0001:00051e6d       __ismbbkalnum              10052e6d f   libucrt:ismbbyte.obj
 0001:00051e8b       __ismbbkalnum_l            10052e8b f   libucrt:ismbbyte.obj
 0001:00051eaa       __ismbbkana                10052eaa f   libucrt:ismbbyte.obj
 0001:00051ec1       __ismbbkana_l              10052ec1 f   libucrt:ismbbyte.obj
 0001:00051f26       __ismbbkprint              10052f26 f   libucrt:ismbbyte.obj
 0001:00051f44       __ismbbkprint_l            10052f44 f   libucrt:ismbbyte.obj
 0001:00051f63       __ismbbkpunct              10052f63 f   libucrt:ismbbyte.obj
 0001:00051f81       __ismbbkpunct_l            10052f81 f   libucrt:ismbbyte.obj
 0001:00051fa0       __ismbblead                10052fa0 f   libucrt:ismbbyte.obj
 0001:00051fbe       __ismbblead_l              10052fbe f   libucrt:ismbbyte.obj
 0001:00051fdd       __ismbbprint               10052fdd f   libucrt:ismbbyte.obj
 0001:00051ffe       __ismbbprint_l             10052ffe f   libucrt:ismbbyte.obj
 0001:00052021       __ismbbpunct               10053021 f   libucrt:ismbbyte.obj
 0001:0005203f       __ismbbpunct_l             1005303f f   libucrt:ismbbyte.obj
 0001:0005205e       __ismbbtrail               1005305e f   libucrt:ismbbyte.obj
 0001:0005207c       __ismbbtrail_l             1005307c f   libucrt:ismbbyte.obj
 0001:0005209b       ___acrt_initialize_command_line 1005309b f   libucrt:argv_data.obj
 0001:000520ba       ___acrt_uninitialize_command_line 100530ba f   libucrt:argv_data.obj
 0001:000520bd       ___p___argc                100530bd f   libucrt:argv_data.obj
 0001:000520c3       ___p___argv                100530c3 f   libucrt:argv_data.obj
 0001:000520c9       ___p___wargv               100530c9 f   libucrt:argv_data.obj
 0001:000520cf       ___p__acmdln               100530cf f   libucrt:argv_data.obj
 0001:000520d5       ___p__pgmptr               100530d5 f   libucrt:argv_data.obj
 0001:000520db       ___p__wcmdln               100530db f   libucrt:argv_data.obj
 0001:000520e1       ___p__wpgmptr              100530e1 f   libucrt:argv_data.obj
 0001:000520e7       __get_pgmptr               100530e7 f   libucrt:argv_data.obj
 0001:00052124       __get_wpgmptr              10053124 f   libucrt:argv_data.obj
 0001:000521df       ___acrt_WideCharToMultiByte 100531df f   libucrt:widechartomultibyte.obj
 0001:00052371       ___dcrt_get_narrow_environment_from_os 10053371 f   libucrt:get_environment_from_os.obj
 0001:00052418       ___dcrt_get_wide_environment_from_os 10053418 f   libucrt:get_environment_from_os.obj
 0001:00052d1c       ??$get_or_create_environment_nolock@$$V@?$__crt_char_traits@D@@SAPAPADXZ 10053d1c f i libucrt:setenv.obj
 0001:00052d21       ??$get_or_create_environment_nolock@$$V@?$__crt_char_traits@_W@@SAPAPA_WXZ 10053d21 f i libucrt:setenv.obj
 0001:00052d26       ??$set_environment_variable@ABQADQAD@?$__crt_char_traits@D@@SAHABQAD$$QBQAD@Z 10053d26 f i libucrt:setenv.obj
 0001:00052d44       ??$set_environment_variable@ABQA_WQA_W@?$__crt_char_traits@_W@@SAHABQA_W$$QBQA_W@Z 10053d44 f i libucrt:setenv.obj
 0001:00052d60       ??$tcschr@ABQADD@?$__crt_char_traits@D@@SAPADABQAD$$QAD@Z 10053d60 f i libucrt:setenv.obj
 0001:00052d80       ??$tcschr@ABQA_WD@?$__crt_char_traits@_W@@SAPA_WABQA_W$$QAD@Z 10053d80 f i libucrt:setenv.obj
 0001:00052da5       ??$tcscpy_s@AAPADABIAAPAD@?$__crt_char_traits@D@@SAHAAPADABI0@Z 10053da5 f i libucrt:setenv.obj
 0001:00052dca       ??$tcscpy_s@AAPA_WABIAAPA_W@?$__crt_char_traits@_W@@SAHAAPA_WABI0@Z 10053dca f i libucrt:setenv.obj
 0001:00052def       ??$tcscpy_s@ABQADABIABQAD@?$__crt_char_traits@D@@SAHABQADABI0@Z 10053def f i libucrt:setenv.obj
 0001:00052e14       ??$tcscpy_s@ABQA_WABIABQA_W@?$__crt_char_traits@_W@@SAHABQA_WABI0@Z 10053e14 f i libucrt:setenv.obj
 0001:00052e39       ??$tcsnicoll@ABQBDAAPADABI@?$__crt_char_traits@D@@SAHABQBDAAPADABI@Z 10053e39 f i libucrt:setenv.obj
 0001:00052e5e       ??$tcsnicoll@ABQB_WAAPA_WABI@?$__crt_char_traits@_W@@SAHABQB_WAAPA_WABI@Z 10053e5e f i libucrt:setenv.obj
 0001:00052ea7       ?strchr@@YAPADQADH@Z       10053ea7 f i libucrt:setenv.obj
 0001:00052eb4       ?wcschr@@YAPA_WPA_W_W@Z    10053eb4 f i libucrt:setenv.obj
 0001:00052ec1       ___dcrt_set_variable_in_narrow_environment_nolock 10053ec1 f   libucrt:setenv.obj
 0001:00052ece       ___dcrt_set_variable_in_wide_environment_nolock 10053ece f   libucrt:setenv.obj
 0001:00052edb       __recalloc                 10053edb f   libucrt:recalloc.obj
 0001:00052ee8       __recalloc_base            10053ee8 f   libucrt:recalloc.obj
 0001:00052f70       ___acrt_getheap            10053f70 f   libucrt:heap_handle.obj
 0001:00052f76       ___acrt_initialize_heap    10053f76 f   libucrt:heap_handle.obj
 0001:00052f8b       ___acrt_uninitialize_heap  10053f8b f   libucrt:heap_handle.obj
 0001:00052f97       __get_heap_handle          10053f97 f   libucrt:heap_handle.obj
 0001:00052f9d       ___acrt_execute_initializers 10053f9d f   libucrt:shared_initialization.obj
 0001:00053040       ___acrt_execute_uninitializers 10054040 f   libucrt:shared_initialization.obj
 0001:0005309a       ??$?B$$A6AHI@Z@__crt_fast_encoded_nullptr_t@@QBEP6AHI@ZXZ 1005409a f i libucrt:new_handler.obj
 0001:000530b8       ??$__crt_fast_decode_pointer@P6AHI@Z@@YAP6AHI@ZQ6AHI@Z@Z 100540b8 f i libucrt:new_handler.obj
 0001:000530d3       ??$__crt_fast_encode_pointer@P6AHI@Z@@YAP6AHI@ZQ6AHI@Z@Z 100540d3 f i libucrt:new_handler.obj
 0001:000530f9       ?_set_new_handler@@YAP6AHI@ZH@Z 100540f9 f   libucrt:new_handler.obj
 0001:0005311f       ?initialize@?$dual_state_global@P6AHI@Z@__crt_state_management@@QAEXQ6AHI@Z@Z 1005411f f i libucrt:new_handler.obj
 0001:0005314e       ?value@?$dual_state_global@P6AHI@Z@__crt_state_management@@QAEAAP6AHI@ZXZ 1005414e f i libucrt:new_handler.obj
 0001:00053151       ___acrt_initialize_new_handler 10054151 f   libucrt:new_handler.obj
 0001:00053163       __callnewh                 10054163 f   libucrt:new_handler.obj
 0001:000531b8       __query_new_handler        100541b8 f   libucrt:new_handler.obj
 0001:0005321e       __set_new_handler          1005421e f   libucrt:new_handler.obj
 0001:00053296       ___pctype_func             10054296 f   libucrt:ctype.obj
 0001:000532c5       ___pwctype_func            100542c5 f   libucrt:ctype.obj
 0001:000532cb       __iswctype_l               100542cb f   libucrt:iswctype.obj
 0001:000532e4       _iswctype                  100542e4 f   libucrt:iswctype.obj
 0001:00053369       __isctype                  10054369 f   libucrt:isctype.obj
 0001:000533a7       __isctype_l                100543a7 f   libucrt:isctype.obj
 0001:000534b5       ?value@?$dual_state_global@J@__crt_state_management@@QAEAAJXZ 100544b5 f i libucrt:new_mode.obj
 0001:000534b8       __query_new_mode           100544b8 f   libucrt:new_mode.obj
 0001:000534be       __set_new_mode             100544be f   libucrt:new_mode.obj
 0001:000536a4       ___acrt_DownlevelLCIDToLocaleName 100546a4 f   libucrt:lcidtoname_downlevel.obj
 0001:00053778       ___acrt_DownlevelLocaleNameToLCID 10054778 f   libucrt:lcidtoname_downlevel.obj
 0001:0005395f       __commit                   1005495f f   libucrt:commit.obj
 0001:000539fd       ??$?RU__crt_lowio_handle_data@@@__crt_internal_free_policy@@QBEXQBU__crt_lowio_handle_data@@@Z 100549fd f i libucrt:osfinfo.obj
 0001:00053a13       ??0?$__crt_unique_heap_ptr@U__crt_lowio_handle_data@@U__crt_internal_free_policy@@@@QAE@QAU__crt_lowio_handle_data@@@Z 10054a13 f i libucrt:osfinfo.obj
 0001:00053a27       ??1?$__crt_unique_heap_ptr@U__crt_lowio_handle_data@@U__crt_internal_free_policy@@@@QAE@XZ 10054a27 f i libucrt:osfinfo.obj
 0001:00053a3d       ??B?$__crt_unique_heap_ptr@U__crt_lowio_handle_data@@U__crt_internal_free_policy@@@@QBE_NXZ 10054a3d f i libucrt:osfinfo.obj
 0001:00053a44       ?detach@?$__crt_unique_heap_ptr@U__crt_lowio_handle_data@@U__crt_internal_free_policy@@@@QAEPAU__crt_lowio_handle_data@@XZ 10054a44 f i libucrt:osfinfo.obj
 0001:00053a4a       ?get@?$__crt_unique_heap_ptr@U__crt_lowio_handle_data@@U__crt_internal_free_policy@@@@QBEPAU__crt_lowio_handle_data@@XZ 10054a4a f i libucrt:osfinfo.obj
 0001:00053a4d       ?is_valid@?$__crt_unique_heap_ptr@U__crt_lowio_handle_data@@U__crt_internal_free_policy@@@@QBE_NXZ 10054a4d f i libucrt:osfinfo.obj
 0001:00053a54       ?release@?$__crt_unique_heap_ptr@U__crt_lowio_handle_data@@U__crt_internal_free_policy@@@@QAEXXZ 10054a54 f i libucrt:osfinfo.obj
 0001:00053a6a       ___acrt_lowio_create_handle_array 10054a6a f   libucrt:osfinfo.obj
 0001:00053b02       ___acrt_lowio_destroy_handle_array 10054b02 f   libucrt:osfinfo.obj
 0001:00053b44       ___acrt_lowio_ensure_fh_exists 10054b44 f   libucrt:osfinfo.obj
 0001:00053bfd       ___acrt_lowio_lock_fh      10054bfd f   libucrt:osfinfo.obj
 0001:00053c28       ___acrt_lowio_set_os_handle 10054c28 f   libucrt:osfinfo.obj
 0001:00053ce1       ___acrt_lowio_unlock_fh    10054ce1 f   libucrt:osfinfo.obj
 0001:00053d0c       __alloc_osfhnd             10054d0c f   libucrt:osfinfo.obj
 0001:00053e57       __free_osfhnd              10054e57 f   libucrt:osfinfo.obj
 0001:00053f0c       __get_osfhandle            10054f0c f   libucrt:osfinfo.obj
 0001:00053f90       __open_osfhandle           10054f90 f   libucrt:osfinfo.obj
 0001:000540df       ___iswcsym                 100550df f i libucrt:_wctype.obj
 0001:0005410e       ___iswcsymf                1005510e f i libucrt:_wctype.obj
 0001:0005413d       __isleadbyte_l             1005513d f i libucrt:_wctype.obj
 0001:00054184       __iswalnum_l               10055184 f i libucrt:_wctype.obj
 0001:0005419f       __iswalpha_l               1005519f f i libucrt:_wctype.obj
 0001:000541ba       __iswblank_l               100551ba f i libucrt:_wctype.obj
 0001:000541de       __iswcntrl_l               100551de f i libucrt:_wctype.obj
 0001:000541f5       __iswcsym_l                100551f5 f i libucrt:_wctype.obj
 0001:00054224       __iswcsymf_l               10055224 f i libucrt:_wctype.obj
 0001:00054253       __iswdigit_l               10055253 f i libucrt:_wctype.obj
 0001:0005426a       __iswgraph_l               1005526a f i libucrt:_wctype.obj
 0001:00054285       __iswlower_l               10055285 f i libucrt:_wctype.obj
 0001:0005429c       __iswprint_l               1005529c f i libucrt:_wctype.obj
 0001:000542b7       __iswpunct_l               100552b7 f i libucrt:_wctype.obj
 0001:000542ce       __iswspace_l               100552ce f i libucrt:_wctype.obj
 0001:000542e5       __iswupper_l               100552e5 f i libucrt:_wctype.obj
 0001:000542fc       __iswxdigit_l              100552fc f i libucrt:_wctype.obj
 0001:00054317       _isleadbyte                10055317 f i libucrt:_wctype.obj
 0001:0005432e       _iswalnum                  1005532e f i libucrt:_wctype.obj
 0001:00054349       _iswalpha                  10055349 f i libucrt:_wctype.obj
 0001:00054364       _iswascii                  10055364 f i libucrt:_wctype.obj
 0001:0005437d       _iswblank                  1005537d f i libucrt:_wctype.obj
 0001:000543a1       _iswcntrl                  100553a1 f i libucrt:_wctype.obj
 0001:000543b8       _iswdigit                  100553b8 f i libucrt:_wctype.obj
 0001:000543cf       _iswgraph                  100553cf f i libucrt:_wctype.obj
 0001:000543ea       _iswlower                  100553ea f i libucrt:_wctype.obj
 0001:00054401       _iswprint                  10055401 f i libucrt:_wctype.obj
 0001:0005441c       _iswpunct                  1005541c f i libucrt:_wctype.obj
 0001:00054433       _iswspace                  10055433 f i libucrt:_wctype.obj
 0001:0005444a       _iswupper                  1005544a f i libucrt:_wctype.obj
 0001:00054461       _iswxdigit                 10055461 f i libucrt:_wctype.obj
 0001:0005447c       ??0?$__crt_scoped_stack_ptr@_W@@QAE@U?$__crt_scoped_stack_ptr_tag@_W@@@Z 1005547c f i libucrt:lcmapstringa.obj
 0001:00054490       ??0?$__crt_scoped_stack_ptr_tag@_W@@QAE@QA_W@Z 10055490 f i libucrt:lcmapstringa.obj
 0001:000544a4       ??1?$__crt_scoped_stack_ptr@_W@@QAE@XZ 100554a4 f i libucrt:lcmapstringa.obj
 0001:000544af       ??B?$__crt_scoped_stack_ptr@_W@@QBE_NXZ 100554af f i libucrt:lcmapstringa.obj
 0001:0005471d       ?get@?$__crt_scoped_stack_ptr@_W@@QBEPA_WXZ 1005571d f i libucrt:lcmapstringa.obj
 0001:00054720       __MallocaComputeSize       10055720 f i libucrt:lcmapstringa.obj
 0001:00054737       __MarkAllocaS              10055737 f i libucrt:lcmapstringa.obj
 0001:00054752       ___acrt_LCMapStringA       10055752 f   libucrt:lcmapstringa.obj
 0001:000547af       __freea_crt                100557af f i libucrt:lcmapstringa.obj
 0001:0005480e       ?__mbrtowc_utf8@__crt_mbstring@@YAIPA_WPBDIPAU_Mbstatet@@@Z 1005580e f   libucrt:mbrtowc.obj
 0001:00054860       ?__mbsrtowcs_utf8@__crt_mbstring@@YAIPA_WPAPBDIPAU_Mbstatet@@@Z 10055860 f   libucrt:mbrtowc.obj
 0001:00054d7d       _btowc                     10055d7d f   libucrt:mbrtowc.obj
 0001:00054ded       _mbrlen                    10055ded f   libucrt:mbrtowc.obj
 0001:00054e2e       _mbrtowc                   10055e2e f   libucrt:mbrtowc.obj
 0001:00054e95       _mbsrtowcs                 10055e95 f   libucrt:mbrtowc.obj
 0001:00054ea2       _mbsrtowcs_s               10055ea2 f   libucrt:mbrtowc.obj
 0001:00054f6d       ??$?RG@__crt_internal_free_policy@@QBEXQBG@Z 10055f6d f i libucrt:initctype.obj
 0001:00054f83       ??$?RJ@__crt_internal_free_policy@@QBEXQBJ@Z 10055f83 f i libucrt:initctype.obj
 0001:00054f99       ??0?$__crt_unique_heap_ptr@GU__crt_internal_free_policy@@@@QAE@QAG@Z 10055f99 f i libucrt:initctype.obj
 0001:00054fad       ??0?$__crt_unique_heap_ptr@JU__crt_internal_free_policy@@@@QAE@QAJ@Z 10055fad f i libucrt:initctype.obj
 0001:00054fc1       ??1?$__crt_unique_heap_ptr@GU__crt_internal_free_policy@@@@QAE@XZ 10055fc1 f i libucrt:initctype.obj
 0001:00054fd7       ??1?$__crt_unique_heap_ptr@JU__crt_internal_free_policy@@@@QAE@XZ 10055fd7 f i libucrt:initctype.obj
 0001:00054fed       ?detach@?$__crt_unique_heap_ptr@GU__crt_internal_free_policy@@@@QAEPAGXZ 10055fed f i libucrt:initctype.obj
 0001:00054ff3       ?detach@?$__crt_unique_heap_ptr@JU__crt_internal_free_policy@@@@QAEPAJXZ 10055ff3 f i libucrt:initctype.obj
 0001:00054ff9       ?release@?$__crt_unique_heap_ptr@GU__crt_internal_free_policy@@@@QAEXXZ 10055ff9 f i libucrt:initctype.obj
 0001:0005500f       ?release@?$__crt_unique_heap_ptr@JU__crt_internal_free_policy@@@@QAEXXZ 1005600f f i libucrt:initctype.obj
 0001:00055025       ____lc_codepage_func       10056025 f   libucrt:initctype.obj
 0001:00055055       ____lc_collate_cp_func     10056055 f   libucrt:initctype.obj
 0001:00055085       ____lc_locale_name_func    10056085 f   libucrt:initctype.obj
 0001:000550b8       ____mb_cur_max_func        100560b8 f   libucrt:initctype.obj
 0001:000550e8       ____mb_cur_max_l_func      100560e8 f   libucrt:initctype.obj
 0001:00055107       ___acrt_locale_initialize_ctype 10056107 f   libucrt:initctype.obj
 0001:00055648       ___acrt_add_locale_ref     10056648 f   libucrt:locale_refcounting.obj
 0001:000556e4       ___acrt_free_locale        100566e4 f   libucrt:locale_refcounting.obj
 0001:00055880       ___acrt_locale_add_lc_time_reference 10056880 f   libucrt:locale_refcounting.obj
 0001:000558b3       ___acrt_locale_free_lc_time_if_unreferenced 100568b3 f   libucrt:locale_refcounting.obj
 0001:000558ef       ___acrt_locale_release_lc_time_reference 100568ef f   libucrt:locale_refcounting.obj
 0001:00055922       ___acrt_release_locale_ref 10056922 f   libucrt:locale_refcounting.obj
 0001:000559c3       ___acrt_update_thread_locale_data 100569c3 f   libucrt:locale_refcounting.obj
 0001:00055a57       __updatetlocinfoEx_nolock  10056a57 f   libucrt:locale_refcounting.obj
 0001:00055abb       ___acrt_fp_strflt_to_string 10056abb f   libucrt:_fptostr.obj
 0001:000573e0       ??0big_integer@__crt_strtox@@QAE@ABU01@@Z 100583e0 f i libucrt:cfout.obj
 0001:00057420       ??0big_integer@__crt_strtox@@QAE@XZ 10058420 f i libucrt:cfout.obj
 0001:00057480       ??4big_integer@__crt_strtox@@QAEAAU01@ABU01@@Z 10058480 f i libucrt:cfout.obj
 0001:000574c0       ??8__crt_strtox@@YA_NABUbig_integer@0@0@Z 100584c0 f i libucrt:cfout.obj
 0001:00057510       ??9__crt_strtox@@YA_NABUbig_integer@0@0@Z 10058510 f i libucrt:cfout.obj
 0001:00057560       ?add_carry@__crt_strtox@@YAIAAIII@Z 10058560 f i libucrt:cfout.obj
 0001:00057590       ?add_multiply_carry@__crt_strtox@@YAIAAIIII@Z 10058590 f i libucrt:cfout.obj
 0001:000575c0       ?bit_scan_reverse@__crt_strtox@@YAII@Z 100585c0 f i libucrt:cfout.obj
 0001:000575f0       ?count_sequential_high_zeroes@__crt_strtox@@YAII@Z 100585f0 f i libucrt:cfout.obj
 0001:00057620       ?divide@__crt_strtox@@YA_KAAUbig_integer@1@ABU21@@Z 10058620 f i libucrt:cfout.obj
 0001:00057bd0       ?is_zero@__crt_strtox@@YA_NABUbig_integer@1@@Z 10058bd0 f i libucrt:cfout.obj
 0001:00057bf0       ?make_big_integer@__crt_strtox@@YA?AUbig_integer@1@_K@Z 10058bf0 f i libucrt:cfout.obj
 0001:00057c20       ?make_big_integer_power_of_two@__crt_strtox@@YA?AUbig_integer@1@I@Z 10058c20 f i libucrt:cfout.obj
 0001:00057c80       ?multiply@__crt_strtox@@YA_NAAUbig_integer@1@ABU21@@Z 10058c80 f i libucrt:cfout.obj
 0001:00058090       ?multiply@__crt_strtox@@YA_NAAUbig_integer@1@I@Z 10059090 f i libucrt:cfout.obj
 0001:00058190       ?multiply_64_32@__crt_strtox@@YA_K_KI@Z 10059190 f i libucrt:cfout.obj
 0001:000581b0       ?multiply_by_power_of_ten@__crt_strtox@@YA_NAAUbig_integer@1@I@Z 100591b0 f i libucrt:cfout.obj
 0001:00058820       ?multiply_core@__crt_strtox@@YAIQAIII@Z 10059820 f i libucrt:cfout.obj
 0001:00058870       ?shift_left@__crt_strtox@@YA_NAAUbig_integer@1@I@Z 10059870 f i libucrt:cfout.obj
 0001:00058a1b       ___acrt_fltout             10059a1b f   libucrt:cfout.obj
 0001:0005a306       __isatty                   1005b306 f   libucrt:isatty.obj
 0001:0005a371       ??$?RUlconv@@@__crt_internal_free_policy@@QBEXQBUlconv@@@Z 1005b371 f i libucrt:initmon.obj
 0001:0005a387       ??0?$__crt_unique_heap_ptr@Ulconv@@U__crt_internal_free_policy@@@@QAE@QAUlconv@@@Z 1005b387 f i libucrt:initmon.obj
 0001:0005a39b       ??1?$__crt_unique_heap_ptr@Ulconv@@U__crt_internal_free_policy@@@@QAE@XZ 1005b39b f i libucrt:initmon.obj
 0001:0005a3b1       ?detach@?$__crt_unique_heap_ptr@Ulconv@@U__crt_internal_free_policy@@@@QAEPAUlconv@@XZ 1005b3b1 f i libucrt:initmon.obj
 0001:0005a3b7       ?release@?$__crt_unique_heap_ptr@Ulconv@@U__crt_internal_free_policy@@@@QAEXXZ 1005b3b7 f i libucrt:initmon.obj
 0001:0005a3cd       ___acrt_locale_free_monetary 1005b3cd f   libucrt:initmon.obj
 0001:0005a50a       ___acrt_locale_initialize_monetary 1005b50a f   libucrt:initmon.obj
 0001:0005a9f7       ___acrt_locale_free_numeric 1005b9f7 f   libucrt:initnum.obj
 0001:0005aa7a       ___acrt_locale_initialize_numeric 1005ba7a f   libucrt:initnum.obj
 0001:0005ad55       ??$?RU__crt_lc_time_data@@@__crt_internal_free_policy@@QBEXQBU__crt_lc_time_data@@@Z 1005bd55 f i libucrt:inittime.obj
 0001:0005adf5       ??0?$__crt_unique_heap_ptr@U__crt_lc_time_data@@U__crt_internal_free_policy@@@@QAE@QAU__crt_lc_time_data@@@Z 1005bdf5 f i libucrt:inittime.obj
 0001:0005ae09       ??1?$__crt_unique_heap_ptr@U__crt_lc_time_data@@U__crt_internal_free_policy@@@@QAE@XZ 1005be09 f i libucrt:inittime.obj
 0001:0005ae1f       ??B?$__crt_unique_heap_ptr@U__crt_lc_time_data@@U__crt_internal_free_policy@@@@QBE_NXZ 1005be1f f i libucrt:inittime.obj
 0001:0005ae26       ?detach@?$__crt_unique_heap_ptr@U__crt_lc_time_data@@U__crt_internal_free_policy@@@@QAEPAU__crt_lc_time_data@@XZ 1005be26 f i libucrt:inittime.obj
 0001:0005ae72       ?get@?$__crt_unique_heap_ptr@U__crt_lc_time_data@@U__crt_internal_free_policy@@@@QBEPAU__crt_lc_time_data@@XZ 1005be72 f i libucrt:inittime.obj
 0001:0005b20b       ?is_valid@?$__crt_unique_heap_ptr@U__crt_lc_time_data@@U__crt_internal_free_policy@@@@QBE_NXZ 1005c20b f i libucrt:inittime.obj
 0001:0005b212       ?release@?$__crt_unique_heap_ptr@U__crt_lc_time_data@@U__crt_internal_free_policy@@@@QAEXXZ 1005c212 f i libucrt:inittime.obj
 0001:0005b228       ___acrt_locale_free_time   1005c228 f   libucrt:inittime.obj
 0001:0005b345       ___acrt_locale_initialize_time 1005c345 f   libucrt:inittime.obj
 0001:0005b4dd       _wcsncpy_s                 1005c4dd f   libucrt:wcsncpy_s.obj
 0001:0005b4ea       _wcscspn                   1005c4ea f   libucrt:wcscspn.obj
 0001:0005b55b       _wcspbrk                   1005c55b f   libucrt:wcspbrk.obj
 0001:0005b5bc       __wcsicmp                  1005c5bc f   libucrt:wcsicmp.obj
 0001:0005b66d       __wcsicmp_l                1005c66d f   libucrt:wcsicmp.obj
 0001:0005b781       ___acrt_GetStringTypeA     1005c781 f   libucrt:getstringtypea.obj
 0001:0005c1f6       ___acrt_get_qualified_locale 1005d1f6 f   libucrt:get_qualified_locale.obj
 0001:0005cde4       ___acrt_get_qualified_locale_downlevel 1005dde4 f   libucrt:getqloc_downlevel.obj
 0001:0005d058       _localeconv                1005e058 f   libucrt:localeconv.obj
 0001:0005d08c       __wcsnicmp                 1005e08c f   libucrt:wcsnicmp.obj
 0001:0005d169       __wcsnicmp_l               1005e169 f   libucrt:wcsnicmp.obj
 0001:0005d2a5       __strnicmp                 1005e2a5 f   libucrt:strnicmp.obj
 0001:0005d32d       __strnicmp_l               1005e32d f   libucrt:strnicmp.obj
 0001:0005d4b6       ??$__vcrt_va_start_verify_argument_type@$$CBH@@YAXXZ 1005e4b6 f i libucrt:open.obj
 0001:0005d827       ??$tsopen_nolock@PAHABQAHABQBDABHABHABHABH@?$__crt_char_traits@D@@SAH$$QAPAHABQAHABQBDABH333@Z 1005e827 f i libucrt:open.obj
 0001:0005d865       ??$tsopen_nolock@PAHABQAHABQB_WABHABHABHABH@?$__crt_char_traits@_W@@SAH$$QAPAHABQAHABQB_WABH333@Z 1005e865 f i libucrt:open.obj
 0001:0005d8a3       ??$tsopen_nolock@PAHPAHABQBDABHHABHH@?$__crt_char_traits@D@@SAH$$QAPAH0ABQBDABH$$QAH23@Z 1005e8a3 f i libucrt:open.obj
 0001:0005d8e1       ??$tsopen_nolock@PAHPAHABQB_WABHHABHH@?$__crt_char_traits@_W@@SAH$$QAPAH0ABQB_WABH$$QAH23@Z 1005e8e1 f i libucrt:open.obj
 0001:0005e0d3       __open                     1005f0d3 f   libucrt:open.obj
 0001:0005e0f1       __sopen                    1005f0f1 f   libucrt:open.obj
 0001:0005e133       __sopen_dispatch           1005f133 f   libucrt:open.obj
 0001:0005e140       __sopen_nolock             1005f140 f   libucrt:open.obj
 0001:0005e1cc       __sopen_s                  1005f1cc f   libucrt:open.obj
 0001:0005e1f4       __wopen                    1005f1f4 f   libucrt:open.obj
 0001:0005e212       __wsopen                   1005f212 f   libucrt:open.obj
 0001:0005e254       __wsopen_dispatch          1005f254 f   libucrt:open.obj
 0001:0005e261       __wsopen_nolock            1005f261 f   libucrt:open.obj
 0001:0005e658       __wsopen_s                 1005f658 f   libucrt:open.obj
 0001:0005e680       ___p__commode              1005f680 f   libucrt:ncommode.obj
 0001:0005e686       ___acrt_stdio_allocate_buffer_nolock 1005f686 f   libucrt:_getbuf.obj
 0001:0005e802       __putwch                   1005f802 f   libucrt:putwch.obj
 0001:0005e83c       __putwch_nolock            1005f83c f   libucrt:putwch.obj
 0001:0005e87d       _nextafter                 1005f87d f   libucrt:nextafter.obj
 0001:0005eab1       __mbstowcs_l               1005fab1 f   libucrt:mbstowcs.obj
 0001:0005eabe       __mbstowcs_s_l             1005fabe f   libucrt:mbstowcs.obj
 0001:0005ebd8       _mbstowcs                  1005fbd8 f   libucrt:mbstowcs.obj
 0001:0005ec0c       _mbstowcs_s                1005fc0c f   libucrt:mbstowcs.obj
 0001:0005ec34       ___acrt_OutputDebugStringA@4 1005fc34 f   libucrt:outputdebugstringa.obj
 0001:0005ede0       _qsort                     1005fde0 f   libucrt:qsort.obj
 0001:0005f411       _strncpy_s                 10060411 f   libucrt:strncpy_s.obj
 0001:0005f420       _strpbrk                   10060420 f   libucrt:strpbrk.obj
 0001:0005f470       ??$__acrt_convert_wcs_mbs@D_W$$A6AIPA_WPBDIPAU__crt_locale_pointers@@@ZU__crt_win32_buffer_internal_dynamic_resizing@@@@YAHQBDAAV?$__crt_win32_buffer@_WU__crt_win32_buffer_internal_dynamic_resizing@@@@A6AIPA_WPBDIPAU__crt_locale_pointers@@@Z4@Z 10060470 f i libucrt:findfirstfileexa.obj
 0001:0005f539       ??$__acrt_mbs_to_wcs@U__crt_win32_buffer_internal_dynamic_resizing@@@@YAHQBDAAV?$__crt_win32_buffer@_WU__crt_win32_buffer_internal_dynamic_resizing@@@@PAU__crt_locale_pointers@@@Z 10060539 f i libucrt:findfirstfileexa.obj
 0001:0005f55d       ?set_to_nullptr@?$__crt_win32_buffer@_WU__crt_win32_buffer_internal_dynamic_resizing@@@@QAEXXZ 1006055d f i libucrt:findfirstfileexa.obj
 0001:0005f579       ___acrt_FindFirstFileExA   10060579 f   libucrt:findfirstfileexa.obj
 0001:0005f5f8       ??$?0$0BAE@@?$__crt_win32_buffer@DU__crt_win32_buffer_no_resizing@@@@QAE@AAY0BAE@D@Z 100605f8 f i libucrt:findnextfilea.obj
 0001:0005f627       ??$?0$0O@@?$__crt_win32_buffer@DU__crt_win32_buffer_no_resizing@@@@QAE@AAY0O@D@Z 10060627 f i libucrt:findnextfilea.obj
 0001:0005f654       ??$__acrt_convert_wcs_mbs@_WD$$A6AIPADPB_WIPAU__crt_locale_pointers@@@ZU__crt_win32_buffer_no_resizing@@@@YAHQB_WAAV?$__crt_win32_buffer@DU__crt_win32_buffer_no_resizing@@@@A6AIPADPB_WIPAU__crt_locale_pointers@@@Z4@Z 10060654 f i libucrt:findnextfilea.obj
 0001:0005f71e       ??$__acrt_wcs_to_mbs@U__crt_win32_buffer_no_resizing@@@@YAHQB_WAAV?$__crt_win32_buffer@DU__crt_win32_buffer_no_resizing@@@@PAU__crt_locale_pointers@@@Z 1006071e f i libucrt:findnextfilea.obj
 0001:0005f742       ??1?$__crt_win32_buffer@DU__crt_win32_buffer_no_resizing@@@@QAE@XZ 10060742 f i libucrt:findnextfilea.obj
 0001:0005f74f       ?_deallocate@?$__crt_win32_buffer@DU__crt_win32_buffer_no_resizing@@@@AAEXXZ 1006074f f i libucrt:findnextfilea.obj
 0001:0005f75c       ?allocate@?$__crt_win32_buffer@DU__crt_win32_buffer_no_resizing@@@@QAEHI@Z 1006075c f i libucrt:findnextfilea.obj
 0001:0005f78c       ?allocate@__crt_win32_buffer_no_resizing@@SAHQAPAXIABV__crt_win32_buffer_empty_debug_info@@@Z 1006078c f i libucrt:findnextfilea.obj
 0001:0005f79c       ?capacity@?$__crt_win32_buffer@DU__crt_win32_buffer_no_resizing@@@@QBEIXZ 1006079c f i libucrt:findnextfilea.obj
 0001:0005f7a0       ?data@?$__crt_win32_buffer@DU__crt_win32_buffer_no_resizing@@@@QAEPADXZ 100607a0 f i libucrt:findnextfilea.obj
 0001:0005f7a4       ?deallocate@__crt_win32_buffer_no_resizing@@SAXQAXABV__crt_win32_buffer_empty_debug_info@@@Z 100607a4 f i libucrt:findnextfilea.obj
 0001:0005f7a5       ?debug_info@?$__crt_win32_buffer@DU__crt_win32_buffer_no_resizing@@@@QBEABV__crt_win32_buffer_empty_debug_info@@XZ 100607a5 f i libucrt:findnextfilea.obj
 0001:0005f7a8       ?set_to_nullptr@?$__crt_win32_buffer@DU__crt_win32_buffer_no_resizing@@@@QAEXXZ 100607a8 f i libucrt:findnextfilea.obj
 0001:0005f7c1       ?size@?$__crt_win32_buffer@DU__crt_win32_buffer_no_resizing@@@@QAEXI@Z 100607c1 f i libucrt:findnextfilea.obj
 0001:0005f7d3       ___acrt_FindNextFileA      100607d3 f   libucrt:findnextfilea.obj
 0001:0005f964       __mbsdec                   10060964 f   libucrt:mbsdec.obj
 0001:0005f980       __mbsdec_l                 10060980 f   libucrt:mbsdec.obj
 0001:0005fa44       __wcsnicoll                10060a44 f   libucrt:wcsnicol.obj
 0001:0005fb3c       __wcsnicoll_l              10060b3c f   libucrt:wcsnicol.obj
 0001:0005fca1       __strnicoll                10060ca1 f   libucrt:strnicol.obj
 0001:0005fcd4       __strnicoll_l              10060cd4 f   libucrt:strnicol.obj
 0001:0005fdd0       ___acrt_SetEnvironmentVariableA 10060dd0 f   libucrt:setenvironmentvariablea.obj
 0001:0005fe9f       __msize                    10060e9f f   libucrt:msize.obj
 0001:0005feac       __msize_base               10060eac f   libucrt:msize.obj
 0001:0005feeb       ___acrt_GetStringTypeW     10060eeb f   libucrt:getstringtypew.obj
 0001:0005ff0a       ___strncnt                 10060f0a f   libucrt:strncnt.obj
 0001:0005ff2d       ?__mbrtoc32_utf8@__crt_mbstring@@YAIPA_UPBDIPAU_Mbstatet@@@Z 10060f2d f   libucrt:mbrtoc32.obj
 0001:0006014e       ?reset_and_return@__crt_mbstring@@YAIIPAU_Mbstatet@@@Z 1006114e f i libucrt:mbrtoc32.obj
 0001:00060167       ?return_illegal_sequence@__crt_mbstring@@YAIPAU_Mbstatet@@@Z 10061167 f i libucrt:mbrtoc32.obj
 0001:0006018d       _mbrtoc32                  1006118d f   libucrt:mbrtoc32.obj
 0001:000602b3       ___acrt_GetLocaleInfoA     100612b3 f   libucrt:getlocaleinfoa.obj
 0001:000604d1       _fegetenv                  100614d1 f   libucrt:fegetenv.obj
 0001:000604f5       _fesetenv                  100614f5 f   libucrt:fesetenv.obj
 0001:00060555       _feholdexcept              10061555 f   libucrt:feholdexcept.obj
 0001:000605c0       __CIlog10                  100615c0 f   libucrt:log10_impl.obj
 0001:000605fb       __CIlog10_default          100615fb f   libucrt:log10_impl.obj
 0001:0006060f       __log10_default            1006160f     libucrt:log10_impl.obj
 0001:00060720       _ceil                      10061720 f   libucrt:ceil_pentium4.obj
 0001:00060760       __ceil_pentium4            10061760 f   libucrt:ceil_pentium4.obj
 0001:00060884       __towlower_l               10061884 f   libucrt:towlower.obj
 0001:0006097f       _towlower                  1006197f f   libucrt:towlower.obj
 0001:000609a0       ___ascii_strnicmp          100619a0 f   libucrt:_strnicm.obj
 0001:00060a19       ??$__crt_interlocked_read@H@@YAHPDH@Z 10061a19 f i libucrt:setmode.obj
 0001:00060a28       ?value@?$dual_state_global@H@__crt_state_management@@QAEAAHXZ 10061a28 f i libucrt:setmode.obj
 0001:00060a2b       __get_fmode                10061a2b f   libucrt:setmode.obj
 0001:00060a62       __set_fmode                10061a62 f   libucrt:setmode.obj
 0001:00060aae       __setmode                  10061aae f   libucrt:setmode.obj
 0001:00060bf6       __setmode_nolock           10061bf6 f   libucrt:setmode.obj
 0001:00060e87       __chsize                   10061e87 f   libucrt:chsize.obj
 0001:00060eaa       __chsize_nolock            10061eaa f   libucrt:chsize.obj
 0001:0006109f       __chsize_s                 1006209f f   libucrt:chsize.obj
 0001:00061177       __umask                    10062177 f   libucrt:umask.obj
 0001:000611a5       __umask_s                  100621a5 f   libucrt:umask.obj
 0001:000612c8       ___dcrt_lowio_ensure_console_output_initialized 100622c8 f   libucrt:initcon.obj
 0001:000612ee       ___dcrt_terminate_console_output 100622ee f   libucrt:initcon.obj
 0001:0006130a       ___dcrt_write_console      1006230a f   libucrt:initcon.obj
 0001:00061374       _nexttoward                10062374 f   libucrt:nexttoward.obj
 0001:000618bc       __wcstombs_l               100628bc f   libucrt:wcstombs.obj
 0001:000618c9       __wcstombs_s_l             100628c9 f   libucrt:wcstombs.obj
 0001:000619c9       _wcstombs                  100629c9 f   libucrt:wcstombs.obj
 0001:000619e9       _wcstombs_s                100629e9 f   libucrt:wcstombs.obj
 0001:00061a11       ___acrt_CompareStringW     10062a11 f   libucrt:comparestringw.obj
 0001:00061da8       ___acrt_CompareStringA     10062da8 f   libucrt:comparestringa.obj
 0001:00061e02       ??$__acrt_fenv_shift_bits@W4__acrt_fenv_abstract_control@@@@YA?AW4__acrt_fenv_abstract_control@@W40@0I@Z 10062e02 f i libucrt:_fenvutils.obj
 0001:00061e18       ??$__acrt_fenv_shift_bits@W4__acrt_fenv_abstract_status@@@@YA?AW4__acrt_fenv_abstract_status@@W40@0I@Z 10062e18 f i libucrt:_fenvutils.obj
 0001:00061e2e       ??$__acrt_fenv_translate_bit@W4__acrt_fenv_abstract_control@@W4__acrt_fenv_machine_sse_control@@@@YA?AW4__acrt_fenv_abstract_control@@W4__acrt_fenv_machine_sse_control@@0W40@1@Z 10062e2e f i libucrt:_fenvutils.obj
 0001:00061e4c       ??$__acrt_fenv_translate_bit@W4__acrt_fenv_abstract_control@@W4__acrt_fenv_machine_x87_control@@@@YA?AW4__acrt_fenv_abstract_control@@W4__acrt_fenv_machine_x87_control@@0W40@1@Z 10062e4c f i libucrt:_fenvutils.obj
 0001:00061e6a       ??$__acrt_fenv_translate_bit@W4__acrt_fenv_abstract_status@@W4__acrt_fenv_machine_sse_status@@@@YA?AW4__acrt_fenv_abstract_status@@W4__acrt_fenv_machine_sse_status@@0W40@1@Z 10062e6a f i libucrt:_fenvutils.obj
 0001:00061e84       ??$__acrt_fenv_translate_bit@W4__acrt_fenv_abstract_status@@W4__acrt_fenv_machine_x87_status@@@@YA?AW4__acrt_fenv_abstract_status@@W4__acrt_fenv_machine_x87_status@@0W40@1@Z 10062e84 f i libucrt:_fenvutils.obj
 0001:00061e9e       ??$__acrt_fenv_translate_bit@W4__acrt_fenv_machine_sse_control@@W4__acrt_fenv_abstract_control@@@@YA?AW4__acrt_fenv_machine_sse_control@@W4__acrt_fenv_abstract_control@@0W40@1@Z 10062e9e f i libucrt:_fenvutils.obj
 0001:00061eba       ??$__acrt_fenv_translate_bit@W4__acrt_fenv_machine_sse_status@@W4__acrt_fenv_abstract_status@@@@YA?AW4__acrt_fenv_machine_sse_status@@W4__acrt_fenv_abstract_status@@0W40@1@Z 10062eba f i libucrt:_fenvutils.obj
 0001:00061ed4       ??$__acrt_fenv_translate_bit@W4__acrt_fenv_machine_x87_control@@W4__acrt_fenv_abstract_control@@@@YA?AW4__acrt_fenv_machine_x87_control@@W4__acrt_fenv_abstract_control@@0W40@1@Z 10062ed4 f i libucrt:_fenvutils.obj
 0001:00061ef0       ??$__acrt_fenv_translate_bit@W4__acrt_fenv_machine_x87_status@@W4__acrt_fenv_abstract_status@@@@YA?AW4__acrt_fenv_machine_x87_status@@W4__acrt_fenv_abstract_status@@0W40@1@Z 10062ef0 f i libucrt:_fenvutils.obj
 0001:00061f0a       ??$__acrt_fenv_unshift_bits@W4__acrt_fenv_abstract_control@@@@YA?AW4__acrt_fenv_abstract_control@@W40@0I@Z 10062f0a f i libucrt:_fenvutils.obj
 0001:00061f20       ??$__acrt_fenv_unshift_bits@W4__acrt_fenv_abstract_status@@@@YA?AW4__acrt_fenv_abstract_status@@W40@0I@Z 10062f20 f i libucrt:_fenvutils.obj
 0001:0006254b       ??I@YA?AW4__acrt_fenv_abstract_control@@W40@0@Z 1006354b f i libucrt:_fenvutils.obj
 0001:0006255b       ??I@YA?AW4__acrt_fenv_abstract_status@@W40@0@Z 1006355b f i libucrt:_fenvutils.obj
 0001:0006256b       ??I@YA?AW4__acrt_fenv_machine_sse_control@@W40@0@Z 1006356b f i libucrt:_fenvutils.obj
 0001:0006257b       ??I@YA?AW4__acrt_fenv_machine_sse_status@@W40@0@Z 1006357b f i libucrt:_fenvutils.obj
 0001:0006258b       ??I@YA?AW4__acrt_fenv_machine_x87_control@@W40@0@Z 1006358b f i libucrt:_fenvutils.obj
 0001:0006259b       ??I@YA?AW4__acrt_fenv_machine_x87_status@@W40@0@Z 1006359b f i libucrt:_fenvutils.obj
 0001:000625ab       ??U@YA?AW4__acrt_fenv_abstract_control@@W40@0@Z 100635ab f i libucrt:_fenvutils.obj
 0001:000625bb       ??U@YA?AW4__acrt_fenv_abstract_status@@W40@0@Z 100635bb f i libucrt:_fenvutils.obj
 0001:000625cb       ??U@YA?AW4__acrt_fenv_machine_sse_control@@W40@0@Z 100635cb f i libucrt:_fenvutils.obj
 0001:000625db       ??U@YA?AW4__acrt_fenv_machine_x87_control@@W40@0@Z 100635db f i libucrt:_fenvutils.obj
 0001:000625eb       ??_5@YAAAW4__acrt_fenv_abstract_control@@AAW40@W40@@Z 100635eb f i libucrt:_fenvutils.obj
 0001:000625fd       ??_5@YAAAW4__acrt_fenv_abstract_status@@AAW40@W40@@Z 100635fd f i libucrt:_fenvutils.obj
 0001:0006260f       ??_5@YAAAW4__acrt_fenv_machine_sse_control@@AAW40@W40@@Z 1006360f f i libucrt:_fenvutils.obj
 0001:00062624       ??_5@YAAAW4__acrt_fenv_machine_sse_status@@AAW40@W40@@Z 10063624 f i libucrt:_fenvutils.obj
 0001:00062636       ??_5@YAAAW4__acrt_fenv_machine_x87_control@@AAW40@W40@@Z 10063636 f i libucrt:_fenvutils.obj
 0001:0006264b       ??_5@YAAAW4__acrt_fenv_machine_x87_status@@AAW40@W40@@Z 1006364b f i libucrt:_fenvutils.obj
 0001:0006265d       ?__acrt_fenv_shift_abstract_sse_control@@YA?AW4__acrt_fenv_abstract_control@@W41@@Z 1006365d f i libucrt:_fenvutils.obj
 0001:00062681       ?__acrt_fenv_shift_abstract_sse_status@@YA?AW4__acrt_fenv_abstract_status@@W41@@Z 10063681 f i libucrt:_fenvutils.obj
 0001:00062695       ?__acrt_fenv_shift_abstract_x87_control@@YA?AW4__acrt_fenv_abstract_control@@W41@@Z 10063695 f i libucrt:_fenvutils.obj
 0001:000626b9       ?__acrt_fenv_shift_abstract_x87_status@@YA?AW4__acrt_fenv_abstract_status@@W41@@Z 100636b9 f i libucrt:_fenvutils.obj
 0001:000626cd       ?__acrt_fenv_unshift_abstract_sse_control@@YA?AW4__acrt_fenv_abstract_control@@W41@@Z 100636cd f i libucrt:_fenvutils.obj
 0001:000626f3       ?__acrt_fenv_unshift_abstract_sse_status@@YA?AW4__acrt_fenv_abstract_status@@W41@@Z 100636f3 f i libucrt:_fenvutils.obj
 0001:00062707       ?__acrt_fenv_unshift_abstract_x87_control@@YA?AW4__acrt_fenv_abstract_control@@W41@@Z 10063707 f i libucrt:_fenvutils.obj
 0001:0006272d       ?__acrt_fenv_unshift_abstract_x87_status@@YA?AW4__acrt_fenv_abstract_status@@W41@@Z 1006372d f i libucrt:_fenvutils.obj
 0001:00062de4       ___acrt_fenv_expand_round_control 10063de4 f   libucrt:_fenvutils.obj
 0001:00062e27       ___acrt_fenv_get_common_round_control 10063e27 f   libucrt:_fenvutils.obj
 0001:00062e51       ___acrt_fenv_get_control   10063e51 f   libucrt:_fenvutils.obj
 0001:00062ef3       ___acrt_fenv_get_fp_status_word_from_exception_mask 10063ef3 f   libucrt:_fenvutils.obj
 0001:00062f13       ___acrt_fenv_get_status    10063f13 f   libucrt:_fenvutils.obj
 0001:00063005       ___acrt_fenv_set_control   10064005 f   libucrt:_fenvutils.obj
 0001:00063089       ___acrt_fenv_set_status    10064089 f   libucrt:_fenvutils.obj
 0001:00063355       ___control87_2             10064355 f   libucrt:ieee87.obj
 0001:00063921       ___fpreset_sse2            10064921 f   libucrt:ieee87.obj
 0001:00063b6a       __clearfp                  10064b6a f   libucrt:ieee87.obj
 0001:00063c82       __control87                10064c82 f   libucrt:ieee87.obj
 0001:00064040       __controlfp                10065040 f   libucrt:ieee87.obj
 0001:00064060       __fpreset                  10065060 f   libucrt:ieee87.obj
 0001:00064163       __set_controlfp            10065163 f   libucrt:ieee87.obj
 0001:000641f9       __statusfp                 100651f9 f   libucrt:ieee87.obj
 0001:000642bd       __statusfp2                100652bd f   libucrt:ieee87.obj
 0001:0006433b       ___acrt_initialize_sse2    1006533b f   libucrt:mathfcns.obj
 0001:0006434f       __set_SSE2_enable          1006534f f   libucrt:mathfcns.obj
 0001:00064380       __CIlog10_pentium4         10065380 f   libucrt:log10_pentium4.obj
 0001:00064398       __log10_pentium4           10065398     libucrt:log10_pentium4.obj
 0001:000646e0       __fFEXP                    100656e0 f   libucrt:87tran.obj
 0001:00064737       __rtinfpopse               10065737     libucrt:87tran.obj
 0001:00064739       __rtinfnpopse              10065739     libucrt:87tran.obj
 0001:00064749       __fFLN                     10065749     libucrt:87tran.obj
 0001:000647fe       __rtinfpop                 100657fe     libucrt:87tran.obj
 0001:00064800       __rtinfnpop                10065800     libucrt:87tran.obj
 0001:00064810       __rtforexpinf              10065810 f   libucrt:87tran.obj
 0001:0006481d       __ffexpm1                  1006581d     libucrt:87tran.obj
 0001:00064950       __trandisp1                10065950 f   libucrt:87disp.obj
 0001:000649c5       __trandisp2                100659c5 f   libucrt:87disp.obj
 0001:00064a5f       __rttospopde               10065a5f     libucrt:87disp.obj
 0001:00064a64       __rttospop                 10065a64     libucrt:87disp.obj
 0001:00064a70       __rtnospop                 10065a70 f   libucrt:87disp.obj
 0001:00064a80       __rttosnpop                10065a80 f   libucrt:87disp.obj
 0001:00064a81       __rtnospopde               10065a81     libucrt:87disp.obj
 0001:00064a88       __rtzeropop                10065a88     libucrt:87disp.obj
 0001:00064a8a       __rtzeronpop               10065a8a     libucrt:87disp.obj
 0001:00064a90       __rtzerospop               10065a90 f   libucrt:87disp.obj
 0001:00064a9d       __rtonepop                 10065a9d     libucrt:87disp.obj
 0001:00064aa0       __rtonenpop                10065aa0 f   libucrt:87disp.obj
 0001:00064ab0       __tosnan1                  10065ab0 f   libucrt:87disp.obj
 0001:00064ae0       __nosnan2                  10065ae0 f   libucrt:87disp.obj
 0001:00064af0       __tosnan2                  10065af0 f   libucrt:87disp.obj
 0001:00064b20       __nan2                     10065b20 f   libucrt:87disp.obj
 0001:00064b60       __rtindfpop                10065b60 f   libucrt:87disp.obj
 0001:00064b62       __rtindfnpop               10065b62     libucrt:87disp.obj
 0001:00064b73       __rttosnpopde              10065b73     libucrt:87disp.obj
 0001:00064b80       __rtatan2inf               10065b80 f   libucrt:87disp.obj
 0001:00064b9d       __rtchsifneg               10065b9d     libucrt:87disp.obj
 0001:00064c39       ___setfflag                10065c39 f   libucrt:fp_flags.obj
 0001:00064c60       __twoToTOS                 10065c60 f   libucrt:common.obj
 0001:00064c75       __load_CW                  10065c75 f   libucrt:common.obj
 0001:00064c8c       __convertTOStoQNaN         10065c8c f   libucrt:common.obj
 0001:00064ca5       __fload_withFB             10065ca5 f   libucrt:common.obj
 0001:00064ce8       __checkTOS_withFB          10065ce8 f   libucrt:common.obj
 0001:00064cfe       __fast_exit                10065cfe f   libucrt:common.obj
 0001:00064d0b       __math_exit                10065d0b f   libucrt:common.obj
 0001:00064d35       __check_overflow_exit      10065d35 f   libucrt:common.obj
 0001:00064d49       __check_range_exit         10065d49 f   libucrt:common.obj
 0001:00064e50       __startTwoArgErrorHandling 10065e50 f   libucrt:genexcep.obj
 0001:00064e67       __startOneArgErrorHandling 10065e67 f   libucrt:genexcep.obj
 0001:00064eb7       ___libm_error_support      10065eb7 f   libucrt:libm_error.obj
 0001:00065155       ___libm_setusermatherr     10066155 f   libucrt:libm_error.obj
 0001:00065185       __ceil_default             10066185 f   libucrt:ceil.obj
 0001:0006526c       ___acrt_LCMapStringW       1006626c f   libucrt:lcmapstringw.obj
 0001:000652b9       ___p__fmode                100662b9 f   libucrt:txtmode.obj
 0001:00065355       __d_int                    10066355 f   libucrt:_test.obj
 0001:0006549f       __dtest                    1006649f f   libucrt:_test.obj
 0001:0006551c       __fd_int                   1006651c f   libucrt:_test.obj
 0001:0006561e       __fdtest                   1006661e f   libucrt:_test.obj
 0001:0006567f       __fperrraise               1006667f f   libucrt:_test.obj
 0001:000656aa       __ld_int                   100666aa f   libucrt:_test.obj
 0001:000656b7       __ldtest                   100666b7 f   libucrt:_test.obj
 0001:000656c4       ?__wcsrtombs_utf8@__crt_mbstring@@YAIPADPAPB_WIPAU_Mbstatet@@@Z 100666c4 f   libucrt:wcrtomb.obj
 0001:00065b6e       _wcrtomb                   10066b6e f   libucrt:wcrtomb.obj
 0001:00065bab       _wcrtomb_s                 10066bab f   libucrt:wcrtomb.obj
 0001:00065c42       _wcsrtombs                 10066c42 f   libucrt:wcrtomb.obj
 0001:00065c4f       _wcsrtombs_s               10066c4f f   libucrt:wcrtomb.obj
 0001:00065d0e       _wctob                     10066d0e f   libucrt:wcrtomb.obj
 0001:00065d82       __controlfp_s              10066d82 f   libucrt:contrlfp.obj
 0001:00065df8       __d_inttype                10066df8 f   libucrt:powhlp.obj
 0001:00065e7c       __powhlp                   10066e7c f   libucrt:powhlp.obj
 0001:00065ff1       __87except                 10066ff1 f   libucrt:87except.obj
 0001:0006613d       __frnd                     1006713d f   libucrt:frnd.obj
 0001:00066158       ??_4@YAAAW4__acrt_fenv_abstract_status@@AAW40@W40@@Z 10067158 f i libucrt:fegetexceptflag.obj
 0001:0006616a       _fegetexceptflag           1006716a f   libucrt:fegetexceptflag.obj
 0001:000661a7       ??S@YA?AW4__acrt_fenv_abstract_status@@W40@@Z 100671a7 f i libucrt:fesetexceptflag.obj
 0001:000661b6       _fesetexceptflag           100671b6 f   libucrt:fesetexceptflag.obj
 0001:00066225       ?__c16rtomb_utf8@__crt_mbstring@@YAIPAD_SPAU_Mbstatet@@@Z 10067225 f   libucrt:c16rtomb.obj
 0001:0006637d       _c16rtomb                  1006737d f   libucrt:c16rtomb.obj
 0001:0006638a       _fetestexcept              1006738a f   libucrt:fetestexcept.obj
 0001:000663b4       ?__c32rtomb_utf8@__crt_mbstring@@YAIPAD_UPAU_Mbstatet@@@Z 100673b4 f   libucrt:c32rtomb.obj
 0001:0006648e       _c32rtomb                  1006748e f   libucrt:c32rtomb.obj
 0001:000664a0       __FindPESection            100674a0 f   LIBCMT:pesect.obj
 0001:00066500       __IsNonwritableInCurrentImage 10067500 f   LIBCMT:pesect.obj
 0001:000665f0       __ValidateImageBase        100675f0 f   LIBCMT:pesect.obj
 0001:0006662f       __EH_epilog3               1006762f f   LIBCMT:ehprolg3.obj
 0001:00066649       __EH_epilog3_GS            10067649 f   LIBCMT:ehprolg3.obj
 0001:0006665e       __EH_epilog3_catch_GS      1006765e f   LIBCMT:ehprolg3.obj
 0001:00066673       __EH_prolog3               10067673 f   LIBCMT:ehprolg3.obj
 0001:000666b4       __EH_prolog3_GS            100676b4 f   LIBCMT:ehprolg3.obj
 0001:000666f8       __EH_prolog3_catch         100676f8 f   LIBCMT:ehprolg3.obj
 0001:0006673c       __EH_prolog3_catch_GS      1006773c f   LIBCMT:ehprolg3.obj
 0001:00066790       __aulldvrm                 10067790 f   LIBCMT:ulldvrm.obj
 0001:0006684a       ??1type_info@@UAE@XZ       1006784a f   LIBCMT:std_type_info_static.obj
 0001:00066851       ??_Gtype_info@@UAEPAXI@Z   10067851 f i LIBCMT:std_type_info_static.obj
 0001:00066851       ??_Etype_info@@UAEPAXI@Z   10067851 f i LIBCMT:std_type_info_static.obj
 0001:0006687c       ??3@YAXPAXI@Z              1006787c f   LIBCMT:delete_scalar_size.obj
 0001:00066890       __SEH_prolog4_GS           10067890 f   LIBCMT:sehprolg4gs.obj
 0001:000668d9       __SEH_epilog4_GS           100678d9 f   LIBCMT:sehprolg4gs.obj
 0001:00066900       __allmul                   10067900 f   LIBCMT:llmul.obj
 0001:00066950       __alldvrm                  10067950 f   LIBCMT:lldvrm.obj
 0001:00066a70       __aullshr                  10067a70 f   LIBCMT:ullshr.obj
 0001:00066aa0       __chkstk                   10067aa0 f   LIBCMT:chkstk.obj
 0001:00066aa0       __alloca_probe             10067aa0 f   LIBCMT:chkstk.obj
 0001:00066ae0       __alloca_probe_16          10067ae0 f   LIBCMT:alloca16.obj
 0001:00066af6       __alloca_probe_8           10067af6     LIBCMT:alloca16.obj
 0001:00066b20       __allshl                   10067b20 f   LIBCMT:llshl.obj
 0001:00066b50       __ftol2_sse                10067b50 f   LIBCMT:ftol2.obj
 0001:00066b59       __ftol2_pentium4           10067b59 f   LIBCMT:ftol2.obj
 0001:00066b6c       __ftol2_sse_excpt          10067b6c f   LIBCMT:ftol2.obj
 0001:00066b90       __ftol2                    10067b90 f   LIBCMT:ftol2.obj
 0001:00066c32       __initialize_default_precision 10067c32 f   LIBCMT:default_precision.obj
 0001:00066c5b       ??3@YAXPAX@Z               10067c5b f   LIBCMT:delete_scalar.obj
 0001:00066c60       _InterlockedPushEntrySList@8 10067c60 f   kernel32:KERNEL32.dll
 0001:00066c66       _InterlockedFlushSList@4   10067c66 f   kernel32:KERNEL32.dll
 0001:00066c6c       _RtlUnwind@16              10067c6c f   kernel32:KERNEL32.dll
 0001:00066c72       _GetLastError@0            10067c72 f   kernel32:KERNEL32.dll
 0001:00066c78       _SetLastError@4            10067c78 f   kernel32:KERNEL32.dll
 0001:00066c7e       _EnterCriticalSection@4    10067c7e f   kernel32:KERNEL32.dll
 0001:00066c84       _LeaveCriticalSection@4    10067c84 f   kernel32:KERNEL32.dll
 0001:00066c8a       _DeleteCriticalSection@4   10067c8a f   kernel32:KERNEL32.dll
 0001:00066c90       _InitializeCriticalSectionAndSpinCount@8 10067c90 f   kernel32:KERNEL32.dll
 0001:00066c96       _TlsAlloc@0                10067c96 f   kernel32:KERNEL32.dll
 0001:00066c9c       _TlsGetValue@4             10067c9c f   kernel32:KERNEL32.dll
 0001:00066ca2       _TlsSetValue@8             10067ca2 f   kernel32:KERNEL32.dll
 0001:00066ca8       _TlsFree@4                 10067ca8 f   kernel32:KERNEL32.dll
 0001:00066cae       _FreeLibrary@4             10067cae f   kernel32:KERNEL32.dll
 0001:00066cb4       _LoadLibraryExW@12         10067cb4 f   kernel32:KERNEL32.dll
 0001:00066cba       _EncodePointer@4           10067cba f   kernel32:KERNEL32.dll
 0001:00066cc0       _RaiseException@16         10067cc0 f   kernel32:KERNEL32.dll
 0001:00066cc6       _ExitProcess@4             10067cc6 f   kernel32:KERNEL32.dll
 0001:00066ccc       _GetModuleHandleExW@12     10067ccc f   kernel32:KERNEL32.dll
 0001:00066cd2       _GetStdHandle@4            10067cd2 f   kernel32:KERNEL32.dll
 0001:00066cd8       _GetFileType@4             10067cd8 f   kernel32:KERNEL32.dll
 0001:00066cde       _GetModuleFileNameW@12     10067cde f   kernel32:KERNEL32.dll
 0001:00066ce4       _WriteConsoleW@20          10067ce4 f   kernel32:KERNEL32.dll
 0001:00066cea       _HeapAlloc@12              10067cea f   kernel32:KERNEL32.dll
 0001:00066cf0       _HeapFree@12               10067cf0 f   kernel32:KERNEL32.dll
 0001:00066cf6       _GetDateFormatW@24         10067cf6 f   kernel32:KERNEL32.dll
 0001:00066cfc       _GetTimeFormatW@24         10067cfc f   kernel32:KERNEL32.dll
 0001:00066d02       _CompareStringW@24         10067d02 f   kernel32:KERNEL32.dll
 0001:00066d08       _LCMapStringW@24           10067d08 f   kernel32:KERNEL32.dll
 0001:00066d0e       _GetLocaleInfoW@16         10067d0e f   kernel32:KERNEL32.dll
 0001:00066d14       _IsValidLocale@8           10067d14 f   kernel32:KERNEL32.dll
 0001:00066d1a       _GetUserDefaultLCID@0      10067d1a f   kernel32:KERNEL32.dll
 0001:00066d20       _EnumSystemLocalesW@8      10067d20 f   kernel32:KERNEL32.dll
 0001:00066d26       _GetCurrentThread@0        10067d26 f   kernel32:KERNEL32.dll
 0001:00066d2c       _HeapReAlloc@16            10067d2c f   kernel32:KERNEL32.dll
 0001:00066d32       _CloseHandle@4             10067d32 f   kernel32:KERNEL32.dll
 0001:00066d38       _ReadFile@20               10067d38 f   kernel32:KERNEL32.dll
 0001:00066d3e       _GetConsoleMode@8          10067d3e f   kernel32:KERNEL32.dll
 0001:00066d44       _ReadConsoleW@20           10067d44 f   kernel32:KERNEL32.dll
 0001:00066d4a       _WriteFile@20              10067d4a f   kernel32:KERNEL32.dll
 0001:00066d50       _GetConsoleCP@0            10067d50 f   kernel32:KERNEL32.dll
 0001:00066d56       _MultiByteToWideChar@24    10067d56 f   kernel32:KERNEL32.dll
 0001:00066d5c       _DeleteFileW@4             10067d5c f   kernel32:KERNEL32.dll
 0001:00066d62       _SetFilePointerEx@20       10067d62 f   kernel32:KERNEL32.dll
 0001:00066d68       _OutputDebugStringW@4      10067d68 f   kernel32:KERNEL32.dll
 0001:00066d6e       _SetConsoleCtrlHandler@8   10067d6e f   kernel32:KERNEL32.dll
 0001:00066d74       _FindClose@4               10067d74 f   kernel32:KERNEL32.dll
 0001:00066d7a       _FindFirstFileExW@24       10067d7a f   kernel32:KERNEL32.dll
 0001:00066d80       _FindNextFileW@8           10067d80 f   kernel32:KERNEL32.dll
 0001:00066d86       _IsValidCodePage@4         10067d86 f   kernel32:KERNEL32.dll
 0001:00066d8c       _GetACP@0                  10067d8c f   kernel32:KERNEL32.dll
 0001:00066d92       _GetOEMCP@0                10067d92 f   kernel32:KERNEL32.dll
 0001:00066d98       _GetCPInfo@8               10067d98 f   kernel32:KERNEL32.dll
 0001:00066d9e       _GetCommandLineA@0         10067d9e f   kernel32:KERNEL32.dll
 0001:00066da4       _GetCommandLineW@0         10067da4 f   kernel32:KERNEL32.dll
 0001:00066daa       _WideCharToMultiByte@32    10067daa f   kernel32:KERNEL32.dll
 0001:00066db0       _GetEnvironmentStringsW@0  10067db0 f   kernel32:KERNEL32.dll
 0001:00066db6       _FreeEnvironmentStringsW@4 10067db6 f   kernel32:KERNEL32.dll
 0001:00066dbc       _SetEnvironmentVariableW@8 10067dbc f   kernel32:KERNEL32.dll
 0001:00066dc2       _GetProcessHeap@0          10067dc2 f   kernel32:KERNEL32.dll
 0001:00066dc8       _FlushFileBuffers@4        10067dc8 f   kernel32:KERNEL32.dll
 0001:00066dce       _SetStdHandle@8            10067dce f   kernel32:KERNEL32.dll
 0001:00066dd4       _GetStringTypeW@16         10067dd4 f   kernel32:KERNEL32.dll
 0001:00066dda       _CreateFileW@28            10067dda f   kernel32:KERNEL32.dll
 0001:00066de0       _HeapSize@12               10067de0 f   kernel32:KERNEL32.dll
 0001:00066de6       _SetEndOfFile@4            10067de6 f   kernel32:KERNEL32.dll
 0001:00066dec       _DecodePointer@4           10067dec f   kernel32:KERNEL32.dll
 0001:00066e00       _strrchr                   10067e00 f   libvcruntime:strrchr.obj
 0001:000670b5       _memcmp                    100680b5 f   libvcruntime:memcmp.obj
 0001:0006959a       _wcschr                    1006a59a f   libvcruntime:wcschr.obj
 0002:00000000       ___xc_a                    1006f000     LIBCMT:initializers.obj
 0002:00000104       ___xc_z                    1006f104     LIBCMT:initializers.obj
 0002:00000208       ___xi_a                    1006f208     LIBCMT:initializers.obj
 0002:0000030c       ___acrt_stdio_initializer  1006f30c     libucrt:stdio_initializer.obj
 0002:00000310       ___acrt_multibyte_initializer 1006f310     libucrt:multibyte_initializer.obj
 0002:00000314       ___acrt_tran_sse2_initializer 1006f314     libucrt:sse2_initializer.obj
 0002:0000041c       ___xi_z                    1006f41c     LIBCMT:initializers.obj
 0002:00000520       ___xp_a                    1006f520     LIBCMT:initializers.obj
 0002:00000624       ___acrt_locale_terminator  1006f624     libucrt:locale_initializer.obj
 0002:00000628       ___dcrt_console_output_terminator 1006f628     libucrt:console_output_initializer.obj
 0002:00000730       ___acrt_stdio_terminator   1006f730     libucrt:stdio_initializer.obj
 0002:00000834       ___xp_z                    1006f834     LIBCMT:initializers.obj
 0002:00000938       ___xt_a                    1006f938     LIBCMT:initializers.obj
 0002:00000a3c       ___xt_z                    1006fa3c     LIBCMT:initializers.obj
 0002:00000b40       ??_C@_0BC@BCPEHLFA@dynamixel_control@ 1006fb40     xpctarget.obj
 0002:00000b58       _ptsetfilename             1006fb58     xpctarget.obj
 0002:00000b5c       _xmlfile                   1006fb5c     xpctarget.obj
 0002:00000b64       ??_C@_03COLHFAIP@6?48@     1006fb64     xpctarget.obj
 0002:00000b68       ??_C@_01DNKMNLPK@?$HM@     1006fb68     xpctarget.obj
 0002:00000b70       __real@3fb999999999999a    1006fb70     xpctarget.obj
 0002:00000b80       __real@408f400000000000    1006fb80     xpctarget.obj
 0002:00000b90       _dynamixel_control_BIOMAP  1006fb90     appmappingData.obj
 0002:00000c98       _dynamixel_control_LBLMAP  1006fc98     appmappingData.obj
 0002:00000da0       _dynamixel_control_SIDMAP  1006fda0     appmappingData.obj
 0002:00000ea8       _dynamixel_control_SBIO    1006fea8     appmappingData.obj
 0002:00000f00       _dynamixel_control_SLBL    1006ff00     appmappingData.obj
 0002:00000f58       _dynamixel_control_PTIDSMAP 1006ff58     appmappingData.obj
 0002:00001028       _dynamixel_control_PTNAMESMAP 10070028     appmappingData.obj
 0002:000010f8       _dynamixel_control_SPTMAP  100700f8     appmappingData.obj
 0002:00001160       _dynamixel_control_dtmap   10070160     appmappingData.obj
 0002:000011a8       _appInfo                   100701a8     appmappingData.obj
 0002:0000133b       ??_C@_00CNPNBAHC@@         1007033b     appmappingData.obj
 0002:00001340       __real@3cb0000000000000    10070340     rt_matrx.obj
 0002:00001350       __real@3fe0000000000000    10070350     rt_matrx.obj
 0002:00001360       __real@3ff0000000000000    10070360     rt_matrx.obj
 0002:00001bd0       ??_C@_0DJ@FHKINPLE@Unexpected?5itemKind?5?$DN?5DATA_ITEM@ 10070bd0     rt_logging.obj
 0002:00001c14       ??_C@_0DA@IEHFPFCJ@Unexpected?5itemKind?$DN?$CFd?5in?5rt_Pr@ 10070c14     rt_logging.obj
 0002:00001c50       ??_C@_0DA@IFLHJPBO@Unexpected?5itemKind?$DN?$CFd?5in?5rt_Pr@ 10070c50     rt_logging.obj
 0002:00001c8c       ??_C@_0DA@IAPIIJJL@Unexpected?5itemKind?$DN?$CFd?5in?5rt_Pr@ 10070c8c     rt_logging.obj
 0002:00001cc8       ??_C@_0BE@LCIGPJIG@MATLAB?55?40?5MAT?9file@ 10070cc8     rt_logging.obj
 0002:00001ce0       ??_C@_0FB@PCJEAJIB@?$CK?$CK?$CK?5Log?5variable?5?$CFs?5has?5wrapped@ 10070ce0     rt_logging.obj
 0002:00001d48       ??_C@_0MG@NKMLMOGF@?$CK?$CK?$CK?5To?5avoid?5wrapping?0?5explicit@ 10070d48     rt_logging.obj
 0002:00001e38       ??_C@_0N@IPAEOLLP@_rtw_tmw?4tmw@ 10070e38     rt_logging.obj
 0002:00001e48       ??_C@_04HDOCAJNK@?$CFs?$CFs@ 10070e48     rt_logging.obj
 0002:00001e50       ??_C@_03ELIABIOC@w?$CLb@   10070e50     rt_logging.obj
 0002:00001e54       ??_C@_0BF@JPILDDFA@?$CK?$CK?$CK?5Error?5opening?5?$CFs@ 10070e54     rt_logging.obj
 0002:00001e70       ??_C@_0BK@EEMDELA@unable?5to?5open?5data?5file?6@ 10070e70     rt_logging.obj
 0002:00001e90       ??_C@_04CGFJFPFD@none@     10070e90     rt_logging.obj
 0002:00001e98       ??_C@_0EE@LCGFPNON@?$CK?$CK?$CK?5Error?5creating?5signals?5stru@ 10070e98     rt_logging.obj
 0002:00001eec       ??_C@_0CE@NHECEDMK@?$CK?$CK?$CK?5Error?5creating?5log?5variable@ 10070eec     rt_logging.obj
 0002:00001f18       ??_C@_0DB@IOCGKAGH@?$CK?$CK?$CK?5Errors?5occurred?5when?5starti@ 10070f18     rt_logging.obj
 0002:00001f54       ??_C@_0BO@BBLOGEBK@?$CK?$CK?$CK?5Memory?5allocation?5error?4?6@ 10070f54     rt_logging.obj
 0002:00001f78       ??_C@_0N@LGFBAGEL@?5?$CIreal?5part?$CJ@ 10070f78     rt_logging.obj
 0002:00001f88       ??_C@_0KH@CGNMHNFE@?5?5?5?5varName?5?5?5?5?5?5?5?5?5?5?$DN?5?$CFs?$CFs?6?5?5?5@ 10070f88     rt_logging.obj
 0002:00002050       ??_C@_0LE@OALKKEFM@?5?5?5?5varName?5?5?5?5?5?5?5?5?5?5?$DN?5?$CFs?5?$CIcomp@ 10071050     rt_logging.obj
 0002:00002128       ??_C@_0KF@JDDLEOKO@?5?5?5?5varName?5?5?5?5?5?5?5?5?5?5?$DN?5?$CFs?6?5?5?5?5n@ 10071128     rt_logging.obj
 0002:000021f0       ??_C@_0DP@HPDMIOFM@?$CK?$CK?$CK?5Using?5a?5default?5buffer?5of?5s@ 100711f0     rt_logging.obj
 0002:00002240       ??_C@_0KE@JEFOLKNF@?6?$CK?$CK?$CK?5Memory?5required?5to?5log?5var@ 10071240     rt_logging.obj
 0002:00002308       ??_C@_0JP@DKLMHCBI@?$CK?$CK?$CK?5Details?3?6?5?5?5?5?5?5?5varName?5?5?5?5@ 10071308     rt_logging.obj
 0002:000023c8       ??_C@_0CM@CAMILBED@?$CK?$CK?$CK?5Error?5allocating?5memory?5for@ 100713c8     rt_logging.obj
 0002:000023fc       ??_C@_0DF@BBCNMOPM@?$CK?$CK?$CK?5Error?5allocating?5memory?5for@ 100713fc     rt_logging.obj
 0002:00002440       ??_C@_0JP@DBCLPCCI@?$CK?$CK?$CK?5Details?3?6?5?5?5?5?5?5?5varName?5?5?5?5@ 10071440     rt_logging.obj
 0002:00002500       ??_C@_0FK@DPGAOBGA@?$CK?$CK?$CK?5Error?5allocating?5memory?5for@ 10071500     rt_logging.obj
 0002:0000256c       ??_C@_0BI@GGDNPHLJ@?$CK?$CK?$CK?5Error?5writing?5to?5?$CFs@ 1007156c     rt_logging.obj
 0002:00002588       ??_C@_0CB@IBGJGELG@?$CK?$CK?$CK?5Error?5writing?5?$CFs?5due?5to?3?5?$CFs@ 10071588     rt_logging.obj
 0002:000025b0       ??_C@_0CN@FLMCHCPB@?$CK?$CK?$CK?5Error?5writing?5log?5variable?5@ 100715b0     rt_logging.obj
 0002:000025e8       ??_C@_0DH@GAJCNOJP@?$CK?$CK?$CK?5Error?5writing?5structure?5log@ 100715e8     rt_logging.obj
 0002:0000262c       ??_C@_0BD@POEALECL@?$CK?$CK?5created?5?$CFs?5?$CK?$CK?6?6@ 1007162c     rt_logging.obj
 0002:00002648       __real@4020000000000000    10071648     rt_logging.obj
 0002:00002658       __real@41dfffffffc00000    10071658     rt_logging.obj
 0002:00002668       __real@41efffffffe00000    10071668     rt_logging.obj
 0002:00002678       __real@4330000000000000    10071678     rt_logging.obj
 0002:00002688       __real@8000000000000000    10071688     rt_logging.obj
 0002:00002698       __real@bfbf9add3afd2773    10071698     rt_logging.obj
 0002:000026a8       __real@bff0000000000000    100716a8     rt_logging.obj
 0002:000026b8       __real@c000000000000000    100716b8     rt_logging.obj
 0002:000026d0       __xmm@20202020202020202020202020202020 100716d0     rt_logging.obj
 0002:000026f0       __xmm@41f00000000000000000000000000000 100716f0     rt_logging.obj
 0002:00002704       _dynamixel_control_U8GND   10071704     dynamixel_control.obj
 0002:00002708       _dynamixel_control_M       10071708     dynamixel_control.obj
 0002:00002710       ??_C@_0CJ@LHLOEJAD@A?5UART?5at?5address?50x?$CFx?5is?5not?5r@ 10071710     dynamixel_control.obj
 0002:00002744       ??_C@_0BI@OOBIPLKB@Error?5allocating?5memory@ 10071744     dynamixel_control.obj
 0002:00002760       ??_C@_04LIEBAAE@FIFO@      10071760     dynamixel_control.obj
 0002:00002768       ??_C@_0BF@KEBOPNDL@RCV?5channel?51?0?5IRQ?54@ 10071768     dynamixel_control.obj
 0002:00002784       ??_C@_0DC@CECGIJCE@Attempted?5write?5to?5hardware?5fif@ 10071784     dynamixel_control.obj
 0002:000027c0       ??_C@_0BF@IGELIKG@XMT?5channel?51?0?5IRQ?54@ 100717c0     dynamixel_control.obj
 0002:000027dc       ??_C@_0BF@DBOJIEGD@XMT?5channel?52?0?5IRQ?54@ 100717dc     dynamixel_control.obj
 0002:000027f8       ??_C@_0DJ@NIFJKAJA@ISR?5registration?5failed?5for?5Int@ 100717f8     dynamixel_control.obj
 0002:0000283c       ??_C@_0BC@OJJPBDHH@FixedStepDiscrete@ 1007183c     dynamixel_control.obj
 0002:00002854       ??_C@_04EPKDLPPB@tout@     10071854     dynamixel_control.obj
 0002:0000285c       ??_C@_03HBFGMJOD@rt_@      1007185c     dynamixel_control.obj
 0002:00002860       ??_C@_0O@MDOAMMH@ASCII?5Encode?5@ 10071860     dynamixel_control.obj
 0002:00002870       ??_C@_0CA@DFBANHCH@dynamixel_control?1ASCII?5Encode?5@ 10071870     dynamixel_control.obj
 0002:00002898       ??_C@_06OKIIDEAB@Setup1@   10071898     dynamixel_control.obj
 0002:000028a0       ??_C@_0CK@OEHKBLMB@dynamixel_control?1Baseboard?5Ser@ 100718a0     dynamixel_control.obj
 0002:000028d4       ??_C@_06MBKFGHMC@Setup2@   100718d4     dynamixel_control.obj
 0002:000028dc       ??_C@_0CK@MPFHEIAC@dynamixel_control?1Baseboard?5Ser@ 100718dc     dynamixel_control.obj
 0002:00002910       __real@3f50624dd2f1a9fc    10071910     dynamixel_control.obj
 0002:00002920       __real@3f847ae147ae147b    10071920     dynamixel_control.obj
 0002:00002930       __real@41f0000000000000    10071930     dynamixel_control.obj
 0002:00002940       __xmm@0000000d00000000000000010000003c 10071940     dynamixel_control.obj
 0002:00002960       __xmm@0000000d000000000000000100000800 10071960     dynamixel_control.obj
 0002:00002980       __xmm@0000000d000000010000000100000400 10071980     dynamixel_control.obj
 0002:000029a0       __xmm@0000004f000000150000002200000002 100719a0     dynamixel_control.obj
 0002:000029c0       __xmm@3f847ae147ae147b3f50624dd2f1a9fc 100719c0     dynamixel_control.obj
 0002:0000311c       ??_C@_0L@JPMNHLNN@Constant32@ 1007211c     dynamixel_control_capi.obj
 0002:0000312c       ??_C@_0CB@MPJHHGCO@Baseboard?5Serial?1Rate?5Transitio@ 1007212c     dynamixel_control_capi.obj
 0002:00003154       ??_C@_0CC@BKEEJNAL@Baseboard?5Serial?1Rate?5Transitio@ 10072154     dynamixel_control_capi.obj
 0002:0000317c       ??_C@_0CC@DBGJMOMI@Baseboard?5Serial?1Rate?5Transitio@ 1007217c     dynamixel_control_capi.obj
 0002:000031a4       ??_C@_0CC@CIHCPPIJ@Baseboard?5Serial?1Rate?5Transitio@ 100721a4     dynamixel_control_capi.obj
 0002:000031cc       ??_C@_0BN@EOCGMJAE@Baseboard?5Serial?1FIFO?5read?51@ 100721cc     dynamixel_control_capi.obj
 0002:000031f0       ??_C@_0BN@GFALJKMH@Baseboard?5Serial?1FIFO?5read?52@ 100721f0     dynamixel_control_capi.obj
 0002:00003214       ??_C@_0CB@BIOFLKJH@Baseboard?5Serial?1FIFO?5write?51?1p@ 10072214     dynamixel_control_capi.obj
 0002:0000323c       ??_C@_0CB@DDMIOJFE@Baseboard?5Serial?1FIFO?5write?51?1p@ 1007223c     dynamixel_control_capi.obj
 0002:00003264       ??_C@_0CB@FPEFMAEH@Baseboard?5Serial?1FIFO?5write?52?1p@ 10072264     dynamixel_control_capi.obj
 0002:0000328c       ??_C@_0CB@HEGIJDIE@Baseboard?5Serial?1FIFO?5write?52?1p@ 1007228c     dynamixel_control_capi.obj
 0002:000032b4       ??_C@_0CP@IKFBMCMH@Baseboard?5Serial?1RS232?5ISR?1Read@ 100722b4     dynamixel_control_capi.obj
 0002:000032ec       ??_C@_0DC@IIMAANDA@Baseboard?5Serial?1RS232?5ISR?1Rece@ 100722ec     dynamixel_control_capi.obj
 0002:00003328       ??_C@_0DD@ODOOFGDD@Baseboard?5Serial?1RS232?5ISR?1Rece@ 10072328     dynamixel_control_capi.obj
 0002:00003368       ??_C@_0DC@LCJADEIK@Baseboard?5Serial?1RS232?5ISR?1Rece@ 10072368     dynamixel_control_capi.obj
 0002:000033a4       ??_C@_0DD@OBALLBAC@Baseboard?5Serial?1RS232?5ISR?1Rece@ 100723a4     dynamixel_control_capi.obj
 0002:000033e4       ??_C@_0DF@KADGGLGG@Baseboard?5Serial?1RS232?5ISR?1Tran@ 100723e4     dynamixel_control_capi.obj
 0002:00003424       ??_C@_0DF@ILBLDIKF@Baseboard?5Serial?1RS232?5ISR?1Tran@ 10072424     dynamixel_control_capi.obj
 0002:00003464       ??_C@_0DF@LEAMEKDC@Baseboard?5Serial?1RS232?5ISR?1Tran@ 10072464     dynamixel_control_capi.obj
 0002:000034a4       ??_C@_0DF@JPCBBJPB@Baseboard?5Serial?1RS232?5ISR?1Tran@ 100724a4     dynamixel_control_capi.obj
 0002:000034e4       ??_C@_05LPIJGKJ@Value@     100724e4     dynamixel_control_capi.obj
 0002:000034ec       ??_C@_02KKFPAPOP@P1@       100724ec     dynamixel_control_capi.obj
 0002:000034f0       ??_C@_02IBHCFMCM@P2@       100724f0     dynamixel_control_capi.obj
 0002:000034f4       ??_C@_02JIGJGNGN@P3@       100724f4     dynamixel_control_capi.obj
 0002:000034f8       ??_C@_02NHCIPLKK@P4@       100724f8     dynamixel_control_capi.obj
 0002:000034fc       ??_C@_0BI@JEMNFJLB@Baseboard?5Serial?1Setup1@ 100724fc     dynamixel_control_capi.obj
 0002:00003518       ??_C@_02MODDMKOL@P5@       10072518     dynamixel_control_capi.obj
 0002:0000351c       ??_C@_02OFBOJJCI@P6@       1007251c     dynamixel_control_capi.obj
 0002:00003520       ??_C@_02PMAFKIGJ@P7@       10072520     dynamixel_control_capi.obj
 0002:00003524       ??_C@_02HLJNLEKG@P8@       10072524     dynamixel_control_capi.obj
 0002:00003528       ??_C@_0BI@LPOAAKHC@Baseboard?5Serial?1Setup2@ 10072528     dynamixel_control_capi.obj
 0002:00003544       ??_C@_0CO@HIAPNNHK@Baseboard?5Serial?1RS232?5ISR?1Rece@ 10072544     dynamixel_control_capi.obj
 0002:0000357c       ??_C@_0CO@OBONLLHL@Baseboard?5Serial?1RS232?5ISR?1Rece@ 1007257c     dynamixel_control_capi.obj
 0002:000035b4       ??_C@_0DA@HMICFIIH@Baseboard?5Serial?1RS232?5ISR?1Tran@ 100725b4     dynamixel_control_capi.obj
 0002:000035f0       ??_C@_0DA@CADBNJLE@Baseboard?5Serial?1RS232?5ISR?1Tran@ 100725f0     dynamixel_control_capi.obj
 0002:0000362c       ??_C@_06BNJCAIGJ@double@   1007262c     dynamixel_control_capi.obj
 0002:00003634       ??_C@_06CNMIJIPB@real_T@   10072634     dynamixel_control_capi.obj
 0002:0000363c       ??_C@_0O@PPAIJIHF@unsigned?5char@ 1007263c     dynamixel_control_capi.obj
 0002:0000364c       ??_C@_07NCEHLPOC@uint8_T@  1007264c     dynamixel_control_capi.obj
 0002:00003658       ??_C@_07MMLECJPG@numeric@  10072658     dynamixel_control_capi.obj
 0002:00003664       ??_C@_0O@CEKHAEHG@serialfifoptr@ 10072664     dynamixel_control_capi.obj
 0002:00003674       ??_C@_0P@IIMKEEHB@unsigned?5short@ 10072674     dynamixel_control_capi.obj
 0002:00003688       ??_C@_08NHGKGJKC@uint16_T@ 10072688     dynamixel_control_capi.obj
 0002:00003694       ??_C@_09JBMFCIMO@boolean_T@ 10072694     dynamixel_control_capi.obj
 0002:000036a0       ??_C@_0N@OFHMGPAL@unsigned?5int@ 100726a0     dynamixel_control_capi.obj
 0002:000036b0       ??_C@_08CCMIKNJF@uint32_T@ 100726b0     dynamixel_control_capi.obj
 0002:000036bc       ??_C@_05KNFBNCOH@float@    100726bc     dynamixel_control_capi.obj
 0002:000036c4       ??_C@_0DL@PGGFBBLM@Error?3?5task?5ID?5?$CFd?5is?5out?5of?5ran@ 100726c4     dynamixel_control_xcp_TET.obj
 0002:00003710       __real@3e112e0be826d695    10072710     dynamixel_control_xcp_TET.obj
 0002:00003720       __real@3fefae147ae147ae    10072720     dynamixel_control_xcp_TET.obj
 0002:0000372c       _serialfifoground          1007272c     xpc_datatype_ground.obj
 0002:00003738       _bcmsg1553ground           10072738     xpc_datatype_ground.obj
 0002:00003748       _bcstatground              10072748     xpc_datatype_ground.obj
 0002:00003760       _bmmsg1553ground           10072760     xpc_datatype_ground.obj
 0002:00003780       ??_C@_0BA@OPMNCLAD@FIFO?5overflow?3?5@ 10072780     fiforeadwrite.obj
 0002:00003794       ??_C@_0DJ@GBIJAKNA@Input?5port?5width?5less?5than?5the?5@ 10072794     fiforeadwrite.obj
 0002:000037f4       ??_C@_0BI@INNPNFJN@Memory?5Allocation?5Error@ 100727f4     rtw_modelmap_utils.obj
 0002:00003810       ??_C@_1HC@PKAJIAEN@?$AAC?$AA?3?$AA?2?$AAP?$AAR?$AAO?$AAG?$AAR?$AAA?$AA?$HO?$AA1?$AA?2?$AAM?$AAA?$AAT@ 10072810     rtw_modelmap_utils.obj
 0002:00003898       ??_C@_1CI@OEAJCJND@?$AAj?$AA?5?$AA?$DN?$AA?$DN?$AA?5?$AAe?$AAn?$AAc?$AAo?$AAd?$AAe?$AAd?$AAP?$AAa?$AAt@ 10072898     rtw_modelmap_utils.obj
 0002:000038c8       ??_C@_1DC@NFAOIFKB@?$AAe?$AAn?$AAc?$AAo?$AAd?$AAe?$AAd?$AAP?$AAa?$AAt?$AAh?$AA?$FL?$AAj?$AA?9?$AA1@ 100728c8     rtw_modelmap_utils.obj
 0002:00003904       ??_C@_1DI@FLNJGPEE@?$AAs?$AAi?$AAg?$AAC?$AAo?$AAm?$AAp?$AAl?$AAe?$AAx?$AAi?$AAt?$AAy?$AA?$FL?$AA?$CK@ 10072904     rtw_modelmap_utils.obj
 0002:00003948       ??_C@_1KI@OFELMGBG@?$AA?$CI?$AA?$CI?$AA?$CI?$AAd?$AAa?$AAt?$AAa?$AAT?$AAy?$AAp?$AAe?$AAM?$AAa?$AAp?$AA?$CJ@ 10072948     rtw_modelmap_utils.obj
 0002:00003a14       ??_C@_1DA@ILCMPHNE@?$AAf?$AAu?$AAl?$AAl?$AAP?$AAa?$AAt?$AAh?$AA?5?$AA?$CB?$AA?$DN?$AA?5?$AA?$CI?$AA?$CI?$AAv@ 10072a14     rtw_modelmap_utils.obj
 0002:00003a50       ??_C@_1CI@OEPPFCCA@?$AAp?$AAa?$AAt?$AAh?$AA?5?$AA?$CB?$AA?$DN?$AA?5?$AA?$CI?$AA?$CI?$AAv?$AAo?$AAi?$AAd?$AA?5@ 10072a50     rtw_modelmap_utils.obj
 0002:00003a80       ??_C@_1FK@GLJIMFHB@?$AA?$CI?$AA?$CI?$AAm?$AAm?$AAi?$AA?$CJ?$AA?9?$AA?$DO?$AAI?$AAn?$AAs?$AAt?$AAa?$AAn?$AAc@ 10072a80     rtw_modelmap_utils.obj
 0002:00003aec       ??_C@_1DG@HPCJGNCE@?$AAm?$AAm?$AAi?$AAP?$AAa?$AAt?$AAh?$AA?$FL?$AAp?$AAa?$AAt?$AAh?$AAL?$AAe?$AAn@ 10072aec     rtw_modelmap_utils.obj
 0002:00003b2c       ??_C@_1DM@DBAOGGOO@?$AAm?$AAm?$AAi?$AAP?$AAa?$AAt?$AAh?$AA?$FL?$AAm?$AAm?$AAi?$AAP?$AAa?$AAt?$AAh@ 10072b2c     rtw_modelmap_utils.obj
 0002:00003b74       ??_C@_1DC@LHIAKAFE@?$AAb?$AAl?$AAo?$AAc?$AAk?$AAP?$AAa?$AAt?$AAh?$AA?5?$AA?$CB?$AA?$DN?$AA?5?$AA?$CI?$AA?$CI@ 10072b74     rtw_modelmap_utils.obj
 0002:00003bb0       ??_C@_1GI@KIEJKPGC@?$AAf?$AAu?$AAl?$AAl?$AAS?$AAt?$AAa?$AAt?$AAe?$AAB?$AAl?$AAo?$AAc?$AAk?$AAP@ 10072bb0     rtw_modelmap_utils.obj
 0002:00003c30       ??_C@_1EE@DNPIBJHC@?$AA?$CI?$AA?$CI?$AAd?$AAi?$AAm?$AAM?$AAa?$AAp?$AA?$CJ?$AA?$FL?$AA?$CI?$AAm?$AAa?$AAp?$AAI@ 10072c30     rtw_modelmap_utils.obj
 0002:00003c84       ??_C@_06JFOKFOED@CSTATE@   10072c84     rtw_modelmap_utils.obj
 0002:00003c8c       ??_C@_06FAENGAMN@DSTATE@   10072c8c     rtw_modelmap_utils.obj
 0002:00003c94       ??_C@_1BI@LEBJNOGG@?$AAc?$AAs?$AAv?$AAI?$AAd?$AAx?$AA?5?$AA?$DO?$AA?$DN?$AA?5?$AA0@ 10072c94     rtw_modelmap_utils.obj
 0002:00003cb0       ??_C@_1BA@KDMGHCHP@?$AAT?$AAI?$AAD?$AA?$DN?$AA?$DN?$AA?9?$AA1@ 10072cb0     rtw_modelmap_utils.obj
 0002:00003cc4       ??_C@_1DM@DHGKBPCE@?$AAs?$AAi?$AAg?$AAP?$AAa?$AAt?$AAh?$AA?$FL?$AAs?$AAi?$AAg?$AAP?$AAa?$AAt?$AAh@ 10072cc4     rtw_modelmap_utils.obj
 0002:00003d10       ??_C@_0ED@LKHIFFLC@Wrong?5number?5of?5input?5arguments@ 10072d10     asciiencode.obj
 0002:00003d60       ??_C@_0DO@FPEMOPIN@Converted?5string?5length?5exceeds@ 10072d60     asciiencode.obj
 0002:00003dac       ??_C@_0BI@MKEHIOKD@error?5in?5format?5string?6@ 10072dac     asciiencode.obj
 0002:00003dc8       ??_C@_0BK@EBKJELMI@maxfunc?5?$DN?5?$CFd?5at?5?$FL?$CFd?0?5?$CFd?$FN?6@ 10072dc8     xpcruntime:xpcimports.obj
 0002:00003de8       ??_C@_0CC@DMFKNLL@VendorId?5?$DN?50x?$CFx?0?5DeviceId?5?$DN?50x?$CF@ 10072de8     xpcruntime:xpcimports.obj
 0002:00003e10       ??_C@_0DH@OHCBLNMG@Subsystem?5Device?5ID?5?$DN?50x?$CFx?6Subs@ 10072e10     xpcruntime:xpcimports.obj
 0002:00003e54       ??_C@_0BD@MMMMEFCM@Class?5Code?5?$DN?50x?$CFx?6@ 10072e54     xpcruntime:xpcimports.obj
 0002:00003e6c       ??_C@_0BE@OLDDDNHM@InterruptLine?5?$DN?5?$CFd?6@ 10072e6c     xpcruntime:xpcimports.obj
 0002:00003e84       ??_C@_0CE@IBMFFAPN@bus?5?$DN?5?$CFd?0?5slot?5?$DN?5?$CFd?0?5function?5?$DN@ 10072e84     xpcruntime:xpcimports.obj
 0002:00003eb0       ??_C@_0CE@DGLLGDFH@?5?5?5?5Phys?5?5?5Virtual?5?5?5Length?5IO?1@ 10072eb0     xpcruntime:xpcimports.obj
 0002:00003edc       ??_C@_0BI@FEOPLEMG@?$CF08x?5?$CF08x?5?$CF08x?5?5?5?5?5?5?$CFc?6@ 10072edc     xpcruntime:xpcimports.obj
 0002:00003ef8       ??_C@_0BB@BNNCEDPC@rl32eScopeExists@ 10072ef8     xpcruntime:xpcimports.obj
 0002:00003f0c       ??_C@_0BM@FJBFEGFG@rl32eScopeExists?5not?5found?6@ 10072f0c     xpcruntime:xpcimports.obj
 0002:00003f30       ??_C@_0O@BNNGKJEA@rl32eDefScope@ 10072f30     xpcruntime:xpcimports.obj
 0002:00003f40       ??_C@_0BJ@CDNOENKA@rl32eDefScope?5not?5found?6@ 10072f40     xpcruntime:xpcimports.obj
 0002:00003f60       ??_C@_0P@CKNKILDP@rl32eAddSignal@ 10072f60     xpcruntime:xpcimports.obj
 0002:00003f74       ??_C@_0BK@GMJAJBAI@rl32eAddSignal?5not?5found?6@ 10072f74     xpcruntime:xpcimports.obj
 0002:00003f94       ??_C@_0BB@LDMIHGCE@rl32eGetSignalNo@ 10072f94     xpcruntime:xpcimports.obj
 0002:00003fa8       ??_C@_0BM@LGAMBAID@rl32eGetSignalNo?5not?5found?6@ 10072fa8     xpcruntime:xpcimports.obj
 0002:00003fcc       ??_C@_0O@CFDGALBP@rl32eSetScope@ 10072fcc     xpcruntime:xpcimports.obj
 0002:00003fdc       ??_C@_0BJ@JCLHHIN@rl32eSetScope?5not?5found?6@ 10072fdc     xpcruntime:xpcimports.obj
 0002:00003ffc       ??_C@_0P@IKMCBMHH@xpceFSScopeSet@ 10072ffc     xpcruntime:xpcimports.obj
 0002:00004010       ??_C@_0BK@JODJPNNH@xpceFSScopeSet?5not?5found?6@ 10073010     xpcruntime:xpcimports.obj
 0002:00004030       ??_C@_0BE@DLACEEJM@rl32eSetTargetScope@ 10073030     xpcruntime:xpcimports.obj
 0002:00004048       ??_C@_0BP@JCHFMKPJ@rl32eSetTargetScope?5not?5found?6@ 10073048     xpcruntime:xpcimports.obj
 0002:00004070       ??_C@_0BJ@LIDLNDHC@rl32eSetTargetScopeSigFt@ 10073070     xpcruntime:xpcimports.obj
 0002:00004090       ??_C@_0CE@JLGHCFHI@rl32eSetTargetScopeSigFt?5not?5fo@ 10073090     xpcruntime:xpcimports.obj
 0002:000040bc       ??_C@_0BI@JAPOIDNG@rl32eRestartAcquisition@ 100730bc     xpcruntime:xpcimports.obj
 0002:000040d8       ??_C@_0CD@LLBEFFBO@rl32eRestartAcquisition?5not?5fou@ 100730d8     xpcruntime:xpcimports.obj
 0002:00004104       ??_C@_0P@IEIIADJB@xpceScopeAcqOK@ 10073104     xpcruntime:xpcimports.obj
 0002:00004118       ??_C@_0BK@NJCKNFPN@xpceScopeAcqOK?5not?5found?6@ 10073118     xpcruntime:xpcimports.obj
 0002:00004138       ??_C@_0BA@IJINKAHF@xpceRegisterISR@ 10073138     xpcruntime:xpcimports.obj
 0002:0000414c       ??_C@_0BL@NNDLOEJE@xpceRegisterISR?5not?5found?6@ 1007314c     xpcruntime:xpcimports.obj
 0002:0000416c       ??_C@_0BC@NLBADGKF@xpceDeRegisterISR@ 1007316c     xpcruntime:xpcimports.obj
 0002:00004184       ??_C@_0BN@DCAIKFFD@xpceDeRegisterISR?5not?5found?6@ 10073184     xpcruntime:xpcimports.obj
 0002:000041a8       ??_C@_07JPMEPILD@xpcInpB@  100731a8     xpcruntime:xpcimports.obj
 0002:000041b4       ??_C@_0BD@PGABEJOL@xpcInpB?5not?5found?6@ 100731b4     xpcruntime:xpcimports.obj
 0002:000041cc       ??_C@_07KIHBBOKH@xpcInpW@  100731cc     xpcruntime:xpcimports.obj
 0002:000041d8       ??_C@_0BD@FPCJFMCC@xpcInpW?5not?5found?6@ 100731d8     xpcruntime:xpcimports.obj
 0002:000041f0       ??_C@_08KDIAJBOP@xpcInpDW@ 100731f0     xpcruntime:xpcimports.obj
 0002:000041fc       ??_C@_0BE@PIELDNIL@xpcInpDW?5not?5found?6@ 100731fc     xpcruntime:xpcimports.obj
 0002:00004214       ??_C@_08PJFMOIGO@xpcOutpB@ 10073214     xpcruntime:xpcimports.obj
 0002:00004220       ??_C@_0BE@HCKNCEKF@xpcOutpB?5not?5found?6@ 10073220     xpcruntime:xpcimports.obj
 0002:00004238       ??_C@_08MOOJAOHK@xpcOutpW@ 10073238     xpcruntime:xpcimports.obj
 0002:00004244       ??_C@_0BE@NLIFDBGM@xpcOutpW?5not?5found?6@ 10073244     xpcruntime:xpcimports.obj
 0002:0000425c       ??_C@_09FLIEKHJG@xpcOutpDW@ 1007325c     xpcruntime:xpcimports.obj
 0002:00004268       ??_C@_0BF@GJKLPNHB@xpcOutpDW?5not?5found?6@ 10073268     xpcruntime:xpcimports.obj
 0002:00004284       ??_C@_0BH@EHOLELHH@xpcReserveMemoryRegion@ 10073284     xpcruntime:xpcimports.obj
 0002:000042a0       ??_C@_0CC@KAAAGPI@xpcReserveMemoryRegion?5not?5foun@ 100732a0     xpcruntime:xpcimports.obj
 0002:000042c8       ??_C@_0BA@JGPMHGAF@rl32eShowPCIDev@ 100732c8     xpcruntime:xpcimports.obj
 0002:000042dc       ??_C@_0BL@DDFFLNHI@rl32eShowPCIDev?5not?5found?6@ 100732dc     xpcruntime:xpcimports.obj
 0002:000042fc       ??_C@_0BB@KBCOJPFB@rl32eShowPCIInfo@ 100732fc     xpcruntime:xpcimports.obj
 0002:00004310       ??_C@_0BM@IFDMAGLO@rl32eShowPCIInfo?5not?5found?6@ 10073310     xpcruntime:xpcimports.obj
 0002:00004334       ??_C@_0BA@BGPAADB@rl32eGetPCIInfo@ 10073334     xpcruntime:xpcimports.obj
 0002:00004348       ??_C@_0BL@IGOMLDCK@rl32eGetPCIInfo?5not?5found?6@ 10073348     xpcruntime:xpcimports.obj
 0002:00004368       ??_C@_0BG@NJPFKFDP@rl32eGetPCIInfoAtSlot@ 10073368     xpcruntime:xpcimports.obj
 0002:00004384       ??_C@_0CB@BBKIPMLA@rl32eGetPCIInfoAtSlot?5not?5found@ 10073384     xpcruntime:xpcimports.obj
 0002:000043ac       ??_C@_0BH@OKBOPNFG@xpceAssignPCIInterrupt@ 100733ac     xpcruntime:xpcimports.obj
 0002:000043c8       ??_C@_0CC@CDNDNJBJ@xpceAssignPCIInterrupt?5not?5foun@ 100733c8     xpcruntime:xpcimports.obj
 0002:000043f0       ??_C@_0BD@PCKOKHO@xpceGetSignalValue@ 100733f0     xpcruntime:xpcimports.obj
 0002:00004408       ??_C@_0BO@GCBDJHMB@xpceGetSignalValue?5not?5found?6@ 10073408     xpcruntime:xpcimports.obj
 0002:0000442c       ??_C@_0BB@BJONJAGA@xpceSetParameter@ 1007342c     xpcruntime:xpcimports.obj
 0002:00004440       ??_C@_0BM@BJIKDLHA@xpceSetParameter?5not?5found?6@ 10073440     xpcruntime:xpcimports.obj
 0002:00004464       ??_C@_0BB@GNFDFMCM@xpceGetParameter@ 10073464     xpcruntime:xpcimports.obj
 0002:00004478       ??_C@_0BM@POHNKBC@xpceGetParameter?5not?5found?6@ 10073478     xpcruntime:xpcimports.obj
 0002:0000449c       ??_C@_0BB@CEIJLFCD@xpceGetParamDims@ 1007349c     xpcruntime:xpcimports.obj
 0002:000044b0       ??_C@_0BM@OABDBKAO@xpceGetParamDims?5not?5found?6@ 100734b0     xpcruntime:xpcimports.obj
 0002:000044d4       ??_C@_0L@OCBLLHBM@xpceGetTET@ 100734d4     xpcruntime:xpcimports.obj
 0002:000044e4       ??_C@_0BG@HNOFBOB@xpceGetTET?5not?5found?6@ 100734e4     xpcruntime:xpcimports.obj
 0002:00004500       ??_C@_0P@OKGNGAGH@xpcIsModelInit@ 10073500     xpcruntime:xpcimports.obj
 0002:00004514       ??_C@_0BK@DHEMLBIM@xpcIsModelInit?5not?5found?6@ 10073514     xpcruntime:xpcimports.obj
 0002:00004534       ??_C@_0BH@KJJLCAOJ@xpcAllocPhysicalMemory@ 10073534     xpcruntime:xpcimports.obj
 0002:00004550       ??_C@_0CC@MOJPNHKL@xpcAllocPhysicalMemory?5not?5foun@ 10073550     xpcruntime:xpcimports.obj
 0002:00004578       ??_C@_0BG@CBNPGAEL@xpcFreePhysicalMemory@ 10073578     xpcruntime:xpcimports.obj
 0002:00004594       ??_C@_0CB@PKJEBPOG@xpcFreePhysicalMemory?5not?5found@ 10073594     xpcruntime:xpcimports.obj
 0002:000045bc       ??_C@_0BC@JGKNLICL@xpcGetElapsedTime@ 100735bc     xpcruntime:xpcimports.obj
 0002:000045d4       ??_C@_0BN@OEOAHCIO@xpcGetElapsedTime?5not?5found?6@ 100735d4     xpcruntime:xpcimports.obj
 0002:000045f8       ??_C@_0M@ICBLMODA@xpcBusyWait@ 100735f8     xpcruntime:xpcimports.obj
 0002:00004608       ??_C@_0BH@FBOPECBI@xpcBusyWait?5not?5found?6@ 10073608     xpcruntime:xpcimports.obj
 0002:00004624       ??_C@_0N@LKKJEKKA@TBCreateSpin@ 10073624     xpcruntime:xpcimports.obj
 0002:00004634       ??_C@_0BI@FHKMLKOE@TBCreateSpin?5not?5found?6@ 10073634     xpcruntime:xpcimports.obj
 0002:00004650       ??_C@_0N@HOAJHNBD@TBDeleteSpin@ 10073650     xpcruntime:xpcimports.obj
 0002:00004660       ??_C@_0BI@BKCPAAG@TBDeleteSpin?5not?5found?6@ 10073660     xpcruntime:xpcimports.obj
 0002:0000467c       ??_C@_0P@DAHDDBJG@TBTakeSpinFast@ 1007367c     xpcruntime:xpcimports.obj
 0002:00004690       ??_C@_0BK@NKAIBHGB@TBTakeSpinFast?5not?5found?6@ 10073690     xpcruntime:xpcimports.obj
 0002:000046b0       ??_C@_0P@FKNAAELA@TBGiveSpinFast@ 100736b0     xpcruntime:xpcimports.obj
 0002:000046c4       ??_C@_0BK@KGPJBJND@TBGiveSpinFast?5not?5found?6@ 100736c4     xpcruntime:xpcimports.obj
 0002:000046e4       ??_C@_0BE@IIGBFDHK@xpceCreateSemaphore@ 100736e4     xpcruntime:xpcimports.obj
 0002:000046fc       ??_C@_0BP@KFBAFFKJ@xpceCreateSemaphore?5not?5found?6@ 100736fc     xpcruntime:xpcimports.obj
 0002:00004724       ??_C@_0BC@IFNIONKJ@xpceWaitSemaphore@ 10073724     xpcruntime:xpcimports.obj
 0002:0000473c       ??_C@_0BN@NMFAADIO@xpceWaitSemaphore?5not?5found?6@ 1007373c     xpcruntime:xpcimports.obj
 0002:00004760       ??_C@_0BE@NNDIOBKE@xpceSignalSemaphore@ 10073760     xpcruntime:xpcimports.obj
 0002:00004778       ??_C@_0BP@LBANMHJP@xpceSignalSemaphore?5not?5found?6@ 10073778     xpcruntime:xpcimports.obj
 0002:000047a0       ??_C@_0BE@MEBEKOIM@xpceDeleteSemaphore@ 100737a0     xpcruntime:xpcimports.obj
 0002:000047b8       ??_C@_0BP@OFNCKOJH@xpceDeleteSemaphore?5not?5found?6@ 100737b8     xpcruntime:xpcimports.obj
 0002:000047e0       ??_C@_0BD@MFNDMBOF@FindUsbVideoDevice@ 100737e0     xpcruntime:xpcimports.obj
 0002:000047f8       ??_C@_0BO@POKLDHMI@FindUsbVideoDevice?5not?5found?6@ 100737f8     xpcruntime:xpcimports.obj
 0002:0000481c       ??_C@_0BA@PLPAPNAB@GetVideoConfigs@ 1007381c     xpcruntime:xpcimports.obj
 0002:00004830       ??_C@_0BL@DALDHKHC@GetVideoConfigs?5not?5found?6@ 10073830     xpcruntime:xpcimports.obj
 0002:00004850       ??_C@_0L@GBAEMHMH@StartVideo@ 10073850     xpcruntime:xpcimports.obj
 0002:00004860       ??_C@_0BG@HDCELEBP@StartVideo?5not?5found?6@ 10073860     xpcruntime:xpcimports.obj
 0002:0000487c       ??_C@_0BA@FDNPOCLN@ReadFrameBuffer@ 1007387c     xpcruntime:xpcimports.obj
 0002:00004890       ??_C@_0BL@JHGHPNBI@ReadFrameBuffer?5not?5found?6@ 10073890     xpcruntime:xpcimports.obj
 0002:000048b0       ??_C@_09FAHCLKAG@StopVideo@ 100738b0     xpcruntime:xpcimports.obj
 0002:000048bc       ??_C@_0BF@NKGKKADL@StopVideo?5not?5found?6@ 100738bc     xpcruntime:xpcimports.obj
 0002:000048d8       ??_C@_0O@MCPKDLLL@ConvertUImage@ 100738d8     xpcruntime:xpcimports.obj
 0002:000048e8       ??_C@_0BJ@PHJKOAFL@ConvertUImage?5not?5found?6@ 100738e8     xpcruntime:xpcimports.obj
 0002:00004908       ??_C@_0BD@NKCBPBJJ@CreateVideoDisplay@ 10073908     xpcruntime:xpcimports.obj
 0002:00004920       ??_C@_0BO@HPPLLNFP@CreateVideoDisplay?5not?5found?6@ 10073920     xpcruntime:xpcimports.obj
 0002:00004944       ??_C@_0BE@KJCKGPHA@DestroyVideoDisplay@ 10073944     xpcruntime:xpcimports.obj
 0002:0000495c       ??_C@_0BP@FMGLJAIJ@DestroyVideoDisplay?5not?5found?6@ 1007395c     xpcruntime:xpcimports.obj
 0002:00004984       ??_C@_0BC@HCMIMIDN@StartVideoDisplay@ 10073984     xpcruntime:xpcimports.obj
 0002:0000499c       ??_C@_0BN@EFIEBGOO@StartVideoDisplay?5not?5found?6@ 1007399c     xpcruntime:xpcimports.obj
 0002:000049c0       ??_C@_0BB@JBBLMILG@StopVideoDisplay@ 100739c0     xpcruntime:xpcimports.obj
 0002:000049d4       ??_C@_0BM@DBJBPLEL@StopVideoDisplay?5not?5found?6@ 100739d4     xpcruntime:xpcimports.obj
 0002:000049f8       ??_C@_0M@MFJEGMHC@StreamVideo@ 100739f8     xpcruntime:xpcimports.obj
 0002:00004a08       ??_C@_0BH@OINCDMLA@StreamVideo?5not?5found?6@ 10073a08     xpcruntime:xpcimports.obj
 0002:00004a24       ??_C@_0N@IGGLCIGE@xpceaddEvent@ 10073a24     xpcruntime:xpcimports.obj
 0002:00004a34       ??_C@_0BI@NHJNFMKH@xpceaddEvent?5not?5found?6@ 10073a34     xpcruntime:xpcimports.obj
 0002:00004a50       ??_C@_0BC@MLJODBHJ@slrtStartProfiler@ 10073a50     xpcruntime:xpcimports.obj
 0002:00004a68       ??_C@_0BN@HLNCOKA@slrtStartProfiler?5not?5found?6@ 10073a68     xpcruntime:xpcimports.obj
 0002:00004a8c       ??_C@_0BB@ONJONMCD@slrtStopProfiler@ 10073a8c     xpcruntime:xpcimports.obj
 0002:00004aa0       ??_C@_0BM@GAKJEGBA@slrtStopProfiler?5not?5found?6@ 10073aa0     xpcruntime:xpcimports.obj
 0002:00004ac4       ??_C@_0BF@EILBHBBF@slrtGetProfilerState@ 10073ac4     xpcruntime:xpcimports.obj
 0002:00004ae0       ??_C@_0CA@EDDFOCLE@slrtGetProfilerState?5not?5found?6@ 10073ae0     xpcruntime:xpcimports.obj
 0002:00004b08       ??_C@_0BB@HDPOIJAB@xpceDAQPostEvent@ 10073b08     xpcruntime:xpcimports.obj
 0002:00004b1c       ??_C@_0BM@IHANBKGN@xpceDAQPostEvent?5not?5found?6@ 10073b1c     xpcruntime:xpcimports.obj
 0002:00004b40       ??_C@_0BH@MBACMOD@xpceDAQUpdateTimeStamp@ 10073b40     xpcruntime:xpcimports.obj
 0002:00004b5c       ??_C@_0CC@DAKBBINL@xpceDAQUpdateTimeStamp?5not?5foun@ 10073b5c     xpcruntime:xpcimports.obj
 0002:00004b84       ??_C@_0BD@HLALHPHI@slrtRegisterSignal@ 10073b84     xpcruntime:xpcimports.obj
 0002:00004b9c       ??_C@_0BO@BALEBHKF@slrtRegisterSignal?5not?5found?6@ 10073b9c     xpcruntime:xpcimports.obj
 0002:00004bc0       ??_C@_0O@DKILEOIJ@slrtLogSignal@ 10073bc0     xpcruntime:xpcimports.obj
 0002:00004bd0       ??_C@_0BJ@FMKKIEDD@slrtLogSignal?5not?5found?6@ 10073bd0     xpcruntime:xpcimports.obj
 0002:00004bf0       ??_C@_0BG@CCHICKPN@slrteSetStepSizeDelta@ 10073bf0     xpcruntime:xpcimports.obj
 0002:00004c0c       ??_C@_0CB@MKHINEIJ@slrteSetStepSizeDelta?5not?5found@ 10073c0c     xpcruntime:xpcimports.obj
 0002:00004c34       ??_C@_0BI@CLNBLDKJ@slrteGetCurrentStepSize@ 10073c34     xpcruntime:xpcimports.obj
 0002:00004c50       ??_C@_0CD@GIOJPGJA@slrteGetCurrentStepSize?5not?5fou@ 10073c50     xpcruntime:xpcimports.obj
 0002:00004c7c       ??_C@_0BE@FCLCBOC@registerPTPTimeRead@ 10073c7c     xpcruntime:xpcimports.obj
 0002:00004c94       ??_C@_0BP@LHPKAJIP@registerPTPTimeRead?5not?5found?6@ 10073c94     xpcruntime:xpcimports.obj
 0002:00004cbc       ??_C@_0BG@KIGCDDJI@unRegisterPTPTimeRead@ 10073cbc     xpcruntime:xpcimports.obj
 0002:00004cd8       ??_C@_0CB@MLFFBFCM@unRegisterPTPTimeRead?5not?5found@ 10073cd8     xpcruntime:xpcimports.obj
 0002:00004d00       ??_C@_0BB@IPMDDBHK@slTestInitialize@ 10073d00     xpcruntime:xpcimports.obj
 0002:00004d14       ??_C@_0BM@LAJFCCJH@slTestInitialize?5not?5found?6@ 10073d14     xpcruntime:xpcimports.obj
 0002:00004d38       ??_C@_0BF@OOMPMEBC@slTestLogAssessments@ 10073d38     xpcruntime:xpcimports.obj
 0002:00004d54       ??_C@_0CA@FGJCEBAG@slTestLogAssessments?5not?5found?6@ 10073d54     xpcruntime:xpcimports.obj
 0002:00004d7c       ??_C@_0BB@HJHKONHO@slTestEvalOnFail@ 10073d7c     xpcruntime:xpcimports.obj
 0002:00004d90       ??_C@_0BM@JIKCFFNJ@slTestEvalOnFail?5not?5found?6@ 10073d90     xpcruntime:xpcimports.obj
 0002:00004db4       ??_C@_0BA@LBHLABFP@slTestTerminate@ 10073db4     xpcruntime:xpcimports.obj
 0002:00004dc8       ??_C@_0BL@EMFGKAPA@slTestTerminate?5not?5found?6@ 10073dc8     xpcruntime:xpcimports.obj
 0002:00004de8       ??_C@_0BE@JPNPBBEO@slTestRegAssessment@ 10073de8     xpcruntime:xpcimports.obj
 0002:00004e00       ??_C@_0BP@FBDEJJJH@slTestRegAssessment?5not?5found?6@ 10073e00     xpcruntime:xpcimports.obj
 0002:00004e28       ??_C@_0O@NCLGDNIB@slrteSetupMSI@ 10073e28     xpcruntime:xpcimports.obj
 0002:00004e38       ??_C@_0BJ@HEFMECLM@slrteSetupMSI?5not?5found?6@ 10073e38     xpcruntime:xpcimports.obj
 0002:00004e58       ??_C@_0BH@BPOLALHD@slrtGetCRBScratchSpace@ 10073e58     xpcruntime:xpcimports.obj
 0002:00004e74       ??_C@_0CC@KCKAJKKJ@slrtGetCRBScratchSpace?5not?5foun@ 10073e74     xpcruntime:xpcimports.obj
 0002:00004e9c       ??_C@_0BC@MKFDAKOL@slrtGetSgCRBSpace@ 10073e9c     xpcruntime:xpcimports.obj
 0002:00004eb4       ??_C@_0BN@JDPHPLHL@slrtGetSgCRBSpace?5not?5found?6@ 10073eb4     xpcruntime:xpcimports.obj
 0002:00004ed8       ??_C@_0P@EPAPKLIF@slrtfsOpenFile@ 10073ed8     xpcruntime:xpcimports.obj
 0002:00004eec       ??_C@_0BK@FIHCBOHG@slrtfsOpenFile?5not?5found?6@ 10073eec     xpcruntime:xpcimports.obj
 0002:00004f0c       ??_C@_0BA@LILAFDDL@slrtfsCloseFile@ 10073f0c     xpcruntime:xpcimports.obj
 0002:00004f20       ??_C@_0BL@DEGHJFIB@slrtfsCloseFile?5not?5found?6@ 10073f20     xpcruntime:xpcimports.obj
 0002:00004f40       ??_C@_0BC@OKMJDIEH@slrtfsWriteToFile@ 10073f40     xpcruntime:xpcimports.obj
 0002:00004f58       ??_C@_0BN@KCFLCLAH@slrtfsWriteToFile?5not?5found?6@ 10073f58     xpcruntime:xpcimports.obj
 0002:00004f7c       ??_C@_0BK@GIPNFFFF@slrtfsGetFileErrorMessage@ 10073f7c     xpcruntime:xpcimports.obj
 0002:00004f9c       ??_C@_0CF@BCBLMKLE@slrtfsGetFileErrorMessage?5not?5f@ 10073f9c     xpcruntime:xpcimports.obj
 0002:00004fc8       ??_C@_0BD@ICBOKMK@slrtfsGetFileError@ 10073fc8     xpcruntime:xpcimports.obj
 0002:00004fe0       ??_C@_0BO@FNBANAE@slrtfsGetFileError?5not?5found?6@ 10073fe0     xpcruntime:xpcimports.obj
 0002:00005004       ??_C@_0BE@PPAJMHJP@slrtfsOpenFileAsync@ 10074004     xpcruntime:xpcimports.obj
 0002:0000501c       ??_C@_0BP@HKBMMJOK@slrtfsOpenFileAsync?5not?5found?6@ 1007401c     xpcruntime:xpcimports.obj
 0002:00005044       ??_C@_0BF@IGNDIBPF@slrtfsCloseFileAsync@ 10074044     xpcruntime:xpcimports.obj
 0002:00005060       ??_C@_0CA@GJPFDBKN@slrtfsCloseFileAsync?5not?5found?6@ 10074060     xpcruntime:xpcimports.obj
 0002:00005088       ??_C@_0BE@IOLEBNB@slrtfsGetFileStatus@ 10074088     xpcruntime:xpcimports.obj
 0002:000050a0       ??_C@_0BP@PEFHDGHL@slrtfsGetFileStatus?5not?5found?6@ 100740a0     xpcruntime:xpcimports.obj
 0002:000050c8       ??_C@_0M@HKIJIMG@slrtfsFread@ 100740c8     xpcruntime:xpcimports.obj
 0002:000050d8       ??_C@_0BH@OOKBGONO@slrtfsFread?5not?5found?6@ 100740d8     xpcruntime:xpcimports.obj
 0002:000050f4       ??_C@_0BE@OGCMPLAP@slrtGetDefaultDrive@ 100740f4     xpcruntime:xpcimports.obj
 0002:0000510c       ??_C@_0BP@HKFGLHOE@slrtGetDefaultDrive?5not?5found?6@ 1007410c     xpcruntime:xpcimports.obj
 0002:00005134       ??_C@_0N@NAJIKFFI@slrtLogEvent@ 10074134     xpcruntime:xpcimports.obj
 0002:00005144       ??_C@_0BI@NKCEACND@slrtLogEvent?5not?5found?6@ 10074144     xpcruntime:xpcimports.obj
 0002:00005160       ??_C@_0N@IDKFJOHI@getlasterror@ 10074160     xpcruntime:xpcimports.obj
 0002:00005170       ??_C@_0BI@MIHMCHGL@getlasterror?5not?5found?6@ 10074170     xpcruntime:xpcimports.obj
 0002:0000518c       ??_C@_0P@OKHGKJKN@geterrorstring@ 1007418c     xpcruntime:xpcimports.obj
 0002:000051a0       ??_C@_0BK@NOHFDMLP@geterrorstring?5not?5found?6@ 100741a0     xpcruntime:xpcimports.obj
 0002:000051c0       ??_C@_0BD@HNFFKMGJ@slrtGetCPUTCelsius@ 100741c0     xpcruntime:xpcimports.obj
 0002:000051d8       ??_C@_0BO@LHBFKLIH@slrtGetCPUTCelsius?5not?5found?6@ 100741d8     xpcruntime:xpcimports.obj
 0002:000051fc       ??_C@_0M@OONCNCLM@slrtWarning@ 100741fc     xpcruntime:xpcimports.obj
 0002:0000520c       ??_C@_0BH@ICKGIEMB@slrtWarning?5not?5found?6@ 1007420c     xpcruntime:xpcimports.obj
 0002:00005228       ??_C@_0M@JACEPOPN@registerNIC@ 10074228     xpcruntime:xpcimports.obj
 0002:00005238       ??_C@_0BH@JMDHJIAC@registerNIC?5not?5found?6@ 10074238     xpcruntime:xpcimports.obj
 0002:00005254       ??_C@_0M@KBKHECFH@NICSetIface@ 10074254     xpcruntime:xpcimports.obj
 0002:00005264       ??_C@_0BH@NJAHOBA@NICSetIface?5not?5found?6@ 10074264     xpcruntime:xpcimports.obj
 0002:00005280       ??_C@_0M@FAILFBCK@NICGetIface@ 10074280     xpcruntime:xpcimports.obj
 0002:00005290       ??_C@_0BH@KDLLDOGM@NICGetIface?5not?5found?6@ 10074290     xpcruntime:xpcimports.obj
 0002:000052ac       ??_C@_0L@JNFPDPO@releaseNIC@ 100742ac     xpcruntime:xpcimports.obj
 0002:000052bc       ??_C@_0BG@EBGJANLA@releaseNIC?5not?5found?6@ 100742bc     xpcruntime:xpcimports.obj
 0002:000052d8       ??_C@_0BC@HLDKJAG@SetIPTASKPriority@ 100742d8     xpcruntime:xpcimports.obj
 0002:000052f0       ??_C@_0BN@OGKMHHAE@SetIPTASKPriority?5not?5found?6@ 100742f0     xpcruntime:xpcimports.obj
 0002:00005314       ??_C@_0O@LHENMBDD@OpenInterface@ 10074314     xpcruntime:xpcimports.obj
 0002:00005324       ??_C@_0BJ@PFGDBKHB@OpenInterface?5not?5found?6@ 10074324     xpcruntime:xpcimports.obj
 0002:00005344       ??_C@_0P@IINFELKD@CloseInterface@ 10074344     xpcruntime:xpcimports.obj
 0002:00005358       ??_C@_0BK@PAPDNDBK@CloseInterface?5not?5found?6@ 10074358     xpcruntime:xpcimports.obj
 0002:00005378       ??_C@_05LEFIAAOI@SetIP@    10074378     xpcruntime:xpcimports.obj
 0002:00005380       ??_C@_0BB@CGLIBAMM@SetIP?5not?5found?6@ 10074380     xpcruntime:xpcimports.obj
 0002:00005394       ??_C@_0BA@HIJJHHMD@AddGatewayRoute@ 10074394     xpcruntime:xpcimports.obj
 0002:000053a8       ??_C@_0BL@BFCFMDMN@AddGatewayRoute?5not?5found?6@ 100743a8     xpcruntime:xpcimports.obj
 0002:000053c8       ??_C@_0BC@OGIEOMEH@AddMulticastRoute@ 100743c8     xpcruntime:xpcimports.obj
 0002:000053e0       ??_C@_0BN@IMNDPFCL@AddMulticastRoute?5not?5found?6@ 100743e0     xpcruntime:xpcimports.obj
 0002:00005404       ??_C@_0M@PHMABFPI@DeleteRoute@ 10074404     xpcruntime:xpcimports.obj
 0002:00005414       ??_C@_0BH@JPJGLLID@DeleteRoute?5not?5found?6@ 10074414     xpcruntime:xpcimports.obj
 0002:00005430       ??_C@_0BA@FCDIMKIJ@GetHostTarIPAdd@ 10074430     xpcruntime:xpcimports.obj
 0002:00005444       ??_C@_0BL@MBKDGKBO@GetHostTarIPAdd?5not?5found?6@ 10074444     xpcruntime:xpcimports.obj
 0002:00005464       ??_C@_0M@HPMIPIBI@GetDCUUsage@ 10074464     xpcruntime:xpcimports.obj
 0002:00005474       ??_C@_0BH@EBLJKCJC@GetDCUUsage?5not?5found?6@ 10074474     xpcruntime:xpcimports.obj
 0002:00005490       ??_C@_06MPKMECK@accept@    10074490     xpcruntime:xpcimports.obj
 0002:00005498       ??_C@_0BC@GBGIEMNO@accept?5not?5found?6@ 10074498     xpcruntime:xpcimports.obj
 0002:000054b0       ??_C@_04NPNJNMMP@bind@     100744b0     xpcruntime:xpcimports.obj
 0002:000054b8       ??_C@_0BA@DAJNENLO@bind?5not?5found?6@ 100744b8     xpcruntime:xpcimports.obj
 0002:000054cc       ??_C@_0L@CKHNIFCM@setsockopt@ 100744cc     xpcruntime:xpcimports.obj
 0002:000054dc       ??_C@_0BG@MFIIOMFE@setsockopt?5not?5found?6@ 100744dc     xpcruntime:xpcimports.obj
 0002:000054f8       ??_C@_0M@ODDJDCDK@closesocket@ 100744f8     xpcruntime:xpcimports.obj
 0002:00005508       ??_C@_0BH@JHGHMIL@closesocket?5not?5found?6@ 10074508     xpcruntime:xpcimports.obj
 0002:00005524       ??_C@_07KAIBNCHO@connect@  10074524     xpcruntime:xpcimports.obj
 0002:00005530       ??_C@_0BD@MKLLMBM@connect?5not?5found?6@ 10074530     xpcruntime:xpcimports.obj
 0002:00005548       ??_C@_0M@PBPOCKDG@ioctlsocket@ 10074548     xpcruntime:xpcimports.obj
 0002:00005558       ??_C@_0BH@NFCNHHIH@ioctlsocket?5not?5found?6@ 10074558     xpcruntime:xpcimports.obj
 0002:00005574       ??_C@_06OODDLKLE@listen@   10074574     xpcruntime:xpcimports.obj
 0002:0000557c       ??_C@_0BC@NHBILEKI@listen?5not?5found?6@ 1007457c     xpcruntime:xpcimports.obj
 0002:00005594       ??_C@_08HMBBGFHE@recvfrom@ 10074594     xpcruntime:xpcimports.obj
 0002:000055a0       ??_C@_0BE@BJAJFFLF@recvfrom?5not?5found?6@ 100745a0     xpcruntime:xpcimports.obj
 0002:000055b8       ??_C@_06MEPBGKEC@sendto@   100745b8     xpcruntime:xpcimports.obj
 0002:000055c0       ??_C@_0BC@BHPIMDJO@sendto?5not?5found?6@ 100745c0     xpcruntime:xpcimports.obj
 0002:000055d8       ??_C@_09JKBDEEOB@inet_addr@ 100745d8     xpcruntime:xpcimports.obj
 0002:000055e4       ??_C@_0BF@HKJPGECN@inet_addr?5not?5found?6@ 100745e4     xpcruntime:xpcimports.obj
 0002:00005600       ??_C@_06HBELJPBO@socket@   10074600     xpcruntime:xpcimports.obj
 0002:00005608       ??_C@_0BC@NAGFFJGA@socket?5not?5found?6@ 10074608     xpcruntime:xpcimports.obj
 0002:00005620       ??_C@_09ICJIFGNC@GetSocket@ 10074620     xpcruntime:xpcimports.obj
 0002:0000562c       ??_C@_0BF@KDBCKMOJ@GetSocket?5not?5found?6@ 1007462c     xpcruntime:xpcimports.obj
 0002:00005648       ??_C@_0P@KJEGJMJI@GetSocketState@ 10074648     xpcruntime:xpcimports.obj
 0002:0000565c       ??_C@_0BK@IALBJHEB@GetSocketState?5not?5found?6@ 1007465c     xpcruntime:xpcimports.obj
 0002:0000567c       ??_C@_0L@MEAJHNHB@SocketSend@ 1007467c     xpcruntime:xpcimports.obj
 0002:0000568c       ??_C@_0BG@EOCMBFJA@SocketSend?5not?5found?6@ 1007468c     xpcruntime:xpcimports.obj
 0002:000056a8       ??_C@_0O@PFPCLEMF@SocketReceive@ 100746a8     xpcruntime:xpcimports.obj
 0002:000056b8       ??_C@_0BJ@HIBADDFO@SocketReceive?5not?5found?6@ 100746b8     xpcruntime:xpcimports.obj
 0002:000056d8       ??_C@_0BD@OOGFNAIK@CreateServerSocket@ 100746d8     xpcruntime:xpcimports.obj
 0002:000056f0       ??_C@_0BO@GKIJHIPH@CreateServerSocket?5not?5found?6@ 100746f0     xpcruntime:xpcimports.obj
 0002:00005714       ??_C@_0BB@KGHJGFFO@OpenServerListen@ 10074714     xpcruntime:xpcimports.obj
 0002:00005728       ??_C@_0BM@NFMMLIO@OpenServerListen?5not?5found?6@ 10074728     xpcruntime:xpcimports.obj
 0002:0000574c       ??_C@_0BE@BAJLDJAH@ConnectServerSocket@ 1007474c     xpcruntime:xpcimports.obj
 0002:00005764       ??_C@_0BP@KJNODIKE@ConnectServerSocket?5not?5found?6@ 10074764     xpcruntime:xpcimports.obj
 0002:0000578c       ??_C@_0BC@PLKKJDIM@CloseServerSocket@ 1007478c     xpcruntime:xpcimports.obj
 0002:000057a4       ??_C@_0BN@KEJEPNMB@CloseServerSocket?5not?5found?6@ 100747a4     xpcruntime:xpcimports.obj
 0002:000057c8       ??_C@_0BC@IHMNIGFJ@ResetServerSocket@ 100747c8     xpcruntime:xpcimports.obj
 0002:000057e0       ??_C@_0BN@NIOGJLCG@ResetServerSocket?5not?5found?6@ 100747e0     xpcruntime:xpcimports.obj
 0002:00005804       ??_C@_0BD@MCLPKCPP@CreateClientSocket@ 10074804     xpcruntime:xpcimports.obj
 0002:0000581c       ??_C@_0BO@DILAGPFN@CreateClientSocket?5not?5found?6@ 1007481c     xpcruntime:xpcimports.obj
 0002:00005840       ??_C@_0BB@DAPKNNLG@BindClientSocket@ 10074840     xpcruntime:xpcimports.obj
 0002:00005854       ??_C@_0BM@LLLMMDFN@BindClientSocket?5not?5found?6@ 10074854     xpcruntime:xpcimports.obj
 0002:00005878       ??_C@_0BE@DMEBELHC@ConnectClientSocket@ 10074878     xpcruntime:xpcimports.obj
 0002:00005890       ??_C@_0BP@PLOHCPAO@ConnectClientSocket?5not?5found?6@ 10074890     xpcruntime:xpcimports.obj
 0002:000058b8       ??_C@_0BC@NHHAOBPJ@CloseClientSocket@ 100748b8     xpcruntime:xpcimports.obj
 0002:000058d0       ??_C@_0BN@PGKNOKGL@CloseClientSocket?5not?5found?6@ 100748d0     xpcruntime:xpcimports.obj
 0002:000058f4       ??_C@_0BC@KLBHPECM@ResetClientSocket@ 100748f4     xpcruntime:xpcimports.obj
 0002:0000590c       ??_C@_0BN@IKNPIMIM@ResetClientSocket?5not?5found?6@ 1007490c     xpcruntime:xpcimports.obj
 0002:00005930       ??_C@_0M@IJOPFCCE@UDPOpenSend@ 10074930     xpcruntime:xpcimports.obj
 0002:00005940       ??_C@_0BH@CCHBDPG@UDPOpenSend?5not?5found?6@ 10074940     xpcruntime:xpcimports.obj
 0002:0000595c       ??_C@_0P@MEPACHPD@UDPOpenReceive@ 1007495c     xpcruntime:xpcimports.obj
 0002:00005970       ??_C@_0BK@PFMCPKIO@UDPOpenReceive?5not?5found?6@ 10074970     xpcruntime:xpcimports.obj
 0002:00005990       ??_C@_0BK@BGNLEHGA@UDPAddMulticastMembership@ 10074990     xpcruntime:xpcimports.obj
 0002:000059b0       ??_C@_0CF@CAEMAELE@UDPAddMulticastMembership?5not?5f@ 100749b0     xpcruntime:xpcimports.obj
 0002:000059dc       ??_C@_0N@NMMOLOEM@UDPCloseSend@ 100749dc     xpcruntime:xpcimports.obj
 0002:000059ec       ??_C@_0BI@ENKCOCDG@UDPCloseSend?5not?5found?6@ 100749ec     xpcruntime:xpcimports.obj
 0002:00005a08       ??_C@_0BA@DMJGBBIA@UDPCloseReceive@ 10074a08     xpcruntime:xpcimports.obj
 0002:00005a1c       ??_C@_0BL@PEBIMLNC@UDPCloseReceive?5not?5found?6@ 10074a1c     xpcruntime:xpcimports.obj
 0002:00005a3c       ??_C@_0P@NPOCJKPL@registerDFTask@ 10074a3c     xpcruntime:xpcimports.obj
 0002:00005a50       ??_C@_0BK@JHOOFMMI@registerDFTask?5not?5found?6@ 10074a50     xpcruntime:xpcimports.obj
 0002:00005a70       ??_C@_0BB@ICCLEIPB@deregisterDFTask@ 10074a70     xpcruntime:xpcimports.obj
 0002:00005a84       ??_C@_0BM@PEOCAIDM@deregisterDFTask?5not?5found?6@ 10074a84     xpcruntime:xpcimports.obj
 0002:00005aa8       ??_C@_0O@PHHDMOJH@triggerDFTask@ 10074aa8     xpcruntime:xpcimports.obj
 0002:00005ab8       ??_C@_0BJ@IKKCFBJL@triggerDFTask?5not?5found?6@ 10074ab8     xpcruntime:xpcimports.obj
 0002:00005ad8       ??_C@_0O@IAHKGBOC@waitForDFTask@ 10074ad8     xpcruntime:xpcimports.obj
 0002:00005ae8       ??_C@_0BJ@FHLCNAKE@waitForDFTask?5not?5found?6@ 10074ae8     xpcruntime:xpcimports.obj
 0002:00005bb8       __pRawDllMain              10074bb8     LIBCMT:dll_dllmain.obj
 0002:00005bb8       __pDefaultRawDllMain       10074bb8     LIBCMT:dll_dllmain.obj
 0002:00005db0       ??_C@_08EHJDFFNH@__based?$CI@ 10074db0     libvcruntime:undname.obj
 0002:00005dbc       ??_C@_07KOLFKCDI@__cdecl@  10074dbc     libvcruntime:undname.obj
 0002:00005dc8       ??_C@_08GHMPAG@__pascal@   10074dc8     libvcruntime:undname.obj
 0002:00005dd4       ??_C@_09IFJBGAPI@__stdcall@ 10074dd4     libvcruntime:undname.obj
 0002:00005de0       ??_C@_0L@NPHFGOKO@__thiscall@ 10074de0     libvcruntime:undname.obj
 0002:00005df0       ??_C@_0L@JMKHOMEK@__fastcall@ 10074df0     libvcruntime:undname.obj
 0002:00005e00       ??_C@_0N@BCKKPABJ@__vectorcall@ 10074e00     libvcruntime:undname.obj
 0002:00005e10       ??_C@_09HIJEGCPM@__clrcall@ 10074e10     libvcruntime:undname.obj
 0002:00005e1c       ??_C@_06GHPCKEAG@__eabi@   10074e1c     libvcruntime:undname.obj
 0002:00005e24       ??_C@_09IOPIDJLG@__swift_1@ 10074e24     libvcruntime:undname.obj
 0002:00005e30       ??_C@_09KFNFGKHF@__swift_2@ 10074e30     libvcruntime:undname.obj
 0002:00005e3c       ??_C@_07JOMMBBKO@__ptr64@  10074e3c     libvcruntime:undname.obj
 0002:00005e48       ??_C@_0L@PILCLIHE@__restrict@ 10074e48     libvcruntime:undname.obj
 0002:00005e58       ??_C@_0M@GFIIJFMG@__unaligned@ 10074e58     libvcruntime:undname.obj
 0002:00005e68       ??_C@_09DHDLOLLB@restrict?$CI@ 10074e68     libvcruntime:undname.obj
 0002:00005e74       ??_C@_04NIHEBCM@?5new@     10074e74     libvcruntime:undname.obj
 0002:00005e7c       ??_C@_07FPCDHGMM@?5delete@ 10074e7c     libvcruntime:undname.obj
 0002:00005e88       ??_C@_01NEMOKFLO@?$DN@     10074e88     libvcruntime:undname.obj
 0002:00005e8c       ??_C@_02GPIOPFAK@?$DO?$DO@ 10074e8c     libvcruntime:undname.obj
 0002:00005e90       ??_C@_02FODMEDOG@?$DM?$DM@ 10074e90     libvcruntime:undname.obj
 0002:00005e94       ??_C@_01DCLJPIOD@?$CB@     10074e94     libvcruntime:undname.obj
 0002:00005e98       ??_C@_02EGOFBIJA@?$DN?$DN@ 10074e98     libvcruntime:undname.obj
 0002:00005e9c       ??_C@_02FDNJECIE@?$CB?$DN@ 10074e9c     libvcruntime:undname.obj
 0002:00005ea0       ??_C@_02GPECMEKF@?$FL?$FN@ 10074ea0     libvcruntime:undname.obj
 0002:00005ea4       ??_C@_08LHJFAFGD@operator@ 10074ea4     libvcruntime:undname.obj
 0002:00005eb0       ??_C@_02HBOOOICD@?9?$DO@   10074eb0     libvcruntime:undname.obj
 0002:00005eb4       ??_C@_01NBENCBCI@?$CK@     10074eb4     libvcruntime:undname.obj
 0002:00005eb8       ??_C@_02ECNGHCIF@?$CL?$CL@ 10074eb8     libvcruntime:undname.obj
 0002:00005ebc       ??_C@_02BAABKJLB@?9?9@     10074ebc     libvcruntime:undname.obj
 0002:00005ec0       ??_C@_01JOAMLHOP@?9@       10074ec0     libvcruntime:undname.obj
 0002:00005ec4       ??_C@_01MIFGBAGJ@?$CL@     10074ec4     libvcruntime:undname.obj
 0002:00005ec8       ??_C@_01HNPIGOCE@?$CG@     10074ec8     libvcruntime:undname.obj
 0002:00005ecc       ??_C@_03MNHNFDLC@?9?$DO?$CK@ 10074ecc     libvcruntime:undname.obj
 0002:00005ed0       ??_C@_01KMDKNFGN@?1@       10074ed0     libvcruntime:undname.obj
 0002:00005ed4       ??_C@_01FGNFDNOH@?$CF@     10074ed4     libvcruntime:undname.obj
 0002:00005ed8       ??_C@_01MNNFJEPP@?$DM@     10074ed8     libvcruntime:undname.obj
 0002:00005edc       ??_C@_02EHCHHCKH@?$DM?$DN@ 10074edc     libvcruntime:undname.obj
 0002:00005ee0       ??_C@_01PPODPGHN@?$DO@     10074ee0     libvcruntime:undname.obj
 0002:00005ee4       ??_C@_02EEKDKGMJ@?$DO?$DN@ 10074ee4     libvcruntime:undname.obj
 0002:00005ee8       ??_C@_01IHBHIGKO@?0@       10074ee8     libvcruntime:undname.obj
 0002:00005eec       ??_C@_02HCKGKOFO@?$CI?$CJ@ 10074eec     libvcruntime:undname.obj
 0002:00005ef0       ??_C@_01PJKLJHI@?$HO@      10074ef0     libvcruntime:undname.obj
 0002:00005ef4       ??_C@_01JKBOJNNK@?$FO@     10074ef4     libvcruntime:undname.obj
 0002:00005ef8       ??_C@_02PPKAJPJL@?$CG?$CG@ 10074ef8     libvcruntime:undname.obj
 0002:00005efc       ??_C@_02NONPIBCD@?$HM?$HM@ 10074efc     libvcruntime:undname.obj
 0002:00005f00       ??_C@_02FPIMKNGF@?$CK?$DN@ 10074f00     libvcruntime:undname.obj
 0002:00005f04       ??_C@_02FOEOMHFC@?$CL?$DN@ 10074f04     libvcruntime:undname.obj
 0002:00005f08       ??_C@_02FKMDLLOA@?9?$DN@   10074f08     libvcruntime:undname.obj
 0002:00005f0c       ??_C@_02FJEHGPIO@?1?$DN@   10074f0c     libvcruntime:undname.obj
 0002:00005f10       ??_C@_02FENAOKFI@?$CF?$DN@ 10074f10     libvcruntime:undname.obj
 0002:00005f14       ??_C@_03IKFCCPFF@?$DO?$DO?$DN@ 10074f14     libvcruntime:undname.obj
 0002:00005f18       ??_C@_03CDNPDDLA@?$DM?$DM?$DN@ 10074f18     libvcruntime:undname.obj
 0002:00005f1c       ??_C@_02FGJGFEAB@?$CG?$DN@ 10074f1c     libvcruntime:undname.obj
 0002:00005f20       ??_C@_02DHLNPPGH@?$HM?$DN@ 10074f20     libvcruntime:undname.obj
 0002:00005f24       ??_C@_02MHEGNOJ@?$FO?$DN@  10074f24     libvcruntime:undname.obj
 0002:00005f28       ??_C@_09IFPLHPGF@?$GAvftable?8@ 10074f28     libvcruntime:undname.obj
 0002:00005f34       ??_C@_09BLBHBJP@?$GAvbtable?8@ 10074f34     libvcruntime:undname.obj
 0002:00005f40       ??_C@_07FEEIOKP@?$GAvcall?8@ 10074f40     libvcruntime:undname.obj
 0002:00005f4c       ??_C@_08LLFFHHDJ@?$GAtypeof?8@ 10074f4c     libvcruntime:undname.obj
 0002:00005f58       ??_C@_0BF@KDPPACIK@?$GAlocal?5static?5guard?8@ 10074f58     libvcruntime:undname.obj
 0002:00005f74       ??_C@_08OBABFOLI@?$GAstring?8@ 10074f74     libvcruntime:undname.obj
 0002:00005f80       ??_C@_0BD@JDLKDPAB@?$GAvbase?5destructor?8@ 10074f80     libvcruntime:undname.obj
 0002:00005f98       ??_C@_0BN@DEGPLNFK@?$GAvector?5deleting?5destructor?8@ 10074f98     libvcruntime:undname.obj
 0002:00005fbc       ??_C@_0BO@OBMKPJIG@?$GAdefault?5constructor?5closure?8@ 10074fbc     libvcruntime:undname.obj
 0002:00005fe0       ??_C@_0BN@IMDCHIKM@?$GAscalar?5deleting?5destructor?8@ 10074fe0     libvcruntime:undname.obj
 0002:00006004       ??_C@_0BO@PFGOCPJJ@?$GAvector?5constructor?5iterator?8@ 10075004     libvcruntime:undname.obj
 0002:00006028       ??_C@_0BN@LFPFMEDL@?$GAvector?5destructor?5iterator?8@ 10075028     libvcruntime:undname.obj
 0002:0000604c       ??_C@_0CE@IKBNEHA@?$GAvector?5vbase?5constructor?5itera@ 1007504c     libvcruntime:undname.obj
 0002:00006078       ??_C@_0BL@NILFHHPC@?$GAvirtual?5displacement?5map?8@ 10075078     libvcruntime:undname.obj
 0002:00006098       ??_C@_0CB@JONCMFFK@?$GAeh?5vector?5constructor?5iterator@ 10075098     libvcruntime:undname.obj
 0002:000060c0       ??_C@_0CA@GCEOPDGL@?$GAeh?5vector?5destructor?5iterator?8@ 100750c0     libvcruntime:undname.obj
 0002:000060e8       ??_C@_0CH@OOJPLCPH@?$GAeh?5vector?5vbase?5constructor?5it@ 100750e8     libvcruntime:undname.obj
 0002:00006118       ??_C@_0BL@LLKPOHJI@?$GAcopy?5constructor?5closure?8@ 10075118     libvcruntime:undname.obj
 0002:00006138       ??_C@_0BA@KBCDOMBN@?$GAudt?5returning?8@ 10075138     libvcruntime:undname.obj
 0002:0000614c       ??_C@_03KLGMFNMG@?$GAEH@   1007514c     libvcruntime:undname.obj
 0002:00006150       ??_C@_05KHLCHHI@?$GARTTI@  10075150     libvcruntime:undname.obj
 0002:00006158       ??_C@_0BA@KKLDJDLB@?$GAlocal?5vftable?8@ 10075158     libvcruntime:undname.obj
 0002:0000616c       ??_C@_0CE@IIHCMGGL@?$GAlocal?5vftable?5constructor?5clos@ 1007516c     libvcruntime:undname.obj
 0002:00006198       ??_C@_06FHBGPFGH@?5new?$FL?$FN@ 10075198     libvcruntime:undname.obj
 0002:000061a0       ??_C@_09LBNFPBCA@?5delete?$FL?$FN@ 100751a0     libvcruntime:undname.obj
 0002:000061ac       ??_C@_0P@HJKNJFNN@?$GAomni?5callsig?8@ 100751ac     libvcruntime:undname.obj
 0002:000061c0       ??_C@_0BL@CNOONJFP@?$GAplacement?5delete?5closure?8@ 100751c0     libvcruntime:undname.obj
 0002:000061e0       ??_C@_0BN@CKNJLHMB@?$GAplacement?5delete?$FL?$FN?5closure?8@ 100751e0     libvcruntime:undname.obj
 0002:00006204       ??_C@_0CG@CFDHKGGD@?$GAmanaged?5vector?5constructor?5ite@ 10075204     libvcruntime:undname.obj
 0002:00006234       ??_C@_0CF@IMGKMJNO@?$GAmanaged?5vector?5destructor?5iter@ 10075234     libvcruntime:undname.obj
 0002:00006260       ??_C@_0CG@HLDDJMAG@?$GAeh?5vector?5copy?5constructor?5ite@ 10075260     libvcruntime:undname.obj
 0002:00006290       ??_C@_0CM@FCBBDIGB@?$GAeh?5vector?5vbase?5copy?5construct@ 10075290     libvcruntime:undname.obj
 0002:000062c4       ??_C@_0BL@CLIPGLGB@?$GAdynamic?5initializer?5for?5?8@ 100752c4     libvcruntime:undname.obj
 0002:000062e4       ??_C@_0CB@PDBIFEP@?$GAdynamic?5atexit?5destructor?5for?5@ 100752e4     libvcruntime:undname.obj
 0002:0000630c       ??_C@_0CD@CGAJBKEJ@?$GAvector?5copy?5constructor?5iterat@ 1007530c     libvcruntime:undname.obj
 0002:00006338       ??_C@_0CJ@GJELGAMM@?$GAvector?5vbase?5copy?5constructor?5@ 10075338     libvcruntime:undname.obj
 0002:0000636c       ??_C@_0CL@FGIJHLCE@?$GAmanaged?5vector?5copy?5constructo@ 1007536c     libvcruntime:undname.obj
 0002:000063a0       ??_C@_0BM@PMGGMLDN@?$GAlocal?5static?5thread?5guard?8@ 100753a0     libvcruntime:undname.obj
 0002:000063c4       ??_C@_0N@BDNMDMOL@operator?5?$CC?$CC?5@ 100753c4     libvcruntime:undname.obj
 0002:000063d4       ??_C@_0BC@GGEBGALA@operator?5co_await@ 100753d4     libvcruntime:undname.obj
 0002:000063ec       ??_C@_0BC@DAFEJGAK@?5Type?5Descriptor?8@ 100753ec     libvcruntime:undname.obj
 0002:00006404       ??_C@_0BM@LDKODKLH@?5Base?5Class?5Descriptor?5at?5?$CI@ 10075404     libvcruntime:undname.obj
 0002:00006428       ??_C@_0BD@LGICGFMM@?5Base?5Class?5Array?8@ 10075428     libvcruntime:undname.obj
 0002:00006440       ??_C@_0BN@MECKDCOJ@?5Class?5Hierarchy?5Descriptor?8@ 10075440     libvcruntime:undname.obj
 0002:00006464       ??_C@_0BK@CFCOFLF@?5Complete?5Object?5Locator?8@ 10075464     libvcruntime:undname.obj
 0002:00006484       ??_C@_04HEJADOOB@CV?3?5@   10075484     libvcruntime:undname.obj
 0002:0000648c       ??_C@_02MOLJINC@?3?3@      1007548c     libvcruntime:undname.obj
 0002:00006490       ??_C@_0BE@JAEOCHPE@template?9parameter?9@ 10075490     libvcruntime:undname.obj
 0002:000064a8       ??_C@_0O@KHGCOMHP@generic?9type?9@ 100754a8     libvcruntime:undname.obj
 0002:000064b8       ??_C@_01NLNLIGKH@?$GA@     100754b8     libvcruntime:undname.obj
 0002:000064bc       ??_C@_01GEODFPGF@?8@       100754bc     libvcruntime:undname.obj
 0002:000064c0       ??_C@_0BG@JNJLAMPM@?$GAanonymous?5namespace?8@ 100754c0     libvcruntime:undname.obj
 0002:000064dc       ??_C@_02OHHJMEON@?8?8@     100754dc     libvcruntime:undname.obj
 0002:000064e0       ??_C@_0BN@IBLMMFAP@?$GAnon?9type?9template?9parameter@ 100754e0     libvcruntime:undname.obj
 0002:00006504       ??_C@_04GKJNKENE@void@     10075504     libvcruntime:undname.obj
 0002:0000650c       ??_C@_0BE@EODMJLIF@?$GAtemplate?9parameter@ 1007550c     libvcruntime:undname.obj
 0002:00006524       ??_C@_03KHICJKCI@?4?4?4@   10075524     libvcruntime:undname.obj
 0002:00006528       ??_C@_04HIBGFPH@NULL@      10075528     libvcruntime:undname.obj
 0002:00006530       ??_C@_02DPKJAMEF@?$CFd@    10075530     libvcruntime:undname.obj
 0002:00006534       ??_C@_0BK@IHCCFNEL@?$GAtemplate?9type?9parameter?9@ 10075534     libvcruntime:undname.obj
 0002:00006554       ??_C@_0BK@OFCNNNKO@?$GAgeneric?9class?9parameter?9@ 10075554     libvcruntime:undname.obj
 0002:00006574       ??_C@_0BL@NGJBLFIL@?$GAgeneric?9method?9parameter?9@ 10075574     libvcruntime:undname.obj
 0002:00006594       ??_C@_03OPGICMGF@?$HN?8?5@ 10075594     libvcruntime:undname.obj
 0002:00006598       ??_C@_02IGFCGPIL@?$HN?8@   10075598     libvcruntime:undname.obj
 0002:0000659c       ??_C@_01CLKCMJKC@?5@       1007559c     libvcruntime:undname.obj
 0002:000065a0       ??_C@_0N@CBHHHENL@?$GAvtordispex?$HL@ 100755a0     libvcruntime:undname.obj
 0002:000065b0       ??_C@_0L@GHPFDFH@?$GAvtordisp?$HL@ 100755b0     libvcruntime:undname.obj
 0002:000065c0       ??_C@_0L@HNGCOGAE@?$GAadjustor?$HL@ 100755c0     libvcruntime:undname.obj
 0002:000065d0       ??_C@_0CB@KJDOOODE@?$GAlocal?5static?5destructor?5helper@ 100755d0     libvcruntime:undname.obj
 0002:000065f8       ??_C@_0DB@ILEFOCIJ@?$GAtemplate?5static?5data?5member?5co@ 100755f8     libvcruntime:undname.obj
 0002:00006634       ??_C@_0DA@HGFJFBBE@?$GAtemplate?5static?5data?5member?5de@ 10075634     libvcruntime:undname.obj
 0002:00006670       ??_C@_07PGOEDBHP@static?5@ 10075670     libvcruntime:undname.obj
 0002:0000667c       ??_C@_08NIEOINHE@virtual?5@ 1007567c     libvcruntime:undname.obj
 0002:00006688       ??_C@_09LAPHOOG@private?3?5@ 10075688     libvcruntime:undname.obj
 0002:00006694       ??_C@_0M@GAIFPFIP@protected?3?5@ 10075694     libvcruntime:undname.obj
 0002:000066a4       ??_C@_08GPDDCMKI@public?3?5@ 100756a4     libvcruntime:undname.obj
 0002:000066b0       ??_C@_08KJLFOPNE@?$FLthunk?$FN?3@ 100756b0     libvcruntime:undname.obj
 0002:000066bc       ??_C@_0M@DHNBOJMP@extern?5?$CCC?$CC?5@ 100756bc     libvcruntime:undname.obj
 0002:000066cc       ??_C@_02KCKGHPCA@?$CJ?5@   100756cc     libvcruntime:undname.obj
 0002:000066d0       ??_C@_05CIHEBHNO@char?5@   100756d0     libvcruntime:undname.obj
 0002:000066d8       ??_C@_06EHJMALKF@short?5@  100756d8     libvcruntime:undname.obj
 0002:000066e0       ??_C@_04LAHKHJMA@int?5@    100756e0     libvcruntime:undname.obj
 0002:000066e8       ??_C@_05CJIMAING@long?5@   100756e8     libvcruntime:undname.obj
 0002:000066f0       ??_C@_09EBBEKKIH@unsigned?5@ 100756f0     libvcruntime:undname.obj
 0002:000066fc       ??_C@_05BEFAKPML@void?5@   100756fc     libvcruntime:undname.obj
 0002:00006704       ??_C@_08PABEKFH@volatile@  10075704     libvcruntime:undname.obj
 0002:00006710       ??_C@_0BA@LKIJLKPP@std?3?3nullptr_t?5@ 10075710     libvcruntime:undname.obj
 0002:00006724       ??_C@_0P@GCOCNKDM@std?3?3nullptr_t@ 10075724     libvcruntime:undname.obj
 0002:00006738       ??_C@_0L@EGPHHEKN@?$DMellipsis?$DO@ 10075738     libvcruntime:undname.obj
 0002:00006748       ??_C@_04EENFHACM@?0?4?4?4@ 10075748     libvcruntime:undname.obj
 0002:00006750       ??_C@_0M@ELJOJFFH@?0?$DMellipsis?$DO@ 10075750     libvcruntime:undname.obj
 0002:00006760       ??_C@_09DNHFEOJI@?5noexcept@ 10075760     libvcruntime:undname.obj
 0002:0000676c       ??_C@_03PBJBJNON@cpu@      1007576c     libvcruntime:undname.obj
 0002:00006770       ??_C@_03DCBBJBAA@amp@      10075770     libvcruntime:undname.obj
 0002:00006774       ??_C@_02KEGNLNML@?0?5@     10075774     libvcruntime:undname.obj
 0002:00006778       ??_C@_04ENMBGAPA@char@     10075778     libvcruntime:undname.obj
 0002:00006780       ??_C@_05BFKKPKCG@short@    10075780     libvcruntime:undname.obj
 0002:00006788       ??_C@_03JBIPMCLC@int@      10075788     libvcruntime:undname.obj
 0002:0000678c       ??_C@_04GOKPGOLB@long@     1007578c     libvcruntime:undname.obj
 0002:00006794       ??_C@_04DDKJGDCM@bool@     10075794     libvcruntime:undname.obj
 0002:0000679c       ??_C@_06EBGKOKIG@__int8@   1007579c     libvcruntime:undname.obj
 0002:000067a4       ??_C@_07ICFHOGAF@__int16@  100757a4     libvcruntime:undname.obj
 0002:000067b0       ??_C@_07OFLPPHGP@__int32@  100757b0     libvcruntime:undname.obj
 0002:000067bc       ??_C@_07LFCOJCAC@__int64@  100757bc     libvcruntime:undname.obj
 0002:000067c8       ??_C@_08GAHOLHEO@__int128@ 100757c8     libvcruntime:undname.obj
 0002:000067d4       ??_C@_09EEKGDCPH@?$DMunknown?$DO@ 100757d4     libvcruntime:undname.obj
 0002:000067e0       ??_C@_08HBIPOFJB@char16_t@ 100757e0     libvcruntime:undname.obj
 0002:000067ec       ??_C@_08IECNCBKG@char32_t@ 100757ec     libvcruntime:undname.obj
 0002:000067f8       ??_C@_07CLGGIAMF@wchar_t@  100757f8     libvcruntime:undname.obj
 0002:00006804       ??_C@_06GCICPBLB@__w64?5@  10075804     libvcruntime:undname.obj
 0002:0000680c       ??_C@_07NFANNNEC@UNKNOWN@  1007580c     libvcruntime:undname.obj
 0002:00006818       ??_C@_07EDHNAJHC@signed?5@ 10075818     libvcruntime:undname.obj
 0002:00006824       ??_C@_05BNCCCJPP@const@    10075824     libvcruntime:undname.obj
 0002:0000682c       ??_C@_09EFNPDFFP@?5volatile@ 1007582c     libvcruntime:undname.obj
 0002:00006838       ??_C@_0P@GCIFDJCJ@?$GAunknown?5ecsu?8@ 10075838     libvcruntime:undname.obj
 0002:0000684c       ??_C@_06MOJHIBMG@union?5@  1007584c     libvcruntime:undname.obj
 0002:00006854       ??_C@_07DIBCDNGL@struct?5@ 10075854     libvcruntime:undname.obj
 0002:00006860       ??_C@_06LJBABKPM@class?5@  10075860     libvcruntime:undname.obj
 0002:00006868       ??_C@_08KOFANOFK@coclass?5@ 10075868     libvcruntime:undname.obj
 0002:00006874       ??_C@_0N@DLIEFKNA@cointerface?5@ 10075874     libvcruntime:undname.obj
 0002:00006884       ??_C@_05LJGMCFOG@enum?5@   10075884     libvcruntime:undname.obj
 0002:0000688c       ??_C@_09GAIEOBLP@volatile?5@ 1007588c     libvcruntime:undname.obj
 0002:00006898       ??_C@_06LIJLOJAG@const?5@  10075898     libvcruntime:undname.obj
 0002:000068a0       ??_C@_02KJPKDIBN@?$CG?5@   100758a0     libvcruntime:undname.obj
 0002:000068a4       ??_C@_03PCKGMOPB@?$CG?$CG?5@ 100758a4     libvcruntime:undname.obj
 0002:000068a8       ??_C@_0M@EALIELKG@cli?3?3array?$DM@ 100758a8     libvcruntime:undname.obj
 0002:000068b8       ??_C@_0O@GKABPPIF@cli?3?3pin_ptr?$DM@ 100758b8     libvcruntime:undname.obj
 0002:000068c8       ??_C@_02GOGNNPBN@?$CJ?$FL@ 100758c8     libvcruntime:undname.obj
 0002:000068cc       ??_C@_06EEGAIFAK@?$HLflat?$HN@ 100758cc     libvcruntime:undname.obj
 0002:000068d4       ??_C@_05JIBOFOHK@?$HLfor?5@ 100758d4     libvcruntime:undname.obj
 0002:000068dc       ??_C@_02MDINNEEG@s?5@      100758dc     libvcruntime:undname.obj
 0002:000068e4       ??_7DNameNode@@6B@         100758e4     libvcruntime:undname.obj
 0002:000068f8       ??_7charNode@@6B@          100758f8     libvcruntime:undname.obj
 0002:0000690c       ??_7pcharNode@@6B@         1007590c     libvcruntime:undname.obj
 0002:00006920       ??_7pDNameNode@@6B@        10075920     libvcruntime:undname.obj
 0002:00006934       ??_7DNameStatusNode@@6B@   10075934     libvcruntime:undname.obj
 0002:00006948       ??_7pairNode@@6B@          10075948     libvcruntime:undname.obj
 0002:00006958       ??_C@_04OKOHEJBO@?5?$DP?$DP?5@ 10075958     libvcruntime:undname.obj
 0002:00006960       ?nodes@?1??make@DNameStatusNode@@SAPBV2@W4DNameStatus@@@Z@4QBV2@B 10075960     libvcruntime:undname.obj
 0002:000069ac       ??_C@_1DM@KHCHBNEB@?$AAa?$AAp?$AAi?$AA?9?$AAm?$AAs?$AA?9?$AAw?$AAi?$AAn?$AA?9?$AAc?$AAo?$AAr?$AAe@ 100759ac     libvcruntime:winapi_downlevel.obj
 0002:000069f4       ??_C@_1DK@LPPGFMPP@?$AAa?$AAp?$AAi?$AA?9?$AAm?$AAs?$AA?9?$AAw?$AAi?$AAn?$AA?9?$AAc?$AAo?$AAr?$AAe@ 100759f4     libvcruntime:winapi_downlevel.obj
 0002:00006a3c       ??_C@_1BC@GDMECMAK@?$AAk?$AAe?$AAr?$AAn?$AAe?$AAl?$AA3?$AA2@ 10075a3c     libvcruntime:winapi_downlevel.obj
 0002:00006a54       ??_C@_1BA@PFFKHIOG@?$AAa?$AAp?$AAi?$AA?9?$AAm?$AAs?$AA?9@ 10075a54     libvcruntime:winapi_downlevel.obj
 0002:00006a68       ??_C@_1BA@IAIFMGEF@?$AAe?$AAx?$AAt?$AA?9?$AAm?$AAs?$AA?9@ 10075a68     libvcruntime:winapi_downlevel.obj
 0002:00006a88       ??_C@_08KNHFBNJ@FlsAlloc@  10075a88     libvcruntime:winapi_downlevel.obj
 0002:00006aa0       ??_C@_07PEJMOBNF@FlsFree@  10075aa0     libvcruntime:winapi_downlevel.obj
 0002:00006ab8       ??_C@_0M@GDNOONDI@FlsGetValue@ 10075ab8     libvcruntime:winapi_downlevel.obj
 0002:00006ad4       ??_C@_0M@JCPCPOEF@FlsSetValue@ 10075ad4     libvcruntime:winapi_downlevel.obj
 0002:00006af0       ??_C@_0BM@HCFOFFN@InitializeCriticalSectionEx@ 10075af0     libvcruntime:winapi_downlevel.obj
 0002:00006b18       ??_7exception@std@@6B@     10075b18     libvcruntime:frame.obj
 0002:00006b24       ??_C@_0BC@EOODALEL@Unknown?5exception@ 10075b24     libvcruntime:frame.obj
 0002:00006b40       ??_7bad_exception@std@@6B@ 10075b40     libvcruntime:frame.obj
 0002:00006b4c       ??_C@_0O@DPKOEFFH@bad?5exception@ 10075b4c     libvcruntime:frame.obj
 0002:00006b5c       __pDestructExceptionObject 10075b5c     libvcruntime:ehhelpers.obj
 0002:00006b88       _standard_lookup_table     10075b88     libucrt:output.obj
 0002:00006bf8       _format_validation_lookup_table 10075bf8     libucrt:output.obj
 0002:00006c68       ??_C@_1O@CEDCILHN@?$AA?$CI?$AAn?$AAu?$AAl?$AAl?$AA?$CJ?$AA?$AA@ 10075c68     libucrt:output.obj
 0002:00006c78       ??_C@_06OJHGLDPL@?$CInull?$CJ?$AA@ 10075c78     libucrt:output.obj
 0002:00006c80       _RtlNtPathSeperatorString  10075c80     libucrt:exit.obj
 0002:00006c8c       ??_C@_13FPGAJAPJ@?$AA?2?$AA?$AA@ 10075c8c     libucrt:exit.obj
 0002:00006c90       _RtlDosPathSeperatorsString 10075c90     libucrt:exit.obj
 0002:00006c9c       ??_C@_15MNCACJLI@?$AA?2?$AA?1?$AA?$AA@ 10075c9c     libucrt:exit.obj
 0002:00006ca4       _RtlAlternateDosPathSeperatorString 10075ca4     libucrt:exit.obj
 0002:00006cb0       ??_C@_13CGOKJPIL@?$AA?1?$AA?$AA@ 10075cb0     libucrt:exit.obj
 0002:00006cb4       ??_C@_1BI@BGOHAHKC@?$AAm?$AAs?$AAc?$AAo?$AAr?$AAe?$AAe?$AA?4?$AAd?$AAl?$AAl?$AA?$AA@ 10075cb4     libucrt:exit.obj
 0002:00006cd0       ??_C@_0P@MIGLKIOC@CorExitProcess?$AA@ 10075cd0     libucrt:exit.obj
 0002:00006ce8       __real@0000000000000000    10075ce8     libucrt:ldexp.obj
 0002:00006cf4       ??_C@_0CK@CFPGFGGO@Assertion?5failed?3?5?$CFTs?0?5file?5?$CFTs?0@ 10075cf4     libucrt:assert.obj
 0002:00006d28       ??_C@_1FE@LHBLIKM@?$AAA?$AAs?$AAs?$AAe?$AAr?$AAt?$AAi?$AAo?$AAn?$AA?5?$AAf?$AAa?$AAi?$AAl?$AAe?$AAd?$AA?3?$AA?5?$AA?$CF?$AAT?$AAs?$AA?0?$AA?5?$AAf?$AAi?$AAl?$AAe?$AA?5?$AA?$CF?$AAT?$AAs?$AA?0@ 10075d28     libucrt:assert.obj
 0002:00006d8c       ??_C@_0CF@GOGNBNAK@Microsoft?5Visual?5C?$CL?$CL?5Runtime?5Lib@ 10075d8c     libucrt:assert.obj
 0002:00006db8       ??_C@_1EK@MBDPDCGA@?$AAM?$AAi?$AAc?$AAr?$AAo?$AAs?$AAo?$AAf?$AAt?$AA?5?$AAV?$AAi?$AAs?$AAu?$AAa?$AAl?$AA?5?$AAC?$AA?$CL?$AA?$CL?$AA?5?$AAR?$AAu?$AAn?$AAt?$AAi?$AAm?$AAe?$AA?5?$AAL?$AAi?$AAb@ 10075db8     libucrt:assert.obj
 0002:00006e10       ??_C@_0BC@LAIDCHCH@Assertion?5failed?$CB?$AA@ 10075e10     libucrt:assert.obj
 0002:00006e28       ??_C@_1CE@OJBNHDMO@?$AAA?$AAs?$AAs?$AAe?$AAr?$AAt?$AAi?$AAo?$AAn?$AA?5?$AAf?$AAa?$AAi?$AAl?$AAe?$AAd?$AA?$CB?$AA?$AA@ 10075e28     libucrt:assert.obj
 0002:00006e54       ??_C@_09KLGCKDOD@Program?3?5?$AA@ 10075e54     libucrt:assert.obj
 0002:00006e60       ??_C@_1BE@PHKBBGE@?$AAP?$AAr?$AAo?$AAg?$AAr?$AAa?$AAm?$AA?3?$AA?5?$AA?$AA@ 10075e60     libucrt:assert.obj
 0002:00006e78       ??_C@_06IGPBOHMJ@File?3?5?$AA@ 10075e78     libucrt:assert.obj
 0002:00006e80       ??_C@_1O@HEMHKNDC@?$AAF?$AAi?$AAl?$AAe?$AA?3?$AA?5?$AA?$AA@ 10075e80     libucrt:assert.obj
 0002:00006e90       ??_C@_06FIEBOLOH@Line?3?5?$AA@ 10075e90     libucrt:assert.obj
 0002:00006e98       ??_C@_1O@KCAFKHJE@?$AAL?$AAi?$AAn?$AAe?$AA?3?$AA?5?$AA?$AA@ 10075e98     libucrt:assert.obj
 0002:00006ea8       ??_C@_0N@MEECIJGN@Expression?3?5?$AA@ 10075ea8     libucrt:assert.obj
 0002:00006eb8       ??_C@_1BK@PEDCIPMA@?$AAE?$AAx?$AAp?$AAr?$AAe?$AAs?$AAs?$AAi?$AAo?$AAn?$AA?3?$AA?5?$AA?$AA@ 10075eb8     libucrt:assert.obj
 0002:00006ed8       ??_C@_0HA@OJHAGA@For?5information?5on?5how?5your?5prog@ 10075ed8     libucrt:assert.obj
 0002:00006f60       ??_C@_1OA@EGMLFBHJ@?$AAF?$AAo?$AAr?$AA?5?$AAi?$AAn?$AAf?$AAo?$AAr?$AAm?$AAa?$AAt?$AAi?$AAo?$AAn?$AA?5?$AAo?$AAn?$AA?5?$AAh?$AAo?$AAw?$AA?5?$AAy?$AAo?$AAu?$AAr?$AA?5?$AAp?$AAr?$AAo?$AAg@ 10075f60     libucrt:assert.obj
 0002:0000706c       ??_C@_0DN@EBBNMLME@?$CIPress?5Retry?5to?5debug?5the?5applic@ 1007606c     libucrt:assert.obj
 0002:000070b8       ??_C@_1HK@POCJMFGK@?$AA?$CI?$AAP?$AAr?$AAe?$AAs?$AAs?$AA?5?$AAR?$AAe?$AAt?$AAr?$AAy?$AA?5?$AAt?$AAo?$AA?5?$AAd?$AAe?$AAb?$AAu?$AAg?$AA?5?$AAt?$AAh?$AAe?$AA?5?$AAa?$AAp?$AAp?$AAl?$AAi?$AAc@ 100760b8     libucrt:assert.obj
 0002:0000714c       ??_C@_03KHICJKCI@?4?4?4?$AA@ 1007614c     libucrt:assert.obj
 0002:00007150       ??_C@_17LGKOMLJ@?$AA?4?$AA?4?$AA?4?$AA?$AA@ 10076150     libucrt:assert.obj
 0002:0000715c       ??_C@_01EEMJAFIK@?6?$AA@   1007615c     libucrt:assert.obj
 0002:00007160       ??_C@_13LBAGMAIH@?$AA?6?$AA?$AA@ 10076160     libucrt:assert.obj
 0002:00007164       ??_C@_02PHMGELLB@?6?6?$AA@ 10076164     libucrt:assert.obj
 0002:00007168       ??_C@_15IABLJNFO@?$AA?6?$AA?6?$AA?$AA@ 10076168     libucrt:assert.obj
 0002:00007170       ??_C@_0BH@DNAGHKFM@?$DMprogram?5name?5unknown?$DO?$AA@ 10076170     libucrt:assert.obj
 0002:0000718c       ??_C@_1CO@EAEJAADC@?$AA?$DM?$AAp?$AAr?$AAo?$AAg?$AAr?$AAa?$AAm?$AA?5?$AAn?$AAa?$AAm?$AAe?$AA?5?$AAu?$AAn?$AAk?$AAn?$AAo?$AAw?$AAn?$AA?$DO?$AA?$AA@ 1007618c     libucrt:assert.obj
 0002:000072e0       ??_C@_03KHJOGHMM@exp?$AA@  100762e0     libucrt:fpexcept.obj
 0002:000072e4       ??_C@_03JGHBODFD@pow?$AA@  100762e4     libucrt:fpexcept.obj
 0002:000072e8       ??_C@_03MGHMBJCF@log?$AA@  100762e8     libucrt:fpexcept.obj
 0002:000072ec       ??_C@_05HGHHAHAP@log10?$AA@ 100762ec     libucrt:fpexcept.obj
 0002:000072f4       ??_C@_04COOMCNPB@sinh?$AA@ 100762f4     libucrt:fpexcept.obj
 0002:000072fc       ??_C@_04HPJJNFIM@cosh?$AA@ 100762fc     libucrt:fpexcept.obj
 0002:00007304       ??_C@_04FJHINJAO@tanh?$AA@ 10076304     libucrt:fpexcept.obj
 0002:0000730c       ??_C@_04FIHNOPOL@asin?$AA@ 1007630c     libucrt:fpexcept.obj
 0002:00007314       ??_C@_04PDIFKINK@acos?$AA@ 10076314     libucrt:fpexcept.obj
 0002:0000731c       ??_C@_04MLLJIGOK@atan?$AA@ 1007631c     libucrt:fpexcept.obj
 0002:00007324       ??_C@_05KNGEOGJB@atan2?$AA@ 10076324     libucrt:fpexcept.obj
 0002:0000732c       ??_C@_04EIAKFFMI@sqrt?$AA@ 1007632c     libucrt:fpexcept.obj
 0002:00007334       ??_C@_03BLEJJJBH@sin?$AA@  10076334     libucrt:fpexcept.obj
 0002:00007338       ??_C@_03LALBNOCG@cos?$AA@  10076338     libucrt:fpexcept.obj
 0002:0000733c       ??_C@_03IIINPABG@tan?$AA@  1007633c     libucrt:fpexcept.obj
 0002:00007340       ??_C@_04GFPJNGEK@ceil?$AA@ 10076340     libucrt:fpexcept.obj
 0002:00007348       ??_C@_05PBJFFIGL@floor?$AA@ 10076348     libucrt:fpexcept.obj
 0002:00007350       ??_C@_04ODHECPBC@fabs?$AA@ 10076350     libucrt:fpexcept.obj
 0002:00007358       ??_C@_04EHEDPDJG@modf?$AA@ 10076358     libucrt:fpexcept.obj
 0002:00007360       ??_C@_05CEJMAHNP@ldexp?$AA@ 10076360     libucrt:fpexcept.obj
 0002:00007368       ??_C@_05KBKMEMPO@_cabs?$AA@ 10076368     libucrt:fpexcept.obj
 0002:00007370       ??_C@_06MEIMCGCF@_hypot?$AA@ 10076370     libucrt:fpexcept.obj
 0002:00007378       ??_C@_04KEPJIHGP@fmod?$AA@ 10076378     libucrt:fpexcept.obj
 0002:00007380       ??_C@_05GKKHEGJL@frexp?$AA@ 10076380     libucrt:fpexcept.obj
 0002:00007388       ??_C@_03MJLDFKDL@_y0?$AA@  10076388     libucrt:fpexcept.obj
 0002:0000738c       ??_C@_03NAKIGLHK@_y1?$AA@  1007638c     libucrt:fpexcept.obj
 0002:00007390       ??_C@_03ONILCKOB@_yn?$AA@  10076390     libucrt:fpexcept.obj
 0002:00007394       ??_C@_05JGDBENOH@_logb?$AA@ 10076394     libucrt:fpexcept.obj
 0002:0000739c       ??_C@_0L@KDOEJCKC@_nextafter?$AA@ 1007639c     libucrt:fpexcept.obj
 0002:000073b0       ___acrt_exception_action_table 100763b0     libucrt:exception_filter.obj
 0002:0000745c       ___acrt_signal_action_table_count 1007645c     libucrt:exception_filter.obj
 0002:00007460       ___acrt_signal_action_table_size 10076460     libucrt:exception_filter.obj
 0002:00007464       ___acrt_signal_action_first_fpe_index 10076464     libucrt:exception_filter.obj
 0002:00007468       ___acrt_signal_action_fpe_count 10076468     libucrt:exception_filter.obj
 0002:0000750c       __Fenv1                    1007650c     libucrt:atox.obj
 0002:00007720       ??_C@_1EA@JGEFHKEI@?$AAa?$AAp?$AAi?$AA?9?$AAm?$AAs?$AA?9?$AAw?$AAi?$AAn?$AA?9?$AAc?$AAo?$AAr?$AAe?$AA?9?$AAd?$AAa?$AAt?$AAe?$AAt?$AAi?$AAm?$AAe?$AA?9?$AAl?$AA1?$AA?9?$AA1?$AA?9?$AA1?$AA?$AA@ 10076720     libucrt:winapi_thunks.obj
 0002:0000776c       ??_C@_1DM@KHCHBNEB@?$AAa?$AAp?$AAi?$AA?9?$AAm?$AAs?$AA?9?$AAw?$AAi?$AAn?$AA?9?$AAc?$AAo?$AAr?$AAe?$AA?9?$AAf?$AAi?$AAb?$AAe?$AAr?$AAs?$AA?9?$AAl?$AA1?$AA?9?$AA1?$AA?9?$AA1?$AA?$AA@ 1007676c     libucrt:winapi_thunks.obj
 0002:000077b4       ??_C@_1DI@IJCEHOCB@?$AAa?$AAp?$AAi?$AA?9?$AAm?$AAs?$AA?9?$AAw?$AAi?$AAn?$AA?9?$AAc?$AAo?$AAr?$AAe?$AA?9?$AAf?$AAi?$AAl?$AAe?$AA?9?$AAl?$AA1?$AA?9?$AA2?$AA?9?$AA2?$AA?$AA@ 100767b4     libucrt:winapi_thunks.obj
 0002:000077f8       ??_C@_1EI@MPIAOHOC@?$AAa?$AAp?$AAi?$AA?9?$AAm?$AAs?$AA?9?$AAw?$AAi?$AAn?$AA?9?$AAc?$AAo?$AAr?$AAe?$AA?9?$AAl?$AAo?$AAc?$AAa?$AAl?$AAi?$AAz?$AAa?$AAt?$AAi?$AAo?$AAn?$AA?9?$AAl?$AA1?$AA?9@ 100767f8     libucrt:winapi_thunks.obj
 0002:00007850       ??_C@_1FK@FPHCKFIE@?$AAa?$AAp?$AAi?$AA?9?$AAm?$AAs?$AA?9?$AAw?$AAi?$AAn?$AA?9?$AAc?$AAo?$AAr?$AAe?$AA?9?$AAl?$AAo?$AAc?$AAa?$AAl?$AAi?$AAz?$AAa?$AAt?$AAi?$AAo?$AAn?$AA?9?$AAo?$AAb?$AAs@ 10076850     libucrt:winapi_thunks.obj
 0002:000078c0       ??_C@_1EM@DILCGIIO@?$AAa?$AAp?$AAi?$AA?9?$AAm?$AAs?$AA?9?$AAw?$AAi?$AAn?$AA?9?$AAc?$AAo?$AAr?$AAe?$AA?9?$AAp?$AAr?$AAo?$AAc?$AAe?$AAs?$AAs?$AAt?$AAh?$AAr?$AAe?$AAa?$AAd?$AAs?$AA?9?$AAl@ 100768c0     libucrt:winapi_thunks.obj
 0002:0000791c       ??_C@_1DM@LNCGDDPN@?$AAa?$AAp?$AAi?$AA?9?$AAm?$AAs?$AA?9?$AAw?$AAi?$AAn?$AA?9?$AAc?$AAo?$AAr?$AAe?$AA?9?$AAs?$AAt?$AAr?$AAi?$AAn?$AAg?$AA?9?$AAl?$AA1?$AA?9?$AA1?$AA?9?$AA0?$AA?$AA@ 1007691c     libucrt:winapi_thunks.obj
 0002:00007964       ??_C@_1DK@LPPGFMPP@?$AAa?$AAp?$AAi?$AA?9?$AAm?$AAs?$AA?9?$AAw?$AAi?$AAn?$AA?9?$AAc?$AAo?$AAr?$AAe?$AA?9?$AAs?$AAy?$AAn?$AAc?$AAh?$AA?9?$AAl?$AA1?$AA?9?$AA2?$AA?9?$AA0?$AA?$AA@ 10076964     libucrt:winapi_thunks.obj
 0002:000079ac       ??_C@_1DO@FPAPJEMD@?$AAa?$AAp?$AAi?$AA?9?$AAm?$AAs?$AA?9?$AAw?$AAi?$AAn?$AA?9?$AAc?$AAo?$AAr?$AAe?$AA?9?$AAs?$AAy?$AAs?$AAi?$AAn?$AAf?$AAo?$AA?9?$AAl?$AA1?$AA?9?$AA2?$AA?9?$AA1?$AA?$AA@ 100769ac     libucrt:winapi_thunks.obj
 0002:000079f8       ??_C@_1DK@NDHNAHIO@?$AAa?$AAp?$AAi?$AA?9?$AAm?$AAs?$AA?9?$AAw?$AAi?$AAn?$AA?9?$AAc?$AAo?$AAr?$AAe?$AA?9?$AAw?$AAi?$AAn?$AAr?$AAt?$AA?9?$AAl?$AA1?$AA?9?$AA1?$AA?9?$AA0?$AA?$AA@ 100769f8     libucrt:winapi_thunks.obj
 0002:00007a40       ??_C@_1DM@KGHDGBCM@?$AAa?$AAp?$AAi?$AA?9?$AAm?$AAs?$AA?9?$AAw?$AAi?$AAn?$AA?9?$AAc?$AAo?$AAr?$AAe?$AA?9?$AAx?$AAs?$AAt?$AAa?$AAt?$AAe?$AA?9?$AAl?$AA2?$AA?9?$AA1?$AA?9?$AA0?$AA?$AA@ 10076a40     libucrt:winapi_thunks.obj
 0002:00007a88       ??_C@_1EO@IJIOEFOH@?$AAa?$AAp?$AAi?$AA?9?$AAm?$AAs?$AA?9?$AAw?$AAi?$AAn?$AA?9?$AAr?$AAt?$AAc?$AAo?$AAr?$AAe?$AA?9?$AAn?$AAt?$AAu?$AAs?$AAe?$AAr?$AA?9?$AAw?$AAi?$AAn?$AAd?$AAo?$AAw?$AA?9@ 10076a88     libucrt:winapi_thunks.obj
 0002:00007ae8       ??_C@_1FG@HHGEKANL@?$AAa?$AAp?$AAi?$AA?9?$AAm?$AAs?$AA?9?$AAw?$AAi?$AAn?$AA?9?$AAs?$AAe?$AAc?$AAu?$AAr?$AAi?$AAt?$AAy?$AA?9?$AAs?$AAy?$AAs?$AAt?$AAe?$AAm?$AAf?$AAu?$AAn?$AAc?$AAt?$AAi@ 10076ae8     libucrt:winapi_thunks.obj
 0002:00007b50       ??_C@_1EG@DBIOJECG@?$AAe?$AAx?$AAt?$AA?9?$AAm?$AAs?$AA?9?$AAw?$AAi?$AAn?$AA?9?$AAn?$AAt?$AAu?$AAs?$AAe?$AAr?$AA?9?$AAd?$AAi?$AAa?$AAl?$AAo?$AAg?$AAb?$AAo?$AAx?$AA?9?$AAl?$AA1?$AA?9?$AA1@ 10076b50     libucrt:winapi_thunks.obj
 0002:00007ba8       ??_C@_1EO@FIHMJCLF@?$AAe?$AAx?$AAt?$AA?9?$AAm?$AAs?$AA?9?$AAw?$AAi?$AAn?$AA?9?$AAn?$AAt?$AAu?$AAs?$AAe?$AAr?$AA?9?$AAw?$AAi?$AAn?$AAd?$AAo?$AAw?$AAs?$AAt?$AAa?$AAt?$AAi?$AAo?$AAn?$AA?9@ 10076ba8     libucrt:winapi_thunks.obj
 0002:00007c08       ??_C@_1BC@DNHGCMLG@?$AAa?$AAd?$AAv?$AAa?$AAp?$AAi?$AA3?$AA2?$AA?$AA@ 10076c08     libucrt:winapi_thunks.obj
 0002:00007c20       ??_C@_1BC@GDMECMAK@?$AAk?$AAe?$AAr?$AAn?$AAe?$AAl?$AA3?$AA2?$AA?$AA@ 10076c20     libucrt:winapi_thunks.obj
 0002:00007c38       ??_C@_1M@OAIMIKLP@?$AAn?$AAt?$AAd?$AAl?$AAl?$AA?$AA@ 10076c38     libucrt:winapi_thunks.obj
 0002:00007c48       ??_C@_1EG@DPGNFKGC@?$AAa?$AAp?$AAi?$AA?9?$AAm?$AAs?$AA?9?$AAw?$AAi?$AAn?$AA?9?$AAa?$AAp?$AAp?$AAm?$AAo?$AAd?$AAe?$AAl?$AA?9?$AAr?$AAu?$AAn?$AAt?$AAi?$AAm?$AAe?$AA?9?$AAl?$AA1?$AA?9?$AA1@ 10076c48     libucrt:winapi_thunks.obj
 0002:00007c9c       ??_C@_1O@BCCLBEOE@?$AAu?$AAs?$AAe?$AAr?$AA3?$AA2?$AA?$AA@ 10076c9c     libucrt:winapi_thunks.obj
 0002:00007cac       ??_C@_1BA@PFFKHIOG@?$AAa?$AAp?$AAi?$AA?9?$AAm?$AAs?$AA?9?$AA?$AA@ 10076cac     libucrt:winapi_thunks.obj
 0002:00007cc0       ??_C@_1BA@IAIFMGEF@?$AAe?$AAx?$AAt?$AA?9?$AAm?$AAs?$AA?9?$AA?$AA@ 10076cc0     libucrt:winapi_thunks.obj
 0002:00007cd8       ??_C@_0BA@FHFNEAED@AreFileApisANSI?$AA@ 10076cd8     libucrt:winapi_thunks.obj
 0002:00007cf8       ??_C@_0BA@IHGNDAEB@CompareStringEx?$AA@ 10076cf8     libucrt:winapi_thunks.obj
 0002:00007d18       ??_C@_0BE@LJANKFHF@EnumSystemLocalesEx?$AA@ 10076d18     libucrt:winapi_thunks.obj
 0002:00007d3c       ??_C@_08KNHFBNJ@FlsAlloc?$AA@ 10076d3c     libucrt:winapi_thunks.obj
 0002:00007d54       ??_C@_07PEJMOBNF@FlsFree?$AA@ 10076d54     libucrt:winapi_thunks.obj
 0002:00007d6c       ??_C@_0M@GDNOONDI@FlsGetValue?$AA@ 10076d6c     libucrt:winapi_thunks.obj
 0002:00007d88       ??_C@_0M@JCPCPOEF@FlsSetValue?$AA@ 10076d88     libucrt:winapi_thunks.obj
 0002:00007da4       ??_C@_0BA@HNOPNCHB@GetActiveWindow?$AA@ 10076da4     libucrt:winapi_thunks.obj
 0002:00007dc4       ??_C@_0BA@EPCJIIPD@GetDateFormatEx?$AA@ 10076dc4     libucrt:winapi_thunks.obj
 0002:00007de4       ??_C@_0BJ@DIBIJBHA@GetEnabledXStateFeatures?$AA@ 10076de4     libucrt:winapi_thunks.obj
 0002:00007e10       ??_C@_0BD@HHGDFDBJ@GetLastActivePopup?$AA@ 10076e10     libucrt:winapi_thunks.obj
 0002:00007e34       ??_C@_0BA@ONOKGCMP@GetLocaleInfoEx?$AA@ 10076e34     libucrt:winapi_thunks.obj
 0002:00007e54       ??_C@_0BI@DFKBFLJE@GetProcessWindowStation?$AA@ 10076e54     libucrt:winapi_thunks.obj
 0002:00007e74       ??_C@_0BP@FPNJPEJC@GetSystemTimePreciseAsFileTime?$AA@ 10076e74     libucrt:winapi_thunks.obj
 0002:00007ea8       ??_C@_0BA@CIJJKCJJ@GetTimeFormatEx?$AA@ 10076ea8     libucrt:winapi_thunks.obj
 0002:00007ec8       ??_C@_0BJ@PBCCBIPI@GetUserDefaultLocaleName?$AA@ 10076ec8     libucrt:winapi_thunks.obj
 0002:00007ef4       ??_C@_0BK@DEKFELLI@GetUserObjectInformationW?$AA@ 10076ef4     libucrt:winapi_thunks.obj
 0002:00007f20       ??_C@_0BG@IKLDMBLM@GetXStateFeaturesMask?$AA@ 10076f20     libucrt:winapi_thunks.obj
 0002:00007f48       ??_C@_0BM@HCFOFFN@InitializeCriticalSectionEx?$AA@ 10076f48     libucrt:winapi_thunks.obj
 0002:00007f78       ??_C@_0BC@CELBKLLA@IsValidLocaleName?$AA@ 10076f78     libucrt:winapi_thunks.obj
 0002:00007f9c       ??_C@_0O@KKBNKAPF@LCMapStringEx?$AA@ 10076f9c     libucrt:winapi_thunks.obj
 0002:00007fb8       ??_C@_0BB@CDHDDLLP@LCIDToLocaleName?$AA@ 10076fb8     libucrt:winapi_thunks.obj
 0002:00007fd8       ??_C@_0BB@HBDEELFH@LocaleNameToLCID?$AA@ 10076fd8     libucrt:winapi_thunks.obj
 0002:00007ff8       ??_C@_0BE@KINNKFDA@LocateXStateFeature?$AA@ 10076ff8     libucrt:winapi_thunks.obj
 0002:0000801c       ??_C@_0M@CHKKJDAI@MessageBoxA?$AA@ 1007701c     libucrt:winapi_thunks.obj
 0002:00008038       ??_C@_0M@DLDCCGNP@MessageBoxW?$AA@ 10077038     libucrt:winapi_thunks.obj
 0002:0000804c       ??_C@_0N@PPOMPGGK@RoInitialize?$AA@ 1007704c     libucrt:winapi_thunks.obj
 0002:00008060       ??_C@_0P@LLFHBIJD@RoUninitialize?$AA@ 10077060     libucrt:winapi_thunks.obj
 0002:00008078       ??_C@_0CF@OJOFEIGO@AppPolicyGetProcessTerminationMe@ 10077078     libucrt:winapi_thunks.obj
 0002:000080a8       ??_C@_0CF@NNDFDCOC@AppPolicyGetThreadInitialization@ 100770a8     libucrt:winapi_thunks.obj
 0002:000080d8       ??_C@_0CE@OICFMIKE@AppPolicyGetShowDeveloperDiagnos@ 100770d8     libucrt:winapi_thunks.obj
 0002:00008108       ??_C@_0BL@ODDJNEDA@AppPolicyGetWindowingModel?$AA@ 10077108     libucrt:winapi_thunks.obj
 0002:00008134       ??_C@_0BI@BKLFFAPO@SetThreadStackGuarantee?$AA@ 10077134     libucrt:winapi_thunks.obj
 0002:0000815c       ??_C@_0BC@JEAENNKH@SystemFunction036?$AA@ 1007715c     libucrt:winapi_thunks.obj
 0002:00008174       ??_C@_03OEIAHPBN@INF?$AA@  10077174     libucrt:cvt.obj
 0002:00008178       ??_C@_03OJHLLCGB@inf?$AA@  10077178     libucrt:cvt.obj
 0002:0000817c       ??_C@_03LKNCIKJB@NAN?$AA@  1007717c     libucrt:cvt.obj
 0002:00008180       ??_C@_03LHCJEHON@nan?$AA@  10077180     libucrt:cvt.obj
 0002:00008184       ??_C@_09OFJJIMPC@NAN?$CISNAN?$CJ?$AA@ 10077184     libucrt:cvt.obj
 0002:00008190       ??_C@_09IPFBKMDL@nan?$CIsnan?$CJ?$AA@ 10077190     libucrt:cvt.obj
 0002:0000819c       ??_C@_08IKHNHAJ@NAN?$CIIND?$CJ?$AA@ 1007719c     libucrt:cvt.obj
 0002:000081a8       ??_C@_08OFCDMILK@nan?$CIind?$CJ?$AA@ 100771a8     libucrt:cvt.obj
 0002:000081b4       ??_C@_05KLBDPFGC@e?$CL000?$AA@ 100771b4     libucrt:cvt.obj
 0002:00008258       ___lc_category             10077258     libucrt:wsetlocale.obj
 0002:000082b0       ??_C@_1O@GIFLHMA@?$AAL?$AAC?$AA_?$AAA?$AAL?$AAL?$AA?$AA@ 100772b0     libucrt:wsetlocale.obj
 0002:000082c0       ??_C@_1BG@PPOMIBNJ@?$AAL?$AAC?$AA_?$AAC?$AAO?$AAL?$AAL?$AAA?$AAT?$AAE?$AA?$AA@ 100772c0     libucrt:wsetlocale.obj
 0002:000082dc       ??_C@_1BC@FFJGAPJM@?$AAL?$AAC?$AA_?$AAC?$AAT?$AAY?$AAP?$AAE?$AA?$AA@ 100772dc     libucrt:wsetlocale.obj
 0002:000082f4       ??_C@_1BI@PCKFNJFB@?$AAL?$AAC?$AA_?$AAM?$AAO?$AAN?$AAE?$AAT?$AAA?$AAR?$AAY?$AA?$AA@ 100772f4     libucrt:wsetlocale.obj
 0002:00008310       ??_C@_1BG@ENIEDKID@?$AAL?$AAC?$AA_?$AAN?$AAU?$AAM?$AAE?$AAR?$AAI?$AAC?$AA?$AA@ 10077310     libucrt:wsetlocale.obj
 0002:0000832c       ??_C@_1BA@HAAOMIIG@?$AAL?$AAC?$AA_?$AAT?$AAI?$AAM?$AAE?$AA?$AA@ 1007732c     libucrt:wsetlocale.obj
 0002:00008340       ??_C@_15NBPDDFIP@?$AA?$DN?$AA?$DL?$AA?$AA@ 10077340     libucrt:wsetlocale.obj
 0002:00008348       ??_C@_13PJJBFPED@?$AA?$DL?$AA?$AA@ 10077348     libucrt:wsetlocale.obj
 0002:0000834c       ??_C@_13NMPKAAJP@?$AA?$DN?$AA?$AA@ 1007734c     libucrt:wsetlocale.obj
 0002:00008350       ??_C@_13FHBKNHDA@?$AAC?$AA?$AA@ 10077350     libucrt:wsetlocale.obj
 0002:00008354       ??_C@_19MPDNHKDG@?$AAu?$AAt?$AAf?$AA8?$AA?$AA@ 10077354     libucrt:wsetlocale.obj
 0002:00008360       ??_C@_1M@FPEIIFAM@?$AAu?$AAt?$AAf?$AA?9?$AA8?$AA?$AA@ 10077360     libucrt:wsetlocale.obj
 0002:00008370       ??_C@_17MBJJLFDM@?$AA_?$AA?4?$AA?0?$AA?$AA@ 10077370     libucrt:wsetlocale.obj
 0002:0000837c       ??_C@_13ENNFDPBH@?$AA_?$AA?$AA@ 1007737c     libucrt:wsetlocale.obj
 0002:00008380       ??_C@_13JOFGPIOO@?$AA?4?$AA?$AA@ 10077380     libucrt:wsetlocale.obj
 0002:00008388       ___lc_time_c               10077388     libucrt:nlsdata.obj
 0002:00008534       ??_C@_03KOEHGMDN@Sun?$AA@  10077534     libucrt:nlsdata.obj
 0002:00008538       ??_C@_03PDAGKDH@Mon?$AA@   10077538     libucrt:nlsdata.obj
 0002:0000853c       ??_C@_03NAGEINEP@Tue?$AA@  1007753c     libucrt:nlsdata.obj
 0002:00008540       ??_C@_03MHOMLAJA@Wed?$AA@  10077540     libucrt:nlsdata.obj
 0002:00008544       ??_C@_03IOFIKPDN@Thu?$AA@  10077544     libucrt:nlsdata.obj
 0002:00008548       ??_C@_03IDIOELNC@Fri?$AA@  10077548     libucrt:nlsdata.obj
 0002:0000854c       ??_C@_03FEFJNEK@Sat?$AA@   1007754c     libucrt:nlsdata.obj
 0002:00008550       ??_C@_06OOPIFAJ@Sunday?$AA@ 10077550     libucrt:nlsdata.obj
 0002:00008558       ??_C@_06JLEDEDGH@Monday?$AA@ 10077558     libucrt:nlsdata.obj
 0002:00008560       ??_C@_07BAAGCFCM@Tuesday?$AA@ 10077560     libucrt:nlsdata.obj
 0002:0000856c       ??_C@_09DLIGFAKA@Wednesday?$AA@ 1007756c     libucrt:nlsdata.obj
 0002:00008578       ??_C@_08HACCIKIA@Thursday?$AA@ 10077578     libucrt:nlsdata.obj
 0002:00008584       ??_C@_06JECMNKMI@Friday?$AA@ 10077584     libucrt:nlsdata.obj
 0002:0000858c       ??_C@_08INBOOONO@Saturday?$AA@ 1007758c     libucrt:nlsdata.obj
 0002:00008598       ??_C@_03JIHJHPIE@Jan?$AA@  10077598     libucrt:nlsdata.obj
 0002:0000859c       ??_C@_03HJBDCHOM@Feb?$AA@  1007759c     libucrt:nlsdata.obj
 0002:000085a0       ??_C@_03ODNJBKGA@Mar?$AA@  100775a0     libucrt:nlsdata.obj
 0002:000085a4       ??_C@_03LEOLGMJP@Apr?$AA@  100775a4     libucrt:nlsdata.obj
 0002:000085a8       ??_C@_03CNMDKL@May?$AA@    100775a8     libucrt:nlsdata.obj
 0002:000085ac       ??_C@_03IDFGHECI@Jun?$AA@  100775ac     libucrt:nlsdata.obj
 0002:000085b0       ??_C@_03LBGABGKK@Jul?$AA@  100775b0     libucrt:nlsdata.obj
 0002:000085b4       ??_C@_03IFJFEIGA@Aug?$AA@  100775b4     libucrt:nlsdata.obj
 0002:000085b8       ??_C@_03GGCAPAJC@Sep?$AA@  100775b8     libucrt:nlsdata.obj
 0002:000085bc       ??_C@_03BMAOKBAD@Oct?$AA@  100775bc     libucrt:nlsdata.obj
 0002:000085c0       ??_C@_03JPJOFNIA@Nov?$AA@  100775c0     libucrt:nlsdata.obj
 0002:000085c4       ??_C@_03MKABNOCG@Dec?$AA@  100775c4     libucrt:nlsdata.obj
 0002:000085c8       ??_C@_07CGJPFGJA@January?$AA@ 100775c8     libucrt:nlsdata.obj
 0002:000085d4       ??_C@_08GNJGEPFN@February?$AA@ 100775d4     libucrt:nlsdata.obj
 0002:000085e0       ??_C@_05HPCKOFNC@March?$AA@ 100775e0     libucrt:nlsdata.obj
 0002:000085e8       ??_C@_05DMJDNLEJ@April?$AA@ 100775e8     libucrt:nlsdata.obj
 0002:000085f0       ??_C@_04CNLMGBGM@June?$AA@ 100775f0     libucrt:nlsdata.obj
 0002:000085f8       ??_C@_04MIEPOIFP@July?$AA@ 100775f8     libucrt:nlsdata.obj
 0002:00008600       ??_C@_06LBBHFDDG@August?$AA@ 10077600     libucrt:nlsdata.obj
 0002:00008608       ??_C@_09BHHEALKD@September?$AA@ 10077608     libucrt:nlsdata.obj
 0002:00008614       ??_C@_07JJNFCEND@October?$AA@ 10077614     libucrt:nlsdata.obj
 0002:00008620       ??_C@_08HCHEGEOA@November?$AA@ 10077620     libucrt:nlsdata.obj
 0002:0000862c       ??_C@_08EDHMEBNP@December?$AA@ 1007762c     libucrt:nlsdata.obj
 0002:00008638       ??_C@_02DEDBPAFC@AM?$AA@   10077638     libucrt:nlsdata.obj
 0002:0000863c       ??_C@_02CJNFDJBF@PM?$AA@   1007763c     libucrt:nlsdata.obj
 0002:00008640       ??_C@_08BPBNCDIB@MM?1dd?1yy?$AA@ 10077640     libucrt:nlsdata.obj
 0002:0000864c       ??_C@_0BE@CKGJFCPC@dddd?0?5MMMM?5dd?0?5yyyy?$AA@ 1007764c     libucrt:nlsdata.obj
 0002:00008664       ??_C@_08JCCMCCIL@HH?3mm?3ss?$AA@ 10077664     libucrt:nlsdata.obj
 0002:00008670       ??_C@_17MBGCMIPB@?$AAS?$AAu?$AAn?$AA?$AA@ 10077670     libucrt:nlsdata.obj
 0002:0000867c       ??_C@_17KBOMKBF@?$AAM?$AAo?$AAn?$AA?$AA@ 1007767c     libucrt:nlsdata.obj
 0002:00008688       ??_C@_17BMKGEGOJ@?$AAT?$AAu?$AAe?$AA?$AA@ 10077688     libucrt:nlsdata.obj
 0002:00008694       ??_C@_17CJEDCEPE@?$AAW?$AAe?$AAd?$AA?$AA@ 10077694     libucrt:nlsdata.obj
 0002:000086a0       ??_C@_17PDPHAADD@?$AAT?$AAh?$AAu?$AA?$AA@ 100776a0     libucrt:nlsdata.obj
 0002:000086ac       ??_C@_17HFOLPPLP@?$AAF?$AAr?$AAi?$AA?$AA@ 100776ac     libucrt:nlsdata.obj
 0002:000086b8       ??_C@_17GGIBDPIH@?$AAS?$AAa?$AAt?$AA?$AA@ 100776b8     libucrt:nlsdata.obj
 0002:000086c4       ??_C@_1O@IHNHDHPB@?$AAS?$AAu?$AAn?$AAd?$AAa?$AAy?$AA?$AA@ 100776c4     libucrt:nlsdata.obj
 0002:000086d4       ??_C@_1O@MMNBFLIA@?$AAM?$AAo?$AAn?$AAd?$AAa?$AAy?$AA?$AA@ 100776d4     libucrt:nlsdata.obj
 0002:000086e4       ??_C@_1BA@ENFBFFEK@?$AAT?$AAu?$AAe?$AAs?$AAd?$AAa?$AAy?$AA?$AA@ 100776e4     libucrt:nlsdata.obj
 0002:000086f8       ??_C@_1BE@EBOGMDOH@?$AAW?$AAe?$AAd?$AAn?$AAe?$AAs?$AAd?$AAa?$AAy?$AA?$AA@ 100776f8     libucrt:nlsdata.obj
 0002:00008710       ??_C@_1BC@HHMNLIHE@?$AAT?$AAh?$AAu?$AAr?$AAs?$AAd?$AAa?$AAy?$AA?$AA@ 10077710     libucrt:nlsdata.obj
 0002:00008728       ??_C@_1O@PDICJHAG@?$AAF?$AAr?$AAi?$AAd?$AAa?$AAy?$AA?$AA@ 10077728     libucrt:nlsdata.obj
 0002:00008738       ??_C@_1BC@ENMNNPAJ@?$AAS?$AAa?$AAt?$AAu?$AAr?$AAd?$AAa?$AAy?$AA?$AA@ 10077738     libucrt:nlsdata.obj
 0002:00008750       ??_C@_17DKNBKCHM@?$AAJ?$AAa?$AAn?$AA?$AA@ 10077750     libucrt:nlsdata.obj
 0002:0000875c       ??_C@_17LMDJEKJN@?$AAF?$AAe?$AAb?$AA?$AA@ 1007775c     libucrt:nlsdata.obj
 0002:00008768       ??_C@_17CKNLEDEC@?$AAM?$AAa?$AAr?$AA?$AA@ 10077768     libucrt:nlsdata.obj
 0002:00008774       ??_C@_17LFPOIHDD@?$AAA?$AAp?$AAr?$AA?$AA@ 10077774     libucrt:nlsdata.obj
 0002:00008780       ??_C@_17PNNKMEED@?$AAM?$AAa?$AAy?$AA?$AA@ 10077780     libucrt:nlsdata.obj
 0002:0000878c       ??_C@_17KCJGOCPB@?$AAJ?$AAu?$AAn?$AA?$AA@ 1007778c     libucrt:nlsdata.obj
 0002:00008798       ??_C@_17IJPCKHK@?$AAJ?$AAu?$AAl?$AA?$AA@ 10077798     libucrt:nlsdata.obj
 0002:000087a4       ??_C@_17ICPELBCN@?$AAA?$AAu?$AAg?$AA?$AA@ 100777a4     libucrt:nlsdata.obj
 0002:000087b0       ??_C@_17HCHCOKMG@?$AAS?$AAe?$AAp?$AA?$AA@ 100777b0     libucrt:nlsdata.obj
 0002:000087bc       ??_C@_17FNLKOI@?$AAO?$AAc?$AAt?$AA?$AA@ 100777bc     libucrt:nlsdata.obj
 0002:000087c8       ??_C@_17BBDMLCIG@?$AAN?$AAo?$AAv?$AA?$AA@ 100777c8     libucrt:nlsdata.obj
 0002:000087d4       ??_C@_17EGKACKIF@?$AAD?$AAe?$AAc?$AA?$AA@ 100777d4     libucrt:nlsdata.obj
 0002:000087e0       ??_C@_1BA@EFMEIEBA@?$AAJ?$AAa?$AAn?$AAu?$AAa?$AAr?$AAy?$AA?$AA@ 100777e0     libucrt:nlsdata.obj
 0002:000087f4       ??_C@_1BC@JGDDFFAM@?$AAF?$AAe?$AAb?$AAr?$AAu?$AAa?$AAr?$AAy?$AA?$AA@ 100777f4     libucrt:nlsdata.obj
 0002:0000880c       ??_C@_1M@IKEENEDF@?$AAM?$AAa?$AAr?$AAc?$AAh?$AA?$AA@ 1007780c     libucrt:nlsdata.obj
 0002:0000881c       ??_C@_1M@GJNLMHFD@?$AAA?$AAp?$AAr?$AAi?$AAl?$AA?$AA@ 1007781c     libucrt:nlsdata.obj
 0002:0000882c       ??_C@_19EPFLPGAP@?$AAJ?$AAu?$AAn?$AAe?$AA?$AA@ 1007782c     libucrt:nlsdata.obj
 0002:00008838       ??_C@_19BIFMLPCD@?$AAJ?$AAu?$AAl?$AAy?$AA?$AA@ 10077838     libucrt:nlsdata.obj
 0002:00008844       ??_C@_1O@PAHLKOAC@?$AAA?$AAu?$AAg?$AAu?$AAs?$AAt?$AA?$AA@ 10077844     libucrt:nlsdata.obj
 0002:00008854       ??_C@_1BE@DKAAMBJL@?$AAS?$AAe?$AAp?$AAt?$AAe?$AAm?$AAb?$AAe?$AAr?$AA?$AA@ 10077854     libucrt:nlsdata.obj
 0002:0000886c       ??_C@_1BA@EPANDLNG@?$AAO?$AAc?$AAt?$AAo?$AAb?$AAe?$AAr?$AA?$AA@ 1007786c     libucrt:nlsdata.obj
 0002:00008880       ??_C@_1BC@BGLIFPF@?$AAN?$AAo?$AAv?$AAe?$AAm?$AAb?$AAe?$AAr?$AA?$AA@ 10077880     libucrt:nlsdata.obj
 0002:00008898       ??_C@_1BC@FEMKIFH@?$AAD?$AAe?$AAc?$AAe?$AAm?$AAb?$AAe?$AAr?$AA?$AA@ 10077898     libucrt:nlsdata.obj
 0002:000088b0       ??_C@_15ODEHAHHF@?$AAA?$AAM?$AA?$AA@ 100778b0     libucrt:nlsdata.obj
 0002:000088b8       ??_C@_15CLMNNGEL@?$AAP?$AAM?$AA?$AA@ 100778b8     libucrt:nlsdata.obj
 0002:000088c0       ??_C@_1BC@IEBCMHCM@?$AAM?$AAM?$AA?1?$AAd?$AAd?$AA?1?$AAy?$AAy?$AA?$AA@ 100778c0     libucrt:nlsdata.obj
 0002:000088d8       ??_C@_1CI@KNAKOEBC@?$AAd?$AAd?$AAd?$AAd?$AA?0?$AA?5?$AAM?$AAM?$AAM?$AAM?$AA?5?$AAd?$AAd?$AA?0?$AA?5?$AAy?$AAy?$AAy?$AAy?$AA?$AA@ 100778d8     libucrt:nlsdata.obj
 0002:00008908       ??_C@_1BC@GDGBMEMK@?$AAH?$AAH?$AA?3?$AAm?$AAm?$AA?3?$AAs?$AAs?$AA?$AA@ 10077908     libucrt:nlsdata.obj
 0002:00008920       ??_C@_1M@BMHNFIME@?$AAe?$AAn?$AA?9?$AAU?$AAS?$AA?$AA@ 10077920     libucrt:nlsdata.obj
 0002:00008930       ?ccs@?1???$__acrt_stdio_parse_mode@D@@YA?AU__acrt_stdio_stream_mode@@QBD@Z@4QBDB 10077930     libucrt:openfile.obj
 0002:00008934       ?utf8_encoding@?1???$__acrt_stdio_parse_mode@D@@YA?AU__acrt_stdio_stream_mode@@QBD@Z@4QBDB 10077934     libucrt:openfile.obj
 0002:0000893c       ?utf16_encoding@?1???$__acrt_stdio_parse_mode@D@@YA?AU__acrt_stdio_stream_mode@@QBD@Z@4QBDB 1007793c     libucrt:openfile.obj
 0002:00008948       ?unicode_encoding@?1???$__acrt_stdio_parse_mode@D@@YA?AU__acrt_stdio_stream_mode@@QBD@Z@4QBDB 10077948     libucrt:openfile.obj
 0002:00008950       ?ccs@?1???$__acrt_stdio_parse_mode@_W@@YA?AU__acrt_stdio_stream_mode@@QB_W@Z@4QB_WB 10077950     libucrt:openfile.obj
 0002:00008958       ?utf8_encoding@?1???$__acrt_stdio_parse_mode@_W@@YA?AU__acrt_stdio_stream_mode@@QB_W@Z@4QB_WB 10077958     libucrt:openfile.obj
 0002:00008964       ?utf16_encoding@?1???$__acrt_stdio_parse_mode@_W@@YA?AU__acrt_stdio_stream_mode@@QB_W@Z@4QB_WB 10077964     libucrt:openfile.obj
 0002:00008978       ?unicode_encoding@?1???$__acrt_stdio_parse_mode@_W@@YA?AU__acrt_stdio_stream_mode@@QB_W@Z@4QB_WB 10077978     libucrt:openfile.obj
 0002:00008988       __d_inf                    10077988     libucrt:util.obj
 0002:00008998       __d_ind                    10077998     libucrt:util.obj
 0002:000089a8       __d_max                    100779a8     libucrt:util.obj
 0002:000089b8       __d_min                    100779b8     libucrt:util.obj
 0002:000089c8       __d_mzero                  100779c8     libucrt:util.obj
 0002:000089f4       ??_C@_1DE@JNGNBFGO@?$AAR?$AAu?$AAn?$AAt?$AAi?$AAm?$AAe?$AA?5?$AAE?$AAr?$AAr?$AAo?$AAr?$AA?$CB?$AA?6?$AA?6?$AAP?$AAr?$AAo?$AAg?$AAr?$AAa?$AAm?$AA?3?$AA?5?$AA?$AA@ 100779f4     libucrt:report_runtime_error.obj
 0002:00008a48       ??_C@_1M@HPNHIDJI@?$AAj?$AAa?$AA?9?$AAJ?$AAP?$AA?$AA@ 10077a48     libucrt:mbctype.obj
 0002:00008a58       ??_C@_1M@BIBDDEMK@?$AAz?$AAh?$AA?9?$AAC?$AAN?$AA?$AA@ 10077a58     libucrt:mbctype.obj
 0002:00008a68       ??_C@_1M@JLOOOEGK@?$AAk?$AAo?$AA?9?$AAK?$AAR?$AA?$AA@ 10077a68     libucrt:mbctype.obj
 0002:00008a78       ??_C@_1M@CLNBBOPM@?$AAz?$AAh?$AA?9?$AAT?$AAW?$AA?$AA@ 10077a78     libucrt:mbctype.obj
 0002:00008a88       ___newctype                10077a88     libucrt:ctype.obj
 0002:00008e28       ___newclmap                10077e28     libucrt:ctype.obj
 0002:00008ff8       ___newcumap                10077ff8     libucrt:ctype.obj
 0002:000091c8       __wctype                   100781c8     libucrt:ctype.obj
 0002:00009cc4       ??_C@_15EMKDOKLE@?$AAa?$AAr?$AA?$AA@ 10078cc4     libucrt:lcidtoname_downlevel.obj
 0002:00009ccc       ??_C@_15KNPADPLH@?$AAb?$AAg?$AA?$AA@ 10078ccc     libucrt:lcidtoname_downlevel.obj
 0002:00009cd4       ??_C@_15EDMHLDMO@?$AAc?$AAa?$AA?$AA@ 10078cd4     libucrt:lcidtoname_downlevel.obj
 0002:00009cdc       ??_C@_1O@BPEAJADD@?$AAz?$AAh?$AA?9?$AAC?$AAH?$AAS?$AA?$AA@ 10078cdc     libucrt:lcidtoname_downlevel.obj
 0002:00009cec       ??_C@_15LJNHCMNK@?$AAc?$AAs?$AA?$AA@ 10078cec     libucrt:lcidtoname_downlevel.obj
 0002:00009cf4       ??_C@_15FOMCIDHG@?$AAd?$AAa?$AA?$AA@ 10078cf4     libucrt:lcidtoname_downlevel.obj
 0002:00009cfc       ??_C@_15NBKABECB@?$AAd?$AAe?$AA?$AA@ 10078cfc     libucrt:lcidtoname_downlevel.obj
 0002:00009d04       ??_C@_15GHPEIIAO@?$AAe?$AAl?$AA?$AA@ 10078d04     libucrt:lcidtoname_downlevel.obj
 0002:00009d0c       ??_C@_15MNPNEAIF@?$AAe?$AAn?$AA?$AA@ 10078d0c     libucrt:lcidtoname_downlevel.obj
 0002:00009d14       ??_C@_15GPIOMPMH@?$AAe?$AAs?$AA?$AA@ 10078d14     libucrt:lcidtoname_downlevel.obj
 0002:00009d1c       ??_C@_15NGLOAKJC@?$AAf?$AAi?$AA?$AA@ 10078d1c     libucrt:lcidtoname_downlevel.obj
 0002:00009d24       ??_C@_15FBKGNKAM@?$AAf?$AAr?$AA?$AA@ 10078d24     libucrt:lcidtoname_downlevel.obj
 0002:00009d2c       ??_C@_15KGGCNEFK@?$AAh?$AAe?$AA?$AA@ 10078d2c     libucrt:lcidtoname_downlevel.obj
 0002:00009d34       ??_C@_15PGHLIDMF@?$AAh?$AAu?$AA?$AA@ 10078d34     libucrt:lcidtoname_downlevel.obj
 0002:00009d3c       ??_C@_15BIEMAPLM@?$AAi?$AAs?$AA?$AA@ 10078d3c     libucrt:lcidtoname_downlevel.obj
 0002:00009d44       ??_C@_15IFJLDHAF@?$AAi?$AAt?$AA?$AA@ 10078d44     libucrt:lcidtoname_downlevel.obj
 0002:00009d4c       ??_C@_15GEMIOCAG@?$AAj?$AAa?$AA?$AA@ 10078d4c     libucrt:lcidtoname_downlevel.obj
 0002:00009d54       ??_C@_15EPELEGJA@?$AAk?$AAo?$AA?$AA@ 10078d54     libucrt:lcidtoname_downlevel.obj
 0002:00009d5c       ??_C@_15NDDHIMN@?$AAn?$AAl?$AA?$AA@ 10078d5c     libucrt:lcidtoname_downlevel.obj
 0002:00009d64       ??_C@_15BPIGNHCD@?$AAn?$AAo?$AA?$AA@ 10078d64     libucrt:lcidtoname_downlevel.obj
 0002:00009d6c       ??_C@_15DEOPBLCG@?$AAp?$AAl?$AA?$AA@ 10078d6c     libucrt:lcidtoname_downlevel.obj
 0002:00009d74       ??_C@_15KBECGEFG@?$AAp?$AAt?$AA?$AA@ 10078d74     libucrt:lcidtoname_downlevel.obj
 0002:00009d7c       ??_C@_15GLJCBFMD@?$AAr?$AAo?$AA?$AA@ 10078d7c     libucrt:lcidtoname_downlevel.obj
 0002:00009d84       ??_C@_15FEDGKCDI@?$AAr?$AAu?$AA?$AA@ 10078d84     libucrt:lcidtoname_downlevel.obj
 0002:00009d8c       ??_C@_15GLKMLLHM@?$AAh?$AAr?$AA?$AA@ 10078d8c     libucrt:lcidtoname_downlevel.obj
 0002:00009d94       ??_C@_15CPKMFBDB@?$AAs?$AAk?$AA?$AA@ 10078d94     libucrt:lcidtoname_downlevel.obj
 0002:00009d9c       ??_C@_15BAAIOGMK@?$AAs?$AAq?$AA?$AA@ 10078d9c     libucrt:lcidtoname_downlevel.obj
 0002:00009da4       ??_C@_15INNPNOHD@?$AAs?$AAv?$AA?$AA@ 10078da4     libucrt:lcidtoname_downlevel.obj
 0002:00009dac       ??_C@_15CABMMOGH@?$AAt?$AAh?$AA?$AA@ 10078dac     libucrt:lcidtoname_downlevel.obj
 0002:00009db4       ??_C@_15BPLIHJJM@?$AAt?$AAr?$AA?$AA@ 10078db4     libucrt:lcidtoname_downlevel.obj
 0002:00009dbc       ??_C@_15NEOEKKDJ@?$AAu?$AAr?$AA?$AA@ 10078dbc     libucrt:lcidtoname_downlevel.obj
 0002:00009dc4       ??_C@_15NFICGAJK@?$AAi?$AAd?$AA?$AA@ 10078dc4     libucrt:lcidtoname_downlevel.obj
 0002:00009dcc       ??_C@_15PJPFLCCM@?$AAu?$AAk?$AA?$AA@ 10078dcc     libucrt:lcidtoname_downlevel.obj
 0002:00009dd4       ??_C@_15HPJPHDM@?$AAb?$AAe?$AA?$AA@ 10078dd4     libucrt:lcidtoname_downlevel.obj
 0002:00009ddc       ??_C@_15LCHLGJII@?$AAs?$AAl?$AA?$AA@ 10078ddc     libucrt:lcidtoname_downlevel.obj
 0002:00009de4       ??_C@_15PCFJPHHO@?$AAe?$AAt?$AA?$AA@ 10078de4     libucrt:lcidtoname_downlevel.obj
 0002:00009dec       ??_C@_15HPFPGODN@?$AAl?$AAv?$AA?$AA@ 10078dec     libucrt:lcidtoname_downlevel.obj
 0002:00009df4       ??_C@_15NFFGKGLG@?$AAl?$AAt?$AA?$AA@ 10078df4     libucrt:lcidtoname_downlevel.obj
 0002:00009dfc       ??_C@_15BDAKCCHN@?$AAf?$AAa?$AA?$AA@ 10078dfc     libucrt:lcidtoname_downlevel.obj
 0002:00009e04       ??_C@_15NFGIAIAJ@?$AAv?$AAi?$AA?$AA@ 10078e04     libucrt:lcidtoname_downlevel.obj
 0002:00009e0c       ??_C@_15LMKNDMHN@?$AAh?$AAy?$AA?$AA@ 10078e0c     libucrt:lcidtoname_downlevel.obj
 0002:00009e14       ??_C@_15IJBHMCFL@?$AAa?$AAz?$AA?$AA@ 10078e14     libucrt:lcidtoname_downlevel.obj
 0002:00009e1c       ??_C@_15EKOFJABL@?$AAe?$AAu?$AA?$AA@ 10078e1c     libucrt:lcidtoname_downlevel.obj
 0002:00009e24       ??_C@_15BGHADCNK@?$AAm?$AAk?$AA?$AA@ 10078e24     libucrt:lcidtoname_downlevel.obj
 0002:00009e2c       ??_C@_15JDNICKHM@?$AAa?$AAf?$AA?$AA@ 10078e2c     libucrt:lcidtoname_downlevel.obj
 0002:00009e34       ??_C@_15KPJEDBKD@?$AAk?$AAa?$AA?$AA@ 10078e34     libucrt:lcidtoname_downlevel.obj
 0002:00009e3c       ??_C@_15PDNFFFEO@?$AAf?$AAo?$AA?$AA@ 10078e3c     libucrt:lcidtoname_downlevel.obj
 0002:00009e44       ??_C@_15OMLEGLOC@?$AAh?$AAi?$AA?$AA@ 10078e44     libucrt:lcidtoname_downlevel.obj
 0002:00009e4c       ??_C@_15IDNNENKK@?$AAm?$AAs?$AA?$AA@ 10078e4c     libucrt:lcidtoname_downlevel.obj
 0002:00009e54       ??_C@_15MACJNBMH@?$AAk?$AAk?$AA?$AA@ 10078e54     libucrt:lcidtoname_downlevel.obj
 0002:00009e5c       ??_C@_15DKDJEOND@?$AAk?$AAy?$AA?$AA@ 10078e5c     libucrt:lcidtoname_downlevel.obj
 0002:00009e64       ??_C@_15DFGDLJBG@?$AAs?$AAw?$AA?$AA@ 10078e64     libucrt:lcidtoname_downlevel.obj
 0002:00009e6c       ??_C@_15BBFAICNG@?$AAu?$AAz?$AA?$AA@ 10078e6c     libucrt:lcidtoname_downlevel.obj
 0002:00009e74       ??_C@_15DKNDCGEA@?$AAt?$AAt?$AA?$AA@ 10078e74     libucrt:lcidtoname_downlevel.obj
 0002:00009e7c       ??_C@_15MGIFMDPL@?$AAp?$AAa?$AA?$AA@ 10078e7c     libucrt:lcidtoname_downlevel.obj
 0002:00009e84       ??_C@_15HCNDBBA@?$AAg?$AAu?$AA?$AA@ 10078e84     libucrt:lcidtoname_downlevel.obj
 0002:00009e8c       ??_C@_15FNBEIBON@?$AAt?$AAa?$AA?$AA@ 10078e8c     libucrt:lcidtoname_downlevel.obj
 0002:00009e94       ??_C@_15NCHGBGLK@?$AAt?$AAe?$AA?$AA@ 10078e94     libucrt:lcidtoname_downlevel.obj
 0002:00009e9c       ??_C@_15PHPHCBPF@?$AAk?$AAn?$AA?$AA@ 10078e9c     libucrt:lcidtoname_downlevel.obj
 0002:00009ea4       ??_C@_15DLGBCKMP@?$AAm?$AAr?$AA?$AA@ 10078ea4     libucrt:lcidtoname_downlevel.obj
 0002:00009eac       ??_C@_15EABBLBFF@?$AAs?$AAa?$AA?$AA@ 10078eac     libucrt:lcidtoname_downlevel.obj
 0002:00009eb4       ??_C@_15CBKOMCOI@?$AAm?$AAn?$AA?$AA@ 10078eb4     libucrt:lcidtoname_downlevel.obj
 0002:00009ebc       ??_C@_15CKDMCJAF@?$AAg?$AAl?$AA?$AA@ 10078ebc     libucrt:lcidtoname_downlevel.obj
 0002:00009ec4       ??_C@_17CNJFBPG@?$AAk?$AAo?$AAk?$AA?$AA@ 10078ec4     libucrt:lcidtoname_downlevel.obj
 0002:00009ed0       ??_C@_17FFBJICPL@?$AAs?$AAy?$AAr?$AA?$AA@ 10078ed0     libucrt:lcidtoname_downlevel.obj
 0002:00009edc       ??_C@_17KPNDCPAF@?$AAd?$AAi?$AAv?$AA?$AA@ 10078edc     libucrt:lcidtoname_downlevel.obj
 0002:00009ee8       ??_C@_11LOCGONAA@?$AA?$AA@ 10078ee8     libucrt:lcidtoname_downlevel.obj
 0002:00009eec       ??_C@_1M@OKAHONE@?$AAa?$AAr?$AA?9?$AAS?$AAA?$AA?$AA@ 10078eec     libucrt:lcidtoname_downlevel.obj
 0002:00009efc       ??_C@_1M@FFFIGIGK@?$AAb?$AAg?$AA?9?$AAB?$AAG?$AA?$AA@ 10078efc     libucrt:lcidtoname_downlevel.obj
 0002:00009f0c       ??_C@_1M@BJNKEDC@?$AAc?$AAa?$AA?9?$AAE?$AAS?$AA?$AA@ 10078f0c     libucrt:lcidtoname_downlevel.obj
 0002:00009f1c       ??_C@_1M@IJJHFJHA@?$AAc?$AAs?$AA?9?$AAC?$AAZ?$AA?$AA@ 10078f1c     libucrt:lcidtoname_downlevel.obj
 0002:00009f2c       ??_C@_1M@CLPEOBGI@?$AAd?$AAa?$AA?9?$AAD?$AAK?$AA?$AA@ 10078f2c     libucrt:lcidtoname_downlevel.obj
 0002:00009f3c       ??_C@_1M@MCMADGCB@?$AAd?$AAe?$AA?9?$AAD?$AAE?$AA?$AA@ 10078f3c     libucrt:lcidtoname_downlevel.obj
 0002:00009f4c       ??_C@_1M@OOCKEMAM@?$AAe?$AAl?$AA?9?$AAG?$AAR?$AA?$AA@ 10078f4c     libucrt:lcidtoname_downlevel.obj
 0002:00009f5c       ??_C@_1M@DDNJFGID@?$AAf?$AAi?$AA?9?$AAF?$AAI?$AA?$AA@ 10078f5c     libucrt:lcidtoname_downlevel.obj
 0002:00009f6c       ??_C@_1M@GLIPPMAC@?$AAf?$AAr?$AA?9?$AAF?$AAR?$AA?$AA@ 10078f6c     libucrt:lcidtoname_downlevel.obj
 0002:00009f7c       ??_C@_1M@GFMCHPE@?$AAh?$AAe?$AA?9?$AAI?$AAL?$AA?$AA@ 10078f7c     libucrt:lcidtoname_downlevel.obj
 0002:00009f8c       ??_C@_1M@MHLPGNKM@?$AAh?$AAu?$AA?9?$AAH?$AAU?$AA?$AA@ 10078f8c     libucrt:lcidtoname_downlevel.obj
 0002:00009f9c       ??_C@_1M@LPDDNNPN@?$AAi?$AAs?$AA?9?$AAI?$AAS?$AA?$AA@ 10078f9c     libucrt:lcidtoname_downlevel.obj
 0002:00009fac       ??_C@_1M@MADIPODN@?$AAi?$AAt?$AA?9?$AAI?$AAT?$AA?$AA@ 10078fac     libucrt:lcidtoname_downlevel.obj
 0002:00009fbc       ??_C@_1M@IHBJJGG@?$AAn?$AAl?$AA?9?$AAN?$AAL?$AA?$AA@ 10078fbc     libucrt:lcidtoname_downlevel.obj
 0002:00009fcc       ??_C@_1M@EANAGDL@?$AAn?$AAb?$AA?9?$AAN?$AAO?$AA?$AA@ 10078fcc     libucrt:lcidtoname_downlevel.obj
 0002:00009fdc       ??_C@_1M@NEIEMEGP@?$AAp?$AAl?$AA?9?$AAP?$AAL?$AA?$AA@ 10078fdc     libucrt:lcidtoname_downlevel.obj
 0002:00009fec       ??_C@_1M@BOCFIGEP@?$AAp?$AAt?$AA?9?$AAB?$AAR?$AA?$AA@ 10078fec     libucrt:lcidtoname_downlevel.obj
 0002:00009ffc       ??_C@_1M@IMPFOPBG@?$AAr?$AAo?$AA?9?$AAR?$AAO?$AA?$AA@ 10078ffc     libucrt:lcidtoname_downlevel.obj
 0002:0000a00c       ??_C@_1M@IDNNEJMM@?$AAr?$AAu?$AA?9?$AAR?$AAU?$AA?$AA@ 1007900c     libucrt:lcidtoname_downlevel.obj
 0002:0000a01c       ??_C@_1M@LILEEOGM@?$AAh?$AAr?$AA?9?$AAH?$AAR?$AA?$AA@ 1007901c     libucrt:lcidtoname_downlevel.obj
 0002:0000a02c       ??_C@_1M@FKIFEHPB@?$AAs?$AAk?$AA?9?$AAS?$AAK?$AA?$AA@ 1007902c     libucrt:lcidtoname_downlevel.obj
 0002:0000a03c       ??_C@_1M@LJMAMNPJ@?$AAs?$AAq?$AA?9?$AAA?$AAL?$AA?$AA@ 1007903c     libucrt:lcidtoname_downlevel.obj
 0002:0000a04c       ??_C@_1M@GIAKDKJK@?$AAs?$AAv?$AA?9?$AAS?$AAE?$AA?$AA@ 1007904c     libucrt:lcidtoname_downlevel.obj
 0002:0000a05c       ??_C@_1M@MKJKIKCL@?$AAt?$AAh?$AA?9?$AAT?$AAH?$AA?$AA@ 1007905c     libucrt:lcidtoname_downlevel.obj
 0002:0000a06c       ??_C@_1M@MFLCCMPB@?$AAt?$AAr?$AA?9?$AAT?$AAR?$AA?$AA@ 1007906c     libucrt:lcidtoname_downlevel.obj
 0002:0000a07c       ??_C@_1M@OIJHDKJN@?$AAu?$AAr?$AA?9?$AAP?$AAK?$AA?$AA@ 1007907c     libucrt:lcidtoname_downlevel.obj
 0002:0000a08c       ??_C@_1M@LHIPCIEK@?$AAi?$AAd?$AA?9?$AAI?$AAD?$AA?$AA@ 1007908c     libucrt:lcidtoname_downlevel.obj
 0002:0000a09c       ??_C@_1M@MFMOBGI@?$AAu?$AAk?$AA?9?$AAU?$AAA?$AA?$AA@ 1007909c     libucrt:lcidtoname_downlevel.obj
 0002:0000a0ac       ??_C@_1M@OBGLJIPL@?$AAb?$AAe?$AA?9?$AAB?$AAY?$AA?$AA@ 100790ac     libucrt:lcidtoname_downlevel.obj
 0002:0000a0bc       ??_C@_1M@BCFAJEAD@?$AAs?$AAl?$AA?9?$AAS?$AAI?$AA?$AA@ 100790bc     libucrt:lcidtoname_downlevel.obj
 0002:0000a0cc       ??_C@_1M@FKFFEDDN@?$AAe?$AAt?$AA?9?$AAE?$AAE?$AA?$AA@ 100790cc     libucrt:lcidtoname_downlevel.obj
 0002:0000a0dc       ??_C@_1M@KGKKAACI@?$AAl?$AAv?$AA?9?$AAL?$AAV?$AA?$AA@ 100790dc     libucrt:lcidtoname_downlevel.obj
 0002:0000a0ec       ??_C@_1M@IFGBIJO@?$AAl?$AAt?$AA?9?$AAL?$AAT?$AA?$AA@ 100790ec     libucrt:lcidtoname_downlevel.obj
 0002:0000a0fc       ??_C@_1M@FGEAHEDM@?$AAf?$AAa?$AA?9?$AAI?$AAR?$AA?$AA@ 100790fc     libucrt:lcidtoname_downlevel.obj
 0002:0000a10c       ??_C@_1M@KBMAIBFN@?$AAv?$AAi?$AA?9?$AAV?$AAN?$AA?$AA@ 1007910c     libucrt:lcidtoname_downlevel.obj
 0002:0000a11c       ??_C@_1M@GPCBKDJK@?$AAh?$AAy?$AA?9?$AAA?$AAM?$AA?$AA@ 1007911c     libucrt:lcidtoname_downlevel.obj
 0002:0000a12c       ??_C@_1BG@BECMDDJB@?$AAa?$AAz?$AA?9?$AAA?$AAZ?$AA?9?$AAL?$AAa?$AAt?$AAn?$AA?$AA@ 1007912c     libucrt:lcidtoname_downlevel.obj
 0002:0000a148       ??_C@_1M@MAOFCAEA@?$AAe?$AAu?$AA?9?$AAE?$AAS?$AA?$AA@ 10079148     libucrt:lcidtoname_downlevel.obj
 0002:0000a158       ??_C@_1M@IGHABKPI@?$AAm?$AAk?$AA?9?$AAM?$AAK?$AA?$AA@ 10079158     libucrt:lcidtoname_downlevel.obj
 0002:0000a168       ??_C@_1M@IAIGNEJG@?$AAt?$AAn?$AA?9?$AAZ?$AAA?$AA?$AA@ 10079168     libucrt:lcidtoname_downlevel.obj
 0002:0000a178       ??_C@_1M@IIJCOJFA@?$AAx?$AAh?$AA?9?$AAZ?$AAA?$AA?$AA@ 10079178     libucrt:lcidtoname_downlevel.obj
 0002:0000a188       ??_C@_1M@LGPJHNJH@?$AAz?$AAu?$AA?9?$AAZ?$AAA?$AA?$AA@ 10079188     libucrt:lcidtoname_downlevel.obj
 0002:0000a198       ??_C@_1M@HOKAOIO@?$AAa?$AAf?$AA?9?$AAZ?$AAA?$AA?$AA@ 10079198     libucrt:lcidtoname_downlevel.obj
 0002:0000a1a8       ??_C@_1M@DPCLHLIE@?$AAk?$AAa?$AA?9?$AAG?$AAE?$AA?$AA@ 100791a8     libucrt:lcidtoname_downlevel.obj
 0002:0000a1b8       ??_C@_1M@BLKMHJBI@?$AAf?$AAo?$AA?9?$AAF?$AAO?$AA?$AA@ 100791b8     libucrt:lcidtoname_downlevel.obj
 0002:0000a1c8       ??_C@_1M@LGGJAPPB@?$AAh?$AAi?$AA?9?$AAI?$AAN?$AA?$AA@ 100791c8     libucrt:lcidtoname_downlevel.obj
 0002:0000a1d8       ??_C@_1M@FIKPIHFE@?$AAm?$AAt?$AA?9?$AAM?$AAT?$AA?$AA@ 100791d8     libucrt:lcidtoname_downlevel.obj
 0002:0000a1e8       ??_C@_1M@HEGGPBFA@?$AAs?$AAe?$AA?9?$AAN?$AAO?$AA?$AA@ 100791e8     libucrt:lcidtoname_downlevel.obj
 0002:0000a1f8       ??_C@_1M@EIBJEEPA@?$AAm?$AAs?$AA?9?$AAM?$AAY?$AA?$AA@ 100791f8     libucrt:lcidtoname_downlevel.obj
 0002:0000a208       ??_C@_1M@FHLBGMPP@?$AAk?$AAk?$AA?9?$AAK?$AAZ?$AA?$AA@ 10079208     libucrt:lcidtoname_downlevel.obj
 0002:0000a218       ??_C@_1M@NGJJLCGI@?$AAk?$AAy?$AA?9?$AAK?$AAG?$AA?$AA@ 10079218     libucrt:lcidtoname_downlevel.obj
 0002:0000a228       ??_C@_1M@GIENNBFC@?$AAs?$AAw?$AA?9?$AAK?$AAE?$AA?$AA@ 10079228     libucrt:lcidtoname_downlevel.obj
 0002:0000a238       ??_C@_1BG@NDGMJIMJ@?$AAu?$AAz?$AA?9?$AAU?$AAZ?$AA?9?$AAL?$AAa?$AAt?$AAn?$AA?$AA@ 10079238     libucrt:lcidtoname_downlevel.obj
 0002:0000a254       ??_C@_1M@IDCCIHBC@?$AAt?$AAt?$AA?9?$AAR?$AAU?$AA?$AA@ 10079254     libucrt:lcidtoname_downlevel.obj
 0002:0000a264       ??_C@_1M@LOICPMOJ@?$AAb?$AAn?$AA?9?$AAI?$AAN?$AA?$AA@ 10079264     libucrt:lcidtoname_downlevel.obj
 0002:0000a274       ??_C@_1M@KPKKNEAH@?$AAp?$AAa?$AA?9?$AAI?$AAN?$AA?$AA@ 10079274     libucrt:lcidtoname_downlevel.obj
 0002:0000a284       ??_C@_1M@PJGPPBOG@?$AAg?$AAu?$AA?9?$AAI?$AAN?$AA?$AA@ 10079284     libucrt:lcidtoname_downlevel.obj
 0002:0000a294       ??_C@_1M@KMKMOPHI@?$AAt?$AAa?$AA?9?$AAI?$AAN?$AA?$AA@ 10079294     libucrt:lcidtoname_downlevel.obj
 0002:0000a2a4       ??_C@_1M@KFEHEPAC@?$AAt?$AAe?$AA?9?$AAI?$AAN?$AA?$AA@ 100792a4     libucrt:lcidtoname_downlevel.obj
 0002:0000a2b4       ??_C@_1M@CDCLMGHI@?$AAk?$AAn?$AA?9?$AAI?$AAN?$AA?$AA@ 100792b4     libucrt:lcidtoname_downlevel.obj
 0002:0000a2c4       ??_C@_1M@MIODLDKF@?$AAm?$AAl?$AA?9?$AAI?$AAN?$AA?$AA@ 100792c4     libucrt:lcidtoname_downlevel.obj
 0002:0000a2d4       ??_C@_1M@PBIEACPO@?$AAm?$AAr?$AA?9?$AAI?$AAN?$AA?$AA@ 100792d4     libucrt:lcidtoname_downlevel.obj
 0002:0000a2e4       ??_C@_1M@NIDEAGPH@?$AAs?$AAa?$AA?9?$AAI?$AAN?$AA?$AA@ 100792e4     libucrt:lcidtoname_downlevel.obj
 0002:0000a2f4       ??_C@_1M@FHIHCBIO@?$AAm?$AAn?$AA?9?$AAM?$AAN?$AA?$AA@ 100792f4     libucrt:lcidtoname_downlevel.obj
 0002:0000a304       ??_C@_1M@JAIJPENP@?$AAc?$AAy?$AA?9?$AAG?$AAB?$AA?$AA@ 10079304     libucrt:lcidtoname_downlevel.obj
 0002:0000a314       ??_C@_1M@PHGFBEPN@?$AAg?$AAl?$AA?9?$AAE?$AAS?$AA?$AA@ 10079314     libucrt:lcidtoname_downlevel.obj
 0002:0000a324       ??_C@_1O@KPIPDNCP@?$AAk?$AAo?$AAk?$AA?9?$AAI?$AAN?$AA?$AA@ 10079324     libucrt:lcidtoname_downlevel.obj
 0002:0000a334       ??_C@_1O@KNHJLDJA@?$AAs?$AAy?$AAr?$AA?9?$AAS?$AAY?$AA?$AA@ 10079334     libucrt:lcidtoname_downlevel.obj
 0002:0000a344       ??_C@_1O@MKEKBLAH@?$AAd?$AAi?$AAv?$AA?9?$AAM?$AAV?$AA?$AA@ 10079344     libucrt:lcidtoname_downlevel.obj
 0002:0000a354       ??_C@_1O@OHDCKDDF@?$AAq?$AAu?$AAz?$AA?9?$AAB?$AAO?$AA?$AA@ 10079354     libucrt:lcidtoname_downlevel.obj
 0002:0000a364       ??_C@_1M@LEPJNLFD@?$AAn?$AAs?$AA?9?$AAZ?$AAA?$AA?$AA@ 10079364     libucrt:lcidtoname_downlevel.obj
 0002:0000a374       ??_C@_1M@OMLEIIJB@?$AAm?$AAi?$AA?9?$AAN?$AAZ?$AA?$AA@ 10079374     libucrt:lcidtoname_downlevel.obj
 0002:0000a384       ??_C@_1M@PMPEAILG@?$AAa?$AAr?$AA?9?$AAI?$AAQ?$AA?$AA@ 10079384     libucrt:lcidtoname_downlevel.obj
 0002:0000a394       ??_C@_1M@CNKPNOEE@?$AAd?$AAe?$AA?9?$AAC?$AAH?$AA?$AA@ 10079394     libucrt:lcidtoname_downlevel.obj
 0002:0000a3a4       ??_C@_1M@LKMGMLKO@?$AAe?$AAn?$AA?9?$AAG?$AAB?$AA?$AA@ 100793a4     libucrt:lcidtoname_downlevel.obj
 0002:0000a3b4       ??_C@_1M@PGKJFFGL@?$AAe?$AAs?$AA?9?$AAM?$AAX?$AA?$AA@ 100793b4     libucrt:lcidtoname_downlevel.obj
 0002:0000a3c4       ??_C@_1M@DNNANBDC@?$AAf?$AAr?$AA?9?$AAB?$AAE?$AA?$AA@ 100793c4     libucrt:lcidtoname_downlevel.obj
 0002:0000a3d4       ??_C@_1M@HLGMDFHM@?$AAi?$AAt?$AA?9?$AAC?$AAH?$AA?$AA@ 100793d4     libucrt:lcidtoname_downlevel.obj
 0002:0000a3e4       ??_C@_1M@CLLBGJH@?$AAn?$AAl?$AA?9?$AAB?$AAE?$AA?$AA@ 100793e4     libucrt:lcidtoname_downlevel.obj
 0002:0000a3f4       ??_C@_1M@BODBOGLF@?$AAn?$AAn?$AA?9?$AAN?$AAO?$AA?$AA@ 100793f4     libucrt:lcidtoname_downlevel.obj
 0002:0000a404       ??_C@_1M@HFFAHKAD@?$AAp?$AAt?$AA?9?$AAP?$AAT?$AA?$AA@ 10079404     libucrt:lcidtoname_downlevel.obj
 0002:0000a414       ??_C@_1BG@LNOAKHIE@?$AAs?$AAr?$AA?9?$AAS?$AAP?$AA?9?$AAL?$AAa?$AAt?$AAn?$AA?$AA@ 10079414     libucrt:lcidtoname_downlevel.obj
 0002:0000a430       ??_C@_1M@HBMHBGAK@?$AAs?$AAv?$AA?9?$AAF?$AAI?$AA?$AA@ 10079430     libucrt:lcidtoname_downlevel.obj
 0002:0000a440       ??_C@_1BG@DGCJGJBE@?$AAa?$AAz?$AA?9?$AAA?$AAZ?$AA?9?$AAC?$AAy?$AAr?$AAl?$AA?$AA@ 10079440     libucrt:lcidtoname_downlevel.obj
 0002:0000a45c       ??_C@_1M@KEJDAAHB@?$AAs?$AAe?$AA?9?$AAS?$AAE?$AA?$AA@ 1007945c     libucrt:lcidtoname_downlevel.obj
 0002:0000a46c       ??_C@_1M@HEIBJJAD@?$AAm?$AAs?$AA?9?$AAB?$AAN?$AA?$AA@ 1007946c     libucrt:lcidtoname_downlevel.obj
 0002:0000a47c       ??_C@_1BG@PBGJMCEM@?$AAu?$AAz?$AA?9?$AAU?$AAZ?$AA?9?$AAC?$AAy?$AAr?$AAl?$AA?$AA@ 1007947c     libucrt:lcidtoname_downlevel.obj
 0002:0000a498       ??_C@_1O@LAOBCMDF@?$AAq?$AAu?$AAz?$AA?9?$AAE?$AAC?$AA?$AA@ 10079498     libucrt:lcidtoname_downlevel.obj
 0002:0000a4a8       ??_C@_1M@POEEMAIO@?$AAa?$AAr?$AA?9?$AAE?$AAG?$AA?$AA@ 100794a8     libucrt:lcidtoname_downlevel.obj
 0002:0000a4b8       ??_C@_1M@EFAKDEDL@?$AAz?$AAh?$AA?9?$AAH?$AAK?$AA?$AA@ 100794b8     libucrt:lcidtoname_downlevel.obj
 0002:0000a4c8       ??_C@_1M@HKKIJHGI@?$AAd?$AAe?$AA?9?$AAA?$AAT?$AA?$AA@ 100794c8     libucrt:lcidtoname_downlevel.obj
 0002:0000a4d8       ??_C@_1M@KBFBEHJF@?$AAe?$AAn?$AA?9?$AAA?$AAU?$AA?$AA@ 100794d8     libucrt:lcidtoname_downlevel.obj
 0002:0000a4e8       ??_C@_1M@MNPLFAAH@?$AAe?$AAs?$AA?9?$AAE?$AAS?$AA?$AA@ 100794e8     libucrt:lcidtoname_downlevel.obj
 0002:0000a4f8       ??_C@_1M@HJOOJFMA@?$AAf?$AAr?$AA?9?$AAC?$AAA?$AA?$AA@ 100794f8     libucrt:lcidtoname_downlevel.obj
 0002:0000a508       ??_C@_1BG@JPOFPNAB@?$AAs?$AAr?$AA?9?$AAS?$AAP?$AA?9?$AAC?$AAy?$AAr?$AAl?$AA?$AA@ 10079508     libucrt:lcidtoname_downlevel.obj
 0002:0000a524       ??_C@_1M@LNFOCMOB@?$AAs?$AAe?$AA?9?$AAF?$AAI?$AA?$AA@ 10079524     libucrt:lcidtoname_downlevel.obj
 0002:0000a534       ??_C@_1O@MGJBOAMB@?$AAq?$AAu?$AAz?$AA?9?$AAP?$AAE?$AA?$AA@ 10079534     libucrt:lcidtoname_downlevel.obj
 0002:0000a544       ??_C@_1M@GJINLBOK@?$AAa?$AAr?$AA?9?$AAL?$AAY?$AA?$AA@ 10079544     libucrt:lcidtoname_downlevel.obj
 0002:0000a554       ??_C@_1M@GGMNHJNL@?$AAz?$AAh?$AA?9?$AAS?$AAG?$AA?$AA@ 10079554     libucrt:lcidtoname_downlevel.obj
 0002:0000a564       ??_C@_1M@HOIKODND@?$AAd?$AAe?$AA?9?$AAL?$AAU?$AA?$AA@ 10079564     libucrt:lcidtoname_downlevel.obj
 0002:0000a574       ??_C@_1M@DDOCCGFG@?$AAe?$AAn?$AA?9?$AAC?$AAA?$AA?$AA@ 10079574     libucrt:lcidtoname_downlevel.obj
 0002:0000a584       ??_C@_1M@BNOEMJLF@?$AAe?$AAs?$AA?9?$AAG?$AAT?$AA?$AA@ 10079584     libucrt:lcidtoname_downlevel.obj
 0002:0000a594       ??_C@_1M@EOGNKEK@?$AAf?$AAr?$AA?9?$AAC?$AAH?$AA?$AA@ 10079594     libucrt:lcidtoname_downlevel.obj
 0002:0000a5a4       ??_C@_1M@FLIDJFHL@?$AAh?$AAr?$AA?9?$AAB?$AAA?$AA?$AA@ 100795a4     libucrt:lcidtoname_downlevel.obj
 0002:0000a5b4       ??_C@_1O@FMCELNAJ@?$AAs?$AAm?$AAj?$AA?9?$AAN?$AAO?$AA?$AA@ 100795b4     libucrt:lcidtoname_downlevel.obj
 0002:0000a5c4       ??_C@_1M@JHGLJMGJ@?$AAa?$AAr?$AA?9?$AAD?$AAZ?$AA?$AA@ 100795c4     libucrt:lcidtoname_downlevel.obj
 0002:0000a5d4       ??_C@_1M@JKKFDCNP@?$AAz?$AAh?$AA?9?$AAM?$AAO?$AA?$AA@ 100795d4     libucrt:lcidtoname_downlevel.obj
 0002:0000a5e4       ??_C@_1M@GEEFALPE@?$AAd?$AAe?$AA?9?$AAL?$AAI?$AA?$AA@ 100795e4     libucrt:lcidtoname_downlevel.obj
 0002:0000a5f4       ??_C@_1M@IGEOFBG@?$AAe?$AAn?$AA?9?$AAN?$AAZ?$AA?$AA@ 100795f4     libucrt:lcidtoname_downlevel.obj
 0002:0000a604       ??_C@_1M@KDBONEHP@?$AAe?$AAs?$AA?9?$AAC?$AAR?$AA?$AA@ 10079604     libucrt:lcidtoname_downlevel.obj
 0002:0000a614       ??_C@_1M@FHMDOHNN@?$AAf?$AAr?$AA?9?$AAL?$AAU?$AA?$AA@ 10079614     libucrt:lcidtoname_downlevel.obj
 0002:0000a624       ??_C@_1BG@NFKKMAFG@?$AAb?$AAs?$AA?9?$AAB?$AAA?$AA?9?$AAL?$AAa?$AAt?$AAn?$AA?$AA@ 10079624     libucrt:lcidtoname_downlevel.obj
 0002:0000a640       ??_C@_1O@IMNBEMCI@?$AAs?$AAm?$AAj?$AA?9?$AAS?$AAE?$AA?$AA@ 10079640     libucrt:lcidtoname_downlevel.obj
 0002:0000a650       ??_C@_1M@DHHMBNDP@?$AAa?$AAr?$AA?9?$AAM?$AAA?$AA?$AA@ 10079650     libucrt:lcidtoname_downlevel.obj
 0002:0000a660       ??_C@_1M@BNBLJCGH@?$AAe?$AAn?$AA?9?$AAI?$AAE?$AA?$AA@ 10079660     libucrt:lcidtoname_downlevel.obj
 0002:0000a670       ??_C@_1M@GEPAFMDL@?$AAe?$AAs?$AA?9?$AAP?$AAA?$AA?$AA@ 10079670     libucrt:lcidtoname_downlevel.obj
 0002:0000a680       ??_C@_1M@OJONDMDL@?$AAf?$AAr?$AA?9?$AAM?$AAC?$AA?$AA@ 10079680     libucrt:lcidtoname_downlevel.obj
 0002:0000a690       ??_C@_1BG@OBCNFJB@?$AAs?$AAr?$AA?9?$AAB?$AAA?$AA?9?$AAL?$AAa?$AAt?$AAn?$AA?$AA@ 10079690     libucrt:lcidtoname_downlevel.obj
 0002:0000a6ac       ??_C@_1O@KEMEEGPO@?$AAs?$AAm?$AAa?$AA?9?$AAN?$AAO?$AA?$AA@ 100796ac     libucrt:lcidtoname_downlevel.obj
 0002:0000a6bc       ??_C@_1M@ELMGFODK@?$AAa?$AAr?$AA?9?$AAT?$AAN?$AA?$AA@ 100796bc     libucrt:lcidtoname_downlevel.obj
 0002:0000a6cc       ??_C@_1M@BHDLHFAF@?$AAe?$AAn?$AA?9?$AAZ?$AAA?$AA?$AA@ 100796cc     libucrt:lcidtoname_downlevel.obj
 0002:0000a6dc       ??_C@_1M@BMGIGLIF@?$AAe?$AAs?$AA?9?$AAD?$AAO?$AA?$AA@ 100796dc     libucrt:lcidtoname_downlevel.obj
 0002:0000a6ec       ??_C@_1BG@CMBHIPBE@?$AAs?$AAr?$AA?9?$AAB?$AAA?$AA?9?$AAC?$AAy?$AAr?$AAl?$AA?$AA@ 100796ec     libucrt:lcidtoname_downlevel.obj
 0002:0000a708       ??_C@_1O@HEDBLHNP@?$AAs?$AAm?$AAa?$AA?9?$AAS?$AAE?$AA?$AA@ 10079708     libucrt:lcidtoname_downlevel.obj
 0002:0000a718       ??_C@_1M@DAGCADIM@?$AAa?$AAr?$AA?9?$AAO?$AAM?$AA?$AA@ 10079718     libucrt:lcidtoname_downlevel.obj
 0002:0000a728       ??_C@_1M@FODLMICG@?$AAe?$AAn?$AA?9?$AAJ?$AAM?$AA?$AA@ 10079728     libucrt:lcidtoname_downlevel.obj
 0002:0000a738       ??_C@_1M@DNMLCIHB@?$AAe?$AAs?$AA?9?$AAV?$AAE?$AA?$AA@ 10079738     libucrt:lcidtoname_downlevel.obj
 0002:0000a748       ??_C@_1O@EOKHMKJK@?$AAs?$AAm?$AAs?$AA?9?$AAF?$AAI?$AA?$AA@ 10079748     libucrt:lcidtoname_downlevel.obj
 0002:0000a758       ??_C@_1M@CAFJMKOF@?$AAa?$AAr?$AA?9?$AAY?$AAE?$AA?$AA@ 10079758     libucrt:lcidtoname_downlevel.obj
 0002:0000a768       ??_C@_1M@CBFHIJLI@?$AAe?$AAn?$AA?9?$AAC?$AAB?$AA?$AA@ 10079768     libucrt:lcidtoname_downlevel.obj
 0002:0000a778       ??_C@_1M@BGNFLDN@?$AAe?$AAs?$AA?9?$AAC?$AAO?$AA?$AA@ 10079778     libucrt:lcidtoname_downlevel.obj
 0002:0000a788       ??_C@_1O@JMPHMAMC@?$AAs?$AAm?$AAn?$AA?9?$AAF?$AAI?$AA?$AA@ 10079788     libucrt:lcidtoname_downlevel.obj
 0002:0000a798       ??_C@_1M@JLANABKE@?$AAa?$AAr?$AA?9?$AAS?$AAY?$AA?$AA@ 10079798     libucrt:lcidtoname_downlevel.obj
 0002:0000a7a8       ??_C@_1M@HPKGCFGN@?$AAe?$AAn?$AA?9?$AAB?$AAZ?$AA?$AA@ 100797a8     libucrt:lcidtoname_downlevel.obj
 0002:0000a7b8       ??_C@_1M@OLJCMLGM@?$AAe?$AAs?$AA?9?$AAP?$AAE?$AA?$AA@ 100797b8     libucrt:lcidtoname_downlevel.obj
 0002:0000a7c8       ??_C@_1M@MKKGFKLE@?$AAa?$AAr?$AA?9?$AAJ?$AAO?$AA?$AA@ 100797c8     libucrt:lcidtoname_downlevel.obj
 0002:0000a7d8       ??_C@_1M@EKPGLDNI@?$AAe?$AAn?$AA?9?$AAT?$AAT?$AA?$AA@ 100797d8     libucrt:lcidtoname_downlevel.obj
 0002:0000a7e8       ??_C@_1M@OONGHFHE@?$AAe?$AAs?$AA?9?$AAA?$AAR?$AA?$AA@ 100797e8     libucrt:lcidtoname_downlevel.obj
 0002:0000a7f8       ??_C@_1M@OOJFGBHE@?$AAa?$AAr?$AA?9?$AAL?$AAB?$AA?$AA@ 100797f8     libucrt:lcidtoname_downlevel.obj
 0002:0000a808       ??_C@_1M@GCEJHNEG@?$AAe?$AAn?$AA?9?$AAZ?$AAW?$AA?$AA@ 10079808     libucrt:lcidtoname_downlevel.obj
 0002:0000a818       ??_C@_1M@JNOCAHJI@?$AAe?$AAs?$AA?9?$AAE?$AAC?$AA?$AA@ 10079818     libucrt:lcidtoname_downlevel.obj
 0002:0000a828       ??_C@_1M@JEFHPGGB@?$AAa?$AAr?$AA?9?$AAK?$AAW?$AA?$AA@ 10079828     libucrt:lcidtoname_downlevel.obj
 0002:0000a838       ??_C@_1M@MLKIBJOJ@?$AAe?$AAn?$AA?9?$AAP?$AAH?$AA?$AA@ 10079838     libucrt:lcidtoname_downlevel.obj
 0002:0000a848       ??_C@_1M@BDNIPEND@?$AAe?$AAs?$AA?9?$AAC?$AAL?$AA?$AA@ 10079848     libucrt:lcidtoname_downlevel.obj
 0002:0000a858       ??_C@_1M@MPNMEKBD@?$AAa?$AAr?$AA?9?$AAA?$AAE?$AA?$AA@ 10079858     libucrt:lcidtoname_downlevel.obj
 0002:0000a868       ??_C@_1M@KBJALCPI@?$AAe?$AAs?$AA?9?$AAU?$AAY?$AA?$AA@ 10079868     libucrt:lcidtoname_downlevel.obj
 0002:0000a878       ??_C@_1M@LLCCOAGA@?$AAa?$AAr?$AA?9?$AAB?$AAH?$AA?$AA@ 10079878     libucrt:lcidtoname_downlevel.obj
 0002:0000a888       ??_C@_1M@PBFNCDEL@?$AAe?$AAs?$AA?9?$AAP?$AAY?$AA?$AA@ 10079888     libucrt:lcidtoname_downlevel.obj
 0002:0000a898       ??_C@_1M@EDGINPNP@?$AAa?$AAr?$AA?9?$AAQ?$AAA?$AA?$AA@ 10079898     libucrt:lcidtoname_downlevel.obj
 0002:0000a8a8       ??_C@_1M@MKDBIIJI@?$AAe?$AAs?$AA?9?$AAB?$AAO?$AA?$AA@ 100798a8     libucrt:lcidtoname_downlevel.obj
 0002:0000a8b8       ??_C@_1M@CPKKEBLD@?$AAe?$AAs?$AA?9?$AAS?$AAV?$AA?$AA@ 100798b8     libucrt:lcidtoname_downlevel.obj
 0002:0000a8c8       ??_C@_1M@NDBGMMJL@?$AAe?$AAs?$AA?9?$AAH?$AAN?$AA?$AA@ 100798c8     libucrt:lcidtoname_downlevel.obj
 0002:0000a8d8       ??_C@_1M@JIJIBHDP@?$AAe?$AAs?$AA?9?$AAN?$AAI?$AA?$AA@ 100798d8     libucrt:lcidtoname_downlevel.obj
 0002:0000a8e8       ??_C@_1M@CGFMKEEK@?$AAe?$AAs?$AA?9?$AAP?$AAR?$AA?$AA@ 100798e8     libucrt:lcidtoname_downlevel.obj
 0002:0000a8f8       ??_C@_1O@ICJHKIIK@?$AAz?$AAh?$AA?9?$AAC?$AAH?$AAT?$AA?$AA@ 100798f8     libucrt:lcidtoname_downlevel.obj
 0002:0000a908       ??_C@_15CLNEJCE@?$AAs?$AAr?$AA?$AA@ 10079908     libucrt:lcidtoname_downlevel.obj
 0002:0000b19c       ??_C@_1M@KAHEKEIG@?$AAa?$AAf?$AA?9?$AAz?$AAa?$AA?$AA@ 1007a19c     libucrt:lcidtoname_downlevel.obj
 0002:0000b1ac       ??_C@_1M@GIECOABL@?$AAa?$AAr?$AA?9?$AAa?$AAe?$AA?$AA@ 1007a1ac     libucrt:lcidtoname_downlevel.obj
 0002:0000b1bc       ??_C@_1M@BMLMEKGI@?$AAa?$AAr?$AA?9?$AAb?$AAh?$AA?$AA@ 1007a1bc     libucrt:lcidtoname_downlevel.obj
 0002:0000b1cc       ??_C@_1M@DAPFDGGB@?$AAa?$AAr?$AA?9?$AAd?$AAz?$AA?$AA@ 1007a1cc     libucrt:lcidtoname_downlevel.obj
 0002:0000b1dc       ??_C@_1M@FJNKGKIG@?$AAa?$AAr?$AA?9?$AAe?$AAg?$AA?$AA@ 1007a1dc     libucrt:lcidtoname_downlevel.obj
 0002:0000b1ec       ??_C@_1M@FLGKKCLO@?$AAa?$AAr?$AA?9?$AAi?$AAq?$AA?$AA@ 1007a1ec     libucrt:lcidtoname_downlevel.obj
 0002:0000b1fc       ??_C@_1M@GNDIPALM@?$AAa?$AAr?$AA?9?$AAj?$AAo?$AA?$AA@ 1007a1fc     libucrt:lcidtoname_downlevel.obj
 0002:0000b20c       ??_C@_1M@DDMJFMGJ@?$AAa?$AAr?$AA?9?$AAk?$AAw?$AA?$AA@ 1007a20c     libucrt:lcidtoname_downlevel.obj
 0002:0000b21c       ??_C@_1M@EJALMLHM@?$AAa?$AAr?$AA?9?$AAl?$AAb?$AA?$AA@ 1007a21c     libucrt:lcidtoname_downlevel.obj
 0002:0000b22c       ??_C@_1M@MOBDBLOC@?$AAa?$AAr?$AA?9?$AAl?$AAy?$AA?$AA@ 1007a22c     libucrt:lcidtoname_downlevel.obj
 0002:0000b23c       ??_C@_1M@JAOCLHDH@?$AAa?$AAr?$AA?9?$AAm?$AAa?$AA?$AA@ 1007a23c     libucrt:lcidtoname_downlevel.obj
 0002:0000b24c       ??_C@_1M@JHPMKJIE@?$AAa?$AAr?$AA?9?$AAo?$AAm?$AA?$AA@ 1007a24c     libucrt:lcidtoname_downlevel.obj
 0002:0000b25c       ??_C@_1M@OEPGHFNH@?$AAa?$AAr?$AA?9?$AAq?$AAa?$AA?$AA@ 1007a25c     libucrt:lcidtoname_downlevel.obj
 0002:0000b26c       ??_C@_1M@KJDONENM@?$AAa?$AAr?$AA?9?$AAs?$AAa?$AA?$AA@ 1007a26c     libucrt:lcidtoname_downlevel.obj
 0002:0000b27c       ??_C@_1M@DMJDKLKM@?$AAa?$AAr?$AA?9?$AAs?$AAy?$AA?$AA@ 1007a27c     libucrt:lcidtoname_downlevel.obj
 0002:0000b28c       ??_C@_1M@OMFIPEDC@?$AAa?$AAr?$AA?9?$AAt?$AAn?$AA?$AA@ 1007a28c     libucrt:lcidtoname_downlevel.obj
 0002:0000b29c       ??_C@_1M@IHMHGAON@?$AAa?$AAr?$AA?9?$AAy?$AAe?$AA?$AA@ 1007a29c     libucrt:lcidtoname_downlevel.obj
 0002:0000b2ac       ??_C@_1BG@KDCPGJGB@?$AAa?$AAz?$AA?9?$AAa?$AAz?$AA?9?$AAc?$AAy?$AAr?$AAl?$AA?$AA@ 1007a2ac     libucrt:lcidtoname_downlevel.obj
 0002:0000b2c8       ??_C@_1BG@IBCKDDOE@?$AAa?$AAz?$AA?9?$AAa?$AAz?$AA?9?$AAl?$AAa?$AAt?$AAn?$AA?$AA@ 1007a2c8     libucrt:lcidtoname_downlevel.obj
 0002:0000b2e4       ??_C@_1M@EGPFDCPD@?$AAb?$AAe?$AA?9?$AAb?$AAy?$AA?$AA@ 1007a2e4     libucrt:lcidtoname_downlevel.obj
 0002:0000b2f4       ??_C@_1M@PCMGMCGC@?$AAb?$AAg?$AA?9?$AAb?$AAg?$AA?$AA@ 1007a2f4     libucrt:lcidtoname_downlevel.obj
 0002:0000b304       ??_C@_1M@BJBMFGOB@?$AAb?$AAn?$AA?9?$AAi?$AAn?$AA?$AA@ 1007a304     libucrt:lcidtoname_downlevel.obj
 0002:0000b314       ??_C@_1BG@EAKMMACD@?$AAb?$AAs?$AA?9?$AAb?$AAa?$AA?9?$AAl?$AAa?$AAt?$AAn?$AA?$AA@ 1007a314     libucrt:lcidtoname_downlevel.obj
 0002:0000b330       ??_C@_1M@KGADAODK@?$AAc?$AAa?$AA?9?$AAe?$AAs?$AA?$AA@ 1007a330     libucrt:lcidtoname_downlevel.obj
 0002:0000b340       ??_C@_1M@COAJPDHI@?$AAc?$AAs?$AA?9?$AAc?$AAz?$AA?$AA@ 1007a340     libucrt:lcidtoname_downlevel.obj
 0002:0000b350       ??_C@_1M@DHBHFONH@?$AAc?$AAy?$AA?9?$AAg?$AAb?$AA?$AA@ 1007a350     libucrt:lcidtoname_downlevel.obj
 0002:0000b360       ??_C@_1M@IMGKELGA@?$AAd?$AAa?$AA?9?$AAd?$AAk?$AA?$AA@ 1007a360     libucrt:lcidtoname_downlevel.obj
 0002:0000b370       ??_C@_1M@NNDGDNGA@?$AAd?$AAe?$AA?9?$AAa?$AAt?$AA?$AA@ 1007a370     libucrt:lcidtoname_downlevel.obj
 0002:0000b380       ??_C@_1M@IKDBHEEM@?$AAd?$AAe?$AA?9?$AAc?$AAh?$AA?$AA@ 1007a380     libucrt:lcidtoname_downlevel.obj
 0002:0000b390       ??_C@_1M@GFFOJMCJ@?$AAd?$AAe?$AA?9?$AAd?$AAe?$AA?$AA@ 1007a390     libucrt:lcidtoname_downlevel.obj
 0002:0000b3a0       ??_C@_1M@MDNLKBPM@?$AAd?$AAe?$AA?9?$AAl?$AAi?$AA?$AA@ 1007a3a0     libucrt:lcidtoname_downlevel.obj
 0002:0000b3b0       ??_C@_1M@NJBEEJNL@?$AAd?$AAe?$AA?9?$AAl?$AAu?$AA?$AA@ 1007a3b0     libucrt:lcidtoname_downlevel.obj
 0002:0000b3c0       ??_C@_1O@GNNELBAP@?$AAd?$AAi?$AAv?$AA?9?$AAm?$AAv?$AA?$AA@ 1007a3c0     libucrt:lcidtoname_downlevel.obj
 0002:0000b3d0       ??_C@_1M@EJLEOGAE@?$AAe?$AAl?$AA?9?$AAg?$AAr?$AA?$AA@ 1007a3d0     libucrt:lcidtoname_downlevel.obj
 0002:0000b3e0       ??_C@_1M@GMPONJN@?$AAe?$AAn?$AA?9?$AAa?$AAu?$AA?$AA@ 1007a3e0     libucrt:lcidtoname_downlevel.obj
 0002:0000b3f0       ??_C@_1M@NIDIIPGF@?$AAe?$AAn?$AA?9?$AAb?$AAz?$AA?$AA@ 1007a3f0     libucrt:lcidtoname_downlevel.obj
 0002:0000b400       ??_C@_1M@JEHMIMFO@?$AAe?$AAn?$AA?9?$AAc?$AAa?$AA?$AA@ 1007a400     libucrt:lcidtoname_downlevel.obj
 0002:0000b410       ??_C@_1M@IGMJCDLA@?$AAe?$AAn?$AA?9?$AAc?$AAb?$AA?$AA@ 1007a410     libucrt:lcidtoname_downlevel.obj
 0002:0000b420       ??_C@_1M@BNFIGBKG@?$AAe?$AAn?$AA?9?$AAg?$AAb?$AA?$AA@ 1007a420     libucrt:lcidtoname_downlevel.obj
 0002:0000b430       ??_C@_1M@LKIFDIGP@?$AAe?$AAn?$AA?9?$AAi?$AAe?$AA?$AA@ 1007a430     libucrt:lcidtoname_downlevel.obj
 0002:0000b440       ??_C@_1M@PJKFGCCO@?$AAe?$AAn?$AA?9?$AAj?$AAm?$AA?$AA@ 1007a440     libucrt:lcidtoname_downlevel.obj
 0002:0000b450       ??_C@_1M@KPPKEPBO@?$AAe?$AAn?$AA?9?$AAn?$AAz?$AA?$AA@ 1007a450     libucrt:lcidtoname_downlevel.obj
 0002:0000b460       ??_C@_1M@GMDGLDOB@?$AAe?$AAn?$AA?9?$AAp?$AAh?$AA?$AA@ 1007a460     libucrt:lcidtoname_downlevel.obj
 0002:0000b470       ??_C@_1M@ONGIBJNA@?$AAe?$AAn?$AA?9?$AAt?$AAt?$AA?$AA@ 1007a470     libucrt:lcidtoname_downlevel.obj
 0002:0000b480       ??_C@_1M@LLODPCMM@?$AAe?$AAn?$AA?9?$AAu?$AAs?$AA?$AA@ 1007a480     libucrt:lcidtoname_downlevel.obj
 0002:0000b490       ??_C@_1M@LAKFNPAN@?$AAe?$AAn?$AA?9?$AAz?$AAa?$AA?$AA@ 1007a490     libucrt:lcidtoname_downlevel.obj
 0002:0000b4a0       ??_C@_1M@MFNHNHEO@?$AAe?$AAn?$AA?9?$AAz?$AAw?$AA?$AA@ 1007a4a0     libucrt:lcidtoname_downlevel.obj
 0002:0000b4b0       ??_C@_1M@EJEINPHM@?$AAe?$AAs?$AA?9?$AAa?$AAr?$AA?$AA@ 1007a4b0     libucrt:lcidtoname_downlevel.obj
 0002:0000b4c0       ??_C@_1M@GNKPCCJA@?$AAe?$AAs?$AA?9?$AAb?$AAo?$AA?$AA@ 1007a4c0     libucrt:lcidtoname_downlevel.obj
 0002:0000b4d0       ??_C@_1M@LEEGFONL@?$AAe?$AAs?$AA?9?$AAc?$AAl?$AA?$AA@ 1007a4d0     libucrt:lcidtoname_downlevel.obj
 0002:0000b4e0       ??_C@_1M@KGPDPBDF@?$AAe?$AAs?$AA?9?$AAc?$AAo?$AA?$AA@ 1007a4e0     libucrt:lcidtoname_downlevel.obj
 0002:0000b4f0       ??_C@_1M@EIAHOHH@?$AAe?$AAs?$AA?9?$AAc?$AAr?$AA?$AA@ 1007a4f0     libucrt:lcidtoname_downlevel.obj
 0002:0000b500       ??_C@_1M@LLPGMBIN@?$AAe?$AAs?$AA?9?$AAd?$AAo?$AA?$AA@ 1007a500     libucrt:lcidtoname_downlevel.obj
 0002:0000b510       ??_C@_1M@DKHMKNJA@?$AAe?$AAs?$AA?9?$AAe?$AAc?$AA?$AA@ 1007a510     libucrt:lcidtoname_downlevel.obj
 0002:0000b520       ??_C@_1M@GKGFPKAP@?$AAe?$AAs?$AA?9?$AAe?$AAs?$AA?$AA@ 1007a520     libucrt:lcidtoname_downlevel.obj
 0002:0000b530       ??_C@_1M@LKHKGDLN@?$AAe?$AAs?$AA?9?$AAg?$AAt?$AA?$AA@ 1007a530     libucrt:lcidtoname_downlevel.obj
 0002:0000b540       ??_C@_1M@HEIIGGJD@?$AAe?$AAs?$AA?9?$AAh?$AAn?$AA?$AA@ 1007a540     libucrt:lcidtoname_downlevel.obj
 0002:0000b550       ??_C@_1M@FBDHPPGD@?$AAe?$AAs?$AA?9?$AAm?$AAx?$AA?$AA@ 1007a550     libucrt:lcidtoname_downlevel.obj
 0002:0000b560       ??_C@_1M@DPAGLNDH@?$AAe?$AAs?$AA?9?$AAn?$AAi?$AA?$AA@ 1007a560     libucrt:lcidtoname_downlevel.obj
 0002:0000b570       ??_C@_1M@MDGOPGDD@?$AAe?$AAs?$AA?9?$AAp?$AAa?$AA?$AA@ 1007a570     libucrt:lcidtoname_downlevel.obj
 0002:0000b580       ??_C@_1M@EMAMGBGE@?$AAe?$AAs?$AA?9?$AAp?$AAe?$AA?$AA@ 1007a580     libucrt:lcidtoname_downlevel.obj
 0002:0000b590       ??_C@_1M@IBMCAOEC@?$AAe?$AAs?$AA?9?$AAp?$AAr?$AA?$AA@ 1007a590     libucrt:lcidtoname_downlevel.obj
 0002:0000b5a0       ??_C@_1M@FGMDIJED@?$AAe?$AAs?$AA?9?$AAp?$AAy?$AA?$AA@ 1007a5a0     libucrt:lcidtoname_downlevel.obj
 0002:0000b5b0       ??_C@_1M@IIDEOLLL@?$AAe?$AAs?$AA?9?$AAs?$AAv?$AA?$AA@ 1007a5b0     libucrt:lcidtoname_downlevel.obj
 0002:0000b5c0       ??_C@_1M@GAOBIPA@?$AAe?$AAs?$AA?9?$AAu?$AAy?$AA?$AA@ 1007a5c0     libucrt:lcidtoname_downlevel.obj
 0002:0000b5d0       ??_C@_1M@JKFFICHJ@?$AAe?$AAs?$AA?9?$AAv?$AAe?$AA?$AA@ 1007a5d0     libucrt:lcidtoname_downlevel.obj
 0002:0000b5e0       ??_C@_1M@PNMLOJDF@?$AAe?$AAt?$AA?9?$AAe?$AAe?$AA?$AA@ 1007a5e0     libucrt:lcidtoname_downlevel.obj
 0002:0000b5f0       ??_C@_1M@GHHLIKEI@?$AAe?$AAu?$AA?9?$AAe?$AAs?$AA?$AA@ 1007a5f0     libucrt:lcidtoname_downlevel.obj
 0002:0000b600       ??_C@_1M@PBNONODE@?$AAf?$AAa?$AA?9?$AAi?$AAr?$AA?$AA@ 1007a600     libucrt:lcidtoname_downlevel.obj
 0002:0000b610       ??_C@_1M@JEEHPMIL@?$AAf?$AAi?$AA?9?$AAf?$AAi?$AA?$AA@ 1007a610     libucrt:lcidtoname_downlevel.obj
 0002:0000b620       ??_C@_1M@LMDCNDBA@?$AAf?$AAo?$AA?9?$AAf?$AAo?$AA?$AA@ 1007a620     libucrt:lcidtoname_downlevel.obj
 0002:0000b630       ??_C@_1M@JKEOHLDK@?$AAf?$AAr?$AA?9?$AAb?$AAe?$AA?$AA@ 1007a630     libucrt:lcidtoname_downlevel.obj
 0002:0000b640       ??_C@_1M@NOHADPMI@?$AAf?$AAr?$AA?9?$AAc?$AAa?$AA?$AA@ 1007a640     libucrt:lcidtoname_downlevel.obj
 0002:0000b650       ??_C@_1M@KDHIHAEC@?$AAf?$AAr?$AA?9?$AAc?$AAh?$AA?$AA@ 1007a650     libucrt:lcidtoname_downlevel.obj
 0002:0000b660       ??_C@_1M@MMBBFGAK@?$AAf?$AAr?$AA?9?$AAf?$AAr?$AA?$AA@ 1007a660     libucrt:lcidtoname_downlevel.obj
