 udp_comm_test_slrt

 Timestamp is 5c70d66f (Sat Feb 23 10:43:19 2019)

 Preferred load address is 10000000

 Start         Length     Name                   Class
 0001:00000000 0007edc5H .text$mn                CODE
 0001:0007edc5 00001085H .text$x                 CODE
 0002:00000000 00000104H .CRT$XCA                DATA
 0002:00000104 00000104H .CRT$XCZ                DATA
 0002:00000208 00000104H .CRT$XIA                DATA
 0002:0000030c 00000110H .CRT$XIC                DATA
 0002:0000041c 00000104H .CRT$XIZ                DATA
 0002:00000520 00000104H .CRT$XPA                DATA
 0002:00000624 0000010cH .CRT$XPX                DATA
 0002:00000730 00000104H .CRT$XPXA               DATA
 0002:00000834 00000104H .CRT$XPZ                DATA
 0002:00000938 00000104H .CRT$XTA                DATA
 0002:00000a3c 00000104H .CRT$XTZ                DATA
 0002:00000b40 0000ec8cH .rdata                  DATA
 0002:0000f7cc 00000444H .rdata$r                DATA
 0002:0000fc10 00000128H .rdata$sxdata           DATA
 0002:0000fd38 000001d0H .rdata$zzzdbg           DATA
 0002:0000ff08 00000104H .rtc$IAA                DATA
 0002:0001000c 00000104H .rtc$IZZ                DATA
 0002:00010110 00000104H .rtc$TAA                DATA
 0002:00010214 00000104H .rtc$TZZ                DATA
 0002:00010318 00000db8H .xdata$x                DATA
 0002:000110d0 00000206H .edata                  DATA
 0003:00000000 00001830H .data                   DATA
 0003:00001830 00000250H .data$r                 DATA
 0003:00001a80 00015f08H .bss                    DATA
 0004:00000000 000001b4H .idata$5                DATA
 0004:000001b4 00000014H .idata$2                DATA
 0004:000001c8 00000014H .idata$3                DATA
 0004:000001dc 000001b4H .idata$4                DATA
 0004:00000390 000007a2H .idata$6                DATA
 0005:00000000 00000104H .00cfg                  DATA

  Address         Publics by Value              Rva+Base       Lib:Object

 0000:00000000       ___hybrid_code_map_count   00000000     <absolute>
 0000:00000000       ___guard_iat_count         00000000     <absolute>
 0000:00000000       ___guard_iat_table         00000000     <absolute>
 0000:00000000       __except_list              00000000     <absolute>
 0000:00000000       ___guard_fids_count        00000000     <absolute>
 0000:00000000       ___hybrid_auxiliary_iat    00000000     <absolute>
 0000:00000000       ___guard_longjmp_table     00000000     <absolute>
 0000:00000000       ___hybrid_code_map         00000000     <absolute>
 0000:00000000       ___volatile_metadata       00000000     <absolute>
 0000:00000000       ___enclave_config          00000000     <absolute>
 0000:00000000       ___guard_fids_table        00000000     <absolute>
 0000:00000000       ___dynamic_value_reloc_table 00000000     <absolute>
 0000:00000000       ___guard_longjmp_count     00000000     <absolute>
 0000:00000008       ___safe_se_handler_count   00000008     <absolute>
 0000:00000100       ___guard_flags             00000100     <absolute>
 0000:00000000       ___ImageBase               10000000     <linker-defined>
 0001:00007220       _DllMain@12                10008220 f   xpctarget.obj
 0001:00007230       _SLRTSetErrorStatus        10008230 f   xpctarget.obj
 0001:00007250       _changeStepSize            10008250 f   xpctarget.obj
 0001:000072a0       _getDLMVersion             100082a0 f   xpctarget.obj
 0001:000072b0       _getFullPathToRefMdl       100082b0 f   xpctarget.obj
 0001:00007360       _getRefMdlPath             10008360 f   xpctarget.obj
 0001:000073e0       _getRefMdlSignalNumber     100083e0 f   xpctarget.obj
 0001:00007490       _getrlmdlinfo              10008490 f   xpctarget.obj
 0001:000075f0       _slrtRegisterSignalToLoggingService 100085f0 f   xpctarget.obj
 0001:00007750       _udp_comm_test_ChangeStepSize 10008750 f   xpctarget.obj
 0001:000077a0       _updateDiscreteEvents      100087a0 f   xpctarget.obj
 0001:000077b0       _getNumRef                 100087b0 f   appmappingData.obj
 0001:000077c0       ___local_stdio_printf_options 100087c0 f i legacy_stdio.obj
 0001:000077d0       __vfprintf_l               100087d0 f i legacy_stdio.obj
 0001:00007800       _vprintf                   10008800 f i legacy_stdio.obj
 0001:00007840       _rt_mxCreateCharMatrixFromStrings 10008840 f   rt_matrx.obj
 0001:000079a0       _rt_mxCreateDoubleMatrix   100089a0 f   rt_matrx.obj
 0001:00007a00       _rt_mxCreateNumericArray   10008a00 f   rt_matrx.obj
 0001:00007a70       _rt_mxCreateString         10008a70 f   rt_matrx.obj
 0001:00007b00       _rt_mxDuplicateArray       10008b00 f   rt_matrx.obj
 0001:00007b60       _rt_mxGetDimensions        10008b60 f   rt_matrx.obj
 0001:00007ba0       _rt_mxGetEps               10008ba0 f   rt_matrx.obj
 0001:00007bb0       _rt_mxGetString            10008bb0 f   rt_matrx.obj
 0001:00007c30       _rtPrintfNoOp              10008c30 f   rt_printf.obj
 0001:00007c40       __vsnprintf_l              10008c40 f i rt_logging.obj
 0001:00007c80       __vsprintf_l               10008c80 f i rt_logging.obj
 0001:00007cc0       _fprintf                   10008cc0 f i rt_logging.obj
 0001:000081c0       _printf                    100091c0 f i rt_logging.obj
 0001:00008200       _rt_CreateLogVar           10009200 f   rt_logging.obj
 0001:00008290       _rt_CreateLogVarWithConvert 10009290 f   rt_logging.obj
 0001:00008bc0       _rt_CreateStructLogVar     10009bc0 f   rt_logging.obj
 0001:00009940       _rt_GetMxIdFromDTypeId     1000a940 f   rt_logging.obj
 0001:00009970       _rt_GetMxIdFromDTypeIdForRSim 1000a970 f   rt_logging.obj
 0001:0000c510       _rt_StartDataLogging       1000d510 f   rt_logging.obj
 0001:0000c9d0       _rt_StartDataLoggingWithStartTime 1000d9d0 f   rt_logging.obj
 0001:0000ce50       _rt_StopDataLogging        1000de50 f   rt_logging.obj
 0001:0000ce70       _rt_StopDataLoggingImpl    1000de70 f   rt_logging.obj
 0001:0000d2b0       _rt_UpdateLogVar           1000e2b0 f   rt_logging.obj
 0001:0000e4f0       _rt_UpdateStructLogVar     1000f4f0 f   rt_logging.obj
 0001:0000e580       _rt_UpdateTXXFYLogVars     1000f580 f   rt_logging.obj
 0001:0000eb60       _rt_UpdateTXYLogVars       1000fb60 f   rt_logging.obj
 0001:0000eda0       _rt_getTempMemory          1000fda0 f   rt_logging.obj
 0001:0000edf0       _sprintf                   1000fdf0 f i rt_logging.obj
 0001:0000ee30       _rtGetInf                  1000fe30 f   rtGetInf.obj
 0001:0000ee60       _rtGetInfF                 1000fe60 f   rtGetInf.obj
 0001:0000ee80       _rtGetMinusInf             1000fe80 f   rtGetInf.obj
 0001:0000eeb0       _rtGetMinusInfF            1000feb0 f   rtGetInf.obj
 0001:0000eed0       _rtGetNaN                  1000fed0 f   rtGetNaN.obj
 0001:0000ef00       _rtGetNaNF                 1000ff00 f   rtGetNaN.obj
 0001:0000ef20       _rtIsInf                   1000ff20 f   rt_nonfinite.obj
 0001:0000ef60       _rtIsInfF                  1000ff60 f   rt_nonfinite.obj
 0001:0000efa0       _rtIsNaN                   1000ffa0 f   rt_nonfinite.obj
 0001:0000efb0       _rtIsNaNF                  1000ffb0 f   rt_nonfinite.obj
 0001:0000efc0       _rt_InitInfAndNaN          1000ffc0 f   rt_nonfinite.obj
 0001:0000f020       _MdlInitialize             10010020 f   udp_comm_test.obj
 0001:0000f030       _MdlInitializeSampleTimes  10010030 f   udp_comm_test.obj
 0001:0000f040       _MdlInitializeSizes        10010040 f   udp_comm_test.obj
 0001:0000f050       _MdlOutputs                10010050 f   udp_comm_test.obj
 0001:0000f1e0       _MdlStart                  100101e0 f   udp_comm_test.obj
 0001:0000f2d0       _MdlTerminate              100102d0 f   udp_comm_test.obj
 0001:0000f340       _MdlUpdate                 10010340 f   udp_comm_test.obj
 0001:0000f3d0       _udp_comm_test             100103d0 f   udp_comm_test.obj
 0001:00011750       _udp_comm_test_GetCAPIStaticMap 10012750 f   udp_comm_test_capi.obj
 0001:00011760       _udp_comm_test_InitializeDataMapInfo 10012760 f   udp_comm_test_capi.obj
 0001:00011830       _mdlXcp_GetMdlXcpInfo      10012830 f   udp_comm_test_xcp.obj
 0001:00011840       _SLRT_update_TET           10012840 f   udp_comm_test_xcp_TET.obj
 0001:00011910       _rt_CleanUpForStateLogWithMMI 10012910 f   rt_logging_mmi.obj
 0001:00011a20       _rt_FillStateSigInfoFromMMI 10012a20 f   rt_logging_mmi.obj
 0001:00011df0       _rtwCAPI_CountSysRan       10012df0 f   rtw_modelmap_utils.obj
 0001:00011e90       _rtwCAPI_EncodePath        10012e90 f   rtw_modelmap_utils.obj
 0001:00011fa0       _rtwCAPI_FillSysRan        10012fa0 f   rtw_modelmap_utils.obj
 0001:00012090       _rtwCAPI_FreeFullPaths     10013090 f   rtw_modelmap_utils.obj
 0001:00012120       _rtwCAPI_GetFullStateBlockPath 10013120 f   rtw_modelmap_utils.obj
 0001:000122b0       _rtwCAPI_GetNumContStateRecords 100132b0 f   rtw_modelmap_utils.obj
 0001:00012370       _rtwCAPI_GetNumSigLogRecords 10013370 f   rtw_modelmap_utils.obj
 0001:000123c0       _rtwCAPI_GetNumSigLogRecordsForRTWLogging 100133c0 f   rtw_modelmap_utils.obj
 0001:00012460       _rtwCAPI_GetNumStateRecords 10013460 f   rtw_modelmap_utils.obj
 0001:000124b0       _rtwCAPI_GetNumStateRecordsForRTWLogging 100134b0 f   rtw_modelmap_utils.obj
 0001:00012550       _rtwCAPI_GetSigAddrFromMap 10013550 f   rtw_modelmap_utils.obj
 0001:00012610       _rtwCAPI_GetSigLogRecordInfo 10013610 f   rtw_modelmap_utils.obj
 0001:00012a40       _rtwCAPI_GetStateRecordInfo 10013a40 f   rtw_modelmap_utils.obj
 0001:00012f40       _rtwCAPI_GetStateWidth     10013f40 f   rtw_modelmap_utils.obj
 0001:00012fa0       _rtwCAPI_HasStates         10013fa0 f   rtw_modelmap_utils.obj
 0001:00013000       _rtwCAPI_UpdateFullPaths   10014000 f   rtw_modelmap_utils.obj
 0001:000131e0       _timestamp_x86             100141e0 f   host_timer_x86.obj
 0001:000131f0       _taskTimeEnd               100141f0 f   xpc_code_profiling_utility_functions.obj
 0001:00013200       _taskTimeEnd_              10014200 f   xpc_code_profiling_utility_functions.obj
 0001:00013210       _taskTimeStart             10014210 f   xpc_code_profiling_utility_functions.obj
 0001:00013220       _taskTimeStart_            10014220 f   xpc_code_profiling_utility_functions.obj
 0001:00013230       _xilProfilingTimerFreeze   10014230 f   xpc_code_profiling_utility_functions.obj
 0001:00013240       _xilProfilingTimerUnFreeze 10014240 f   xpc_code_profiling_utility_functions.obj
 0001:00013250       _xilUploadProfilingData    10014250 f   xpc_code_profiling_utility_functions.obj
 0001:00013260       ___local_stdio_scanf_options 10014260 f i asciidecode.obj
 0001:00013270       __vsscanf_l                10014270 f i asciidecode.obj
 0001:000132a0       _asciidecode               100142a0 f   asciidecode.obj
 0001:00013d60       _sscanf                    10014d60 f i asciidecode.obj
 0001:00013d90       _asciiencode               10014d90 f   asciiencode.obj
 0001:00015380       _slrtIPConfig              10016380 f   slrtIPConfig.obj
 0001:00015ab0       _slrtUDPReceive            10016ab0 f   slrtUDPReceive.obj
 0001:00016070       _slrtUDPSend               10017070 f   slrtUDPSend.obj
 0001:000160c0       _GetPCIDeviceFull          100170c0 f   xpcruntime:xpcimports.obj
 0001:00016230       _GetPCIDeviceFunction      10017230 f   xpcruntime:xpcimports.obj
 0001:000163a0       _ShowPCIDevice             100173a0 f   xpcruntime:xpcimports.obj
 0001:000169d0       _slrtGetPciConfigAtFunction 100179d0 f   xpcruntime:xpcimports.obj
 0001:00016d40       _xpcGetPciConfigAtSlot     10017d40 f   xpcruntime:xpcimports.obj
 0001:00016d60       _xpcInitProcs              10017d60 f   xpcruntime:xpcimports.obj
 0001:000183e0       _xpceuploadevent           100193e0 f   xpcruntime:xpcimports.obj
 0001:000183f0       __ftoui3                   100193f0 f   LIBCMT:ftol3.obj
 0001:000183ff       __ftoul3                   100193ff f   LIBCMT:ftol3.obj
 0001:0001840e       __ftol3                    1001940e f   LIBCMT:ftol3.obj
 0001:0001841b       __ftol3_NaN                1001941b f   LIBCMT:ftol3.obj
 0001:00018433       __ftol3_work               10019433 f   LIBCMT:ftol3.obj
 0001:000184b9       __ftol3_common             100194b9 f   LIBCMT:ftol3.obj
 0001:0001857b       __ftol3_arg_error          1001957b f   LIBCMT:ftol3.obj
 0001:0001858d       __ftol3_except             1001958d f   LIBCMT:ftol3.obj
 0001:000185d1       __dtoui3                   100195d1 f   LIBCMT:ftol3.obj
 0001:000185e0       __dtoul3                   100195e0 f   LIBCMT:ftol3.obj
 0001:000185ef       __dtol3                    100195ef f   LIBCMT:ftol3.obj
 0001:000185fc       __dtol3_NaN                100195fc f   LIBCMT:ftol3.obj
 0001:00018619       __dtol3_work               10019619 f   LIBCMT:ftol3.obj
 0001:00018700       __ultod3                   10019700 f   LIBCMT:ftol3.obj
 0001:00018740       __ltod3                    10019740 f   LIBCMT:ftol3.obj
 0001:00018844       ___raise_securityfailure   10019844 f   LIBCMT:gs_report.obj
 0001:00018876       ___report_gsfailure        10019876 f   LIBCMT:gs_report.obj
 0001:000189ad       ___report_rangecheckfailure 100199ad f   LIBCMT:gs_report.obj
 0001:000189bc       ___report_securityfailure  100199bc f   LIBCMT:gs_report.obj
 0001:00018abd       ___report_securityfailureEx 10019abd f   LIBCMT:gs_report.obj
 0001:00018c16       @__security_check_cookie@4 10019c16 f   LIBCMT:secchk.obj
 0001:00018c2b       ___isa_available_init      10019c2b f   LIBCMT:cpu_disp.obj
 0001:0001920c       __CRT_INIT@12              1001a20c f   LIBCMT:dll_dllmain.obj
 0001:00019217       __DllMainCRTStartup@12     1001a217 f   LIBCMT:dll_dllmain.obj
 0001:000192a2       ___security_init_cookie    1001a2a2 f   LIBCMT:gs_support.obj
 0001:000192ff       ?__scrt_initialize_type_info@@YAXXZ 1001a2ff f   LIBCMT:tncleanup.obj
 0001:0001930e       ?__scrt_uninitialize_type_info@@YAXXZ 1001a30e f   LIBCMT:tncleanup.obj
 0001:0001931d       ___scrt_initialize_default_local_stdio_options 1001a31d f   LIBCMT:default_local_stdio_options.obj
 0001:00019341       ??$__crt_fast_decode_pointer@PAP6AXXZ@@YAPAP6AXXZQAP6AXXZ@Z 1001a341 f i LIBCMT:utility.obj
 0001:0001935a       ??$__crt_fast_encode_pointer@PAP6AXXZ@@YAPAP6AXXZQAP6AXXZ@Z 1001a35a f i LIBCMT:utility.obj
 0001:0001937e       ?__crt_rotate_pointer_value@@YAIIH@Z 1001a37e f i LIBCMT:utility.obj
 0001:0001938e       ?configure_argv@__scrt_narrow_argv_policy@@SAHXZ 1001a38e f i LIBCMT:utility.obj
 0001:000193f3       ?initialize_environment@__scrt_narrow_environment_policy@@SAHXZ 1001a3f3 f i LIBCMT:utility.obj
 0001:00019439       _NtCurrentTeb              1001a439 f i LIBCMT:utility.obj
 0001:00019440       ___scrt_acquire_startup_lock 1001a440 f   LIBCMT:utility.obj
 0001:0001947e       ___scrt_dllmain_after_initialize_c 1001a47e f   LIBCMT:utility.obj
 0001:000194b3       ___scrt_dllmain_before_initialize_c 1001a4b3 f   LIBCMT:utility.obj
 0001:000194c4       ___scrt_dllmain_crt_thread_attach 1001a4c4 f   LIBCMT:utility.obj
 0001:000194ea       ___scrt_dllmain_crt_thread_detach 1001a4ea f   LIBCMT:utility.obj
 0001:000194fa       ___scrt_dllmain_exception_filter 1001a4fa f   LIBCMT:utility.obj
 0001:0001953b       ___scrt_dllmain_uninitialize_c 1001a53b f   LIBCMT:utility.obj
 0001:00019566       ___scrt_dllmain_uninitialize_critical 1001a566 f   LIBCMT:utility.obj
 0001:00019576       ___scrt_initialize_crt     1001a576 f   LIBCMT:utility.obj
 0001:000195bd       ___scrt_initialize_onexit_tables 1001a5bd f   LIBCMT:utility.obj
 0001:0001968b       ___scrt_is_nonwritable_in_current_image 1001a68b f   LIBCMT:utility.obj
 0001:00019744       ___scrt_release_startup_lock 1001a744 f   LIBCMT:utility.obj
 0001:00019768       ___scrt_uninitialize_crt   1001a768 f   LIBCMT:utility.obj
 0001:0001979a       __onexit                   1001a79a f   LIBCMT:utility.obj
 0001:000197e3       _at_quick_exit             1001a7e3 f   LIBCMT:utility.obj
 0001:00019820       _atexit                    1001a820 f   LIBCMT:utility.obj
 0001:0001983a       ___scrt_get_dyn_tls_init_callback 1001a83a f   LIBCMT:dyn_tls_init.obj
 0001:00019840       ___scrt_fastfail           1001a840 f   LIBCMT:utility_desktop.obj
 0001:000199a0       ___scrt_get_show_window_mode 1001a9a0 f   LIBCMT:utility_desktop.obj
 0001:000199dd       ___scrt_initialize_mta     1001a9dd f   LIBCMT:utility_desktop.obj
 0001:000199e2       ___scrt_initialize_winrt   1001a9e2 f   LIBCMT:utility_desktop.obj
 0001:000199e5       ___scrt_is_managed_app     1001a9e5 f   LIBCMT:utility_desktop.obj
 0001:00019a38       ___scrt_set_unhandled_exception_filter 1001aa38 f   LIBCMT:utility_desktop.obj
 0001:00019a47       ___scrt_stub_for_initialize_mta 1001aa47 f   LIBCMT:utility_desktop.obj
 0001:00019a47       ___scrt_exe_initialize_mta 1001aa47 f   LIBCMT:utility_desktop.obj
 0001:00019a4a       ___scrt_unhandled_exception_filter@4 1001aa4a f   LIBCMT:utility_desktop.obj
 0001:00019a9b       __crt_debugger_hook        1001aa9b f   LIBCMT:utility_desktop.obj
 0001:00019aa5       __RTC_Initialize           1001aaa5 f   LIBCMT:initsect.obj
 0001:00019adc       __RTC_Terminate            1001aadc f   LIBCMT:initsect.obj
 0001:00019b20       __SEH_prolog4              1001ab20 f   LIBCMT:sehprolg4.obj
 0001:00019b66       __SEH_epilog4              1001ab66 f   LIBCMT:sehprolg4.obj
 0001:00019b91       @_guard_check_icall_nop@4  1001ab91 f i LIBCMT:guard_support.obj
 0001:00019b92       _ReadNoFence               1001ab92 f i LIBCMT:guard_support.obj
 0001:00019b9e       _ReadPointerNoFence        1001ab9e f i LIBCMT:guard_support.obj
 0001:00019baa       __guard_icall_checks_enforced 1001abaa f i LIBCMT:guard_support.obj
 0001:00019bc0       __get_startup_argv_mode    1001abc0 f   LIBCMT:argv_mode.obj
 0001:00019bc4       ___scrt_is_ucrt_dll_in_use 1001abc4 f   LIBCMT:ucrt_detection.obj
 0001:00019bd3       _GetModuleHandleA@4        1001abd3 f   kernel32:KERNEL32.dll
 0001:00019bd9       _GetProcAddress@8          1001abd9 f   kernel32:KERNEL32.dll
 0001:00019bdf       _UnhandledExceptionFilter@4 1001abdf f   kernel32:KERNEL32.dll
 0001:00019be5       _SetUnhandledExceptionFilter@4 1001abe5 f   kernel32:KERNEL32.dll
 0001:00019beb       _GetCurrentProcess@0       1001abeb f   kernel32:KERNEL32.dll
 0001:00019bf1       _TerminateProcess@8        1001abf1 f   kernel32:KERNEL32.dll
 0001:00019bf7       _IsProcessorFeaturePresent@4 1001abf7 f   kernel32:KERNEL32.dll
 0001:00019bfd       _QueryPerformanceCounter@4 1001abfd f   kernel32:KERNEL32.dll
 0001:00019c03       _GetCurrentProcessId@0     1001ac03 f   kernel32:KERNEL32.dll
 0001:00019c09       _GetCurrentThreadId@0      1001ac09 f   kernel32:KERNEL32.dll
 0001:00019c0f       _GetSystemTimeAsFileTime@4 1001ac0f f   kernel32:KERNEL32.dll
 0001:00019c15       _InitializeSListHead@4     1001ac15 f   kernel32:KERNEL32.dll
 0001:00019c1b       _IsDebuggerPresent@0       1001ac1b f   kernel32:KERNEL32.dll
 0001:00019c21       _GetStartupInfoW@4         1001ac21 f   kernel32:KERNEL32.dll
 0001:00019c27       _GetModuleHandleW@4        1001ac27 f   kernel32:KERNEL32.dll
 0001:00019c30       _memcpy                    1001ac30 f   libvcruntime:memcpy.obj
 0001:0001a310       _strchr                    1001b310 f   libvcruntime:strchr.obj
 0001:0001a37e       ___from_strstr_to_strchr   1001b37e     libvcruntime:strchr.obj
 0001:0001a490       _memmove                   1001b490 f   libvcruntime:memmove.obj
 0001:0001ab70       _memset                    1001bb70 f   libvcruntime:memset.obj
 0001:0001ad60       __except_handler4          1001bd60 f   libvcruntime:chandler4.obj
 0001:0001af1c       ??$?RD@__crt_internal_free_policy@@QBEXQBD@Z 1001bf1c f i libvcruntime:std_type_info.obj
 0001:0001af30       ??$?RX@__crt_internal_free_policy@@QBEXQBX@Z 1001bf30 f i libvcruntime:std_type_info.obj
 0001:0001af44       ??$__crt_interlocked_compare_exchange_pointer@$$CBDPAD$$T@@YAPBDPDSBDQAD$$T@Z 1001bf44 f i libvcruntime:std_type_info.obj
 0001:0001af5a       ??$__crt_interlocked_read_pointer@$$CBD@@YAPBDPDSBD@Z 1001bf5a f i libvcruntime:std_type_info.obj
 0001:0001af66       ??0?$__crt_unique_heap_ptr@DU__crt_internal_free_policy@@@@QAE@QAD@Z 1001bf66 f i libvcruntime:std_type_info.obj
 0001:0001af77       ??0?$__crt_unique_heap_ptr@XU__crt_internal_free_policy@@@@QAE@QAX@Z 1001bf77 f i libvcruntime:std_type_info.obj
 0001:0001af88       ??1?$__crt_unique_heap_ptr@DU__crt_internal_free_policy@@@@QAE@XZ 1001bf88 f i libvcruntime:std_type_info.obj
 0001:0001af9c       ??1?$__crt_unique_heap_ptr@XU__crt_internal_free_policy@@@@QAE@XZ 1001bf9c f i libvcruntime:std_type_info.obj
 0001:0001afbc       ??B?$__crt_unique_heap_ptr@DU__crt_internal_free_policy@@@@QBE_NXZ 1001bfbc f i libvcruntime:std_type_info.obj
 0001:0001afc3       ??B?$__crt_unique_heap_ptr@XU__crt_internal_free_policy@@@@QBE_NXZ 1001bfc3 f i libvcruntime:std_type_info.obj
 0001:0001aff2       ?__crt_interlocked_read_32@@YAHPDH@Z 1001bff2 f i libvcruntime:std_type_info.obj
 0001:0001affe       ?detach@?$__crt_unique_heap_ptr@XU__crt_internal_free_policy@@@@QAEPAXXZ 1001bffe f i libvcruntime:std_type_info.obj
 0001:0001b004       ?get@?$__crt_unique_heap_ptr@DU__crt_internal_free_policy@@@@QBEPADXZ 1001c004 f i libvcruntime:std_type_info.obj
 0001:0001b007       ?get@?$__crt_unique_heap_ptr@XU__crt_internal_free_policy@@@@QBEPAXXZ 1001c007 f i libvcruntime:std_type_info.obj
 0001:0001b00a       ?is_valid@?$__crt_unique_heap_ptr@DU__crt_internal_free_policy@@@@QBE_NXZ 1001c00a f i libvcruntime:std_type_info.obj
 0001:0001b011       ?is_valid@?$__crt_unique_heap_ptr@XU__crt_internal_free_policy@@@@QBE_NXZ 1001c011 f i libvcruntime:std_type_info.obj
 0001:0001b018       ?release@?$__crt_unique_heap_ptr@DU__crt_internal_free_policy@@@@QAEXXZ 1001c018 f i libvcruntime:std_type_info.obj
 0001:0001b02c       ?release@?$__crt_unique_heap_ptr@XU__crt_internal_free_policy@@@@QAEXXZ 1001c02c f i libvcruntime:std_type_info.obj
 0001:0001b040       ___std_type_info_compare   1001c040 f   libvcruntime:std_type_info.obj
 0001:0001b08b       ___std_type_info_destroy_list 1001c08b f   libvcruntime:std_type_info.obj
 0001:0001b0b6       ___std_type_info_hash      1001c0b6 f   libvcruntime:std_type_info.obj
 0001:0001b0e5       ___std_type_info_name      1001c0e5 f   libvcruntime:std_type_info.obj
 0001:0001b1d8       ___vcrt_initialize         1001c1d8 f   libvcruntime:initialization.obj
 0001:0001b20b       ___vcrt_thread_attach      1001c20b f   libvcruntime:initialization.obj
 0001:0001b218       ___vcrt_thread_detach      1001c218 f   libvcruntime:initialization.obj
 0001:0001b225       ___vcrt_uninitialize       1001c225 f   libvcruntime:initialization.obj
 0001:0001b24b       ___vcrt_uninitialize_critical 1001c24b f   libvcruntime:initialization.obj
 0001:0001b260       __local_unwind4            1001c260 f   libvcruntime:exsup4.obj
 0001:0001b338       __seh_longjmp_unwind4@4    1001c338 f   libvcruntime:exsup4.obj
 0001:0001b360       @_EH4_CallFilterFunc@8     1001c360 f   libvcruntime:exsup4.obj
 0001:0001b378       @_EH4_TransferToHandler@8  1001c378 f   libvcruntime:exsup4.obj
 0001:0001b394       @_EH4_GlobalUnwind2@8      1001c394 f   libvcruntime:exsup4.obj
 0001:0001b3b0       @_EH4_LocalUnwind@16       1001c3b0 f   libvcruntime:exsup4.obj
 0001:0001b42d       ___except_validate_context_record 1001c42d f   libvcruntime:jbcxrval.obj
 0001:0001b469       ___except_validate_jump_buffer 1001c469 f   libvcruntime:jbcxrval.obj
 0001:0001b4a1       ___except_validate_jump_buffer_common 1001c4a1 f i libvcruntime:jbcxrval.obj
 0001:0001b4e8       ??0Block@_HeapManager@@QAE@XZ 1001c4e8 f i libvcruntime:undname.obj
 0001:0001b4ee       ??0DName@@QAE@AAPBDD@Z     1001c4ee f   libvcruntime:undname.obj
 0001:0001b5cc       ??0DName@@QAE@ABV0@@Z      1001c5cc f i libvcruntime:undname.obj
 0001:0001b5e7       ??0DName@@QAE@D@Z          1001c5e7 f   libvcruntime:undname.obj
 0001:0001b615       ??0DName@@QAE@PAV0@@Z      1001c615 f   libvcruntime:undname.obj
 0001:0001b66f       ??0DName@@QAE@PBD@Z        1001c66f f   libvcruntime:undname.obj
 0001:0001b6ae       ??0DName@@QAE@W4DNameStatus@@@Z 1001c6ae f   libvcruntime:undname.obj
 0001:0001b6fe       ??0DName@@QAE@XZ           1001c6fe f i libvcruntime:undname.obj
 0001:0001b70a       ??0DName@@QAE@_J@Z         1001c70a f   libvcruntime:undname.obj
 0001:0001b7b9       ??0DName@@QAE@_K@Z         1001c7b9 f   libvcruntime:undname.obj
 0001:0001b838       ??0DNameNode@@IAE@XZ       1001c838 f i libvcruntime:undname.obj
 0001:0001b843       ??0Replicator@@QAE@XZ      1001c843 f i libvcruntime:undname.obj
 0001:0001b854       ??0UnDecorator@@QAE@PBDP6APADJ@ZK@Z 1001c854 f i libvcruntime:undname.obj
 0001:0001b8b3       ??0charNode@@QAE@D@Z       1001c8b3 f i libvcruntime:undname.obj
 0001:0001b8cd       ??0pDNameNode@@QAE@PAVDName@@@Z 1001c8cd f   libvcruntime:undname.obj
 0001:0001b8ff       ??0pairNode@@QAE@PBVDNameNode@@0@Z 1001c8ff f i libvcruntime:undname.obj
 0001:0001b925       ??0pcharNode@@QAE@PBDH@Z   1001c925 f   libvcruntime:undname.obj
 0001:0001b99b       ??2@YAPAXIAAV_HeapManager@@H@Z 1001c99b f i libvcruntime:undname.obj
 0001:0001b9b5       ??4DName@@QAEAAV0@ABV0@@Z  1001c9b5 f   libvcruntime:undname.obj
 0001:0001b9d0       ??4DName@@QAEAAV0@D@Z      1001c9d0 f i libvcruntime:undname.obj
 0001:0001b9fe       ??4DName@@QAEAAV0@PAV0@@Z  1001c9fe f   libvcruntime:undname.obj
 0001:0001ba50       ??4DName@@QAEAAV0@PBD@Z    1001ca50 f   libvcruntime:undname.obj
 0001:0001ba85       ??4DName@@QAEAAV0@W4DNameStatus@@@Z 1001ca85 f   libvcruntime:undname.obj
 0001:0001bac3       ??AReplicator@@QBE?AVDName@@H@Z 1001cac3 f   libvcruntime:undname.obj
 0001:0001bb1a       ??H@YA?AVDName@@DABV0@@Z   1001cb1a f i libvcruntime:undname.obj
 0001:0001bb44       ??H@YA?AVDName@@PBDABV0@@Z 1001cb44 f i libvcruntime:undname.obj
 0001:0001bb6e       ??H@YA?AVDName@@W4DNameStatus@@ABV0@@Z 1001cb6e f i libvcruntime:undname.obj
 0001:0001bb98       ??HDName@@QBE?AV0@ABV0@@Z  1001cb98 f   libvcruntime:undname.obj
 0001:0001bbc2       ??HDName@@QBE?AV0@D@Z      1001cbc2 f   libvcruntime:undname.obj
 0001:0001bbec       ??HDName@@QBE?AV0@PAV0@@Z  1001cbec f   libvcruntime:undname.obj
 0001:0001bc16       ??HDName@@QBE?AV0@PBD@Z    1001cc16 f   libvcruntime:undname.obj
 0001:0001bc40       ??HDName@@QBE?AV0@W4DNameStatus@@@Z 1001cc40 f   libvcruntime:undname.obj
 0001:0001bc6a       ??YDName@@QAEAAV0@ABV0@@Z  1001cc6a f   libvcruntime:undname.obj
 0001:0001bcbb       ??YDName@@QAEAAV0@D@Z      1001ccbb f   libvcruntime:undname.obj
 0001:0001bd1f       ??YDName@@QAEAAV0@PAV0@@Z  1001cd1f f   libvcruntime:undname.obj
 0001:0001bd9d       ??YDName@@QAEAAV0@PBD@Z    1001cd9d f   libvcruntime:undname.obj
 0001:0001be16       ??YDName@@QAEAAV0@W4DNameStatus@@@Z 1001ce16 f   libvcruntime:undname.obj
 0001:0001be66       ??YReplicator@@QAEAAV0@ABVDName@@@Z 1001ce66 f   libvcruntime:undname.obj
 0001:0001bec2       ??_5DName@@QAEAAV0@ABV0@@Z 1001cec2 f   libvcruntime:undname.obj
 0001:0001bee5       ?Constructor@_HeapManager@@QAEXP6APAXI@ZP6AXPAX@Z@Z 1001cee5 f i libvcruntime:undname.obj
 0001:0001bf09       ?Destructor@_HeapManager@@QAEXXZ 1001cf09 f i libvcruntime:undname.obj
 0001:0001bf4f       ?UScore@UnDecorator@@SAPBDW4Tokens@@@Z 1001cf4f f   libvcruntime:undname.obj
 0001:0001bf75       ?append@DName@@AAEXPBVDNameNode@@@Z 1001cf75 f   libvcruntime:undname.obj
 0001:0001bfcc       ?composeDeclaration@UnDecorator@@CA?AVDName@@ABV2@@Z 1001cfcc f i libvcruntime:undname.obj
 0001:0001cfe0       ?doAccessSpecifiers@UnDecorator@@SAHXZ 1001dfe0 f i libvcruntime:undname.obj
 0001:0001cff1       ?doAllocationLanguage@UnDecorator@@SAHXZ 1001dff1 f i libvcruntime:undname.obj
 0001:0001d002       ?doAllocationModel@UnDecorator@@SAHXZ 1001e002 f i libvcruntime:undname.obj
 0001:0001d013       ?doEcsu@UnDecorator@@SAHXZ 1001e013 f i libvcruntime:undname.obj
 0001:0001d024       ?doEllipsis@UnDecorator@@SAHXZ 1001e024 f i libvcruntime:undname.obj
 0001:0001d035       ?doFunctionReturns@UnDecorator@@SAHXZ 1001e035 f i libvcruntime:undname.obj
 0001:0001d046       ?doMSKeywords@UnDecorator@@SAHXZ 1001e046 f i libvcruntime:undname.obj
 0001:0001d056       ?doMemberTypes@UnDecorator@@SAHXZ 1001e056 f i libvcruntime:undname.obj
 0001:0001d067       ?doNameOnly@UnDecorator@@SAHXZ 1001e067 f i libvcruntime:undname.obj
 0001:0001d074       ?doNoIdentCharCheck@UnDecorator@@SAHXZ 1001e074 f i libvcruntime:undname.obj
 0001:0001d081       ?doPchar@DName@@AAEXPBDH@Z 1001e081 f   libvcruntime:undname.obj
 0001:0001d128       ?doPtr64@UnDecorator@@SAHXZ 1001e128 f i libvcruntime:undname.obj
 0001:0001d139       ?doRestrictionSpec@UnDecorator@@SAHXZ 1001e139 f i libvcruntime:undname.obj
 0001:0001d14a       ?doThisTypes@UnDecorator@@SAHXZ 1001e14a f i libvcruntime:undname.obj
 0001:0001d160       ?doThrowTypes@UnDecorator@@SAHXZ 1001e160 f i libvcruntime:undname.obj
 0001:0001d171       ?doTypeOnly@UnDecorator@@SAHXZ 1001e171 f i libvcruntime:undname.obj
 0001:0001d17e       ?doUnderScore@UnDecorator@@SAHXZ 1001e17e f i libvcruntime:undname.obj
 0001:0001d18b       ?getArgumentList@UnDecorator@@CA?AVDName@@XZ 1001e18b f   libvcruntime:undname.obj
 0001:0001d2be       ?getArgumentTypes@UnDecorator@@CA?AVDName@@XZ 1001e2be f   libvcruntime:undname.obj
 0001:0001d3ba       ?getArrayType@UnDecorator@@CA?AVDName@@ABV2@@Z 1001e3ba f i libvcruntime:undname.obj
 0001:0001d5d7       ?getBasedType@UnDecorator@@CA?AVDName@@XZ 1001e5d7 f   libvcruntime:undname.obj
 0001:0001d695       ?getBasicDataType@UnDecorator@@CA?AVDName@@ABV2@@Z 1001e695 f   libvcruntime:undname.obj
 0001:0001db6b       ?getCHPEName@UnDecorator@@QAEPADPADH@Z 1001eb6b f i libvcruntime:undname.obj
 0001:0001dc81       ?getCallIndex@UnDecorator@@CA?AVDName@@XZ 1001ec81 f i libvcruntime:undname.obj
 0001:0001dc9a       ?getCallingConvention@UnDecorator@@CA?AVDName@@XZ 1001ec9a f   libvcruntime:undname.obj
 0001:0001dda1       ?getDataIndirectType@UnDecorator@@CA?AVDName@@ABV2@PBD0H@Z 1001eda1 f   libvcruntime:undname.obj
 0001:0001e505       ?getDataIndirectType@UnDecorator@@CA?AVDName@@XZ 1001f505 f i libvcruntime:undname.obj
 0001:0001e543       ?getDataType@UnDecorator@@CA?AVDName@@PAV2@@Z 1001f543 f   libvcruntime:undname.obj
 0001:0001e639       ?getDecoratedName@UnDecorator@@CA?AVDName@@XZ 1001f639 f   libvcruntime:undname.obj
 0001:0001e90b       ?getDimension@UnDecorator@@CA?AVDName@@_N@Z 1001f90b f   libvcruntime:undname.obj
 0001:0001ea71       ?getDispatchTarget@UnDecorator@@CA?AVDName@@XZ 1001fa71 f   libvcruntime:undname.obj
 0001:0001eada       ?getDisplacement@UnDecorator@@CA?AVDName@@XZ 1001fada f i libvcruntime:undname.obj
 0001:0001eaf3       ?getECSUDataType@UnDecorator@@CA?AVDName@@XZ 1001faf3 f   libvcruntime:undname.obj
 0001:0001ec51       ?getECSUName@UnDecorator@@CA?AVDName@@XZ 1001fc51 f i libvcruntime:undname.obj
 0001:0001ec66       ?getEnumType@UnDecorator@@CA?AVDName@@XZ 1001fc66 f i libvcruntime:undname.obj
 0001:0001ed92       ?getExtendedDataIndirectType@UnDecorator@@CA?AVDName@@AAPBDAA_NH@Z 1001fd92 f   libvcruntime:undname.obj
 0001:0001efb6       ?getExternalDataType@UnDecorator@@CA?AVDName@@ABV2@@Z 1001ffb6 f i libvcruntime:undname.obj
 0001:0001f036       ?getFunctionIndirectType@UnDecorator@@CA?AVDName@@ABV2@@Z 10020036 f   libvcruntime:undname.obj
 0001:0001f504       ?getGuardNumber@UnDecorator@@CA?AVDName@@XZ 10020504 f i libvcruntime:undname.obj
 0001:0001f51d       ?getLastChar@DName@@QBEDXZ 1002051d f i libvcruntime:undname.obj
 0001:0001f545       ?getLastChar@DNameStatusNode@@UBEDXZ 10020545 f i libvcruntime:undname.obj
 0001:0001f554       ?getLastChar@charNode@@UBEDXZ 10020554 f i libvcruntime:undname.obj
 0001:0001f558       ?getLastChar@pDNameNode@@UBEDXZ 10020558 f i libvcruntime:undname.obj
 0001:0001f569       ?getLastChar@pairNode@@UBEDXZ 10020569 f i libvcruntime:undname.obj
 0001:0001f5ab       ?getLastChar@pcharNode@@UBEDXZ 100205ab f i libvcruntime:undname.obj
 0001:0001f5c1       ?getLexicalFrame@UnDecorator@@CA?AVDName@@XZ 100205c1 f i libvcruntime:undname.obj
 0001:0001f60f       ?getMemory@_HeapManager@@QAEPAXIH@Z 1002060f f   libvcruntime:undname.obj
 0001:0001f6b7       ?getNoexcept@UnDecorator@@CA?AVDName@@XZ 100206b7 f   libvcruntime:undname.obj
 0001:0001f70d       ?getNumberOfDimensions@UnDecorator@@CAHXZ 1002070d f   libvcruntime:undname.obj
 0001:0001f786       ?getOperatorName@UnDecorator@@CA?AVDName@@_NPA_N@Z 10020786 f i libvcruntime:undname.obj
 0001:0001ff74       ?getPointerType@UnDecorator@@CA?AVDName@@ABV2@0@Z 10020f74 f i libvcruntime:undname.obj
 0001:0001ff99       ?getPointerTypeArray@UnDecorator@@CA?AVDName@@ABV2@0@Z 10020f99 f i libvcruntime:undname.obj
 0001:0001ffbe       ?getPrimaryDataType@UnDecorator@@CA?AVDName@@ABV2@@Z 10020fbe f   libvcruntime:undname.obj
 0001:0002021b       ?getPtrRefDataType@UnDecorator@@CA?AVDName@@ABV2@H@Z 1002121b f   libvcruntime:undname.obj
 0001:0002038e       ?getPtrRefType@UnDecorator@@CA?AVDName@@ABV2@0PBD@Z 1002138e f   libvcruntime:undname.obj
 0001:000204c6       ?getReferenceType@UnDecorator@@CA?AVDName@@ABV2@0PBD@Z 100214c6 f i libvcruntime:undname.obj
 0001:000204e9       ?getRestrictionSpec@UnDecorator@@CA?AVDName@@XZ 100214e9 f   libvcruntime:undname.obj
 0001:00020620       ?getReturnType@UnDecorator@@CA?AVDName@@PAV2@@Z 10021620 f   libvcruntime:undname.obj
 0001:0002065a       ?getScope@UnDecorator@@CA?AVDName@@XZ 1002165a f   libvcruntime:undname.obj
 0001:00020ad3       ?getScopedName@UnDecorator@@CA?AVDName@@XZ 10021ad3 f   libvcruntime:undname.obj
 0001:00020bdc       ?getSignedDimension@UnDecorator@@CA?AVDName@@XZ 10021bdc f   libvcruntime:undname.obj
 0001:00020c41       ?getStorageConvention@UnDecorator@@CA?AVDName@@XZ 10021c41 f i libvcruntime:undname.obj
 0001:00020c56       ?getString@DName@@QBEPADPAD0@Z 10021c56 f i libvcruntime:undname.obj
 0001:00020c8e       ?getString@DName@@QBEPADPADH@Z 10021c8e f i libvcruntime:undname.obj
 0001:00020cf9       ?getString@DNameStatusNode@@UBEPADPAD0@Z 10021cf9 f i libvcruntime:undname.obj
 0001:00020d29       ?getString@charNode@@UBEPADPAD0@Z 10021d29 f i libvcruntime:undname.obj
 0001:00020d43       ?getString@pDNameNode@@UBEPADPAD0@Z 10021d43 f i libvcruntime:undname.obj
 0001:00020d5f       ?getString@pairNode@@UBEPADPAD0@Z 10021d5f f i libvcruntime:undname.obj
 0001:00020db6       ?getString@pcharNode@@UBEPADPAD0@Z 10021db6 f i libvcruntime:undname.obj
 0001:00020dd7       ?getStringEncoding@UnDecorator@@CA?AVDName@@PBDH@Z 10021dd7 f   libvcruntime:undname.obj
 0001:00020eb3       ?getStringHelper@@YAPADPADPBD1H@Z 10021eb3 f i libvcruntime:undname.obj
 0001:00020ef7       ?getSymbolName@UnDecorator@@CA?AVDName@@XZ 10021ef7 f i libvcruntime:undname.obj
 0001:00020f51       ?getTemplateArgumentList@UnDecorator@@CA?AVDName@@XZ 10021f51 f   libvcruntime:undname.obj
 0001:00021295       ?getTemplateConstant@UnDecorator@@CA?AVDName@@XZ 10022295 f   libvcruntime:undname.obj
 0001:00021693       ?getTemplateName@UnDecorator@@CA?AVDName@@_N@Z 10022693 f   libvcruntime:undname.obj
 0001:0002184d       ?getThisType@UnDecorator@@CA?AVDName@@XZ 1002284d f i libvcruntime:undname.obj
 0001:0002188c       ?getThrowTypes@UnDecorator@@CA?AVDName@@XZ 1002288c f   libvcruntime:undname.obj
 0001:000218b7       ?getTypeEncoding@UnDecorator@@CAHXZ 100228b7 f i libvcruntime:undname.obj
 0001:00021ca9       ?getUndecoratedName@UnDecorator@@QAEPADPADH@Z 10022ca9 f i libvcruntime:undname.obj
 0001:00021d9e       ?getVCallThunkType@UnDecorator@@CA?AVDName@@XZ 10022d9e f i libvcruntime:undname.obj
 0001:00021df6       ?getVbTableType@UnDecorator@@CA?AVDName@@ABV2@@Z 10022df6 f i libvcruntime:undname.obj
 0001:00021e10       ?getVdispMapType@UnDecorator@@CA?AVDName@@ABV2@@Z 10022e10 f i libvcruntime:undname.obj
 0001:00021e79       ?getVfTableType@UnDecorator@@CA?AVDName@@ABV2@@Z 10022e79 f i libvcruntime:undname.obj
 0001:00022034       ?getZName@UnDecorator@@CA?AVDName@@_N0@Z 10023034 f   libvcruntime:undname.obj
 0001:000222b2       ?haveTemplateParameters@UnDecorator@@SAHXZ 100232b2 f i libvcruntime:undname.obj
 0001:000222bf       ?isArray@DName@@QBEHXZ     100232bf f i libvcruntime:undname.obj
 0001:000222cb       ?isComArray@DName@@QBEHXZ  100232cb f i libvcruntime:undname.obj
 0001:000222d7       ?isEmpty@DName@@QBEHXZ     100232d7 f i libvcruntime:undname.obj
 0001:000222e1       ?isFull@Replicator@@QBEHXZ 100232e1 f i libvcruntime:undname.obj
 0001:000222ec       ?isNoTE@DName@@QBEHXZ      100232ec f i libvcruntime:undname.obj
 0001:000222f8       ?isPinPtr@DName@@QBEHXZ    100232f8 f i libvcruntime:undname.obj
 0001:00022304       ?isPtrRef@DName@@QBEHXZ    10023304 f i libvcruntime:undname.obj
 0001:00022310       ?isUDC@DName@@QBEHXZ       10023310 f i libvcruntime:undname.obj
 0001:00022325       ?isUDTThunk@DName@@QBEHXZ  10023325 f i libvcruntime:undname.obj
 0001:0002233a       ?isVCallThunk@DName@@QBEHXZ 1002333a f i libvcruntime:undname.obj
 0001:00022346       ?isValid@DName@@QBEHXZ     10023346 f i libvcruntime:undname.obj
 0001:00022352       ?length@DName@@QBEHXZ      10023352 f i libvcruntime:undname.obj
 0001:00022378       ?length@DNameStatusNode@@UBEHXZ 10023378 f i libvcruntime:undname.obj
 0001:0002237c       ?length@charNode@@UBEHXZ   1002337c f i libvcruntime:undname.obj
 0001:00022380       ?length@pDNameNode@@UBEHXZ 10023380 f i libvcruntime:undname.obj
 0001:00022391       ?length@pairNode@@UBEHXZ   10023391 f i libvcruntime:undname.obj
 0001:000223e8       ?length@pcharNode@@UBEHXZ  100233e8 f i libvcruntime:undname.obj
 0001:000223ec       ?make@DNameStatusNode@@SAPBV1@W4DNameStatus@@@Z 100233ec f i libvcruntime:undname.obj
 0001:0002240f       ?parseDecoratedName@UnDecorator@@CA?AVDName@@XZ 1002340f f   libvcruntime:undname.obj
 0001:00022538       ?setIsArray@DName@@QAEXXZ  10023538 f i libvcruntime:undname.obj
 0001:00022542       ?setIsComArray@DName@@QAEXXZ 10023542 f i libvcruntime:undname.obj
 0001:0002254c       ?setIsNoTE@DName@@QAEXXZ   1002354c f i libvcruntime:undname.obj
 0001:00022556       ?setIsPinPtr@DName@@QAEXXZ 10023556 f i libvcruntime:undname.obj
 0001:00022560       ?setIsUDC@DName@@QAEXXZ    10023560 f i libvcruntime:undname.obj
 0001:00022570       ?setIsVCallThunk@DName@@QAEXXZ 10023570 f i libvcruntime:undname.obj
 0001:0002257a       ?setPtrRef@DName@@QAEAAV1@XZ 1002357a f i libvcruntime:undname.obj
 0001:00022586       ?status@DName@@QBE?AW4DNameStatus@@XZ 10023586 f i libvcruntime:undname.obj
 0001:0002260b       ___unDName                 1002360b f   libvcruntime:undname.obj
 0001:00022636       ___unDNameEx               10023636 f   libvcruntime:undname.obj
 0001:000226fc       __vsprintf_s_l             100236fc f i libvcruntime:undname.obj
 0001:00022734       _sprintf_s                 10023734 f i libvcruntime:undname.obj
 0001:00022757       _unDNameGenerateCHPE       10023757 f   libvcruntime:undname.obj
 0001:000227ca       ??$?RU__vcrt_ptd@@@__crt_internal_free_policy@@QBEXQBU__vcrt_ptd@@@Z 100237ca f i libvcruntime:per_thread_data.obj
 0001:000227de       ??0?$__crt_unique_heap_ptr@U__vcrt_ptd@@U__crt_internal_free_policy@@@@QAE@QAU__vcrt_ptd@@@Z 100237de f i libvcruntime:per_thread_data.obj
 0001:00022801       ??1?$__crt_unique_heap_ptr@U__vcrt_ptd@@U__crt_internal_free_policy@@@@QAE@XZ 10023801 f i libvcruntime:per_thread_data.obj
 0001:00022820       ??B?$__crt_unique_heap_ptr@U__vcrt_ptd@@U__crt_internal_free_policy@@@@QBE_NXZ 10023820 f i libvcruntime:per_thread_data.obj
 0001:00022827       ?detach@?$__crt_unique_heap_ptr@U__vcrt_ptd@@U__crt_internal_free_policy@@@@QAEPAU__vcrt_ptd@@XZ 10023827 f i libvcruntime:per_thread_data.obj
 0001:0002282d       ?get@?$__crt_unique_heap_ptr@U__vcrt_ptd@@U__crt_internal_free_policy@@@@QBEPAU__vcrt_ptd@@XZ 1002382d f i libvcruntime:per_thread_data.obj
 0001:00022830       ?is_valid@?$__crt_unique_heap_ptr@U__vcrt_ptd@@U__crt_internal_free_policy@@@@QBE_NXZ 10023830 f i libvcruntime:per_thread_data.obj
 0001:00022837       ?release@?$__crt_unique_heap_ptr@U__vcrt_ptd@@U__crt_internal_free_policy@@@@QAEXXZ 10023837 f i libvcruntime:per_thread_data.obj
 0001:0002286b       ___vcrt_freefls@4          1002386b f   libvcruntime:per_thread_data.obj
 0001:0002288e       ___vcrt_freeptd            1002388e f   libvcruntime:per_thread_data.obj
 0001:000228d1       ___vcrt_getptd             100238d1 f   libvcruntime:per_thread_data.obj
 0001:000228e2       ___vcrt_getptd_noexit      100238e2 f   libvcruntime:per_thread_data.obj
 0001:00022998       ___vcrt_getptd_noinit      10023998 f   libvcruntime:per_thread_data.obj
 0001:000229dc       ___vcrt_initialize_ptd     100239dc f   libvcruntime:per_thread_data.obj
 0001:00022a1b       ___vcrt_uninitialize_ptd   10023a1b f   libvcruntime:per_thread_data.obj
 0001:00022a3c       ___vcrt_initialize_locks   10023a3c f   libvcruntime:locks.obj
 0001:00022a87       ___vcrt_lock               10023a87 f   libvcruntime:locks.obj
 0001:00022aa1       ___vcrt_uninitialize_locks 10023aa1 f   libvcruntime:locks.obj
 0001:00022adb       ___vcrt_unlock             10023adb f   libvcruntime:locks.obj
 0001:00022af5       ??$?BX@__crt_fast_encoded_nullptr_t@@QBEPAXXZ 10023af5 f i libvcruntime:winapi_downlevel.obj
 0001:00022afb       ??$__crt_fast_decode_pointer@PAX@@YAPAXQAX@Z 10023afb f i libvcruntime:winapi_downlevel.obj
 0001:00022b14       ??$__crt_fast_encode_pointer@PAX@@YAPAXQAX@Z 10023b14 f i libvcruntime:winapi_downlevel.obj
 0001:00022b38       ??$__crt_interlocked_exchange_pointer@UHINSTANCE__@@PAU1@@@YAPAUHINSTANCE__@@PDSAU0@QAU0@@Z 10023b38 f i libvcruntime:winapi_downlevel.obj
 0001:00022b48       ??$__crt_interlocked_exchange_pointer@UHINSTANCE__@@PAX@@YAPAUHINSTANCE__@@PDSAU0@QAX@Z 10023b48 f i libvcruntime:winapi_downlevel.obj
 0001:00022b58       ??$__crt_interlocked_exchange_pointer@XPAX@@YAPAXPDSAXQAX@Z 10023b58 f i libvcruntime:winapi_downlevel.obj
 0001:00022b68       ??$__crt_interlocked_read_pointer@UHINSTANCE__@@@@YAPAUHINSTANCE__@@PDSAU0@@Z 10023b68 f i libvcruntime:winapi_downlevel.obj
 0001:00022b74       ??$__crt_interlocked_read_pointer@X@@YAPAXPDSAX@Z 10023b74 f i libvcruntime:winapi_downlevel.obj
 0001:00022b80       ?__crt_fast_encode_pointer@@YA?AU__crt_fast_encoded_nullptr_t@@$$T@Z 10023b80 f i libvcruntime:winapi_downlevel.obj
 0001:00022eb3       ___vcrt_FlsAlloc           10023eb3 f   libvcruntime:winapi_downlevel.obj
 0001:00022efc       ___vcrt_FlsFree            10023efc f   libvcruntime:winapi_downlevel.obj
 0001:00022f45       ___vcrt_FlsGetValue        10023f45 f   libvcruntime:winapi_downlevel.obj
 0001:00022f8e       ___vcrt_FlsSetValue        10023f8e f   libvcruntime:winapi_downlevel.obj
 0001:00022fdb       ___vcrt_InitializeCriticalSectionEx 10023fdb f   libvcruntime:winapi_downlevel.obj
 0001:00023033       ___vcrt_initialize_winapi_thunks 10024033 f   libvcruntime:winapi_downlevel.obj
 0001:00023066       ___vcrt_uninitialize_winapi_thunks 10024066 f   libvcruntime:winapi_downlevel.obj
 0001:000230a4       ??$?B$$A6AXXZ@__crt_fast_encoded_nullptr_t@@QBEP6AXXZXZ 100240a4 f i libvcruntime:purevirt_data.obj
 0001:000230aa       ??$__crt_fast_encode_pointer@P6AXXZ@@YAP6AXXZQ6AXXZ@Z 100240aa f i libvcruntime:purevirt_data.obj
 0001:000230ce       ___vcrt_initialize_pure_virtual_call_handler 100240ce f   libvcruntime:purevirt_data.obj
 0001:000230e0       __global_unwind2           100240e0 f   libvcruntime:exsup.obj
 0001:00023146       __local_unwind2            10024146 f   libvcruntime:exsup.obj
 0001:000231ca       __abnormal_termination     100241ca f   libvcruntime:exsup.obj
 0001:000231f0       __NLG_Notify1              100241f0 f   libvcruntime:exsup.obj
 0001:000231fc       __NLG_Notify               100241fc f   libvcruntime:exsup.obj
 0001:00023213       __NLG_Dispatch2            10024213     libvcruntime:exsup.obj
 0001:00023213       __NLG_Dispatch             10024213     libvcruntime:exsup.obj
 0001:0002321b       __NLG_Call                 1002421b f   libvcruntime:exsup.obj
 0001:0002321d       __NLG_Return2              1002421d     libvcruntime:exsup.obj
 0001:0002326d       ??$__crt_fast_decode_pointer@P6AXXZ@@YAP6AXXZQ6AXXZ@Z 1002426d f i libvcruntime:purevirt.obj
 0001:00023286       ??$__crt_interlocked_exchange_pointer@$$A6AXXZP6AXXZ@@YAP6AXXZPDS6AXXZQ6AXXZ@Z 10024286 f i libvcruntime:purevirt.obj
 0001:00023296       ??$__crt_interlocked_read_pointer@$$A6AXXZ@@YAP6AXXZPDS6AXXZ@Z 10024296 f i libvcruntime:purevirt.obj
 0001:000232a2       __get_purecall_handler     100242a2 f   libvcruntime:purevirt.obj
 0001:000232bc       __purecall                 100242bc f   libvcruntime:purevirt.obj
 0001:000232df       __set_purecall_handler     100242df f   libvcruntime:purevirt.obj
 0001:0002330d       ??$?0AAViterator@TryBlockMap@__FrameHandler3@@AAV012@$0A@@?$pair@Viterator@TryBlockMap@__FrameHandler3@@V123@@std@@QAE@AAViterator@TryBlockMap@__FrameHandler3@@0@Z 1002430d f i libvcruntime:trnsctrl.obj
 0001:0002333a       ??$forward@AAViterator@TryBlockMap@__FrameHandler3@@@std@@YAAAViterator@TryBlockMap@__FrameHandler3@@AAV123@@Z 1002433a f i libvcruntime:trnsctrl.obj
 0001:00023344       ??0iterator@TryBlockMap@__FrameHandler3@@QAE@AAV12@I@Z 10024344 f i libvcruntime:trnsctrl.obj
 0001:0002335d       ?GetRangeOfTrysToCheck@__FrameHandler3@@SA?AU?$pair@Viterator@TryBlockMap@__FrameHandler3@@V123@@std@@AAVTryBlockMap@1@HH@Z 1002435d f   libvcruntime:trnsctrl.obj
 0001:000233ff       ?_CallCatchBlock2@@YAPAXPAUEHRegistrationNode@@PBU_s_FuncInfo@@PAXHK@Z 100243ff f   libvcruntime:trnsctrl.obj
 0001:00023474       ?_CallSETranslator@@YAHPAUEHExceptionRecord@@PAUEHRegistrationNode@@PAX2PBU_s_FuncInfo@@H1@Z 10024474 f   libvcruntime:trnsctrl.obj
 0001:00023585       ?_JumpToContinuation@@YGXPAXPAUEHRegistrationNode@@@Z 10024585 f   libvcruntime:trnsctrl.obj
 0001:000235c1       ?_UnwindNestedFrames@@YGXPAUEHRegistrationNode@@PAUEHExceptionRecord@@@Z 100245c1 f   libvcruntime:trnsctrl.obj
 0001:00023628       ?getFuncInfo@TryBlockMap@__FrameHandler3@@QAEPBU_s_FuncInfo@@XZ 10024628 f i libvcruntime:trnsctrl.obj
 0001:0002362b       __CatchGuardHandler        1002462b f   libvcruntime:trnsctrl.obj
 0001:00023668       __CreateFrameInfo          10024668 f   libvcruntime:trnsctrl.obj
 0001:00023695       __FindAndUnlinkFrame       10024695 f   libvcruntime:trnsctrl.obj
 0001:000236eb       __TranslatorGuardHandler   100246eb f   libvcruntime:trnsctrl.obj
 0001:000237af       ___CxxFrameHandler         100247af f   libvcruntime:trnsctrl.obj
 0001:000237f2       ___CxxFrameHandler2        100247f2 f   libvcruntime:trnsctrl.obj
 0001:00023835       ___CxxFrameHandler3        10024835 f   libvcruntime:trnsctrl.obj
 0001:00023878       ___CxxLongjmpUnwind@4      10024878 f   libvcruntime:trnsctrl.obj
 0001:00024159       ??$TypeMatchHelper@V__FrameHandler3@@@@YAHPBU_s_HandlerType@@PBU_s_CatchableType@@PBU_s_ThrowInfo@@@Z 10025159 f i libvcruntime:frame.obj
 0001:0002420a       ??$__InternalCxxFrameHandler@V__FrameHandler3@@@@YA?AW4_EXCEPTION_DISPOSITION@@PAUEHExceptionRecord@@PAUEHRegistrationNode@@PAU_CONTEXT@@PAXPBU_s_FuncInfo@@H1E@Z 1002520a f i libvcruntime:frame.obj
 0001:0002434c       ??0HandlerMap@__FrameHandler3@@QAE@PBU_s_TryBlockMapEntry@@PAX@Z 1002534c f i libvcruntime:frame.obj
 0001:00024368       ??0TryBlockMap@__FrameHandler3@@QAE@PBU_s_FuncInfo@@PAX@Z 10025368 f i libvcruntime:frame.obj
 0001:00024381       ??0bad_exception@std@@QAE@ABV01@@Z 10025381 f i libvcruntime:frame.obj
 0001:000243a2       ??0bad_exception@std@@QAE@XZ 100253a2 f i libvcruntime:frame.obj
 0001:000243c0       ??0exception@std@@QAE@ABV01@@Z 100253c0 f i libvcruntime:frame.obj
 0001:000243f7       ??0exception@std@@QAE@QBDH@Z 100253f7 f i libvcruntime:frame.obj
 0001:0002441b       ??0iterator@HandlerMap@__FrameHandler3@@QAE@AAV12@I@Z 1002541b f i libvcruntime:frame.obj
 0001:00024434       ??1bad_exception@std@@UAE@XZ 10025434 f i libvcruntime:frame.obj
 0001:00024449       ??1exception@std@@UAE@XZ   10025449 f i libvcruntime:frame.obj
 0001:0002445e       ??8iterator@HandlerMap@__FrameHandler3@@QBE_NABV012@@Z 1002545e f i libvcruntime:frame.obj
 0001:00024475       ??8type_info@@QBE_NABV0@@Z 10025475 f i libvcruntime:frame.obj
 0001:0002449b       ??9iterator@HandlerMap@__FrameHandler3@@QBE_NABV012@@Z 1002549b f i libvcruntime:frame.obj
 0001:000244b2       ??Diterator@HandlerMap@__FrameHandler3@@QAEPBU_s_HandlerType@@XZ 100254b2 f i libvcruntime:frame.obj
 0001:000244c1       ??Diterator@TryBlockMap@__FrameHandler3@@QAEPBU_s_TryBlockMapEntry@@XZ 100254c1 f i libvcruntime:frame.obj
 0001:000244d0       ??Eiterator@HandlerMap@__FrameHandler3@@QAEAAV012@XZ 100254d0 f i libvcruntime:frame.obj
 0001:000244d6       ??Eiterator@TryBlockMap@__FrameHandler3@@QAEAAV012@XZ 100254d6 f i libvcruntime:frame.obj
 0001:000244dc       ??Miterator@TryBlockMap@__FrameHandler3@@QBE_NABV012@@Z 100254dc f i libvcruntime:frame.obj
 0001:000244f3       ??_Ebad_exception@std@@UAEPAXI@Z 100254f3 f i libvcruntime:frame.obj
 0001:000244f3       ??_Gbad_exception@std@@UAEPAXI@Z 100254f3 f i libvcruntime:frame.obj
 0001:0002452b       ??_Gexception@std@@UAEPAXI@Z 1002552b f i libvcruntime:frame.obj
 0001:0002452b       ??_Eexception@std@@UAEPAXI@Z 1002552b f i libvcruntime:frame.obj
 0001:00024563       ?BuildCatchObject@__FrameHandler3@@SAXPAUEHExceptionRecord@@PAXPBU_s_HandlerType@@PBU_s_CatchableType@@@Z 10025563 f   libvcruntime:frame.obj
 0001:00024568       ?BuildCatchObjectHelper@__FrameHandler3@@SAHPAUEHExceptionRecord@@PAXPBU_s_HandlerType@@PBU_s_CatchableType@@@Z 10025568 f   libvcruntime:frame.obj
 0001:0002484c       ?FrameUnwindToEmptyState@__FrameHandler3@@SAXPAUEHRegistrationNode@@PAXPBU_s_FuncInfo@@@Z 1002584c f   libvcruntime:frame.obj
 0001:0002486a       ?FrameUnwindToState@__FrameHandler3@@SAXPAUEHRegistrationNode@@PAXPBU_s_FuncInfo@@H@Z 1002586a f   libvcruntime:frame.obj
 0001:0002498c       ?GetMaxState@__FrameHandler3@@SAHPAXPBU_s_FuncInfo@@@Z 1002598c f i libvcruntime:frame.obj
 0001:00024aa0       ?TypeMatch@__FrameHandler3@@SAHPBU_s_HandlerType@@PBU_s_CatchableType@@PBU_s_ThrowInfo@@@Z 10025aa0 f   libvcruntime:frame.obj
 0001:00024aab       ?_CallMemberFunction1@@YGXQAX00@Z 10025aab f i libvcruntime:frame.obj
 0001:00024abf       ?_CallMemberFunction2@@YGXQAX00H@Z 10025abf f i libvcruntime:frame.obj
 0001:00024ad6       ?_ValidateExecute@@YA_NP6GHXZ@Z 10025ad6 f i libvcruntime:frame.obj
 0001:00024ae5       ?_ValidateRead@@YA_NPBXI@Z 10025ae5 f i libvcruntime:frame.obj
 0001:00024af4       ?_ValidateWrite@@YA_NPAXI@Z 10025af4 f i libvcruntime:frame.obj
 0001:00024b03       ?begin@HandlerMap@__FrameHandler3@@QAE?AViterator@12@XZ 10025b03 f i libvcruntime:frame.obj
 0001:00024b17       ?end@HandlerMap@__FrameHandler3@@QAE?AViterator@12@XZ 10025b17 f i libvcruntime:frame.obj
 0001:00024b2c       ?getESTypes@__FrameHandler3@@SAPBU_s_ESTypeList@@PBU_s_FuncInfo@@@Z 10025b2c f i libvcruntime:frame.obj
 0001:00024b39       ?getLastEntry@HandlerMap@__FrameHandler3@@QAEPBU_s_HandlerType@@XZ 10025b39 f i libvcruntime:frame.obj
 0001:00024b4a       ?getMagicNum@__FrameHandler3@@SAIPBU_s_FuncInfo@@@Z 10025b4a f i libvcruntime:frame.obj
 0001:00024b5c       ?getNumTryBlocks@TryBlockMap@__FrameHandler3@@QAEIXZ 10025b5c f i libvcruntime:frame.obj
 0001:00024b62       ?isEHs@__FrameHandler3@@SA_NPBU_s_FuncInfo@@@Z 10025b62 f i libvcruntime:frame.obj
 0001:00024b72       ?isNoExcept@__FrameHandler3@@SA_NPBU_s_FuncInfo@@@Z 10025b72 f i libvcruntime:frame.obj
 0001:00024b86       ?what@exception@std@@UBEPBDXZ 10025b86 f i libvcruntime:frame.obj
 0001:00024b96       ___BuildCatchObject        10025b96 f   libvcruntime:frame.obj
 0001:00024b9b       ___BuildCatchObjectHelper  10025b9b f   libvcruntime:frame.obj
 0001:00024ba6       ___TypeMatch               10025ba6 f   libvcruntime:frame.obj
 0001:00024bb1       ___vcrt_EncodePointer      10025bb1 f i libvcruntime:frame.obj
 0001:00024bd0       __CallSettingFrame@12      10025bd0 f   libvcruntime:lowhelpr.obj
 0001:00024bf7       __NLG_Return               10025bf7     libvcruntime:lowhelpr.obj
 0001:00024c48       __get_unexpected           10025c48 f   libvcruntime:unexpected.obj
 0001:00024c5e       _set_unexpected            10025c5e f   libvcruntime:unexpected.obj
 0001:00024c83       _unexpected                10025c83 f   libvcruntime:unexpected.obj
 0001:00024ca7       ?GetCurrentState@__FrameHandler3@@SAHPAUEHRegistrationNode@@PAXPBU_s_FuncInfo@@@Z 10025ca7 f   libvcruntime:ehstate.obj
 0001:00024ccb       ?SetState@__FrameHandler3@@SAXPAUEHRegistrationNode@@PBU_s_FuncInfo@@H@Z 10025ccb f   libvcruntime:ehstate.obj
 0001:00024cdc       ___DestructExceptionObject 10025cdc f   libvcruntime:ehhelpers.obj
 0001:00024da4       ?_CallMemberFunction0@@YGXQAX0@Z 10025da4 f i libvcruntime:ehhelpers.obj
 0001:00024db4       ?raw_name@type_info@@QBEPBDXZ 10025db4 f i libvcruntime:ehhelpers.obj
 0001:00024db8       __IsExceptionObjectToBeDestroyed 10025db8 f   libvcruntime:ehhelpers.obj
 0001:00024de7       __SetWinRTOutOfMemoryExceptionCallback 10025de7 f   libvcruntime:ehhelpers.obj
 0001:00024df7       ___AdjustPointer           10025df7 f   libvcruntime:ehhelpers.obj
 0001:00024e25       ___FrameUnwindFilter       10025e25 f   libvcruntime:ehhelpers.obj
 0001:00024e7b       ___GetPlatformExceptionInfo 10025e7b f   libvcruntime:ehhelpers.obj
 0001:00024eda       ___current_exception       10025eda f   libvcruntime:ehhelpers.obj
 0001:00024ee5       ___current_exception_context 10025ee5 f   libvcruntime:ehhelpers.obj
 0001:00024ef0       ___processing_throw        10025ef0 f   libvcruntime:ehhelpers.obj
 0001:00024efb       ___std_terminate           10025efb f   libvcruntime:ehhelpers.obj
 0001:00024f00       __is_exception_typeof      10025f00 f   libvcruntime:ehhelpers.obj
 0001:00024fcd       ??$?RD@__crt_public_free_policy@@QBEXQBD@Z 10025fcd f i libvcruntime:std_exception.obj
 0001:00024fe1       ??0?$__crt_unique_heap_ptr@DU__crt_public_free_policy@@@@QAE@QAD@Z 10025fe1 f i libvcruntime:std_exception.obj
 0001:00024ff2       ??1?$__crt_unique_heap_ptr@DU__crt_public_free_policy@@@@QAE@XZ 10025ff2 f i libvcruntime:std_exception.obj
 0001:00025006       ??B?$__crt_unique_heap_ptr@DU__crt_public_free_policy@@@@QBE_NXZ 10026006 f i libvcruntime:std_exception.obj
 0001:0002500d       ?detach@?$__crt_unique_heap_ptr@DU__crt_public_free_policy@@@@QAEPADXZ 1002600d f i libvcruntime:std_exception.obj
 0001:00025013       ?get@?$__crt_unique_heap_ptr@DU__crt_public_free_policy@@@@QBEPADXZ 10026013 f i libvcruntime:std_exception.obj
 0001:00025016       ?is_valid@?$__crt_unique_heap_ptr@DU__crt_public_free_policy@@@@QBE_NXZ 10026016 f i libvcruntime:std_exception.obj
 0001:0002501d       ?release@?$__crt_unique_heap_ptr@DU__crt_public_free_policy@@@@QAEXXZ 1002601d f i libvcruntime:std_exception.obj
 0001:00025031       ___std_exception_copy      10026031 f   libvcruntime:std_exception.obj
 0001:000250ac       ___std_exception_destroy   100260ac f   libvcruntime:std_exception.obj
 0001:000250d2       __CxxThrowException@8      100260d2 f   libvcruntime:throw.obj
 0001:0002515a       _malloc                    1002615a f   libucrt:malloc.obj
 0001:00025167       _free                      10026167 f   libucrt:free.obj
 0001:0002518b       ??$?RPAU__crt_stdio_stream_data@@@__crt_internal_free_policy@@QBEXQBQAU__crt_stdio_stream_data@@@Z 1002618b f i libucrt:_file.obj
 0001:000251a1       ??0?$__crt_unique_heap_ptr@PAU__crt_stdio_stream_data@@U__crt_internal_free_policy@@@@QAE@QAPAU__crt_stdio_stream_data@@@Z 100261a1 f i libucrt:_file.obj
 0001:000251b5       ??0__crt_stdio_stream@@QAE@QAU_iobuf@@@Z 100261b5 f i libucrt:_file.obj
 0001:000251c9       ??1?$__crt_unique_heap_ptr@PAU__crt_stdio_stream_data@@U__crt_internal_free_policy@@@@QAE@XZ 100261c9 f i libucrt:_file.obj
 0001:000251df       ??C__crt_stdio_stream@@QBEPAU__crt_stdio_stream_data@@XZ 100261df f i libucrt:_file.obj
 0001:000251e2       ?detach@?$__crt_unique_heap_ptr@PAU__crt_stdio_stream_data@@U__crt_internal_free_policy@@@@QAEPAPAU__crt_stdio_stream_data@@XZ 100261e2 f i libucrt:_file.obj
 0001:000251e8       ?release@?$__crt_unique_heap_ptr@PAU__crt_stdio_stream_data@@U__crt_internal_free_policy@@@@QAEXXZ 100261e8 f i libucrt:_file.obj
 0001:000251fe       ___acrt_initialize_stdio   100261fe f   libucrt:_file.obj
 0001:000252f8       ___acrt_iob_func           100262f8 f   libucrt:_file.obj
 0001:0002530c       ___acrt_uninitialize_stdio 1002630c f   libucrt:_file.obj
 0001:0002536b       __get_stream_buffer_pointers 1002636b f   libucrt:_file.obj
 0001:000253c2       __lock_file                100263c2 f   libucrt:_file.obj
 0001:000253db       __unlock_file              100263db f   libucrt:_file.obj
 0001:000253f4       ??$?0ABV?$stream_output_adapter@D@__crt_stdio_output@@AB_KABQBDABQAU__crt_locale_pointers@@ABQAD@?$format_validation_base@DV?$stream_output_adapter@D@__crt_stdio_output@@@__crt_stdio_output@@IAE@ABV?$stream_output_adapter@D@1@AB_KABQBDABQAU__crt_locale_pointers@@ABQAD@Z 100263f4 f i libucrt:output.obj
 0001:0002541f       ??$?0ABV?$stream_output_adapter@D@__crt_stdio_output@@AB_KABQBDABQAU__crt_locale_pointers@@ABQAD@?$positional_parameter_base@DV?$stream_output_adapter@D@__crt_stdio_output@@@__crt_stdio_output@@IAE@ABV?$stream_output_adapter@D@1@AB_KABQBDABQAU__crt_locale_pointers@@ABQAD@Z 1002641f f i libucrt:output.obj
 0001:00025479       ??$?0ABV?$stream_output_adapter@D@__crt_stdio_output@@AB_KABQBDABQAU__crt_locale_pointers@@ABQAD@?$standard_base@DV?$stream_output_adapter@D@__crt_stdio_output@@@__crt_stdio_output@@IAE@ABV?$stream_output_adapter@D@1@AB_KABQBDABQAU__crt_locale_pointers@@ABQAD@Z 10026479 f i libucrt:output.obj
 0001:000254bb       ??$?0ABV?$stream_output_adapter@_W@__crt_stdio_output@@AB_KABQB_WABQAU__crt_locale_pointers@@ABQAD@?$format_validation_base@_WV?$stream_output_adapter@_W@__crt_stdio_output@@@__crt_stdio_output@@IAE@ABV?$stream_output_adapter@_W@1@AB_KABQB_WABQAU__crt_locale_pointers@@ABQAD@Z 100264bb f i libucrt:output.obj
 0001:000254e6       ??$?0ABV?$stream_output_adapter@_W@__crt_stdio_output@@AB_KABQB_WABQAU__crt_locale_pointers@@ABQAD@?$positional_parameter_base@_WV?$stream_output_adapter@_W@__crt_stdio_output@@@__crt_stdio_output@@IAE@ABV?$stream_output_adapter@_W@1@AB_KABQB_WABQAU__crt_locale_pointers@@ABQAD@Z 100264e6 f i libucrt:output.obj
 0001:00025540       ??$?0ABV?$stream_output_adapter@_W@__crt_stdio_output@@AB_KABQB_WABQAU__crt_locale_pointers@@ABQAD@?$standard_base@_WV?$stream_output_adapter@_W@__crt_stdio_output@@@__crt_stdio_output@@IAE@ABV?$stream_output_adapter@_W@1@AB_KABQB_WABQAU__crt_locale_pointers@@ABQAD@Z 10026540 f i libucrt:output.obj
 0001:00025582       ??$?0ABV?$string_output_adapter@D@__crt_stdio_output@@AB_KABQBDABQAU__crt_locale_pointers@@ABQAD@?$format_validation_base@DV?$string_output_adapter@D@__crt_stdio_output@@@__crt_stdio_output@@IAE@ABV?$string_output_adapter@D@1@AB_KABQBDABQAU__crt_locale_pointers@@ABQAD@Z 10026582 f i libucrt:output.obj
 0001:000255ad       ??$?0ABV?$string_output_adapter@D@__crt_stdio_output@@AB_KABQBDABQAU__crt_locale_pointers@@ABQAD@?$positional_parameter_base@DV?$string_output_adapter@D@__crt_stdio_output@@@__crt_stdio_output@@IAE@ABV?$string_output_adapter@D@1@AB_KABQBDABQAU__crt_locale_pointers@@ABQAD@Z 100265ad f i libucrt:output.obj
 0001:00025607       ??$?0ABV?$string_output_adapter@D@__crt_stdio_output@@AB_KABQBDABQAU__crt_locale_pointers@@ABQAD@?$standard_base@DV?$string_output_adapter@D@__crt_stdio_output@@@__crt_stdio_output@@IAE@ABV?$string_output_adapter@D@1@AB_KABQBDABQAU__crt_locale_pointers@@ABQAD@Z 10026607 f i libucrt:output.obj
 0001:00025649       ??$?0ABV?$string_output_adapter@_W@__crt_stdio_output@@AB_KABQB_WABQAU__crt_locale_pointers@@ABQAD@?$format_validation_base@_WV?$string_output_adapter@_W@__crt_stdio_output@@@__crt_stdio_output@@IAE@ABV?$string_output_adapter@_W@1@AB_KABQB_WABQAU__crt_locale_pointers@@ABQAD@Z 10026649 f i libucrt:output.obj
 0001:00025674       ??$?0ABV?$string_output_adapter@_W@__crt_stdio_output@@AB_KABQB_WABQAU__crt_locale_pointers@@ABQAD@?$positional_parameter_base@_WV?$string_output_adapter@_W@__crt_stdio_output@@@__crt_stdio_output@@IAE@ABV?$string_output_adapter@_W@1@AB_KABQB_WABQAU__crt_locale_pointers@@ABQAD@Z 10026674 f i libucrt:output.obj
 0001:000256ce       ??$?0ABV?$string_output_adapter@_W@__crt_stdio_output@@AB_KABQB_WABQAU__crt_locale_pointers@@ABQAD@?$standard_base@_WV?$string_output_adapter@_W@__crt_stdio_output@@@__crt_stdio_output@@IAE@ABV?$string_output_adapter@_W@1@AB_KABQB_WABQAU__crt_locale_pointers@@ABQAD@Z 100266ce f i libucrt:output.obj
 0001:00025a9a       ??$__crt_interlocked_read@J@@YAJPDJ@Z 10026a9a f i libucrt:output.obj
 0001:00026d03       ??$count@D@formatting_buffer@__crt_stdio_output@@QBEIXZ 10027d03 f i libucrt:output.obj
 0001:00026d21       ??$count@_W@formatting_buffer@__crt_stdio_output@@QBEIXZ 10027d21 f i libucrt:output.obj
 0001:00026d40       ??$data@D@formatting_buffer@__crt_stdio_output@@QAEPADXZ 10027d40 f i libucrt:output.obj
 0001:00026d50       ??$data@_W@formatting_buffer@__crt_stdio_output@@QAEPA_WXZ 10027d50 f i libucrt:output.obj
 0001:00026d60       ??$ensure_buffer_is_big_enough@D@formatting_buffer@__crt_stdio_output@@QAE_NI@Z 10027d60 f i libucrt:output.obj
 0001:00026dfe       ??$ensure_buffer_is_big_enough@_W@formatting_buffer@__crt_stdio_output@@QAE_NI@Z 10027dfe f i libucrt:output.obj
 0001:00026e9e       ??$extract_argument_from_va_list@C_J@?$positional_parameter_base@DV?$stream_output_adapter@D@__crt_stdio_output@@@__crt_stdio_output@@IAE_NAA_J@Z 10027e9e f i libucrt:output.obj
 0001:00026f35       ??$extract_argument_from_va_list@C_J@?$positional_parameter_base@DV?$string_output_adapter@D@__crt_stdio_output@@@__crt_stdio_output@@IAE_NAA_J@Z 10027f35 f i libucrt:output.obj
 0001:00026fcc       ??$extract_argument_from_va_list@C_J@?$positional_parameter_base@_WV?$stream_output_adapter@_W@__crt_stdio_output@@@__crt_stdio_output@@IAE_NAA_J@Z 10027fcc f i libucrt:output.obj
 0001:00027063       ??$extract_argument_from_va_list@C_J@?$positional_parameter_base@_WV?$string_output_adapter@_W@__crt_stdio_output@@@__crt_stdio_output@@IAE_NAA_J@Z 10028063 f i libucrt:output.obj
 0001:000270fa       ??$extract_argument_from_va_list@C_J@?$standard_base@DV?$stream_output_adapter@D@__crt_stdio_output@@@__crt_stdio_output@@IAE_NAA_J@Z 100280fa f i libucrt:output.obj
 0001:00027120       ??$extract_argument_from_va_list@C_J@?$standard_base@DV?$string_output_adapter@D@__crt_stdio_output@@@__crt_stdio_output@@IAE_NAA_J@Z 10028120 f i libucrt:output.obj
 0001:00027146       ??$extract_argument_from_va_list@C_J@?$standard_base@_WV?$stream_output_adapter@_W@__crt_stdio_output@@@__crt_stdio_output@@IAE_NAA_J@Z 10028146 f i libucrt:output.obj
 0001:0002716c       ??$extract_argument_from_va_list@C_J@?$standard_base@_WV?$string_output_adapter@_W@__crt_stdio_output@@@__crt_stdio_output@@IAE_NAA_J@Z 1002816c f i libucrt:output.obj
 0001:00027192       ??$extract_argument_from_va_list@E_J@?$positional_parameter_base@DV?$stream_output_adapter@D@__crt_stdio_output@@@__crt_stdio_output@@IAE_NAA_J@Z 10028192 f i libucrt:output.obj
 0001:00027229       ??$extract_argument_from_va_list@E_J@?$positional_parameter_base@DV?$string_output_adapter@D@__crt_stdio_output@@@__crt_stdio_output@@IAE_NAA_J@Z 10028229 f i libucrt:output.obj
 0001:000272c0       ??$extract_argument_from_va_list@E_J@?$positional_parameter_base@_WV?$stream_output_adapter@_W@__crt_stdio_output@@@__crt_stdio_output@@IAE_NAA_J@Z 100282c0 f i libucrt:output.obj
 0001:00027357       ??$extract_argument_from_va_list@E_J@?$positional_parameter_base@_WV?$string_output_adapter@_W@__crt_stdio_output@@@__crt_stdio_output@@IAE_NAA_J@Z 10028357 f i libucrt:output.obj
 0001:000273ee       ??$extract_argument_from_va_list@E_J@?$standard_base@DV?$stream_output_adapter@D@__crt_stdio_output@@@__crt_stdio_output@@IAE_NAA_J@Z 100283ee f i libucrt:output.obj
 0001:00027414       ??$extract_argument_from_va_list@E_J@?$standard_base@DV?$string_output_adapter@D@__crt_stdio_output@@@__crt_stdio_output@@IAE_NAA_J@Z 10028414 f i libucrt:output.obj
 0001:0002743a       ??$extract_argument_from_va_list@E_J@?$standard_base@_WV?$stream_output_adapter@_W@__crt_stdio_output@@@__crt_stdio_output@@IAE_NAA_J@Z 1002843a f i libucrt:output.obj
 0001:00027460       ??$extract_argument_from_va_list@E_J@?$standard_base@_WV?$string_output_adapter@_W@__crt_stdio_output@@@__crt_stdio_output@@IAE_NAA_J@Z 10028460 f i libucrt:output.obj
 0001:00027486       ??$extract_argument_from_va_list@F_J@?$positional_parameter_base@DV?$stream_output_adapter@D@__crt_stdio_output@@@__crt_stdio_output@@IAE_NAA_J@Z 10028486 f i libucrt:output.obj
 0001:0002751d       ??$extract_argument_from_va_list@F_J@?$positional_parameter_base@DV?$string_output_adapter@D@__crt_stdio_output@@@__crt_stdio_output@@IAE_NAA_J@Z 1002851d f i libucrt:output.obj
 0001:000275b4       ??$extract_argument_from_va_list@F_J@?$positional_parameter_base@_WV?$stream_output_adapter@_W@__crt_stdio_output@@@__crt_stdio_output@@IAE_NAA_J@Z 100285b4 f i libucrt:output.obj
 0001:0002764b       ??$extract_argument_from_va_list@F_J@?$positional_parameter_base@_WV?$string_output_adapter@_W@__crt_stdio_output@@@__crt_stdio_output@@IAE_NAA_J@Z 1002864b f i libucrt:output.obj
 0001:000276e2       ??$extract_argument_from_va_list@F_J@?$standard_base@DV?$stream_output_adapter@D@__crt_stdio_output@@@__crt_stdio_output@@IAE_NAA_J@Z 100286e2 f i libucrt:output.obj
 0001:00027708       ??$extract_argument_from_va_list@F_J@?$standard_base@DV?$string_output_adapter@D@__crt_stdio_output@@@__crt_stdio_output@@IAE_NAA_J@Z 10028708 f i libucrt:output.obj
 0001:0002772e       ??$extract_argument_from_va_list@F_J@?$standard_base@_WV?$stream_output_adapter@_W@__crt_stdio_output@@@__crt_stdio_output@@IAE_NAA_J@Z 1002872e f i libucrt:output.obj
 0001:00027754       ??$extract_argument_from_va_list@F_J@?$standard_base@_WV?$string_output_adapter@_W@__crt_stdio_output@@@__crt_stdio_output@@IAE_NAA_J@Z 10028754 f i libucrt:output.obj
 0001:0002777a       ??$extract_argument_from_va_list@GD@?$positional_parameter_base@DV?$stream_output_adapter@D@__crt_stdio_output@@@__crt_stdio_output@@IAE_NAAD@Z 1002877a f i libucrt:output.obj
 0001:00027810       ??$extract_argument_from_va_list@GD@?$positional_parameter_base@DV?$string_output_adapter@D@__crt_stdio_output@@@__crt_stdio_output@@IAE_NAAD@Z 10028810 f i libucrt:output.obj
 0001:000278a6       ??$extract_argument_from_va_list@GD@?$standard_base@DV?$stream_output_adapter@D@__crt_stdio_output@@@__crt_stdio_output@@IAE_NAAD@Z 100288a6 f i libucrt:output.obj
 0001:000278c6       ??$extract_argument_from_va_list@GD@?$standard_base@DV?$string_output_adapter@D@__crt_stdio_output@@@__crt_stdio_output@@IAE_NAAD@Z 100288c6 f i libucrt:output.obj
 0001:000278e6       ??$extract_argument_from_va_list@G_J@?$positional_parameter_base@DV?$stream_output_adapter@D@__crt_stdio_output@@@__crt_stdio_output@@IAE_NAA_J@Z 100288e6 f i libucrt:output.obj
 0001:0002797d       ??$extract_argument_from_va_list@G_J@?$positional_parameter_base@DV?$string_output_adapter@D@__crt_stdio_output@@@__crt_stdio_output@@IAE_NAA_J@Z 1002897d f i libucrt:output.obj
 0001:00027a14       ??$extract_argument_from_va_list@G_J@?$positional_parameter_base@_WV?$stream_output_adapter@_W@__crt_stdio_output@@@__crt_stdio_output@@IAE_NAA_J@Z 10028a14 f i libucrt:output.obj
 0001:00027aab       ??$extract_argument_from_va_list@G_J@?$positional_parameter_base@_WV?$string_output_adapter@_W@__crt_stdio_output@@@__crt_stdio_output@@IAE_NAA_J@Z 10028aab f i libucrt:output.obj
 0001:00027b42       ??$extract_argument_from_va_list@G_J@?$standard_base@DV?$stream_output_adapter@D@__crt_stdio_output@@@__crt_stdio_output@@IAE_NAA_J@Z 10028b42 f i libucrt:output.obj
 0001:00027b68       ??$extract_argument_from_va_list@G_J@?$standard_base@DV?$string_output_adapter@D@__crt_stdio_output@@@__crt_stdio_output@@IAE_NAA_J@Z 10028b68 f i libucrt:output.obj
 0001:00027b8e       ??$extract_argument_from_va_list@G_J@?$standard_base@_WV?$stream_output_adapter@_W@__crt_stdio_output@@@__crt_stdio_output@@IAE_NAA_J@Z 10028b8e f i libucrt:output.obj
 0001:00027bb4       ??$extract_argument_from_va_list@G_J@?$standard_base@_WV?$string_output_adapter@_W@__crt_stdio_output@@@__crt_stdio_output@@IAE_NAA_J@Z 10028bb4 f i libucrt:output.obj
 0001:00027bda       ??$extract_argument_from_va_list@H_J@?$positional_parameter_base@DV?$stream_output_adapter@D@__crt_stdio_output@@@__crt_stdio_output@@IAE_NAA_J@Z 10028bda f i libucrt:output.obj
 0001:00027c6e       ??$extract_argument_from_va_list@H_J@?$positional_parameter_base@DV?$string_output_adapter@D@__crt_stdio_output@@@__crt_stdio_output@@IAE_NAA_J@Z 10028c6e f i libucrt:output.obj
 0001:00027d02       ??$extract_argument_from_va_list@H_J@?$positional_parameter_base@_WV?$stream_output_adapter@_W@__crt_stdio_output@@@__crt_stdio_output@@IAE_NAA_J@Z 10028d02 f i libucrt:output.obj
 0001:00027d96       ??$extract_argument_from_va_list@H_J@?$positional_parameter_base@_WV?$string_output_adapter@_W@__crt_stdio_output@@@__crt_stdio_output@@IAE_NAA_J@Z 10028d96 f i libucrt:output.obj
 0001:00027e2a       ??$extract_argument_from_va_list@H_J@?$standard_base@DV?$stream_output_adapter@D@__crt_stdio_output@@@__crt_stdio_output@@IAE_NAA_J@Z 10028e2a f i libucrt:output.obj
 0001:00027e4f       ??$extract_argument_from_va_list@H_J@?$standard_base@DV?$string_output_adapter@D@__crt_stdio_output@@@__crt_stdio_output@@IAE_NAA_J@Z 10028e4f f i libucrt:output.obj
 0001:00027e74       ??$extract_argument_from_va_list@H_J@?$standard_base@_WV?$stream_output_adapter@_W@__crt_stdio_output@@@__crt_stdio_output@@IAE_NAA_J@Z 10028e74 f i libucrt:output.obj
 0001:00027e99       ??$extract_argument_from_va_list@H_J@?$standard_base@_WV?$string_output_adapter@_W@__crt_stdio_output@@@__crt_stdio_output@@IAE_NAA_J@Z 10028e99 f i libucrt:output.obj
 0001:00027ebe       ??$extract_argument_from_va_list@I_J@?$positional_parameter_base@DV?$stream_output_adapter@D@__crt_stdio_output@@@__crt_stdio_output@@IAE_NAA_J@Z 10028ebe f i libucrt:output.obj
 0001:00027f5e       ??$extract_argument_from_va_list@I_J@?$positional_parameter_base@DV?$string_output_adapter@D@__crt_stdio_output@@@__crt_stdio_output@@IAE_NAA_J@Z 10028f5e f i libucrt:output.obj
 0001:00027ffe       ??$extract_argument_from_va_list@I_J@?$positional_parameter_base@_WV?$stream_output_adapter@_W@__crt_stdio_output@@@__crt_stdio_output@@IAE_NAA_J@Z 10028ffe f i libucrt:output.obj
 0001:0002809e       ??$extract_argument_from_va_list@I_J@?$positional_parameter_base@_WV?$string_output_adapter@_W@__crt_stdio_output@@@__crt_stdio_output@@IAE_NAA_J@Z 1002909e f i libucrt:output.obj
 0001:0002813e       ??$extract_argument_from_va_list@I_J@?$standard_base@DV?$stream_output_adapter@D@__crt_stdio_output@@@__crt_stdio_output@@IAE_NAA_J@Z 1002913e f i libucrt:output.obj
 0001:00028163       ??$extract_argument_from_va_list@I_J@?$standard_base@DV?$string_output_adapter@D@__crt_stdio_output@@@__crt_stdio_output@@IAE_NAA_J@Z 10029163 f i libucrt:output.obj
 0001:00028188       ??$extract_argument_from_va_list@I_J@?$standard_base@_WV?$stream_output_adapter@_W@__crt_stdio_output@@@__crt_stdio_output@@IAE_NAA_J@Z 10029188 f i libucrt:output.obj
 0001:000281ad       ??$extract_argument_from_va_list@I_J@?$standard_base@_WV?$string_output_adapter@_W@__crt_stdio_output@@@__crt_stdio_output@@IAE_NAA_J@Z 100291ad f i libucrt:output.obj
 0001:000281d2       ??$extract_argument_from_va_list@PADPAD@?$positional_parameter_base@DV?$stream_output_adapter@D@__crt_stdio_output@@@__crt_stdio_output@@IAE_NAAPAD@Z 100291d2 f i libucrt:output.obj
 0001:00028268       ??$extract_argument_from_va_list@PADPAD@?$positional_parameter_base@DV?$string_output_adapter@D@__crt_stdio_output@@@__crt_stdio_output@@IAE_NAAPAD@Z 10029268 f i libucrt:output.obj
 0001:000282fe       ??$extract_argument_from_va_list@PADPAD@?$positional_parameter_base@_WV?$stream_output_adapter@_W@__crt_stdio_output@@@__crt_stdio_output@@IAE_NAAPAD@Z 100292fe f i libucrt:output.obj
 0001:00028394       ??$extract_argument_from_va_list@PADPAD@?$positional_parameter_base@_WV?$string_output_adapter@_W@__crt_stdio_output@@@__crt_stdio_output@@IAE_NAAPAD@Z 10029394 f i libucrt:output.obj
 0001:0002842a       ??$extract_argument_from_va_list@PADPAD@?$standard_base@DV?$stream_output_adapter@D@__crt_stdio_output@@@__crt_stdio_output@@IAE_NAAPAD@Z 1002942a f i libucrt:output.obj
 0001:0002844a       ??$extract_argument_from_va_list@PADPAD@?$standard_base@DV?$string_output_adapter@D@__crt_stdio_output@@@__crt_stdio_output@@IAE_NAAPAD@Z 1002944a f i libucrt:output.obj
 0001:0002846a       ??$extract_argument_from_va_list@PADPAD@?$standard_base@_WV?$stream_output_adapter@_W@__crt_stdio_output@@@__crt_stdio_output@@IAE_NAAPAD@Z 1002946a f i libucrt:output.obj
 0001:0002848a       ??$extract_argument_from_va_list@PADPAD@?$standard_base@_WV?$string_output_adapter@_W@__crt_stdio_output@@@__crt_stdio_output@@IAE_NAAPAD@Z 1002948a f i libucrt:output.obj
 0001:00028882       ??$extract_argument_from_va_list@PAXPAX@?$positional_parameter_base@DV?$stream_output_adapter@D@__crt_stdio_output@@@__crt_stdio_output@@IAE_NAAPAX@Z 10029882 f i libucrt:output.obj
 0001:00028918       ??$extract_argument_from_va_list@PAXPAX@?$positional_parameter_base@DV?$string_output_adapter@D@__crt_stdio_output@@@__crt_stdio_output@@IAE_NAAPAX@Z 10029918 f i libucrt:output.obj
 0001:000289ae       ??$extract_argument_from_va_list@PAXPAX@?$positional_parameter_base@_WV?$stream_output_adapter@_W@__crt_stdio_output@@@__crt_stdio_output@@IAE_NAAPAX@Z 100299ae f i libucrt:output.obj
 0001:00028a44       ??$extract_argument_from_va_list@PAXPAX@?$positional_parameter_base@_WV?$string_output_adapter@_W@__crt_stdio_output@@@__crt_stdio_output@@IAE_NAAPAX@Z 10029a44 f i libucrt:output.obj
 0001:00028ada       ??$extract_argument_from_va_list@PAXPAX@?$standard_base@DV?$stream_output_adapter@D@__crt_stdio_output@@@__crt_stdio_output@@IAE_NAAPAX@Z 10029ada f i libucrt:output.obj
 0001:00028afa       ??$extract_argument_from_va_list@PAXPAX@?$standard_base@DV?$string_output_adapter@D@__crt_stdio_output@@@__crt_stdio_output@@IAE_NAAPAX@Z 10029afa f i libucrt:output.obj
 0001:00028b1a       ??$extract_argument_from_va_list@PAXPAX@?$standard_base@_WV?$stream_output_adapter@_W@__crt_stdio_output@@@__crt_stdio_output@@IAE_NAAPAX@Z 10029b1a f i libucrt:output.obj
 0001:00028b3a       ??$extract_argument_from_va_list@PAXPAX@?$standard_base@_WV?$string_output_adapter@_W@__crt_stdio_output@@@__crt_stdio_output@@IAE_NAAPAX@Z 10029b3a f i libucrt:output.obj
 0001:00028b5a       ??$extract_argument_from_va_list@U_CRT_DOUBLE@@U1@@?$positional_parameter_base@DV?$stream_output_adapter@D@__crt_stdio_output@@@__crt_stdio_output@@IAE_NAAU_CRT_DOUBLE@@@Z 10029b5a f i libucrt:output.obj
 0001:00028c01       ??$extract_argument_from_va_list@U_CRT_DOUBLE@@U1@@?$positional_parameter_base@DV?$string_output_adapter@D@__crt_stdio_output@@@__crt_stdio_output@@IAE_NAAU_CRT_DOUBLE@@@Z 10029c01 f i libucrt:output.obj
 0001:00028ca8       ??$extract_argument_from_va_list@U_CRT_DOUBLE@@U1@@?$positional_parameter_base@_WV?$stream_output_adapter@_W@__crt_stdio_output@@@__crt_stdio_output@@IAE_NAAU_CRT_DOUBLE@@@Z 10029ca8 f i libucrt:output.obj
 0001:00028d4f       ??$extract_argument_from_va_list@U_CRT_DOUBLE@@U1@@?$positional_parameter_base@_WV?$string_output_adapter@_W@__crt_stdio_output@@@__crt_stdio_output@@IAE_NAAU_CRT_DOUBLE@@@Z 10029d4f f i libucrt:output.obj
 0001:00028df6       ??$extract_argument_from_va_list@U_CRT_DOUBLE@@U1@@?$standard_base@DV?$stream_output_adapter@D@__crt_stdio_output@@@__crt_stdio_output@@IAE_NAAU_CRT_DOUBLE@@@Z 10029df6 f i libucrt:output.obj
 0001:00028e1e       ??$extract_argument_from_va_list@U_CRT_DOUBLE@@U1@@?$standard_base@DV?$string_output_adapter@D@__crt_stdio_output@@@__crt_stdio_output@@IAE_NAAU_CRT_DOUBLE@@@Z 10029e1e f i libucrt:output.obj
 0001:00028e46       ??$extract_argument_from_va_list@U_CRT_DOUBLE@@U1@@?$standard_base@_WV?$stream_output_adapter@_W@__crt_stdio_output@@@__crt_stdio_output@@IAE_NAAU_CRT_DOUBLE@@@Z 10029e46 f i libucrt:output.obj
 0001:00028e6e       ??$extract_argument_from_va_list@U_CRT_DOUBLE@@U1@@?$standard_base@_WV?$string_output_adapter@_W@__crt_stdio_output@@@__crt_stdio_output@@IAE_NAAU_CRT_DOUBLE@@@Z 10029e6e f i libucrt:output.obj
 0001:00028e96       ??$extract_argument_from_va_list@_J_J@?$positional_parameter_base@DV?$stream_output_adapter@D@__crt_stdio_output@@@__crt_stdio_output@@IAE_NAA_J@Z 10029e96 f i libucrt:output.obj
 0001:00028f3d       ??$extract_argument_from_va_list@_J_J@?$positional_parameter_base@DV?$string_output_adapter@D@__crt_stdio_output@@@__crt_stdio_output@@IAE_NAA_J@Z 10029f3d f i libucrt:output.obj
 0001:00028fe4       ??$extract_argument_from_va_list@_J_J@?$positional_parameter_base@_WV?$stream_output_adapter@_W@__crt_stdio_output@@@__crt_stdio_output@@IAE_NAA_J@Z 10029fe4 f i libucrt:output.obj
 0001:0002908b       ??$extract_argument_from_va_list@_J_J@?$positional_parameter_base@_WV?$string_output_adapter@_W@__crt_stdio_output@@@__crt_stdio_output@@IAE_NAA_J@Z 1002a08b f i libucrt:output.obj
 0001:00029132       ??$extract_argument_from_va_list@_J_J@?$standard_base@DV?$stream_output_adapter@D@__crt_stdio_output@@@__crt_stdio_output@@IAE_NAA_J@Z 1002a132 f i libucrt:output.obj
 0001:0002915a       ??$extract_argument_from_va_list@_J_J@?$standard_base@DV?$string_output_adapter@D@__crt_stdio_output@@@__crt_stdio_output@@IAE_NAA_J@Z 1002a15a f i libucrt:output.obj
 0001:00029182       ??$extract_argument_from_va_list@_J_J@?$standard_base@_WV?$stream_output_adapter@_W@__crt_stdio_output@@@__crt_stdio_output@@IAE_NAA_J@Z 1002a182 f i libucrt:output.obj
 0001:000291aa       ??$extract_argument_from_va_list@_J_J@?$standard_base@_WV?$string_output_adapter@_W@__crt_stdio_output@@@__crt_stdio_output@@IAE_NAA_J@Z 1002a1aa f i libucrt:output.obj
 0001:000291d2       ??$extract_argument_from_va_list@_K_J@?$positional_parameter_base@DV?$stream_output_adapter@D@__crt_stdio_output@@@__crt_stdio_output@@IAE_NAA_J@Z 1002a1d2 f i libucrt:output.obj
 0001:00029279       ??$extract_argument_from_va_list@_K_J@?$positional_parameter_base@DV?$string_output_adapter@D@__crt_stdio_output@@@__crt_stdio_output@@IAE_NAA_J@Z 1002a279 f i libucrt:output.obj
 0001:00029320       ??$extract_argument_from_va_list@_K_J@?$positional_parameter_base@_WV?$stream_output_adapter@_W@__crt_stdio_output@@@__crt_stdio_output@@IAE_NAA_J@Z 1002a320 f i libucrt:output.obj
 0001:000293c7       ??$extract_argument_from_va_list@_K_J@?$positional_parameter_base@_WV?$string_output_adapter@_W@__crt_stdio_output@@@__crt_stdio_output@@IAE_NAA_J@Z 1002a3c7 f i libucrt:output.obj
 0001:0002946e       ??$extract_argument_from_va_list@_K_J@?$standard_base@DV?$stream_output_adapter@D@__crt_stdio_output@@@__crt_stdio_output@@IAE_NAA_J@Z 1002a46e f i libucrt:output.obj
 0001:00029496       ??$extract_argument_from_va_list@_K_J@?$standard_base@DV?$string_output_adapter@D@__crt_stdio_output@@@__crt_stdio_output@@IAE_NAA_J@Z 1002a496 f i libucrt:output.obj
 0001:000294be       ??$extract_argument_from_va_list@_K_J@?$standard_base@_WV?$stream_output_adapter@_W@__crt_stdio_output@@@__crt_stdio_output@@IAE_NAA_J@Z 1002a4be f i libucrt:output.obj
 0001:000294e6       ??$extract_argument_from_va_list@_K_J@?$standard_base@_WV?$string_output_adapter@_W@__crt_stdio_output@@@__crt_stdio_output@@IAE_NAA_J@Z 1002a4e6 f i libucrt:output.obj
 0001:0002950e       ??$extract_argument_from_va_list@_W_W@?$positional_parameter_base@DV?$stream_output_adapter@D@__crt_stdio_output@@@__crt_stdio_output@@IAE_NAA_W@Z 1002a50e f i libucrt:output.obj
 0001:000295a9       ??$extract_argument_from_va_list@_W_W@?$positional_parameter_base@DV?$string_output_adapter@D@__crt_stdio_output@@@__crt_stdio_output@@IAE_NAA_W@Z 1002a5a9 f i libucrt:output.obj
 0001:00029644       ??$extract_argument_from_va_list@_W_W@?$positional_parameter_base@_WV?$stream_output_adapter@_W@__crt_stdio_output@@@__crt_stdio_output@@IAE_NAA_W@Z 1002a644 f i libucrt:output.obj
 0001:000296df       ??$extract_argument_from_va_list@_W_W@?$positional_parameter_base@_WV?$string_output_adapter@_W@__crt_stdio_output@@@__crt_stdio_output@@IAE_NAA_W@Z 1002a6df f i libucrt:output.obj
 0001:0002977a       ??$extract_argument_from_va_list@_W_W@?$standard_base@DV?$stream_output_adapter@D@__crt_stdio_output@@@__crt_stdio_output@@IAE_NAA_W@Z 1002a77a f i libucrt:output.obj
 0001:0002979d       ??$extract_argument_from_va_list@_W_W@?$standard_base@DV?$string_output_adapter@D@__crt_stdio_output@@@__crt_stdio_output@@IAE_NAA_W@Z 1002a79d f i libucrt:output.obj
 0001:000297c0       ??$extract_argument_from_va_list@_W_W@?$standard_base@_WV?$stream_output_adapter@_W@__crt_stdio_output@@@__crt_stdio_output@@IAE_NAA_W@Z 1002a7c0 f i libucrt:output.obj
 0001:000297e3       ??$extract_argument_from_va_list@_W_W@?$standard_base@_WV?$string_output_adapter@_W@__crt_stdio_output@@@__crt_stdio_output@@IAE_NAA_W@Z 1002a7e3 f i libucrt:output.obj
 0001:00029806       ??$get_parameter_type@D@?$positional_parameter_base@DV?$stream_output_adapter@D@__crt_stdio_output@@@__crt_stdio_output@@CA?AW4parameter_type@01@PAD@Z 1002a806 f i libucrt:output.obj
 0001:0002980a       ??$get_parameter_type@D@?$positional_parameter_base@DV?$string_output_adapter@D@__crt_stdio_output@@@__crt_stdio_output@@CA?AW4parameter_type@01@PAD@Z 1002a80a f i libucrt:output.obj
 0001:0002980e       ??$get_parameter_type@D@?$positional_parameter_base@_WV?$stream_output_adapter@_W@__crt_stdio_output@@@__crt_stdio_output@@CA?AW4parameter_type@01@PAD@Z 1002a80e f i libucrt:output.obj
 0001:00029812       ??$get_parameter_type@D@?$positional_parameter_base@_WV?$string_output_adapter@_W@__crt_stdio_output@@@__crt_stdio_output@@CA?AW4parameter_type@01@PAD@Z 1002a812 f i libucrt:output.obj
 0001:00029826       ??$get_parameter_type@X@?$positional_parameter_base@DV?$stream_output_adapter@D@__crt_stdio_output@@@__crt_stdio_output@@CA?AW4parameter_type@01@PAX@Z 1002a826 f i libucrt:output.obj
 0001:0002982a       ??$get_parameter_type@X@?$positional_parameter_base@DV?$string_output_adapter@D@__crt_stdio_output@@@__crt_stdio_output@@CA?AW4parameter_type@01@PAX@Z 1002a82a f i libucrt:output.obj
 0001:0002982e       ??$get_parameter_type@X@?$positional_parameter_base@_WV?$stream_output_adapter@_W@__crt_stdio_output@@@__crt_stdio_output@@CA?AW4parameter_type@01@PAX@Z 1002a82e f i libucrt:output.obj
 0001:00029832       ??$get_parameter_type@X@?$positional_parameter_base@_WV?$string_output_adapter@_W@__crt_stdio_output@@@__crt_stdio_output@@CA?AW4parameter_type@01@PAX@Z 1002a832 f i libucrt:output.obj
 0001:00029836       ??$is_character_specifier@D@?$positional_parameter_base@DV?$stream_output_adapter@D@__crt_stdio_output@@@__crt_stdio_output@@CA_ND@Z 1002a836 f i libucrt:output.obj
 0001:00029854       ??$is_character_specifier@D@?$positional_parameter_base@DV?$string_output_adapter@D@__crt_stdio_output@@@__crt_stdio_output@@CA_ND@Z 1002a854 f i libucrt:output.obj
 0001:00029872       ??$is_character_specifier@_W@?$positional_parameter_base@_WV?$stream_output_adapter@_W@__crt_stdio_output@@@__crt_stdio_output@@CA_N_W@Z 1002a872 f i libucrt:output.obj
 0001:00029893       ??$is_character_specifier@_W@?$positional_parameter_base@_WV?$string_output_adapter@_W@__crt_stdio_output@@@__crt_stdio_output@@CA_N_W@Z 1002a893 f i libucrt:output.obj
 0001:000298b4       ??$is_integral_specifier@D@?$positional_parameter_base@DV?$stream_output_adapter@D@__crt_stdio_output@@@__crt_stdio_output@@CA_ND@Z 1002a8b4 f i libucrt:output.obj
 0001:000298eb       ??$is_integral_specifier@D@?$positional_parameter_base@DV?$string_output_adapter@D@__crt_stdio_output@@@__crt_stdio_output@@CA_ND@Z 1002a8eb f i libucrt:output.obj
 0001:00029922       ??$is_integral_specifier@_W@?$positional_parameter_base@_WV?$stream_output_adapter@_W@__crt_stdio_output@@@__crt_stdio_output@@CA_N_W@Z 1002a922 f i libucrt:output.obj
 0001:0002996b       ??$is_integral_specifier@_W@?$positional_parameter_base@_WV?$string_output_adapter@_W@__crt_stdio_output@@@__crt_stdio_output@@CA_N_W@Z 1002a96b f i libucrt:output.obj
 0001:000299b4       ??$is_pointer_specifier@D@?$positional_parameter_base@DV?$stream_output_adapter@D@__crt_stdio_output@@@__crt_stdio_output@@CA_ND@Z 1002a9b4 f i libucrt:output.obj
 0001:000299c5       ??$is_pointer_specifier@D@?$positional_parameter_base@DV?$string_output_adapter@D@__crt_stdio_output@@@__crt_stdio_output@@CA_ND@Z 1002a9c5 f i libucrt:output.obj
 0001:000299d6       ??$is_pointer_specifier@_W@?$positional_parameter_base@_WV?$stream_output_adapter@_W@__crt_stdio_output@@@__crt_stdio_output@@CA_N_W@Z 1002a9d6 f i libucrt:output.obj
 0001:000299e8       ??$is_pointer_specifier@_W@?$positional_parameter_base@_WV?$string_output_adapter@_W@__crt_stdio_output@@@__crt_stdio_output@@CA_N_W@Z 1002a9e8 f i libucrt:output.obj
 0001:000299fa       ??$is_string_specifier@D@?$positional_parameter_base@DV?$stream_output_adapter@D@__crt_stdio_output@@@__crt_stdio_output@@CA_ND@Z 1002a9fa f i libucrt:output.obj
 0001:00029a18       ??$is_string_specifier@D@?$positional_parameter_base@DV?$string_output_adapter@D@__crt_stdio_output@@@__crt_stdio_output@@CA_ND@Z 1002aa18 f i libucrt:output.obj
 0001:00029a36       ??$is_string_specifier@_W@?$positional_parameter_base@_WV?$stream_output_adapter@_W@__crt_stdio_output@@@__crt_stdio_output@@CA_N_W@Z 1002aa36 f i libucrt:output.obj
 0001:00029a57       ??$is_string_specifier@_W@?$positional_parameter_base@_WV?$string_output_adapter@_W@__crt_stdio_output@@@__crt_stdio_output@@CA_N_W@Z 1002aa57 f i libucrt:output.obj
 0001:00029a78       ??$is_wide_character_specifier@D@__crt_stdio_output@@YA_N_KDW4length_modifier@0@@Z 1002aa78 f i libucrt:output.obj
 0001:00029ab5       ??$is_wide_character_specifier@_W@__crt_stdio_output@@YA_N_K_WW4length_modifier@0@@Z 1002aab5 f i libucrt:output.obj
 0001:00029b16       ??$peek_va_arg@C@__crt_stdio_output@@YACPAD@Z 1002ab16 f i libucrt:output.obj
 0001:00029b25       ??$peek_va_arg@E@__crt_stdio_output@@YAEPAD@Z 1002ab25 f i libucrt:output.obj
 0001:00029b34       ??$peek_va_arg@F@__crt_stdio_output@@YAFPAD@Z 1002ab34 f i libucrt:output.obj
 0001:00029b44       ??$peek_va_arg@G@__crt_stdio_output@@YAGPAD@Z 1002ab44 f i libucrt:output.obj
 0001:00029b54       ??$peek_va_arg@H@__crt_stdio_output@@YAHPAD@Z 1002ab54 f i libucrt:output.obj
 0001:00029b63       ??$peek_va_arg@I@__crt_stdio_output@@YAIPAD@Z 1002ab63 f i libucrt:output.obj
 0001:00029b72       ??$peek_va_arg@PAD@__crt_stdio_output@@YAPADPAD@Z 1002ab72 f i libucrt:output.obj
 0001:00029bbd       ??$peek_va_arg@PAX@__crt_stdio_output@@YAPAXPAD@Z 1002abbd f i libucrt:output.obj
 0001:00029bcc       ??$peek_va_arg@U_CRT_DOUBLE@@@__crt_stdio_output@@YA?AU_CRT_DOUBLE@@PAD@Z 1002abcc f i libucrt:output.obj
 0001:00029bde       ??$peek_va_arg@_J@__crt_stdio_output@@YA_JPAD@Z 1002abde f i libucrt:output.obj
 0001:00029bf0       ??$peek_va_arg@_K@__crt_stdio_output@@YA_KPAD@Z 1002abf0 f i libucrt:output.obj
 0001:00029c02       ??$peek_va_arg@_W@__crt_stdio_output@@YA_WPAD@Z 1002ac02 f i libucrt:output.obj
 0001:00029c12       ??$puttc_nolock@ABDPAU_iobuf@@@?$__crt_char_traits@D@@SAHABD$$QAPAU_iobuf@@@Z 1002ac12 f i libucrt:output.obj
 0001:00029c32       ??$puttc_nolock@AB_WPAU_iobuf@@@?$__crt_char_traits@_W@@SAGAB_W$$QAPAU_iobuf@@@Z 1002ac32 f i libucrt:output.obj
 0001:00029c52       ??$read_va_arg@C@__crt_stdio_output@@YACAAPAD@Z 1002ac52 f i libucrt:output.obj
 0001:00029c68       ??$read_va_arg@E@__crt_stdio_output@@YAEAAPAD@Z 1002ac68 f i libucrt:output.obj
 0001:00029c7e       ??$read_va_arg@F@__crt_stdio_output@@YAFAAPAD@Z 1002ac7e f i libucrt:output.obj
 0001:00029c95       ??$read_va_arg@G@__crt_stdio_output@@YAGAAPAD@Z 1002ac95 f i libucrt:output.obj
 0001:00029cac       ??$read_va_arg@H@__crt_stdio_output@@YAHAAPAD@Z 1002acac f i libucrt:output.obj
 0001:00029cc2       ??$read_va_arg@I@__crt_stdio_output@@YAIAAPAD@Z 1002acc2 f i libucrt:output.obj
 0001:00029cd8       ??$read_va_arg@PAD@__crt_stdio_output@@YAPADAAPAD@Z 1002acd8 f i libucrt:output.obj
 0001:00029df6       ??$read_va_arg@PAX@__crt_stdio_output@@YAPAXAAPAD@Z 1002adf6 f i libucrt:output.obj
 0001:00029e0c       ??$read_va_arg@U_CRT_DOUBLE@@@__crt_stdio_output@@YA?AU_CRT_DOUBLE@@AAPAD@Z 1002ae0c f i libucrt:output.obj
 0001:00029e27       ??$read_va_arg@_J@__crt_stdio_output@@YA_JAAPAD@Z 1002ae27 f i libucrt:output.obj
 0001:00029e41       ??$read_va_arg@_K@__crt_stdio_output@@YA_KAAPAD@Z 1002ae41 f i libucrt:output.obj
 0001:00029e5b       ??$read_va_arg@_W@__crt_stdio_output@@YA_WAAPAD@Z 1002ae5b f i libucrt:output.obj
 0001:00029e72       ??$scratch_count@D@formatting_buffer@__crt_stdio_output@@QBEIXZ 1002ae72 f i libucrt:output.obj
 0001:00029e77       ??$scratch_data@D@formatting_buffer@__crt_stdio_output@@QAEPADXZ 1002ae77 f i libucrt:output.obj
 0001:00029e9c       ??$tcstol@AAPBDPAPADH@?$__crt_char_traits@D@@SAJAAPBD$$QAPAPAD$$QAH@Z 1002ae9c f i libucrt:output.obj
 0001:00029ec1       ??$tcstol@AAPB_WPAPA_WH@?$__crt_char_traits@_W@@SAJAAPB_W$$QAPAPA_W$$QAH@Z 1002aec1 f i libucrt:output.obj
 0001:00029ee6       ??$tcstol@PBDPAPADH@?$__crt_char_traits@D@@SAJ$$QAPBD$$QAPAPAD$$QAH@Z 1002aee6 f i libucrt:output.obj
 0001:00029f0b       ??$tcstol@PB_WPAPA_WH@?$__crt_char_traits@_W@@SAJ$$QAPB_W$$QAPAPA_W$$QAH@Z 1002af0b f i libucrt:output.obj
 0001:00029f30       ??$type_case_integer_parse_into_buffer@I@?$output_processor@DV?$stream_output_adapter@D@__crt_stdio_output@@V?$format_validation_base@DV?$stream_output_adapter@D@__crt_stdio_output@@@2@@__crt_stdio_output@@AAEXII_N@Z 1002af30 f i libucrt:output.obj
 0001:00029fbf       ??$type_case_integer_parse_into_buffer@I@?$output_processor@DV?$stream_output_adapter@D@__crt_stdio_output@@V?$positional_parameter_base@DV?$stream_output_adapter@D@__crt_stdio_output@@@2@@__crt_stdio_output@@AAEXII_N@Z 1002afbf f i libucrt:output.obj
 0001:0002a04e       ??$type_case_integer_parse_into_buffer@I@?$output_processor@DV?$stream_output_adapter@D@__crt_stdio_output@@V?$standard_base@DV?$stream_output_adapter@D@__crt_stdio_output@@@2@@__crt_stdio_output@@AAEXII_N@Z 1002b04e f i libucrt:output.obj
 0001:0002a0dd       ??$type_case_integer_parse_into_buffer@I@?$output_processor@DV?$string_output_adapter@D@__crt_stdio_output@@V?$format_validation_base@DV?$string_output_adapter@D@__crt_stdio_output@@@2@@__crt_stdio_output@@AAEXII_N@Z 1002b0dd f i libucrt:output.obj
 0001:0002a16c       ??$type_case_integer_parse_into_buffer@I@?$output_processor@DV?$string_output_adapter@D@__crt_stdio_output@@V?$positional_parameter_base@DV?$string_output_adapter@D@__crt_stdio_output@@@2@@__crt_stdio_output@@AAEXII_N@Z 1002b16c f i libucrt:output.obj
 0001:0002a1fb       ??$type_case_integer_parse_into_buffer@I@?$output_processor@DV?$string_output_adapter@D@__crt_stdio_output@@V?$standard_base@DV?$string_output_adapter@D@__crt_stdio_output@@@2@@__crt_stdio_output@@AAEXII_N@Z 1002b1fb f i libucrt:output.obj
 0001:0002a28a       ??$type_case_integer_parse_into_buffer@I@?$output_processor@_WV?$stream_output_adapter@_W@__crt_stdio_output@@V?$format_validation_base@_WV?$stream_output_adapter@_W@__crt_stdio_output@@@2@@__crt_stdio_output@@AAEXII_N@Z 1002b28a f i libucrt:output.obj
 0001:0002a32a       ??$type_case_integer_parse_into_buffer@I@?$output_processor@_WV?$stream_output_adapter@_W@__crt_stdio_output@@V?$positional_parameter_base@_WV?$stream_output_adapter@_W@__crt_stdio_output@@@2@@__crt_stdio_output@@AAEXII_N@Z 1002b32a f i libucrt:output.obj
 0001:0002a3ca       ??$type_case_integer_parse_into_buffer@I@?$output_processor@_WV?$stream_output_adapter@_W@__crt_stdio_output@@V?$standard_base@_WV?$stream_output_adapter@_W@__crt_stdio_output@@@2@@__crt_stdio_output@@AAEXII_N@Z 1002b3ca f i libucrt:output.obj
 0001:0002a46a       ??$type_case_integer_parse_into_buffer@I@?$output_processor@_WV?$string_output_adapter@_W@__crt_stdio_output@@V?$format_validation_base@_WV?$string_output_adapter@_W@__crt_stdio_output@@@2@@__crt_stdio_output@@AAEXII_N@Z 1002b46a f i libucrt:output.obj
 0001:0002a50a       ??$type_case_integer_parse_into_buffer@I@?$output_processor@_WV?$string_output_adapter@_W@__crt_stdio_output@@V?$positional_parameter_base@_WV?$string_output_adapter@_W@__crt_stdio_output@@@2@@__crt_stdio_output@@AAEXII_N@Z 1002b50a f i libucrt:output.obj
 0001:0002a5aa       ??$type_case_integer_parse_into_buffer@I@?$output_processor@_WV?$string_output_adapter@_W@__crt_stdio_output@@V?$standard_base@_WV?$string_output_adapter@_W@__crt_stdio_output@@@2@@__crt_stdio_output@@AAEXII_N@Z 1002b5aa f i libucrt:output.obj
 0001:0002a64a       ??$type_case_integer_parse_into_buffer@_K@?$output_processor@DV?$stream_output_adapter@D@__crt_stdio_output@@V?$format_validation_base@DV?$stream_output_adapter@D@__crt_stdio_output@@@2@@__crt_stdio_output@@AAEX_KI_N@Z 1002b64a f i libucrt:output.obj
 0001:0002a6fc       ??$type_case_integer_parse_into_buffer@_K@?$output_processor@DV?$stream_output_adapter@D@__crt_stdio_output@@V?$positional_parameter_base@DV?$stream_output_adapter@D@__crt_stdio_output@@@2@@__crt_stdio_output@@AAEX_KI_N@Z 1002b6fc f i libucrt:output.obj
 0001:0002a7ae       ??$type_case_integer_parse_into_buffer@_K@?$output_processor@DV?$stream_output_adapter@D@__crt_stdio_output@@V?$standard_base@DV?$stream_output_adapter@D@__crt_stdio_output@@@2@@__crt_stdio_output@@AAEX_KI_N@Z 1002b7ae f i libucrt:output.obj
 0001:0002a860       ??$type_case_integer_parse_into_buffer@_K@?$output_processor@DV?$string_output_adapter@D@__crt_stdio_output@@V?$format_validation_base@DV?$string_output_adapter@D@__crt_stdio_output@@@2@@__crt_stdio_output@@AAEX_KI_N@Z 1002b860 f i libucrt:output.obj
 0001:0002a912       ??$type_case_integer_parse_into_buffer@_K@?$output_processor@DV?$string_output_adapter@D@__crt_stdio_output@@V?$positional_parameter_base@DV?$string_output_adapter@D@__crt_stdio_output@@@2@@__crt_stdio_output@@AAEX_KI_N@Z 1002b912 f i libucrt:output.obj
 0001:0002a9c4       ??$type_case_integer_parse_into_buffer@_K@?$output_processor@DV?$string_output_adapter@D@__crt_stdio_output@@V?$standard_base@DV?$string_output_adapter@D@__crt_stdio_output@@@2@@__crt_stdio_output@@AAEX_KI_N@Z 1002b9c4 f i libucrt:output.obj
 0001:0002aa76       ??$type_case_integer_parse_into_buffer@_K@?$output_processor@_WV?$stream_output_adapter@_W@__crt_stdio_output@@V?$format_validation_base@_WV?$stream_output_adapter@_W@__crt_stdio_output@@@2@@__crt_stdio_output@@AAEX_KI_N@Z 1002ba76 f i libucrt:output.obj
 0001:0002ab39       ??$type_case_integer_parse_into_buffer@_K@?$output_processor@_WV?$stream_output_adapter@_W@__crt_stdio_output@@V?$positional_parameter_base@_WV?$stream_output_adapter@_W@__crt_stdio_output@@@2@@__crt_stdio_output@@AAEX_KI_N@Z 1002bb39 f i libucrt:output.obj
 0001:0002abfc       ??$type_case_integer_parse_into_buffer@_K@?$output_processor@_WV?$stream_output_adapter@_W@__crt_stdio_output@@V?$standard_base@_WV?$stream_output_adapter@_W@__crt_stdio_output@@@2@@__crt_stdio_output@@AAEX_KI_N@Z 1002bbfc f i libucrt:output.obj
 0001:0002acbf       ??$type_case_integer_parse_into_buffer@_K@?$output_processor@_WV?$string_output_adapter@_W@__crt_stdio_output@@V?$format_validation_base@_WV?$string_output_adapter@_W@__crt_stdio_output@@@2@@__crt_stdio_output@@AAEX_KI_N@Z 1002bcbf f i libucrt:output.obj
 0001:0002ad82       ??$type_case_integer_parse_into_buffer@_K@?$output_processor@_WV?$string_output_adapter@_W@__crt_stdio_output@@V?$positional_parameter_base@_WV?$string_output_adapter@_W@__crt_stdio_output@@@2@@__crt_stdio_output@@AAEX_KI_N@Z 1002bd82 f i libucrt:output.obj
 0001:0002ae45       ??$type_case_integer_parse_into_buffer@_K@?$output_processor@_WV?$string_output_adapter@_W@__crt_stdio_output@@V?$standard_base@_WV?$string_output_adapter@_W@__crt_stdio_output@@@2@@__crt_stdio_output@@AAEX_KI_N@Z 1002be45 f i libucrt:output.obj
 0001:0002af08       ??$write_multiple_characters@V?$stream_output_adapter@D@__crt_stdio_output@@D@__crt_stdio_output@@YAXABV?$stream_output_adapter@D@0@DHQAH@Z 1002bf08 f i libucrt:output.obj
 0001:0002af51       ??$write_multiple_characters@V?$stream_output_adapter@_W@__crt_stdio_output@@D@__crt_stdio_output@@YAXABV?$stream_output_adapter@_W@0@DHQAH@Z 1002bf51 f i libucrt:output.obj
 0001:0002afa1       ??$write_multiple_characters@V?$string_output_adapter@D@__crt_stdio_output@@D@__crt_stdio_output@@YAXABV?$string_output_adapter@D@0@DHQAH@Z 1002bfa1 f i libucrt:output.obj
 0001:0002afd8       ??$write_multiple_characters@V?$string_output_adapter@_W@__crt_stdio_output@@D@__crt_stdio_output@@YAXABV?$string_output_adapter@_W@0@DHQAH@Z 1002bfd8 f i libucrt:output.obj
 0001:0002b249       ??0?$common_data@D@__crt_stdio_output@@IAE@XZ 1002c249 f i libucrt:output.obj
 0001:0002b2a1       ??0?$common_data@_W@__crt_stdio_output@@IAE@XZ 1002c2a1 f i libucrt:output.obj
 0001:0002b300       ??0?$output_adapter_data@DV?$stream_output_adapter@D@__crt_stdio_output@@@__crt_stdio_output@@IAE@ABV?$stream_output_adapter@D@1@_KQBDQAU__crt_locale_pointers@@QAD@Z 1002c300 f i libucrt:output.obj
 0001:0002b34b       ??0?$output_adapter_data@DV?$string_output_adapter@D@__crt_stdio_output@@@__crt_stdio_output@@IAE@ABV?$string_output_adapter@D@1@_KQBDQAU__crt_locale_pointers@@QAD@Z 1002c34b f i libucrt:output.obj
 0001:0002b396       ??0?$output_adapter_data@_WV?$stream_output_adapter@_W@__crt_stdio_output@@@__crt_stdio_output@@IAE@ABV?$stream_output_adapter@_W@1@_KQB_WQAU__crt_locale_pointers@@QAD@Z 1002c396 f i libucrt:output.obj
 0001:0002b3e1       ??0?$output_adapter_data@_WV?$string_output_adapter@_W@__crt_stdio_output@@@__crt_stdio_output@@IAE@ABV?$string_output_adapter@_W@1@_KQB_WQAU__crt_locale_pointers@@QAD@Z 1002c3e1 f i libucrt:output.obj
 0001:0002b42c       ??0?$output_processor@DV?$stream_output_adapter@D@__crt_stdio_output@@V?$format_validation_base@DV?$stream_output_adapter@D@__crt_stdio_output@@@2@@__crt_stdio_output@@QAE@ABV?$stream_output_adapter@D@1@_KQBDQAU__crt_locale_pointers@@QAD@Z 1002c42c f i libucrt:output.obj
 0001:0002b464       ??0?$output_processor@DV?$stream_output_adapter@D@__crt_stdio_output@@V?$positional_parameter_base@DV?$stream_output_adapter@D@__crt_stdio_output@@@2@@__crt_stdio_output@@QAE@ABV?$stream_output_adapter@D@1@_KQBDQAU__crt_locale_pointers@@QAD@Z 1002c464 f i libucrt:output.obj
 0001:0002b494       ??0?$output_processor@DV?$stream_output_adapter@D@__crt_stdio_output@@V?$standard_base@DV?$stream_output_adapter@D@__crt_stdio_output@@@2@@__crt_stdio_output@@QAE@ABV?$stream_output_adapter@D@1@_KQBDQAU__crt_locale_pointers@@QAD@Z 1002c494 f i libucrt:output.obj
 0001:0002b4cc       ??0?$output_processor@DV?$string_output_adapter@D@__crt_stdio_output@@V?$format_validation_base@DV?$string_output_adapter@D@__crt_stdio_output@@@2@@__crt_stdio_output@@QAE@ABV?$string_output_adapter@D@1@_KQBDQAU__crt_locale_pointers@@QAD@Z 1002c4cc f i libucrt:output.obj
 0001:0002b504       ??0?$output_processor@DV?$string_output_adapter@D@__crt_stdio_output@@V?$positional_parameter_base@DV?$string_output_adapter@D@__crt_stdio_output@@@2@@__crt_stdio_output@@QAE@ABV?$string_output_adapter@D@1@_KQBDQAU__crt_locale_pointers@@QAD@Z 1002c504 f i libucrt:output.obj
 0001:0002b534       ??0?$output_processor@DV?$string_output_adapter@D@__crt_stdio_output@@V?$standard_base@DV?$string_output_adapter@D@__crt_stdio_output@@@2@@__crt_stdio_output@@QAE@ABV?$string_output_adapter@D@1@_KQBDQAU__crt_locale_pointers@@QAD@Z 1002c534 f i libucrt:output.obj
 0001:0002b56c       ??0?$output_processor@_WV?$stream_output_adapter@_W@__crt_stdio_output@@V?$format_validation_base@_WV?$stream_output_adapter@_W@__crt_stdio_output@@@2@@__crt_stdio_output@@QAE@ABV?$stream_output_adapter@_W@1@_KQB_WQAU__crt_locale_pointers@@QAD@Z 1002c56c f i libucrt:output.obj
 0001:0002b5a4       ??0?$output_processor@_WV?$stream_output_adapter@_W@__crt_stdio_output@@V?$positional_parameter_base@_WV?$stream_output_adapter@_W@__crt_stdio_output@@@2@@__crt_stdio_output@@QAE@ABV?$stream_output_adapter@_W@1@_KQB_WQAU__crt_locale_pointers@@QAD@Z 1002c5a4 f i libucrt:output.obj
 0001:0002b5d4       ??0?$output_processor@_WV?$stream_output_adapter@_W@__crt_stdio_output@@V?$standard_base@_WV?$stream_output_adapter@_W@__crt_stdio_output@@@2@@__crt_stdio_output@@QAE@ABV?$stream_output_adapter@_W@1@_KQB_WQAU__crt_locale_pointers@@QAD@Z 1002c5d4 f i libucrt:output.obj
 0001:0002b60c       ??0?$output_processor@_WV?$string_output_adapter@_W@__crt_stdio_output@@V?$format_validation_base@_WV?$string_output_adapter@_W@__crt_stdio_output@@@2@@__crt_stdio_output@@QAE@ABV?$string_output_adapter@_W@1@_KQB_WQAU__crt_locale_pointers@@QAD@Z 1002c60c f i libucrt:output.obj
 0001:0002b644       ??0?$output_processor@_WV?$string_output_adapter@_W@__crt_stdio_output@@V?$positional_parameter_base@_WV?$string_output_adapter@_W@__crt_stdio_output@@@2@@__crt_stdio_output@@QAE@ABV?$string_output_adapter@_W@1@_KQB_WQAU__crt_locale_pointers@@QAD@Z 1002c644 f i libucrt:output.obj
 0001:0002b674       ??0?$output_processor@_WV?$string_output_adapter@_W@__crt_stdio_output@@V?$standard_base@_WV?$string_output_adapter@_W@__crt_stdio_output@@@2@@__crt_stdio_output@@QAE@ABV?$string_output_adapter@_W@1@_KQB_WQAU__crt_locale_pointers@@QAD@Z 1002c674 f i libucrt:output.obj
 0001:0002b6ac       ??0?$stream_output_adapter@D@__crt_stdio_output@@QAE@QAU_iobuf@@@Z 1002c6ac f i libucrt:output.obj
 0001:0002b6c0       ??0?$stream_output_adapter@_W@__crt_stdio_output@@QAE@QAU_iobuf@@@Z 1002c6c0 f i libucrt:output.obj
 0001:0002b6d4       ??0?$string_output_adapter@D@__crt_stdio_output@@QAE@QAU?$string_output_adapter_context@D@1@@Z 1002c6d4 f i libucrt:output.obj
 0001:0002b6e8       ??0?$string_output_adapter@_W@__crt_stdio_output@@QAE@QAU?$string_output_adapter_context@_W@1@@Z 1002c6e8 f i libucrt:output.obj
 0001:0002b6fc       ??0_LocaleUpdate@@QAE@QAU__crt_locale_pointers@@@Z 1002c6fc f i libucrt:output.obj
 0001:0002b79f       ??0__acrt_stdio_temporary_buffering_guard@@QAE@QAU_iobuf@@@Z 1002c79f f i libucrt:output.obj
 0001:0002b7c4       ??0__crt_deferred_errno_cache@@QAE@XZ 1002c7c4 f i libucrt:output.obj
 0001:0002b7ca       ??0__crt_errno_guard@@QAE@QAH@Z 1002c7ca f i libucrt:output.obj
 0001:0002b7e8       ??0formatting_buffer@__crt_stdio_output@@QAE@XZ 1002c7e8 f i libucrt:output.obj
 0001:0002b7fd       ??1?$common_data@D@__crt_stdio_output@@QAE@XZ 1002c7fd f i libucrt:output.obj
 0001:0002b807       ??1?$common_data@_W@__crt_stdio_output@@QAE@XZ 1002c807 f i libucrt:output.obj
 0001:0002b811       ??1?$format_validation_base@DV?$stream_output_adapter@D@__crt_stdio_output@@@__crt_stdio_output@@QAE@XZ 1002c811 f i libucrt:output.obj
 0001:0002b81b       ??1?$format_validation_base@DV?$string_output_adapter@D@__crt_stdio_output@@@__crt_stdio_output@@QAE@XZ 1002c81b f i libucrt:output.obj
 0001:0002b825       ??1?$format_validation_base@_WV?$stream_output_adapter@_W@__crt_stdio_output@@@__crt_stdio_output@@QAE@XZ 1002c825 f i libucrt:output.obj
 0001:0002b82f       ??1?$format_validation_base@_WV?$string_output_adapter@_W@__crt_stdio_output@@@__crt_stdio_output@@QAE@XZ 1002c82f f i libucrt:output.obj
 0001:0002b839       ??1?$output_adapter_data@DV?$stream_output_adapter@D@__crt_stdio_output@@@__crt_stdio_output@@QAE@XZ 1002c839 f i libucrt:output.obj
 0001:0002b843       ??1?$output_adapter_data@DV?$string_output_adapter@D@__crt_stdio_output@@@__crt_stdio_output@@QAE@XZ 1002c843 f i libucrt:output.obj
 0001:0002b84d       ??1?$output_adapter_data@_WV?$stream_output_adapter@_W@__crt_stdio_output@@@__crt_stdio_output@@QAE@XZ 1002c84d f i libucrt:output.obj
 0001:0002b857       ??1?$output_adapter_data@_WV?$string_output_adapter@_W@__crt_stdio_output@@@__crt_stdio_output@@QAE@XZ 1002c857 f i libucrt:output.obj
 0001:0002b861       ??1?$output_processor@DV?$stream_output_adapter@D@__crt_stdio_output@@V?$format_validation_base@DV?$stream_output_adapter@D@__crt_stdio_output@@@2@@__crt_stdio_output@@QAE@XZ 1002c861 f i libucrt:output.obj
 0001:0002b86b       ??1?$output_processor@DV?$stream_output_adapter@D@__crt_stdio_output@@V?$positional_parameter_base@DV?$stream_output_adapter@D@__crt_stdio_output@@@2@@__crt_stdio_output@@QAE@XZ 1002c86b f i libucrt:output.obj
 0001:0002b875       ??1?$output_processor@DV?$stream_output_adapter@D@__crt_stdio_output@@V?$standard_base@DV?$stream_output_adapter@D@__crt_stdio_output@@@2@@__crt_stdio_output@@QAE@XZ 1002c875 f i libucrt:output.obj
 0001:0002b87f       ??1?$output_processor@DV?$string_output_adapter@D@__crt_stdio_output@@V?$format_validation_base@DV?$string_output_adapter@D@__crt_stdio_output@@@2@@__crt_stdio_output@@QAE@XZ 1002c87f f i libucrt:output.obj
 0001:0002b889       ??1?$output_processor@DV?$string_output_adapter@D@__crt_stdio_output@@V?$positional_parameter_base@DV?$string_output_adapter@D@__crt_stdio_output@@@2@@__crt_stdio_output@@QAE@XZ 1002c889 f i libucrt:output.obj
 0001:0002b893       ??1?$output_processor@DV?$string_output_adapter@D@__crt_stdio_output@@V?$standard_base@DV?$string_output_adapter@D@__crt_stdio_output@@@2@@__crt_stdio_output@@QAE@XZ 1002c893 f i libucrt:output.obj
 0001:0002b89d       ??1?$output_processor@_WV?$stream_output_adapter@_W@__crt_stdio_output@@V?$format_validation_base@_WV?$stream_output_adapter@_W@__crt_stdio_output@@@2@@__crt_stdio_output@@QAE@XZ 1002c89d f i libucrt:output.obj
 0001:0002b8a7       ??1?$output_processor@_WV?$stream_output_adapter@_W@__crt_stdio_output@@V?$positional_parameter_base@_WV?$stream_output_adapter@_W@__crt_stdio_output@@@2@@__crt_stdio_output@@QAE@XZ 1002c8a7 f i libucrt:output.obj
 0001:0002b8b1       ??1?$output_processor@_WV?$stream_output_adapter@_W@__crt_stdio_output@@V?$standard_base@_WV?$stream_output_adapter@_W@__crt_stdio_output@@@2@@__crt_stdio_output@@QAE@XZ 1002c8b1 f i libucrt:output.obj
 0001:0002b8bb       ??1?$output_processor@_WV?$string_output_adapter@_W@__crt_stdio_output@@V?$format_validation_base@_WV?$string_output_adapter@_W@__crt_stdio_output@@@2@@__crt_stdio_output@@QAE@XZ 1002c8bb f i libucrt:output.obj
 0001:0002b8c5       ??1?$output_processor@_WV?$string_output_adapter@_W@__crt_stdio_output@@V?$positional_parameter_base@_WV?$string_output_adapter@_W@__crt_stdio_output@@@2@@__crt_stdio_output@@QAE@XZ 1002c8c5 f i libucrt:output.obj
 0001:0002b8cf       ??1?$output_processor@_WV?$string_output_adapter@_W@__crt_stdio_output@@V?$standard_base@_WV?$string_output_adapter@_W@__crt_stdio_output@@@2@@__crt_stdio_output@@QAE@XZ 1002c8cf f i libucrt:output.obj
 0001:0002b8d9       ??1?$positional_parameter_base@DV?$stream_output_adapter@D@__crt_stdio_output@@@__crt_stdio_output@@QAE@XZ 1002c8d9 f i libucrt:output.obj
 0001:0002b8e3       ??1?$positional_parameter_base@DV?$string_output_adapter@D@__crt_stdio_output@@@__crt_stdio_output@@QAE@XZ 1002c8e3 f i libucrt:output.obj
 0001:0002b8ed       ??1?$positional_parameter_base@_WV?$stream_output_adapter@_W@__crt_stdio_output@@@__crt_stdio_output@@QAE@XZ 1002c8ed f i libucrt:output.obj
 0001:0002b8f7       ??1?$positional_parameter_base@_WV?$string_output_adapter@_W@__crt_stdio_output@@@__crt_stdio_output@@QAE@XZ 1002c8f7 f i libucrt:output.obj
 0001:0002b901       ??1?$standard_base@DV?$stream_output_adapter@D@__crt_stdio_output@@@__crt_stdio_output@@QAE@XZ 1002c901 f i libucrt:output.obj
 0001:0002b90b       ??1?$standard_base@DV?$string_output_adapter@D@__crt_stdio_output@@@__crt_stdio_output@@QAE@XZ 1002c90b f i libucrt:output.obj
 0001:0002b915       ??1?$standard_base@_WV?$stream_output_adapter@_W@__crt_stdio_output@@@__crt_stdio_output@@QAE@XZ 1002c915 f i libucrt:output.obj
 0001:0002b91f       ??1?$standard_base@_WV?$string_output_adapter@_W@__crt_stdio_output@@@__crt_stdio_output@@QAE@XZ 1002c91f f i libucrt:output.obj
 0001:0002b929       ??1_LocaleUpdate@@QAE@XZ   1002c929 f i libucrt:output.obj
 0001:0002b93d       ??1__acrt_stdio_temporary_buffering_guard@@QAE@XZ 1002c93d f i libucrt:output.obj
 0001:0002b94f       ??1__crt_errno_guard@@QAE@XZ 1002c94f f i libucrt:output.obj
 0001:0002b964       ??1formatting_buffer@__crt_stdio_output@@QAE@XZ 1002c964 f i libucrt:output.obj
 0001:0002b984       ??4?$__crt_unique_heap_ptr@DU__crt_internal_free_policy@@@@QAEAAV0@$$QAV0@@Z 1002c984 f i libucrt:output.obj
 0001:0002c05f       ?GetLocaleT@_LocaleUpdate@@QAEPAU__crt_locale_pointers@@XZ 1002d05f f i libucrt:output.obj
 0001:0002c063       ?adjust_hexit@?$output_processor@DV?$stream_output_adapter@D@__crt_stdio_output@@V?$format_validation_base@DV?$stream_output_adapter@D@__crt_stdio_output@@@2@@__crt_stdio_output@@CADH_N@Z 1002d063 f i libucrt:output.obj
 0001:0002c07c       ?adjust_hexit@?$output_processor@DV?$stream_output_adapter@D@__crt_stdio_output@@V?$positional_parameter_base@DV?$stream_output_adapter@D@__crt_stdio_output@@@2@@__crt_stdio_output@@CADH_N@Z 1002d07c f i libucrt:output.obj
 0001:0002c095       ?adjust_hexit@?$output_processor@DV?$stream_output_adapter@D@__crt_stdio_output@@V?$standard_base@DV?$stream_output_adapter@D@__crt_stdio_output@@@2@@__crt_stdio_output@@CADH_N@Z 1002d095 f i libucrt:output.obj
 0001:0002c0ae       ?adjust_hexit@?$output_processor@DV?$string_output_adapter@D@__crt_stdio_output@@V?$format_validation_base@DV?$string_output_adapter@D@__crt_stdio_output@@@2@@__crt_stdio_output@@CADH_N@Z 1002d0ae f i libucrt:output.obj
 0001:0002c0c7       ?adjust_hexit@?$output_processor@DV?$string_output_adapter@D@__crt_stdio_output@@V?$positional_parameter_base@DV?$string_output_adapter@D@__crt_stdio_output@@@2@@__crt_stdio_output@@CADH_N@Z 1002d0c7 f i libucrt:output.obj
 0001:0002c0e0       ?adjust_hexit@?$output_processor@DV?$string_output_adapter@D@__crt_stdio_output@@V?$standard_base@DV?$string_output_adapter@D@__crt_stdio_output@@@2@@__crt_stdio_output@@CADH_N@Z 1002d0e0 f i libucrt:output.obj
 0001:0002c0f9       ?adjust_hexit@?$output_processor@_WV?$stream_output_adapter@_W@__crt_stdio_output@@V?$format_validation_base@_WV?$stream_output_adapter@_W@__crt_stdio_output@@@2@@__crt_stdio_output@@CADH_N@Z 1002d0f9 f i libucrt:output.obj
 0001:0002c112       ?adjust_hexit@?$output_processor@_WV?$stream_output_adapter@_W@__crt_stdio_output@@V?$positional_parameter_base@_WV?$stream_output_adapter@_W@__crt_stdio_output@@@2@@__crt_stdio_output@@CADH_N@Z 1002d112 f i libucrt:output.obj
 0001:0002c12b       ?adjust_hexit@?$output_processor@_WV?$stream_output_adapter@_W@__crt_stdio_output@@V?$standard_base@_WV?$stream_output_adapter@_W@__crt_stdio_output@@@2@@__crt_stdio_output@@CADH_N@Z 1002d12b f i libucrt:output.obj
 0001:0002c144       ?adjust_hexit@?$output_processor@_WV?$string_output_adapter@_W@__crt_stdio_output@@V?$format_validation_base@_WV?$string_output_adapter@_W@__crt_stdio_output@@@2@@__crt_stdio_output@@CADH_N@Z 1002d144 f i libucrt:output.obj
 0001:0002c15d       ?adjust_hexit@?$output_processor@_WV?$string_output_adapter@_W@__crt_stdio_output@@V?$positional_parameter_base@_WV?$string_output_adapter@_W@__crt_stdio_output@@@2@@__crt_stdio_output@@CADH_N@Z 1002d15d f i libucrt:output.obj
 0001:0002c176       ?adjust_hexit@?$output_processor@_WV?$string_output_adapter@_W@__crt_stdio_output@@V?$standard_base@_WV?$string_output_adapter@_W@__crt_stdio_output@@@2@@__crt_stdio_output@@CADH_N@Z 1002d176 f i libucrt:output.obj
 0001:0002c18f       ?advance_to_next_pass@?$positional_parameter_base@DV?$stream_output_adapter@D@__crt_stdio_output@@@__crt_stdio_output@@IAE_NXZ 1002d18f f i libucrt:output.obj
 0001:0002c1ee       ?advance_to_next_pass@?$positional_parameter_base@DV?$string_output_adapter@D@__crt_stdio_output@@@__crt_stdio_output@@IAE_NXZ 1002d1ee f i libucrt:output.obj
 0001:0002c24d       ?advance_to_next_pass@?$positional_parameter_base@_WV?$stream_output_adapter@_W@__crt_stdio_output@@@__crt_stdio_output@@IAE_NXZ 1002d24d f i libucrt:output.obj
 0001:0002c2ac       ?advance_to_next_pass@?$positional_parameter_base@_WV?$string_output_adapter@_W@__crt_stdio_output@@@__crt_stdio_output@@IAE_NXZ 1002d2ac f i libucrt:output.obj
 0001:0002c30b       ?advance_to_next_pass@?$standard_base@DV?$stream_output_adapter@D@__crt_stdio_output@@@__crt_stdio_output@@IAE_NXZ 1002d30b f i libucrt:output.obj
 0001:0002c320       ?advance_to_next_pass@?$standard_base@DV?$string_output_adapter@D@__crt_stdio_output@@@__crt_stdio_output@@IAE_NXZ 1002d320 f i libucrt:output.obj
 0001:0002c335       ?advance_to_next_pass@?$standard_base@_WV?$stream_output_adapter@_W@__crt_stdio_output@@@__crt_stdio_output@@IAE_NXZ 1002d335 f i libucrt:output.obj
 0001:0002c34a       ?advance_to_next_pass@?$standard_base@_WV?$string_output_adapter@_W@__crt_stdio_output@@@__crt_stdio_output@@IAE_NXZ 1002d34a f i libucrt:output.obj
 0001:0002c35f       ?crop_zeroes@__crt_stdio_output@@YAXPADQAU__crt_locale_pointers@@@Z 1002d35f f i libucrt:output.obj
 0001:0002c3d7       ?find_next_state@?$output_processor@DV?$stream_output_adapter@D@__crt_stdio_output@@V?$format_validation_base@DV?$stream_output_adapter@D@__crt_stdio_output@@@2@@__crt_stdio_output@@ABE?AW4state@2@DW432@@Z 1002d3d7 f i libucrt:output.obj
 0001:0002c429       ?find_next_state@?$output_processor@DV?$stream_output_adapter@D@__crt_stdio_output@@V?$positional_parameter_base@DV?$stream_output_adapter@D@__crt_stdio_output@@@2@@__crt_stdio_output@@ABE?AW4state@2@DW432@@Z 1002d429 f i libucrt:output.obj
 0001:0002c47b       ?find_next_state@?$output_processor@DV?$stream_output_adapter@D@__crt_stdio_output@@V?$standard_base@DV?$stream_output_adapter@D@__crt_stdio_output@@@2@@__crt_stdio_output@@ABE?AW4state@2@DW432@@Z 1002d47b f i libucrt:output.obj
 0001:0002c4c9       ?find_next_state@?$output_processor@DV?$string_output_adapter@D@__crt_stdio_output@@V?$format_validation_base@DV?$string_output_adapter@D@__crt_stdio_output@@@2@@__crt_stdio_output@@ABE?AW4state@2@DW432@@Z 1002d4c9 f i libucrt:output.obj
 0001:0002c51b       ?find_next_state@?$output_processor@DV?$string_output_adapter@D@__crt_stdio_output@@V?$positional_parameter_base@DV?$string_output_adapter@D@__crt_stdio_output@@@2@@__crt_stdio_output@@ABE?AW4state@2@DW432@@Z 1002d51b f i libucrt:output.obj
 0001:0002c56d       ?find_next_state@?$output_processor@DV?$string_output_adapter@D@__crt_stdio_output@@V?$standard_base@DV?$string_output_adapter@D@__crt_stdio_output@@@2@@__crt_stdio_output@@ABE?AW4state@2@DW432@@Z 1002d56d f i libucrt:output.obj
 0001:0002c5bb       ?find_next_state@?$output_processor@_WV?$stream_output_adapter@_W@__crt_stdio_output@@V?$format_validation_base@_WV?$stream_output_adapter@_W@__crt_stdio_output@@@2@@__crt_stdio_output@@ABE?AW4state@2@_WW432@@Z 1002d5bb f i libucrt:output.obj
 0001:0002c610       ?find_next_state@?$output_processor@_WV?$stream_output_adapter@_W@__crt_stdio_output@@V?$positional_parameter_base@_WV?$stream_output_adapter@_W@__crt_stdio_output@@@2@@__crt_stdio_output@@ABE?AW4state@2@_WW432@@Z 1002d610 f i libucrt:output.obj
 0001:0002c665       ?find_next_state@?$output_processor@_WV?$stream_output_adapter@_W@__crt_stdio_output@@V?$standard_base@_WV?$stream_output_adapter@_W@__crt_stdio_output@@@2@@__crt_stdio_output@@ABE?AW4state@2@_WW432@@Z 1002d665 f i libucrt:output.obj
 0001:0002c6b6       ?find_next_state@?$output_processor@_WV?$string_output_adapter@_W@__crt_stdio_output@@V?$format_validation_base@_WV?$string_output_adapter@_W@__crt_stdio_output@@@2@@__crt_stdio_output@@ABE?AW4state@2@_WW432@@Z 1002d6b6 f i libucrt:output.obj
 0001:0002c70b       ?find_next_state@?$output_processor@_WV?$string_output_adapter@_W@__crt_stdio_output@@V?$positional_parameter_base@_WV?$string_output_adapter@_W@__crt_stdio_output@@@2@@__crt_stdio_output@@ABE?AW4state@2@_WW432@@Z 1002d70b f i libucrt:output.obj
 0001:0002c760       ?find_next_state@?$output_processor@_WV?$string_output_adapter@_W@__crt_stdio_output@@V?$standard_base@_WV?$string_output_adapter@_W@__crt_stdio_output@@@2@@__crt_stdio_output@@ABE?AW4state@2@_WW432@@Z 1002d760 f i libucrt:output.obj
 0001:0002c7b1       ?force_decimal_point@__crt_stdio_output@@YAXPADQAU__crt_locale_pointers@@@Z 1002d7b1 f i libucrt:output.obj
 0001:0002c824       ?get@__crt_deferred_errno_cache@@QAEAAHXZ 1002d824 f i libucrt:output.obj
 0001:0002c83d       ?get_flags@__crt_stdio_stream@@QBEJXZ 1002d83d f i libucrt:output.obj
 0001:0002c843       ?get_parameter_type@?$positional_parameter_base@DV?$stream_output_adapter@D@__crt_stdio_output@@@__crt_stdio_output@@CA?AW4parameter_type@12@F@Z 1002d843 f i libucrt:output.obj
 0001:0002c847       ?get_parameter_type@?$positional_parameter_base@DV?$stream_output_adapter@D@__crt_stdio_output@@@__crt_stdio_output@@CA?AW4parameter_type@12@G@Z 1002d847 f i libucrt:output.obj
 0001:0002c84b       ?get_parameter_type@?$positional_parameter_base@DV?$stream_output_adapter@D@__crt_stdio_output@@@__crt_stdio_output@@CA?AW4parameter_type@12@H@Z 1002d84b f i libucrt:output.obj
 0001:0002c84f       ?get_parameter_type@?$positional_parameter_base@DV?$stream_output_adapter@D@__crt_stdio_output@@@__crt_stdio_output@@CA?AW4parameter_type@12@I@Z 1002d84f f i libucrt:output.obj
 0001:0002c853       ?get_parameter_type@?$positional_parameter_base@DV?$stream_output_adapter@D@__crt_stdio_output@@@__crt_stdio_output@@CA?AW4parameter_type@12@U_CRT_DOUBLE@@@Z 1002d853 f i libucrt:output.obj
 0001:0002c857       ?get_parameter_type@?$positional_parameter_base@DV?$stream_output_adapter@D@__crt_stdio_output@@@__crt_stdio_output@@CA?AW4parameter_type@12@_J@Z 1002d857 f i libucrt:output.obj
 0001:0002c85b       ?get_parameter_type@?$positional_parameter_base@DV?$stream_output_adapter@D@__crt_stdio_output@@@__crt_stdio_output@@CA?AW4parameter_type@12@_K@Z 1002d85b f i libucrt:output.obj
 0001:0002c85f       ?get_parameter_type@?$positional_parameter_base@DV?$stream_output_adapter@D@__crt_stdio_output@@@__crt_stdio_output@@CA?AW4parameter_type@12@_W@Z 1002d85f f i libucrt:output.obj
 0001:0002c863       ?get_parameter_type@?$positional_parameter_base@DV?$string_output_adapter@D@__crt_stdio_output@@@__crt_stdio_output@@CA?AW4parameter_type@12@F@Z 1002d863 f i libucrt:output.obj
 0001:0002c867       ?get_parameter_type@?$positional_parameter_base@DV?$string_output_adapter@D@__crt_stdio_output@@@__crt_stdio_output@@CA?AW4parameter_type@12@G@Z 1002d867 f i libucrt:output.obj
 0001:0002c86b       ?get_parameter_type@?$positional_parameter_base@DV?$string_output_adapter@D@__crt_stdio_output@@@__crt_stdio_output@@CA?AW4parameter_type@12@H@Z 1002d86b f i libucrt:output.obj
 0001:0002c86f       ?get_parameter_type@?$positional_parameter_base@DV?$string_output_adapter@D@__crt_stdio_output@@@__crt_stdio_output@@CA?AW4parameter_type@12@I@Z 1002d86f f i libucrt:output.obj
 0001:0002c873       ?get_parameter_type@?$positional_parameter_base@DV?$string_output_adapter@D@__crt_stdio_output@@@__crt_stdio_output@@CA?AW4parameter_type@12@U_CRT_DOUBLE@@@Z 1002d873 f i libucrt:output.obj
 0001:0002c877       ?get_parameter_type@?$positional_parameter_base@DV?$string_output_adapter@D@__crt_stdio_output@@@__crt_stdio_output@@CA?AW4parameter_type@12@_J@Z 1002d877 f i libucrt:output.obj
 0001:0002c87b       ?get_parameter_type@?$positional_parameter_base@DV?$string_output_adapter@D@__crt_stdio_output@@@__crt_stdio_output@@CA?AW4parameter_type@12@_K@Z 1002d87b f i libucrt:output.obj
 0001:0002c87f       ?get_parameter_type@?$positional_parameter_base@DV?$string_output_adapter@D@__crt_stdio_output@@@__crt_stdio_output@@CA?AW4parameter_type@12@_W@Z 1002d87f f i libucrt:output.obj
 0001:0002c883       ?get_parameter_type@?$positional_parameter_base@_WV?$stream_output_adapter@_W@__crt_stdio_output@@@__crt_stdio_output@@CA?AW4parameter_type@12@F@Z 1002d883 f i libucrt:output.obj
 0001:0002c887       ?get_parameter_type@?$positional_parameter_base@_WV?$stream_output_adapter@_W@__crt_stdio_output@@@__crt_stdio_output@@CA?AW4parameter_type@12@G@Z 1002d887 f i libucrt:output.obj
 0001:0002c88b       ?get_parameter_type@?$positional_parameter_base@_WV?$stream_output_adapter@_W@__crt_stdio_output@@@__crt_stdio_output@@CA?AW4parameter_type@12@H@Z 1002d88b f i libucrt:output.obj
 0001:0002c88f       ?get_parameter_type@?$positional_parameter_base@_WV?$stream_output_adapter@_W@__crt_stdio_output@@@__crt_stdio_output@@CA?AW4parameter_type@12@I@Z 1002d88f f i libucrt:output.obj
 0001:0002c893       ?get_parameter_type@?$positional_parameter_base@_WV?$stream_output_adapter@_W@__crt_stdio_output@@@__crt_stdio_output@@CA?AW4parameter_type@12@U_CRT_DOUBLE@@@Z 1002d893 f i libucrt:output.obj
 0001:0002c897       ?get_parameter_type@?$positional_parameter_base@_WV?$stream_output_adapter@_W@__crt_stdio_output@@@__crt_stdio_output@@CA?AW4parameter_type@12@_J@Z 1002d897 f i libucrt:output.obj
 0001:0002c89b       ?get_parameter_type@?$positional_parameter_base@_WV?$stream_output_adapter@_W@__crt_stdio_output@@@__crt_stdio_output@@CA?AW4parameter_type@12@_K@Z 1002d89b f i libucrt:output.obj
 0001:0002c89f       ?get_parameter_type@?$positional_parameter_base@_WV?$stream_output_adapter@_W@__crt_stdio_output@@@__crt_stdio_output@@CA?AW4parameter_type@12@_W@Z 1002d89f f i libucrt:output.obj
 0001:0002c8a3       ?get_parameter_type@?$positional_parameter_base@_WV?$string_output_adapter@_W@__crt_stdio_output@@@__crt_stdio_output@@CA?AW4parameter_type@12@F@Z 1002d8a3 f i libucrt:output.obj
 0001:0002c8a7       ?get_parameter_type@?$positional_parameter_base@_WV?$string_output_adapter@_W@__crt_stdio_output@@@__crt_stdio_output@@CA?AW4parameter_type@12@G@Z 1002d8a7 f i libucrt:output.obj
 0001:0002c8ab       ?get_parameter_type@?$positional_parameter_base@_WV?$string_output_adapter@_W@__crt_stdio_output@@@__crt_stdio_output@@CA?AW4parameter_type@12@H@Z 1002d8ab f i libucrt:output.obj
 0001:0002c8af       ?get_parameter_type@?$positional_parameter_base@_WV?$string_output_adapter@_W@__crt_stdio_output@@@__crt_stdio_output@@CA?AW4parameter_type@12@I@Z 1002d8af f i libucrt:output.obj
 0001:0002c8b3       ?get_parameter_type@?$positional_parameter_base@_WV?$string_output_adapter@_W@__crt_stdio_output@@@__crt_stdio_output@@CA?AW4parameter_type@12@U_CRT_DOUBLE@@@Z 1002d8b3 f i libucrt:output.obj
 0001:0002c8b7       ?get_parameter_type@?$positional_parameter_base@_WV?$string_output_adapter@_W@__crt_stdio_output@@@__crt_stdio_output@@CA?AW4parameter_type@12@_J@Z 1002d8b7 f i libucrt:output.obj
 0001:0002c8bb       ?get_parameter_type@?$positional_parameter_base@_WV?$string_output_adapter@_W@__crt_stdio_output@@@__crt_stdio_output@@CA?AW4parameter_type@12@_K@Z 1002d8bb f i libucrt:output.obj
 0001:0002c8bf       ?get_parameter_type@?$positional_parameter_base@_WV?$string_output_adapter@_W@__crt_stdio_output@@@__crt_stdio_output@@CA?AW4parameter_type@12@_W@Z 1002d8bf f i libucrt:output.obj
 0001:0002c8c3       ?has_flag@?$output_processor@DV?$stream_output_adapter@D@__crt_stdio_output@@V?$format_validation_base@DV?$stream_output_adapter@D@__crt_stdio_output@@@2@@__crt_stdio_output@@ABE_NI@Z 1002d8c3 f i libucrt:output.obj
 0001:0002c8d9       ?has_flag@?$output_processor@DV?$stream_output_adapter@D@__crt_stdio_output@@V?$positional_parameter_base@DV?$stream_output_adapter@D@__crt_stdio_output@@@2@@__crt_stdio_output@@ABE_NI@Z 1002d8d9 f i libucrt:output.obj
 0001:0002c8ef       ?has_flag@?$output_processor@DV?$stream_output_adapter@D@__crt_stdio_output@@V?$standard_base@DV?$stream_output_adapter@D@__crt_stdio_output@@@2@@__crt_stdio_output@@ABE_NI@Z 1002d8ef f i libucrt:output.obj
 0001:0002c905       ?has_flag@?$output_processor@DV?$string_output_adapter@D@__crt_stdio_output@@V?$format_validation_base@DV?$string_output_adapter@D@__crt_stdio_output@@@2@@__crt_stdio_output@@ABE_NI@Z 1002d905 f i libucrt:output.obj
 0001:0002c91b       ?has_flag@?$output_processor@DV?$string_output_adapter@D@__crt_stdio_output@@V?$positional_parameter_base@DV?$string_output_adapter@D@__crt_stdio_output@@@2@@__crt_stdio_output@@ABE_NI@Z 1002d91b f i libucrt:output.obj
 0001:0002c931       ?has_flag@?$output_processor@DV?$string_output_adapter@D@__crt_stdio_output@@V?$standard_base@DV?$string_output_adapter@D@__crt_stdio_output@@@2@@__crt_stdio_output@@ABE_NI@Z 1002d931 f i libucrt:output.obj
 0001:0002c947       ?has_flag@?$output_processor@_WV?$stream_output_adapter@_W@__crt_stdio_output@@V?$format_validation_base@_WV?$stream_output_adapter@_W@__crt_stdio_output@@@2@@__crt_stdio_output@@ABE_NI@Z 1002d947 f i libucrt:output.obj
 0001:0002c95d       ?has_flag@?$output_processor@_WV?$stream_output_adapter@_W@__crt_stdio_output@@V?$positional_parameter_base@_WV?$stream_output_adapter@_W@__crt_stdio_output@@@2@@__crt_stdio_output@@ABE_NI@Z 1002d95d f i libucrt:output.obj
 0001:0002c973       ?has_flag@?$output_processor@_WV?$stream_output_adapter@_W@__crt_stdio_output@@V?$standard_base@_WV?$stream_output_adapter@_W@__crt_stdio_output@@@2@@__crt_stdio_output@@ABE_NI@Z 1002d973 f i libucrt:output.obj
 0001:0002c989       ?has_flag@?$output_processor@_WV?$string_output_adapter@_W@__crt_stdio_output@@V?$format_validation_base@_WV?$string_output_adapter@_W@__crt_stdio_output@@@2@@__crt_stdio_output@@ABE_NI@Z 1002d989 f i libucrt:output.obj
 0001:0002c99f       ?has_flag@?$output_processor@_WV?$string_output_adapter@_W@__crt_stdio_output@@V?$positional_parameter_base@_WV?$string_output_adapter@_W@__crt_stdio_output@@@2@@__crt_stdio_output@@ABE_NI@Z 1002d99f f i libucrt:output.obj
 0001:0002c9b5       ?has_flag@?$output_processor@_WV?$string_output_adapter@_W@__crt_stdio_output@@V?$standard_base@_WV?$string_output_adapter@_W@__crt_stdio_output@@@2@@__crt_stdio_output@@ABE_NI@Z 1002d9b5 f i libucrt:output.obj
 0001:0002c9cb       ?is_positional_parameter_reappearance_consistent@?$positional_parameter_base@DV?$stream_output_adapter@D@__crt_stdio_output@@@__crt_stdio_output@@AAE_NABUparameter_data@12@W4parameter_type@12@DW4length_modifier@2@@Z 1002d9cb f i libucrt:output.obj
 0001:0002cb2b       ?is_positional_parameter_reappearance_consistent@?$positional_parameter_base@DV?$string_output_adapter@D@__crt_stdio_output@@@__crt_stdio_output@@AAE_NABUparameter_data@12@W4parameter_type@12@DW4length_modifier@2@@Z 1002db2b f i libucrt:output.obj
 0001:0002cc8b       ?is_positional_parameter_reappearance_consistent@?$positional_parameter_base@_WV?$stream_output_adapter@_W@__crt_stdio_output@@@__crt_stdio_output@@AAE_NABUparameter_data@12@W4parameter_type@12@_WW4length_modifier@2@@Z 1002dc8b f i libucrt:output.obj
 0001:0002cdea       ?is_positional_parameter_reappearance_consistent@?$positional_parameter_base@_WV?$string_output_adapter@_W@__crt_stdio_output@@@__crt_stdio_output@@AAE_NABUparameter_data@12@W4parameter_type@12@_WW4length_modifier@2@@Z 1002ddea f i libucrt:output.obj
 0001:0002cf49       ?is_string_backed@__crt_stdio_stream@@QBE_NXZ 1002df49 f i libucrt:output.obj
 0001:0002cf56       ?narrow_null_string@?$output_processor@DV?$stream_output_adapter@D@__crt_stdio_output@@V?$format_validation_base@DV?$stream_output_adapter@D@__crt_stdio_output@@@2@@__crt_stdio_output@@CAPADXZ 1002df56 f i libucrt:output.obj
 0001:0002cf5c       ?narrow_null_string@?$output_processor@DV?$stream_output_adapter@D@__crt_stdio_output@@V?$positional_parameter_base@DV?$stream_output_adapter@D@__crt_stdio_output@@@2@@__crt_stdio_output@@CAPADXZ 1002df5c f i libucrt:output.obj
 0001:0002cf62       ?narrow_null_string@?$output_processor@DV?$stream_output_adapter@D@__crt_stdio_output@@V?$standard_base@DV?$stream_output_adapter@D@__crt_stdio_output@@@2@@__crt_stdio_output@@CAPADXZ 1002df62 f i libucrt:output.obj
 0001:0002cf68       ?narrow_null_string@?$output_processor@DV?$string_output_adapter@D@__crt_stdio_output@@V?$format_validation_base@DV?$string_output_adapter@D@__crt_stdio_output@@@2@@__crt_stdio_output@@CAPADXZ 1002df68 f i libucrt:output.obj
 0001:0002cf6e       ?narrow_null_string@?$output_processor@DV?$string_output_adapter@D@__crt_stdio_output@@V?$positional_parameter_base@DV?$string_output_adapter@D@__crt_stdio_output@@@2@@__crt_stdio_output@@CAPADXZ 1002df6e f i libucrt:output.obj
 0001:0002cf74       ?narrow_null_string@?$output_processor@DV?$string_output_adapter@D@__crt_stdio_output@@V?$standard_base@DV?$string_output_adapter@D@__crt_stdio_output@@@2@@__crt_stdio_output@@CAPADXZ 1002df74 f i libucrt:output.obj
 0001:0002cf7a       ?narrow_null_string@?$output_processor@_WV?$stream_output_adapter@_W@__crt_stdio_output@@V?$format_validation_base@_WV?$stream_output_adapter@_W@__crt_stdio_output@@@2@@__crt_stdio_output@@CAPADXZ 1002df7a f i libucrt:output.obj
 0001:0002cf80       ?narrow_null_string@?$output_processor@_WV?$stream_output_adapter@_W@__crt_stdio_output@@V?$positional_parameter_base@_WV?$stream_output_adapter@_W@__crt_stdio_output@@@2@@__crt_stdio_output@@CAPADXZ 1002df80 f i libucrt:output.obj
 0001:0002cf86       ?narrow_null_string@?$output_processor@_WV?$stream_output_adapter@_W@__crt_stdio_output@@V?$standard_base@_WV?$stream_output_adapter@_W@__crt_stdio_output@@@2@@__crt_stdio_output@@CAPADXZ 1002df86 f i libucrt:output.obj
 0001:0002cf8c       ?narrow_null_string@?$output_processor@_WV?$string_output_adapter@_W@__crt_stdio_output@@V?$format_validation_base@_WV?$string_output_adapter@_W@__crt_stdio_output@@@2@@__crt_stdio_output@@CAPADXZ 1002df8c f i libucrt:output.obj
 0001:0002cf92       ?narrow_null_string@?$output_processor@_WV?$string_output_adapter@_W@__crt_stdio_output@@V?$positional_parameter_base@_WV?$string_output_adapter@_W@__crt_stdio_output@@@2@@__crt_stdio_output@@CAPADXZ 1002df92 f i libucrt:output.obj
 0001:0002cf98       ?narrow_null_string@?$output_processor@_WV?$string_output_adapter@_W@__crt_stdio_output@@V?$standard_base@_WV?$string_output_adapter@_W@__crt_stdio_output@@@2@@__crt_stdio_output@@CAPADXZ 1002df98 f i libucrt:output.obj
 0001:0002cf9e       ?parse_int_from_format_string@?$output_processor@DV?$stream_output_adapter@D@__crt_stdio_output@@V?$format_validation_base@DV?$stream_output_adapter@D@__crt_stdio_output@@@2@@__crt_stdio_output@@AAE_NQAH@Z 1002df9e f i libucrt:output.obj
 0001:0002d031       ?parse_int_from_format_string@?$output_processor@DV?$stream_output_adapter@D@__crt_stdio_output@@V?$positional_parameter_base@DV?$stream_output_adapter@D@__crt_stdio_output@@@2@@__crt_stdio_output@@AAE_NQAH@Z 1002e031 f i libucrt:output.obj
 0001:0002d0c4       ?parse_int_from_format_string@?$output_processor@DV?$stream_output_adapter@D@__crt_stdio_output@@V?$standard_base@DV?$stream_output_adapter@D@__crt_stdio_output@@@2@@__crt_stdio_output@@AAE_NQAH@Z 1002e0c4 f i libucrt:output.obj
 0001:0002d157       ?parse_int_from_format_string@?$output_processor@DV?$string_output_adapter@D@__crt_stdio_output@@V?$format_validation_base@DV?$string_output_adapter@D@__crt_stdio_output@@@2@@__crt_stdio_output@@AAE_NQAH@Z 1002e157 f i libucrt:output.obj
 0001:0002d1ea       ?parse_int_from_format_string@?$output_processor@DV?$string_output_adapter@D@__crt_stdio_output@@V?$positional_parameter_base@DV?$string_output_adapter@D@__crt_stdio_output@@@2@@__crt_stdio_output@@AAE_NQAH@Z 1002e1ea f i libucrt:output.obj
 0001:0002d27d       ?parse_int_from_format_string@?$output_processor@DV?$string_output_adapter@D@__crt_stdio_output@@V?$standard_base@DV?$string_output_adapter@D@__crt_stdio_output@@@2@@__crt_stdio_output@@AAE_NQAH@Z 1002e27d f i libucrt:output.obj
 0001:0002d310       ?parse_int_from_format_string@?$output_processor@_WV?$stream_output_adapter@_W@__crt_stdio_output@@V?$format_validation_base@_WV?$stream_output_adapter@_W@__crt_stdio_output@@@2@@__crt_stdio_output@@AAE_NQAH@Z 1002e310 f i libucrt:output.obj
 0001:0002d3a6       ?parse_int_from_format_string@?$output_processor@_WV?$stream_output_adapter@_W@__crt_stdio_output@@V?$positional_parameter_base@_WV?$stream_output_adapter@_W@__crt_stdio_output@@@2@@__crt_stdio_output@@AAE_NQAH@Z 1002e3a6 f i libucrt:output.obj
 0001:0002d43c       ?parse_int_from_format_string@?$output_processor@_WV?$stream_output_adapter@_W@__crt_stdio_output@@V?$standard_base@_WV?$stream_output_adapter@_W@__crt_stdio_output@@@2@@__crt_stdio_output@@AAE_NQAH@Z 1002e43c f i libucrt:output.obj
 0001:0002d4d2       ?parse_int_from_format_string@?$output_processor@_WV?$string_output_adapter@_W@__crt_stdio_output@@V?$format_validation_base@_WV?$string_output_adapter@_W@__crt_stdio_output@@@2@@__crt_stdio_output@@AAE_NQAH@Z 1002e4d2 f i libucrt:output.obj
 0001:0002d568       ?parse_int_from_format_string@?$output_processor@_WV?$string_output_adapter@_W@__crt_stdio_output@@V?$positional_parameter_base@_WV?$string_output_adapter@_W@__crt_stdio_output@@@2@@__crt_stdio_output@@AAE_NQAH@Z 1002e568 f i libucrt:output.obj
 0001:0002d5fe       ?parse_int_from_format_string@?$output_processor@_WV?$string_output_adapter@_W@__crt_stdio_output@@V?$standard_base@_WV?$string_output_adapter@_W@__crt_stdio_output@@@2@@__crt_stdio_output@@AAE_NQAH@Z 1002e5fe f i libucrt:output.obj
 0001:0002d694       ?process@?$output_processor@DV?$stream_output_adapter@D@__crt_stdio_output@@V?$format_validation_base@DV?$stream_output_adapter@D@__crt_stdio_output@@@2@@__crt_stdio_output@@QAEHXZ 1002e694 f i libucrt:output.obj
 0001:0002d806       ?process@?$output_processor@DV?$stream_output_adapter@D@__crt_stdio_output@@V?$positional_parameter_base@DV?$stream_output_adapter@D@__crt_stdio_output@@@2@@__crt_stdio_output@@QAEHXZ 1002e806 f i libucrt:output.obj
 0001:0002d9b9       ?process@?$output_processor@DV?$stream_output_adapter@D@__crt_stdio_output@@V?$standard_base@DV?$stream_output_adapter@D@__crt_stdio_output@@@2@@__crt_stdio_output@@QAEHXZ 1002e9b9 f i libucrt:output.obj
 0001:0002db1c       ?process@?$output_processor@DV?$string_output_adapter@D@__crt_stdio_output@@V?$format_validation_base@DV?$string_output_adapter@D@__crt_stdio_output@@@2@@__crt_stdio_output@@QAEHXZ 1002eb1c f i libucrt:output.obj
 0001:0002dc8e       ?process@?$output_processor@DV?$string_output_adapter@D@__crt_stdio_output@@V?$positional_parameter_base@DV?$string_output_adapter@D@__crt_stdio_output@@@2@@__crt_stdio_output@@QAEHXZ 1002ec8e f i libucrt:output.obj
 0001:0002de41       ?process@?$output_processor@DV?$string_output_adapter@D@__crt_stdio_output@@V?$standard_base@DV?$string_output_adapter@D@__crt_stdio_output@@@2@@__crt_stdio_output@@QAEHXZ 1002ee41 f i libucrt:output.obj
 0001:0002dfa4       ?process@?$output_processor@_WV?$stream_output_adapter@_W@__crt_stdio_output@@V?$format_validation_base@_WV?$stream_output_adapter@_W@__crt_stdio_output@@@2@@__crt_stdio_output@@QAEHXZ 1002efa4 f i libucrt:output.obj
 0001:0002e120       ?process@?$output_processor@_WV?$stream_output_adapter@_W@__crt_stdio_output@@V?$positional_parameter_base@_WV?$stream_output_adapter@_W@__crt_stdio_output@@@2@@__crt_stdio_output@@QAEHXZ 1002f120 f i libucrt:output.obj
 0001:0002e2d8       ?process@?$output_processor@_WV?$stream_output_adapter@_W@__crt_stdio_output@@V?$standard_base@_WV?$stream_output_adapter@_W@__crt_stdio_output@@@2@@__crt_stdio_output@@QAEHXZ 1002f2d8 f i libucrt:output.obj
 0001:0002e440       ?process@?$output_processor@_WV?$string_output_adapter@_W@__crt_stdio_output@@V?$format_validation_base@_WV?$string_output_adapter@_W@__crt_stdio_output@@@2@@__crt_stdio_output@@QAEHXZ 1002f440 f i libucrt:output.obj
 0001:0002e5bc       ?process@?$output_processor@_WV?$string_output_adapter@_W@__crt_stdio_output@@V?$positional_parameter_base@_WV?$string_output_adapter@_W@__crt_stdio_output@@@2@@__crt_stdio_output@@QAEHXZ 1002f5bc f i libucrt:output.obj
 0001:0002e774       ?process@?$output_processor@_WV?$string_output_adapter@_W@__crt_stdio_output@@V?$standard_base@_WV?$string_output_adapter@_W@__crt_stdio_output@@@2@@__crt_stdio_output@@QAEHXZ 1002f774 f i libucrt:output.obj
 0001:0002e8dc       ?public_stream@__crt_stdio_stream@@QBEPAU_iobuf@@XZ 1002f8dc f i libucrt:output.obj
 0001:0002e8df       ?set_flag@?$output_processor@DV?$stream_output_adapter@D@__crt_stdio_output@@V?$format_validation_base@DV?$stream_output_adapter@D@__crt_stdio_output@@@2@@__crt_stdio_output@@AAEXI@Z 1002f8df f i libucrt:output.obj
 0001:0002e8f1       ?set_flag@?$output_processor@DV?$stream_output_adapter@D@__crt_stdio_output@@V?$positional_parameter_base@DV?$stream_output_adapter@D@__crt_stdio_output@@@2@@__crt_stdio_output@@AAEXI@Z 1002f8f1 f i libucrt:output.obj
 0001:0002e903       ?set_flag@?$output_processor@DV?$stream_output_adapter@D@__crt_stdio_output@@V?$standard_base@DV?$stream_output_adapter@D@__crt_stdio_output@@@2@@__crt_stdio_output@@AAEXI@Z 1002f903 f i libucrt:output.obj
 0001:0002e915       ?set_flag@?$output_processor@DV?$string_output_adapter@D@__crt_stdio_output@@V?$format_validation_base@DV?$string_output_adapter@D@__crt_stdio_output@@@2@@__crt_stdio_output@@AAEXI@Z 1002f915 f i libucrt:output.obj
 0001:0002e927       ?set_flag@?$output_processor@DV?$string_output_adapter@D@__crt_stdio_output@@V?$positional_parameter_base@DV?$string_output_adapter@D@__crt_stdio_output@@@2@@__crt_stdio_output@@AAEXI@Z 1002f927 f i libucrt:output.obj
 0001:0002e939       ?set_flag@?$output_processor@DV?$string_output_adapter@D@__crt_stdio_output@@V?$standard_base@DV?$string_output_adapter@D@__crt_stdio_output@@@2@@__crt_stdio_output@@AAEXI@Z 1002f939 f i libucrt:output.obj
 0001:0002e94b       ?set_flag@?$output_processor@_WV?$stream_output_adapter@_W@__crt_stdio_output@@V?$format_validation_base@_WV?$stream_output_adapter@_W@__crt_stdio_output@@@2@@__crt_stdio_output@@AAEXI@Z 1002f94b f i libucrt:output.obj
 0001:0002e95d       ?set_flag@?$output_processor@_WV?$stream_output_adapter@_W@__crt_stdio_output@@V?$positional_parameter_base@_WV?$stream_output_adapter@_W@__crt_stdio_output@@@2@@__crt_stdio_output@@AAEXI@Z 1002f95d f i libucrt:output.obj
 0001:0002e96f       ?set_flag@?$output_processor@_WV?$stream_output_adapter@_W@__crt_stdio_output@@V?$standard_base@_WV?$stream_output_adapter@_W@__crt_stdio_output@@@2@@__crt_stdio_output@@AAEXI@Z 1002f96f f i libucrt:output.obj
 0001:0002e981       ?set_flag@?$output_processor@_WV?$string_output_adapter@_W@__crt_stdio_output@@V?$format_validation_base@_WV?$string_output_adapter@_W@__crt_stdio_output@@@2@@__crt_stdio_output@@AAEXI@Z 1002f981 f i libucrt:output.obj
 0001:0002e993       ?set_flag@?$output_processor@_WV?$string_output_adapter@_W@__crt_stdio_output@@V?$positional_parameter_base@_WV?$string_output_adapter@_W@__crt_stdio_output@@@2@@__crt_stdio_output@@AAEXI@Z 1002f993 f i libucrt:output.obj
 0001:0002e9a5       ?set_flag@?$output_processor@_WV?$string_output_adapter@_W@__crt_stdio_output@@V?$standard_base@_WV?$string_output_adapter@_W@__crt_stdio_output@@@2@@__crt_stdio_output@@AAEXI@Z 1002f9a5 f i libucrt:output.obj
 0001:0002e9b7       ?should_format@?$positional_parameter_base@DV?$stream_output_adapter@D@__crt_stdio_output@@@__crt_stdio_output@@IAE_NXZ 1002f9b7 f i libucrt:output.obj
 0001:0002e9d2       ?should_format@?$positional_parameter_base@DV?$string_output_adapter@D@__crt_stdio_output@@@__crt_stdio_output@@IAE_NXZ 1002f9d2 f i libucrt:output.obj
 0001:0002e9ed       ?should_format@?$positional_parameter_base@_WV?$stream_output_adapter@_W@__crt_stdio_output@@@__crt_stdio_output@@IAE_NXZ 1002f9ed f i libucrt:output.obj
 0001:0002ea08       ?should_format@?$positional_parameter_base@_WV?$string_output_adapter@_W@__crt_stdio_output@@@__crt_stdio_output@@IAE_NXZ 1002fa08 f i libucrt:output.obj
 0001:0002ea23       ?should_format@?$standard_base@DV?$stream_output_adapter@D@__crt_stdio_output@@@__crt_stdio_output@@IAE_NXZ 1002fa23 f i libucrt:output.obj
 0001:0002ea26       ?should_format@?$standard_base@DV?$string_output_adapter@D@__crt_stdio_output@@@__crt_stdio_output@@IAE_NXZ 1002fa26 f i libucrt:output.obj
 0001:0002ea29       ?should_format@?$standard_base@_WV?$stream_output_adapter@_W@__crt_stdio_output@@@__crt_stdio_output@@IAE_NXZ 1002fa29 f i libucrt:output.obj
 0001:0002ea2c       ?should_format@?$standard_base@_WV?$string_output_adapter@_W@__crt_stdio_output@@@__crt_stdio_output@@IAE_NXZ 1002fa2c f i libucrt:output.obj
 0001:0002ea2f       ?should_skip_normal_state_processing@?$positional_parameter_base@DV?$stream_output_adapter@D@__crt_stdio_output@@@__crt_stdio_output@@IAE_NXZ 1002fa2f f i libucrt:output.obj
 0001:0002ea61       ?should_skip_normal_state_processing@?$positional_parameter_base@DV?$string_output_adapter@D@__crt_stdio_output@@@__crt_stdio_output@@IAE_NXZ 1002fa61 f i libucrt:output.obj
 0001:0002ea93       ?should_skip_normal_state_processing@?$positional_parameter_base@_WV?$stream_output_adapter@_W@__crt_stdio_output@@@__crt_stdio_output@@IAE_NXZ 1002fa93 f i libucrt:output.obj
 0001:0002eac5       ?should_skip_normal_state_processing@?$positional_parameter_base@_WV?$string_output_adapter@_W@__crt_stdio_output@@@__crt_stdio_output@@IAE_NXZ 1002fac5 f i libucrt:output.obj
 0001:0002eaf7       ?should_skip_normal_state_processing@?$standard_base@DV?$stream_output_adapter@D@__crt_stdio_output@@@__crt_stdio_output@@IAE_NXZ 1002faf7 f i libucrt:output.obj
 0001:0002eafa       ?should_skip_normal_state_processing@?$standard_base@DV?$string_output_adapter@D@__crt_stdio_output@@@__crt_stdio_output@@IAE_NXZ 1002fafa f i libucrt:output.obj
 0001:0002eafd       ?should_skip_normal_state_processing@?$standard_base@_WV?$stream_output_adapter@_W@__crt_stdio_output@@@__crt_stdio_output@@IAE_NXZ 1002fafd f i libucrt:output.obj
 0001:0002eb00       ?should_skip_normal_state_processing@?$standard_base@_WV?$string_output_adapter@_W@__crt_stdio_output@@@__crt_stdio_output@@IAE_NXZ 1002fb00 f i libucrt:output.obj
 0001:0002eb03       ?should_skip_type_state_output@?$positional_parameter_base@DV?$stream_output_adapter@D@__crt_stdio_output@@@__crt_stdio_output@@IBE_NXZ 1002fb03 f i libucrt:output.obj
 0001:0002eb1f       ?should_skip_type_state_output@?$positional_parameter_base@DV?$string_output_adapter@D@__crt_stdio_output@@@__crt_stdio_output@@IBE_NXZ 1002fb1f f i libucrt:output.obj
 0001:0002eb3b       ?should_skip_type_state_output@?$positional_parameter_base@_WV?$stream_output_adapter@_W@__crt_stdio_output@@@__crt_stdio_output@@IBE_NXZ 1002fb3b f i libucrt:output.obj
 0001:0002eb57       ?should_skip_type_state_output@?$positional_parameter_base@_WV?$string_output_adapter@_W@__crt_stdio_output@@@__crt_stdio_output@@IBE_NXZ 1002fb57 f i libucrt:output.obj
 0001:0002eb73       ?should_skip_type_state_output@?$standard_base@DV?$stream_output_adapter@D@__crt_stdio_output@@@__crt_stdio_output@@IBE_NXZ 1002fb73 f i libucrt:output.obj
 0001:0002eb76       ?should_skip_type_state_output@?$standard_base@DV?$string_output_adapter@D@__crt_stdio_output@@@__crt_stdio_output@@IBE_NXZ 1002fb76 f i libucrt:output.obj
 0001:0002eb79       ?should_skip_type_state_output@?$standard_base@_WV?$stream_output_adapter@_W@__crt_stdio_output@@@__crt_stdio_output@@IBE_NXZ 1002fb79 f i libucrt:output.obj
 0001:0002eb7c       ?should_skip_type_state_output@?$standard_base@_WV?$string_output_adapter@_W@__crt_stdio_output@@@__crt_stdio_output@@IBE_NXZ 1002fb7c f i libucrt:output.obj
 0001:0002eb7f       ?state_case_dot@?$output_processor@DV?$stream_output_adapter@D@__crt_stdio_output@@V?$format_validation_base@DV?$stream_output_adapter@D@__crt_stdio_output@@@2@@__crt_stdio_output@@AAE_NXZ 1002fb7f f i libucrt:output.obj
 0001:0002eb86       ?state_case_dot@?$output_processor@DV?$stream_output_adapter@D@__crt_stdio_output@@V?$positional_parameter_base@DV?$stream_output_adapter@D@__crt_stdio_output@@@2@@__crt_stdio_output@@AAE_NXZ 1002fb86 f i libucrt:output.obj
 0001:0002eb8d       ?state_case_dot@?$output_processor@DV?$stream_output_adapter@D@__crt_stdio_output@@V?$standard_base@DV?$stream_output_adapter@D@__crt_stdio_output@@@2@@__crt_stdio_output@@AAE_NXZ 1002fb8d f i libucrt:output.obj
 0001:0002eb94       ?state_case_dot@?$output_processor@DV?$string_output_adapter@D@__crt_stdio_output@@V?$format_validation_base@DV?$string_output_adapter@D@__crt_stdio_output@@@2@@__crt_stdio_output@@AAE_NXZ 1002fb94 f i libucrt:output.obj
 0001:0002eb9b       ?state_case_dot@?$output_processor@DV?$string_output_adapter@D@__crt_stdio_output@@V?$positional_parameter_base@DV?$string_output_adapter@D@__crt_stdio_output@@@2@@__crt_stdio_output@@AAE_NXZ 1002fb9b f i libucrt:output.obj
 0001:0002eba2       ?state_case_dot@?$output_processor@DV?$string_output_adapter@D@__crt_stdio_output@@V?$standard_base@DV?$string_output_adapter@D@__crt_stdio_output@@@2@@__crt_stdio_output@@AAE_NXZ 1002fba2 f i libucrt:output.obj
 0001:0002eba9       ?state_case_dot@?$output_processor@_WV?$stream_output_adapter@_W@__crt_stdio_output@@V?$format_validation_base@_WV?$stream_output_adapter@_W@__crt_stdio_output@@@2@@__crt_stdio_output@@AAE_NXZ 1002fba9 f i libucrt:output.obj
 0001:0002ebb0       ?state_case_dot@?$output_processor@_WV?$stream_output_adapter@_W@__crt_stdio_output@@V?$positional_parameter_base@_WV?$stream_output_adapter@_W@__crt_stdio_output@@@2@@__crt_stdio_output@@AAE_NXZ 1002fbb0 f i libucrt:output.obj
 0001:0002ebb7       ?state_case_dot@?$output_processor@_WV?$stream_output_adapter@_W@__crt_stdio_output@@V?$standard_base@_WV?$stream_output_adapter@_W@__crt_stdio_output@@@2@@__crt_stdio_output@@AAE_NXZ 1002fbb7 f i libucrt:output.obj
 0001:0002ebbe       ?state_case_dot@?$output_processor@_WV?$string_output_adapter@_W@__crt_stdio_output@@V?$format_validation_base@_WV?$string_output_adapter@_W@__crt_stdio_output@@@2@@__crt_stdio_output@@AAE_NXZ 1002fbbe f i libucrt:output.obj
 0001:0002ebc5       ?state_case_dot@?$output_processor@_WV?$string_output_adapter@_W@__crt_stdio_output@@V?$positional_parameter_base@_WV?$string_output_adapter@_W@__crt_stdio_output@@@2@@__crt_stdio_output@@AAE_NXZ 1002fbc5 f i libucrt:output.obj
 0001:0002ebcc       ?state_case_dot@?$output_processor@_WV?$string_output_adapter@_W@__crt_stdio_output@@V?$standard_base@_WV?$string_output_adapter@_W@__crt_stdio_output@@@2@@__crt_stdio_output@@AAE_NXZ 1002fbcc f i libucrt:output.obj
 0001:0002ebd3       ?state_case_flag@?$output_processor@DV?$stream_output_adapter@D@__crt_stdio_output@@V?$format_validation_base@DV?$stream_output_adapter@D@__crt_stdio_output@@@2@@__crt_stdio_output@@AAE_NXZ 1002fbd3 f i libucrt:output.obj
 0001:0002ec1f       ?state_case_flag@?$output_processor@DV?$stream_output_adapter@D@__crt_stdio_output@@V?$positional_parameter_base@DV?$stream_output_adapter@D@__crt_stdio_output@@@2@@__crt_stdio_output@@AAE_NXZ 1002fc1f f i libucrt:output.obj
 0001:0002ec6b       ?state_case_flag@?$output_processor@DV?$stream_output_adapter@D@__crt_stdio_output@@V?$standard_base@DV?$stream_output_adapter@D@__crt_stdio_output@@@2@@__crt_stdio_output@@AAE_NXZ 1002fc6b f i libucrt:output.obj
 0001:0002ecb7       ?state_case_flag@?$output_processor@DV?$string_output_adapter@D@__crt_stdio_output@@V?$format_validation_base@DV?$string_output_adapter@D@__crt_stdio_output@@@2@@__crt_stdio_output@@AAE_NXZ 1002fcb7 f i libucrt:output.obj
 0001:0002ed03       ?state_case_flag@?$output_processor@DV?$string_output_adapter@D@__crt_stdio_output@@V?$positional_parameter_base@DV?$string_output_adapter@D@__crt_stdio_output@@@2@@__crt_stdio_output@@AAE_NXZ 1002fd03 f i libucrt:output.obj
 0001:0002ed4f       ?state_case_flag@?$output_processor@DV?$string_output_adapter@D@__crt_stdio_output@@V?$standard_base@DV?$string_output_adapter@D@__crt_stdio_output@@@2@@__crt_stdio_output@@AAE_NXZ 1002fd4f f i libucrt:output.obj
 0001:0002ed9b       ?state_case_flag@?$output_processor@_WV?$stream_output_adapter@_W@__crt_stdio_output@@V?$format_validation_base@_WV?$stream_output_adapter@_W@__crt_stdio_output@@@2@@__crt_stdio_output@@AAE_NXZ 1002fd9b f i libucrt:output.obj
 0001:0002ede7       ?state_case_flag@?$output_processor@_WV?$stream_output_adapter@_W@__crt_stdio_output@@V?$positional_parameter_base@_WV?$stream_output_adapter@_W@__crt_stdio_output@@@2@@__crt_stdio_output@@AAE_NXZ 1002fde7 f i libucrt:output.obj
 0001:0002ee33       ?state_case_flag@?$output_processor@_WV?$stream_output_adapter@_W@__crt_stdio_output@@V?$standard_base@_WV?$stream_output_adapter@_W@__crt_stdio_output@@@2@@__crt_stdio_output@@AAE_NXZ 1002fe33 f i libucrt:output.obj
 0001:0002ee7f       ?state_case_flag@?$output_processor@_WV?$string_output_adapter@_W@__crt_stdio_output@@V?$format_validation_base@_WV?$string_output_adapter@_W@__crt_stdio_output@@@2@@__crt_stdio_output@@AAE_NXZ 1002fe7f f i libucrt:output.obj
 0001:0002eecb       ?state_case_flag@?$output_processor@_WV?$string_output_adapter@_W@__crt_stdio_output@@V?$positional_parameter_base@_WV?$string_output_adapter@_W@__crt_stdio_output@@@2@@__crt_stdio_output@@AAE_NXZ 1002fecb f i libucrt:output.obj
 0001:0002ef17       ?state_case_flag@?$output_processor@_WV?$string_output_adapter@_W@__crt_stdio_output@@V?$standard_base@_WV?$string_output_adapter@_W@__crt_stdio_output@@@2@@__crt_stdio_output@@AAE_NXZ 1002ff17 f i libucrt:output.obj
 0001:0002ef63       ?state_case_normal@?$output_processor@DV?$stream_output_adapter@D@__crt_stdio_output@@V?$format_validation_base@DV?$stream_output_adapter@D@__crt_stdio_output@@@2@@__crt_stdio_output@@AAE_NXZ 1002ff63 f i libucrt:output.obj
 0001:0002ef89       ?state_case_normal@?$output_processor@DV?$stream_output_adapter@D@__crt_stdio_output@@V?$positional_parameter_base@DV?$stream_output_adapter@D@__crt_stdio_output@@@2@@__crt_stdio_output@@AAE_NXZ 1002ff89 f i libucrt:output.obj
 0001:0002efc6       ?state_case_normal@?$output_processor@DV?$stream_output_adapter@D@__crt_stdio_output@@V?$standard_base@DV?$stream_output_adapter@D@__crt_stdio_output@@@2@@__crt_stdio_output@@AAE_NXZ 1002ffc6 f i libucrt:output.obj
 0001:0002efec       ?state_case_normal@?$output_processor@DV?$string_output_adapter@D@__crt_stdio_output@@V?$format_validation_base@DV?$string_output_adapter@D@__crt_stdio_output@@@2@@__crt_stdio_output@@AAE_NXZ 1002ffec f i libucrt:output.obj
 0001:0002f012       ?state_case_normal@?$output_processor@DV?$string_output_adapter@D@__crt_stdio_output@@V?$positional_parameter_base@DV?$string_output_adapter@D@__crt_stdio_output@@@2@@__crt_stdio_output@@AAE_NXZ 10030012 f i libucrt:output.obj
 0001:0002f04f       ?state_case_normal@?$output_processor@DV?$string_output_adapter@D@__crt_stdio_output@@V?$standard_base@DV?$string_output_adapter@D@__crt_stdio_output@@@2@@__crt_stdio_output@@AAE_NXZ 1003004f f i libucrt:output.obj
 0001:0002f075       ?state_case_normal@?$output_processor@_WV?$stream_output_adapter@_W@__crt_stdio_output@@V?$format_validation_base@_WV?$stream_output_adapter@_W@__crt_stdio_output@@@2@@__crt_stdio_output@@AAE_NXZ 10030075 f i libucrt:output.obj
 0001:0002f09b       ?state_case_normal@?$output_processor@_WV?$stream_output_adapter@_W@__crt_stdio_output@@V?$positional_parameter_base@_WV?$stream_output_adapter@_W@__crt_stdio_output@@@2@@__crt_stdio_output@@AAE_NXZ 1003009b f i libucrt:output.obj
 0001:0002f0d8       ?state_case_normal@?$output_processor@_WV?$stream_output_adapter@_W@__crt_stdio_output@@V?$standard_base@_WV?$stream_output_adapter@_W@__crt_stdio_output@@@2@@__crt_stdio_output@@AAE_NXZ 100300d8 f i libucrt:output.obj
 0001:0002f0fe       ?state_case_normal@?$output_processor@_WV?$string_output_adapter@_W@__crt_stdio_output@@V?$format_validation_base@_WV?$string_output_adapter@_W@__crt_stdio_output@@@2@@__crt_stdio_output@@AAE_NXZ 100300fe f i libucrt:output.obj
 0001:0002f124       ?state_case_normal@?$output_processor@_WV?$string_output_adapter@_W@__crt_stdio_output@@V?$positional_parameter_base@_WV?$string_output_adapter@_W@__crt_stdio_output@@@2@@__crt_stdio_output@@AAE_NXZ 10030124 f i libucrt:output.obj
 0001:0002f161       ?state_case_normal@?$output_processor@_WV?$string_output_adapter@_W@__crt_stdio_output@@V?$standard_base@_WV?$string_output_adapter@_W@__crt_stdio_output@@@2@@__crt_stdio_output@@AAE_NXZ 10030161 f i libucrt:output.obj
 0001:0002f187       ?state_case_normal_common@?$output_processor@DV?$stream_output_adapter@D@__crt_stdio_output@@V?$format_validation_base@DV?$stream_output_adapter@D@__crt_stdio_output@@@2@@__crt_stdio_output@@AAE_NXZ 10030187 f i libucrt:output.obj
 0001:0002f1d2       ?state_case_normal_common@?$output_processor@DV?$stream_output_adapter@D@__crt_stdio_output@@V?$positional_parameter_base@DV?$stream_output_adapter@D@__crt_stdio_output@@@2@@__crt_stdio_output@@AAE_NXZ 100301d2 f i libucrt:output.obj
 0001:0002f21d       ?state_case_normal_common@?$output_processor@DV?$stream_output_adapter@D@__crt_stdio_output@@V?$standard_base@DV?$stream_output_adapter@D@__crt_stdio_output@@@2@@__crt_stdio_output@@AAE_NXZ 1003021d f i libucrt:output.obj
 0001:0002f268       ?state_case_normal_common@?$output_processor@DV?$string_output_adapter@D@__crt_stdio_output@@V?$format_validation_base@DV?$string_output_adapter@D@__crt_stdio_output@@@2@@__crt_stdio_output@@AAE_NXZ 10030268 f i libucrt:output.obj
 0001:0002f29c       ?state_case_normal_common@?$output_processor@DV?$string_output_adapter@D@__crt_stdio_output@@V?$positional_parameter_base@DV?$string_output_adapter@D@__crt_stdio_output@@@2@@__crt_stdio_output@@AAE_NXZ 1003029c f i libucrt:output.obj
 0001:0002f2d0       ?state_case_normal_common@?$output_processor@DV?$string_output_adapter@D@__crt_stdio_output@@V?$standard_base@DV?$string_output_adapter@D@__crt_stdio_output@@@2@@__crt_stdio_output@@AAE_NXZ 100302d0 f i libucrt:output.obj
 0001:0002f304       ?state_case_normal_common@?$output_processor@_WV?$stream_output_adapter@_W@__crt_stdio_output@@V?$format_validation_base@_WV?$stream_output_adapter@_W@__crt_stdio_output@@@2@@__crt_stdio_output@@AAE_NXZ 10030304 f i libucrt:output.obj
 0001:0002f338       ?state_case_normal_common@?$output_processor@_WV?$stream_output_adapter@_W@__crt_stdio_output@@V?$positional_parameter_base@_WV?$stream_output_adapter@_W@__crt_stdio_output@@@2@@__crt_stdio_output@@AAE_NXZ 10030338 f i libucrt:output.obj
 0001:0002f36c       ?state_case_normal_common@?$output_processor@_WV?$stream_output_adapter@_W@__crt_stdio_output@@V?$standard_base@_WV?$stream_output_adapter@_W@__crt_stdio_output@@@2@@__crt_stdio_output@@AAE_NXZ 1003036c f i libucrt:output.obj
 0001:0002f3a0       ?state_case_normal_common@?$output_processor@_WV?$string_output_adapter@_W@__crt_stdio_output@@V?$format_validation_base@_WV?$string_output_adapter@_W@__crt_stdio_output@@@2@@__crt_stdio_output@@AAE_NXZ 100303a0 f i libucrt:output.obj
 0001:0002f3c1       ?state_case_normal_common@?$output_processor@_WV?$string_output_adapter@_W@__crt_stdio_output@@V?$positional_parameter_base@_WV?$string_output_adapter@_W@__crt_stdio_output@@@2@@__crt_stdio_output@@AAE_NXZ 100303c1 f i libucrt:output.obj
 0001:0002f3e2       ?state_case_normal_common@?$output_processor@_WV?$string_output_adapter@_W@__crt_stdio_output@@V?$standard_base@_WV?$string_output_adapter@_W@__crt_stdio_output@@@2@@__crt_stdio_output@@AAE_NXZ 100303e2 f i libucrt:output.obj
 0001:0002f403       ?state_case_normal_tchar@?$output_processor@DV?$stream_output_adapter@D@__crt_stdio_output@@V?$format_validation_base@DV?$stream_output_adapter@D@__crt_stdio_output@@@2@@__crt_stdio_output@@AAE_ND@Z 10030403 f i libucrt:output.obj
 0001:0002f47d       ?state_case_normal_tchar@?$output_processor@DV?$stream_output_adapter@D@__crt_stdio_output@@V?$positional_parameter_base@DV?$stream_output_adapter@D@__crt_stdio_output@@@2@@__crt_stdio_output@@AAE_ND@Z 1003047d f i libucrt:output.obj
 0001:0002f4f7       ?state_case_normal_tchar@?$output_processor@DV?$stream_output_adapter@D@__crt_stdio_output@@V?$standard_base@DV?$stream_output_adapter@D@__crt_stdio_output@@@2@@__crt_stdio_output@@AAE_ND@Z 100304f7 f i libucrt:output.obj
 0001:0002f571       ?state_case_normal_tchar@?$output_processor@DV?$string_output_adapter@D@__crt_stdio_output@@V?$format_validation_base@DV?$string_output_adapter@D@__crt_stdio_output@@@2@@__crt_stdio_output@@AAE_ND@Z 10030571 f i libucrt:output.obj
 0001:0002f5e0       ?state_case_normal_tchar@?$output_processor@DV?$string_output_adapter@D@__crt_stdio_output@@V?$positional_parameter_base@DV?$string_output_adapter@D@__crt_stdio_output@@@2@@__crt_stdio_output@@AAE_ND@Z 100305e0 f i libucrt:output.obj
 0001:0002f64f       ?state_case_normal_tchar@?$output_processor@DV?$string_output_adapter@D@__crt_stdio_output@@V?$standard_base@DV?$string_output_adapter@D@__crt_stdio_output@@@2@@__crt_stdio_output@@AAE_ND@Z 1003064f f i libucrt:output.obj
 0001:0002f6be       ?state_case_normal_tchar@?$output_processor@_WV?$stream_output_adapter@_W@__crt_stdio_output@@V?$format_validation_base@_WV?$stream_output_adapter@_W@__crt_stdio_output@@@2@@__crt_stdio_output@@AAE_N_W@Z 100306be f i libucrt:output.obj
 0001:0002f6c9       ?state_case_normal_tchar@?$output_processor@_WV?$stream_output_adapter@_W@__crt_stdio_output@@V?$positional_parameter_base@_WV?$stream_output_adapter@_W@__crt_stdio_output@@@2@@__crt_stdio_output@@AAE_N_W@Z 100306c9 f i libucrt:output.obj
 0001:0002f6d4       ?state_case_normal_tchar@?$output_processor@_WV?$stream_output_adapter@_W@__crt_stdio_output@@V?$standard_base@_WV?$stream_output_adapter@_W@__crt_stdio_output@@@2@@__crt_stdio_output@@AAE_N_W@Z 100306d4 f i libucrt:output.obj
 0001:0002f6df       ?state_case_normal_tchar@?$output_processor@_WV?$string_output_adapter@_W@__crt_stdio_output@@V?$format_validation_base@_WV?$string_output_adapter@_W@__crt_stdio_output@@@2@@__crt_stdio_output@@AAE_N_W@Z 100306df f i libucrt:output.obj
 0001:0002f6ea       ?state_case_normal_tchar@?$output_processor@_WV?$string_output_adapter@_W@__crt_stdio_output@@V?$positional_parameter_base@_WV?$string_output_adapter@_W@__crt_stdio_output@@@2@@__crt_stdio_output@@AAE_N_W@Z 100306ea f i libucrt:output.obj
 0001:0002f6f5       ?state_case_normal_tchar@?$output_processor@_WV?$string_output_adapter@_W@__crt_stdio_output@@V?$standard_base@_WV?$string_output_adapter@_W@__crt_stdio_output@@@2@@__crt_stdio_output@@AAE_N_W@Z 100306f5 f i libucrt:output.obj
 0001:0002f700       ?state_case_percent@?$output_processor@DV?$stream_output_adapter@D@__crt_stdio_output@@V?$format_validation_base@DV?$stream_output_adapter@D@__crt_stdio_output@@@2@@__crt_stdio_output@@AAE_NXZ 10030700 f i libucrt:output.obj
 0001:0002f71e       ?state_case_percent@?$output_processor@DV?$stream_output_adapter@D@__crt_stdio_output@@V?$positional_parameter_base@DV?$stream_output_adapter@D@__crt_stdio_output@@@2@@__crt_stdio_output@@AAE_NXZ 1003071e f i libucrt:output.obj
 0001:0002f73c       ?state_case_percent@?$output_processor@DV?$stream_output_adapter@D@__crt_stdio_output@@V?$standard_base@DV?$stream_output_adapter@D@__crt_stdio_output@@@2@@__crt_stdio_output@@AAE_NXZ 1003073c f i libucrt:output.obj
 0001:0002f75a       ?state_case_percent@?$output_processor@DV?$string_output_adapter@D@__crt_stdio_output@@V?$format_validation_base@DV?$string_output_adapter@D@__crt_stdio_output@@@2@@__crt_stdio_output@@AAE_NXZ 1003075a f i libucrt:output.obj
 0001:0002f778       ?state_case_percent@?$output_processor@DV?$string_output_adapter@D@__crt_stdio_output@@V?$positional_parameter_base@DV?$string_output_adapter@D@__crt_stdio_output@@@2@@__crt_stdio_output@@AAE_NXZ 10030778 f i libucrt:output.obj
 0001:0002f796       ?state_case_percent@?$output_processor@DV?$string_output_adapter@D@__crt_stdio_output@@V?$standard_base@DV?$string_output_adapter@D@__crt_stdio_output@@@2@@__crt_stdio_output@@AAE_NXZ 10030796 f i libucrt:output.obj
 0001:0002f7b4       ?state_case_percent@?$output_processor@_WV?$stream_output_adapter@_W@__crt_stdio_output@@V?$format_validation_base@_WV?$stream_output_adapter@_W@__crt_stdio_output@@@2@@__crt_stdio_output@@AAE_NXZ 100307b4 f i libucrt:output.obj
 0001:0002f7d2       ?state_case_percent@?$output_processor@_WV?$stream_output_adapter@_W@__crt_stdio_output@@V?$positional_parameter_base@_WV?$stream_output_adapter@_W@__crt_stdio_output@@@2@@__crt_stdio_output@@AAE_NXZ 100307d2 f i libucrt:output.obj
 0001:0002f7f0       ?state_case_percent@?$output_processor@_WV?$stream_output_adapter@_W@__crt_stdio_output@@V?$standard_base@_WV?$stream_output_adapter@_W@__crt_stdio_output@@@2@@__crt_stdio_output@@AAE_NXZ 100307f0 f i libucrt:output.obj
 0001:0002f80e       ?state_case_percent@?$output_processor@_WV?$string_output_adapter@_W@__crt_stdio_output@@V?$format_validation_base@_WV?$string_output_adapter@_W@__crt_stdio_output@@@2@@__crt_stdio_output@@AAE_NXZ 1003080e f i libucrt:output.obj
 0001:0002f82c       ?state_case_percent@?$output_processor@_WV?$string_output_adapter@_W@__crt_stdio_output@@V?$positional_parameter_base@_WV?$string_output_adapter@_W@__crt_stdio_output@@@2@@__crt_stdio_output@@AAE_NXZ 1003082c f i libucrt:output.obj
 0001:0002f84a       ?state_case_percent@?$output_processor@_WV?$string_output_adapter@_W@__crt_stdio_output@@V?$standard_base@_WV?$string_output_adapter@_W@__crt_stdio_output@@@2@@__crt_stdio_output@@AAE_NXZ 1003084a f i libucrt:output.obj
 0001:0002f868       ?state_case_precision@?$output_processor@DV?$stream_output_adapter@D@__crt_stdio_output@@V?$format_validation_base@DV?$stream_output_adapter@D@__crt_stdio_output@@@2@@__crt_stdio_output@@AAE_NXZ 10030868 f i libucrt:output.obj
 0001:0002f897       ?state_case_precision@?$output_processor@DV?$stream_output_adapter@D@__crt_stdio_output@@V?$positional_parameter_base@DV?$stream_output_adapter@D@__crt_stdio_output@@@2@@__crt_stdio_output@@AAE_NXZ 10030897 f i libucrt:output.obj
 0001:0002f8df       ?state_case_precision@?$output_processor@DV?$stream_output_adapter@D@__crt_stdio_output@@V?$standard_base@DV?$stream_output_adapter@D@__crt_stdio_output@@@2@@__crt_stdio_output@@AAE_NXZ 100308df f i libucrt:output.obj
 0001:0002f90e       ?state_case_precision@?$output_processor@DV?$string_output_adapter@D@__crt_stdio_output@@V?$format_validation_base@DV?$string_output_adapter@D@__crt_stdio_output@@@2@@__crt_stdio_output@@AAE_NXZ 1003090e f i libucrt:output.obj
 0001:0002f93d       ?state_case_precision@?$output_processor@DV?$string_output_adapter@D@__crt_stdio_output@@V?$positional_parameter_base@DV?$string_output_adapter@D@__crt_stdio_output@@@2@@__crt_stdio_output@@AAE_NXZ 1003093d f i libucrt:output.obj
 0001:0002f985       ?state_case_precision@?$output_processor@DV?$string_output_adapter@D@__crt_stdio_output@@V?$standard_base@DV?$string_output_adapter@D@__crt_stdio_output@@@2@@__crt_stdio_output@@AAE_NXZ 10030985 f i libucrt:output.obj
 0001:0002f9b4       ?state_case_precision@?$output_processor@_WV?$stream_output_adapter@_W@__crt_stdio_output@@V?$format_validation_base@_WV?$stream_output_adapter@_W@__crt_stdio_output@@@2@@__crt_stdio_output@@AAE_NXZ 100309b4 f i libucrt:output.obj
 0001:0002f9e4       ?state_case_precision@?$output_processor@_WV?$stream_output_adapter@_W@__crt_stdio_output@@V?$positional_parameter_base@_WV?$stream_output_adapter@_W@__crt_stdio_output@@@2@@__crt_stdio_output@@AAE_NXZ 100309e4 f i libucrt:output.obj
 0001:0002fa2d       ?state_case_precision@?$output_processor@_WV?$stream_output_adapter@_W@__crt_stdio_output@@V?$standard_base@_WV?$stream_output_adapter@_W@__crt_stdio_output@@@2@@__crt_stdio_output@@AAE_NXZ 10030a2d f i libucrt:output.obj
 0001:0002fa5d       ?state_case_precision@?$output_processor@_WV?$string_output_adapter@_W@__crt_stdio_output@@V?$format_validation_base@_WV?$string_output_adapter@_W@__crt_stdio_output@@@2@@__crt_stdio_output@@AAE_NXZ 10030a5d f i libucrt:output.obj
 0001:0002fa8d       ?state_case_precision@?$output_processor@_WV?$string_output_adapter@_W@__crt_stdio_output@@V?$positional_parameter_base@_WV?$string_output_adapter@_W@__crt_stdio_output@@@2@@__crt_stdio_output@@AAE_NXZ 10030a8d f i libucrt:output.obj
 0001:0002fad6       ?state_case_precision@?$output_processor@_WV?$string_output_adapter@_W@__crt_stdio_output@@V?$standard_base@_WV?$string_output_adapter@_W@__crt_stdio_output@@@2@@__crt_stdio_output@@AAE_NXZ 10030ad6 f i libucrt:output.obj
 0001:0002fb06       ?state_case_size@?$output_processor@DV?$stream_output_adapter@D@__crt_stdio_output@@V?$format_validation_base@DV?$stream_output_adapter@D@__crt_stdio_output@@@2@@__crt_stdio_output@@AAE_NXZ 10030b06 f i libucrt:output.obj
 0001:0002fcb6       ?state_case_size@?$output_processor@DV?$stream_output_adapter@D@__crt_stdio_output@@V?$positional_parameter_base@DV?$stream_output_adapter@D@__crt_stdio_output@@@2@@__crt_stdio_output@@AAE_NXZ 10030cb6 f i libucrt:output.obj
 0001:0002fe66       ?state_case_size@?$output_processor@DV?$stream_output_adapter@D@__crt_stdio_output@@V?$standard_base@DV?$stream_output_adapter@D@__crt_stdio_output@@@2@@__crt_stdio_output@@AAE_NXZ 10030e66 f i libucrt:output.obj
 0001:00030016       ?state_case_size@?$output_processor@DV?$string_output_adapter@D@__crt_stdio_output@@V?$format_validation_base@DV?$string_output_adapter@D@__crt_stdio_output@@@2@@__crt_stdio_output@@AAE_NXZ 10031016 f i libucrt:output.obj
 0001:000301c6       ?state_case_size@?$output_processor@DV?$string_output_adapter@D@__crt_stdio_output@@V?$positional_parameter_base@DV?$string_output_adapter@D@__crt_stdio_output@@@2@@__crt_stdio_output@@AAE_NXZ 100311c6 f i libucrt:output.obj
 0001:00030376       ?state_case_size@?$output_processor@DV?$string_output_adapter@D@__crt_stdio_output@@V?$standard_base@DV?$string_output_adapter@D@__crt_stdio_output@@@2@@__crt_stdio_output@@AAE_NXZ 10031376 f i libucrt:output.obj
 0001:00030526       ?state_case_size@?$output_processor@_WV?$stream_output_adapter@_W@__crt_stdio_output@@V?$format_validation_base@_WV?$stream_output_adapter@_W@__crt_stdio_output@@@2@@__crt_stdio_output@@AAE_NXZ 10031526 f i libucrt:output.obj
 0001:000306ee       ?state_case_size@?$output_processor@_WV?$stream_output_adapter@_W@__crt_stdio_output@@V?$positional_parameter_base@_WV?$stream_output_adapter@_W@__crt_stdio_output@@@2@@__crt_stdio_output@@AAE_NXZ 100316ee f i libucrt:output.obj
 0001:000308b6       ?state_case_size@?$output_processor@_WV?$stream_output_adapter@_W@__crt_stdio_output@@V?$standard_base@_WV?$stream_output_adapter@_W@__crt_stdio_output@@@2@@__crt_stdio_output@@AAE_NXZ 100318b6 f i libucrt:output.obj
 0001:00030a7e       ?state_case_size@?$output_processor@_WV?$string_output_adapter@_W@__crt_stdio_output@@V?$format_validation_base@_WV?$string_output_adapter@_W@__crt_stdio_output@@@2@@__crt_stdio_output@@AAE_NXZ 10031a7e f i libucrt:output.obj
 0001:00030c46       ?state_case_size@?$output_processor@_WV?$string_output_adapter@_W@__crt_stdio_output@@V?$positional_parameter_base@_WV?$string_output_adapter@_W@__crt_stdio_output@@@2@@__crt_stdio_output@@AAE_NXZ 10031c46 f i libucrt:output.obj
 0001:00030e0e       ?state_case_size@?$output_processor@_WV?$string_output_adapter@_W@__crt_stdio_output@@V?$standard_base@_WV?$string_output_adapter@_W@__crt_stdio_output@@@2@@__crt_stdio_output@@AAE_NXZ 10031e0e f i libucrt:output.obj
 0001:00030fd6       ?state_case_type@?$output_processor@DV?$stream_output_adapter@D@__crt_stdio_output@@V?$format_validation_base@DV?$stream_output_adapter@D@__crt_stdio_output@@@2@@__crt_stdio_output@@AAE_NXZ 10031fd6 f i libucrt:output.obj
 0001:00031289       ?state_case_type@?$output_processor@DV?$stream_output_adapter@D@__crt_stdio_output@@V?$positional_parameter_base@DV?$stream_output_adapter@D@__crt_stdio_output@@@2@@__crt_stdio_output@@AAE_NXZ 10032289 f i libucrt:output.obj
 0001:0003154a       ?state_case_type@?$output_processor@DV?$stream_output_adapter@D@__crt_stdio_output@@V?$standard_base@DV?$stream_output_adapter@D@__crt_stdio_output@@@2@@__crt_stdio_output@@AAE_NXZ 1003254a f i libucrt:output.obj
 0001:000317fd       ?state_case_type@?$output_processor@DV?$string_output_adapter@D@__crt_stdio_output@@V?$format_validation_base@DV?$string_output_adapter@D@__crt_stdio_output@@@2@@__crt_stdio_output@@AAE_NXZ 100327fd f i libucrt:output.obj
 0001:00031ab0       ?state_case_type@?$output_processor@DV?$string_output_adapter@D@__crt_stdio_output@@V?$positional_parameter_base@DV?$string_output_adapter@D@__crt_stdio_output@@@2@@__crt_stdio_output@@AAE_NXZ 10032ab0 f i libucrt:output.obj
 0001:00031d71       ?state_case_type@?$output_processor@DV?$string_output_adapter@D@__crt_stdio_output@@V?$standard_base@DV?$string_output_adapter@D@__crt_stdio_output@@@2@@__crt_stdio_output@@AAE_NXZ 10032d71 f i libucrt:output.obj
 0001:00032024       ?state_case_type@?$output_processor@_WV?$stream_output_adapter@_W@__crt_stdio_output@@V?$format_validation_base@_WV?$stream_output_adapter@_W@__crt_stdio_output@@@2@@__crt_stdio_output@@AAE_NXZ 10033024 f i libucrt:output.obj
 0001:00032324       ?state_case_type@?$output_processor@_WV?$stream_output_adapter@_W@__crt_stdio_output@@V?$positional_parameter_base@_WV?$stream_output_adapter@_W@__crt_stdio_output@@@2@@__crt_stdio_output@@AAE_NXZ 10033324 f i libucrt:output.obj
 0001:00032637       ?state_case_type@?$output_processor@_WV?$stream_output_adapter@_W@__crt_stdio_output@@V?$standard_base@_WV?$stream_output_adapter@_W@__crt_stdio_output@@@2@@__crt_stdio_output@@AAE_NXZ 10033637 f i libucrt:output.obj
 0001:00032937       ?state_case_type@?$output_processor@_WV?$string_output_adapter@_W@__crt_stdio_output@@V?$format_validation_base@_WV?$string_output_adapter@_W@__crt_stdio_output@@@2@@__crt_stdio_output@@AAE_NXZ 10033937 f i libucrt:output.obj
 0001:00032c37       ?state_case_type@?$output_processor@_WV?$string_output_adapter@_W@__crt_stdio_output@@V?$positional_parameter_base@_WV?$string_output_adapter@_W@__crt_stdio_output@@@2@@__crt_stdio_output@@AAE_NXZ 10033c37 f i libucrt:output.obj
 0001:00032f4a       ?state_case_type@?$output_processor@_WV?$string_output_adapter@_W@__crt_stdio_output@@V?$standard_base@_WV?$string_output_adapter@_W@__crt_stdio_output@@@2@@__crt_stdio_output@@AAE_NXZ 10033f4a f i libucrt:output.obj
 0001:0003324a       ?state_case_width@?$output_processor@DV?$stream_output_adapter@D@__crt_stdio_output@@V?$format_validation_base@DV?$stream_output_adapter@D@__crt_stdio_output@@@2@@__crt_stdio_output@@AAE_NXZ 1003424a f i libucrt:output.obj
 0001:0003327f       ?state_case_width@?$output_processor@DV?$stream_output_adapter@D@__crt_stdio_output@@V?$positional_parameter_base@DV?$stream_output_adapter@D@__crt_stdio_output@@@2@@__crt_stdio_output@@AAE_NXZ 1003427f f i libucrt:output.obj
 0001:000332cf       ?state_case_width@?$output_processor@DV?$stream_output_adapter@D@__crt_stdio_output@@V?$standard_base@DV?$stream_output_adapter@D@__crt_stdio_output@@@2@@__crt_stdio_output@@AAE_NXZ 100342cf f i libucrt:output.obj
 0001:00033304       ?state_case_width@?$output_processor@DV?$string_output_adapter@D@__crt_stdio_output@@V?$format_validation_base@DV?$string_output_adapter@D@__crt_stdio_output@@@2@@__crt_stdio_output@@AAE_NXZ 10034304 f i libucrt:output.obj
 0001:00033339       ?state_case_width@?$output_processor@DV?$string_output_adapter@D@__crt_stdio_output@@V?$positional_parameter_base@DV?$string_output_adapter@D@__crt_stdio_output@@@2@@__crt_stdio_output@@AAE_NXZ 10034339 f i libucrt:output.obj
 0001:00033389       ?state_case_width@?$output_processor@DV?$string_output_adapter@D@__crt_stdio_output@@V?$standard_base@DV?$string_output_adapter@D@__crt_stdio_output@@@2@@__crt_stdio_output@@AAE_NXZ 10034389 f i libucrt:output.obj
 0001:000333be       ?state_case_width@?$output_processor@_WV?$stream_output_adapter@_W@__crt_stdio_output@@V?$format_validation_base@_WV?$stream_output_adapter@_W@__crt_stdio_output@@@2@@__crt_stdio_output@@AAE_NXZ 100343be f i libucrt:output.obj
 0001:000333f5       ?state_case_width@?$output_processor@_WV?$stream_output_adapter@_W@__crt_stdio_output@@V?$positional_parameter_base@_WV?$stream_output_adapter@_W@__crt_stdio_output@@@2@@__crt_stdio_output@@AAE_NXZ 100343f5 f i libucrt:output.obj
 0001:00033446       ?state_case_width@?$output_processor@_WV?$stream_output_adapter@_W@__crt_stdio_output@@V?$standard_base@_WV?$stream_output_adapter@_W@__crt_stdio_output@@@2@@__crt_stdio_output@@AAE_NXZ 10034446 f i libucrt:output.obj
 0001:0003347d       ?state_case_width@?$output_processor@_WV?$string_output_adapter@_W@__crt_stdio_output@@V?$format_validation_base@_WV?$string_output_adapter@_W@__crt_stdio_output@@@2@@__crt_stdio_output@@AAE_NXZ 1003447d f i libucrt:output.obj
 0001:000334b4       ?state_case_width@?$output_processor@_WV?$string_output_adapter@_W@__crt_stdio_output@@V?$positional_parameter_base@_WV?$string_output_adapter@_W@__crt_stdio_output@@@2@@__crt_stdio_output@@AAE_NXZ 100344b4 f i libucrt:output.obj
 0001:00033505       ?state_case_width@?$output_processor@_WV?$string_output_adapter@_W@__crt_stdio_output@@V?$standard_base@_WV?$string_output_adapter@_W@__crt_stdio_output@@@2@@__crt_stdio_output@@AAE_NXZ 10034505 f i libucrt:output.obj
 0001:0003353c       ?state_count@?$format_validation_base@DV?$stream_output_adapter@D@__crt_stdio_output@@@__crt_stdio_output@@KAIXZ 1003453c f i libucrt:output.obj
 0001:00033540       ?state_count@?$format_validation_base@DV?$string_output_adapter@D@__crt_stdio_output@@@__crt_stdio_output@@KAIXZ 10034540 f i libucrt:output.obj
 0001:00033544       ?state_count@?$format_validation_base@_WV?$stream_output_adapter@_W@__crt_stdio_output@@@__crt_stdio_output@@KAIXZ 10034544 f i libucrt:output.obj
 0001:00033548       ?state_count@?$format_validation_base@_WV?$string_output_adapter@_W@__crt_stdio_output@@@__crt_stdio_output@@KAIXZ 10034548 f i libucrt:output.obj
 0001:0003354c       ?state_count@?$standard_base@DV?$stream_output_adapter@D@__crt_stdio_output@@@__crt_stdio_output@@KAIXZ 1003454c f i libucrt:output.obj
 0001:00033550       ?state_count@?$standard_base@DV?$string_output_adapter@D@__crt_stdio_output@@@__crt_stdio_output@@KAIXZ 10034550 f i libucrt:output.obj
 0001:00033554       ?state_count@?$standard_base@_WV?$stream_output_adapter@_W@__crt_stdio_output@@@__crt_stdio_output@@KAIXZ 10034554 f i libucrt:output.obj
 0001:00033558       ?state_count@?$standard_base@_WV?$string_output_adapter@_W@__crt_stdio_output@@@__crt_stdio_output@@KAIXZ 10034558 f i libucrt:output.obj
 0001:0003355c       ?state_transition_table@?$format_validation_base@DV?$stream_output_adapter@D@__crt_stdio_output@@@__crt_stdio_output@@KAPBEXZ 1003455c f i libucrt:output.obj
 0001:00033562       ?state_transition_table@?$format_validation_base@DV?$string_output_adapter@D@__crt_stdio_output@@@__crt_stdio_output@@KAPBEXZ 10034562 f i libucrt:output.obj
 0001:00033568       ?state_transition_table@?$format_validation_base@_WV?$stream_output_adapter@_W@__crt_stdio_output@@@__crt_stdio_output@@KAPBEXZ 10034568 f i libucrt:output.obj
 0001:0003356e       ?state_transition_table@?$format_validation_base@_WV?$string_output_adapter@_W@__crt_stdio_output@@@__crt_stdio_output@@KAPBEXZ 1003456e f i libucrt:output.obj
 0001:00033574       ?state_transition_table@?$standard_base@DV?$stream_output_adapter@D@__crt_stdio_output@@@__crt_stdio_output@@KAPBEXZ 10034574 f i libucrt:output.obj
 0001:0003357a       ?state_transition_table@?$standard_base@DV?$string_output_adapter@D@__crt_stdio_output@@@__crt_stdio_output@@KAPBEXZ 1003457a f i libucrt:output.obj
 0001:00033580       ?state_transition_table@?$standard_base@_WV?$stream_output_adapter@_W@__crt_stdio_output@@@__crt_stdio_output@@KAPBEXZ 10034580 f i libucrt:output.obj
 0001:00033586       ?state_transition_table@?$standard_base@_WV?$string_output_adapter@_W@__crt_stdio_output@@@__crt_stdio_output@@KAPBEXZ 10034586 f i libucrt:output.obj
 0001:0003358c       ?tchar_string@?$common_data@D@__crt_stdio_output@@IAEAAPADD@Z 1003458c f i libucrt:output.obj
 0001:00033592       ?tchar_string@?$common_data@D@__crt_stdio_output@@IAEAAPADXZ 10034592 f i libucrt:output.obj
 0001:00033596       ?tchar_string@?$common_data@_W@__crt_stdio_output@@IAEAAPA_WXZ 10034596 f i libucrt:output.obj
 0001:0003359a       ?tchar_string@?$common_data@_W@__crt_stdio_output@@IAEAAPA_W_W@Z 1003459a f i libucrt:output.obj
 0001:000335a0       ?to_integer_size@__crt_stdio_output@@YAIW4length_modifier@1@@Z 100345a0 f i libucrt:output.obj
 0001:00033613       ?type_case_X@?$output_processor@DV?$stream_output_adapter@D@__crt_stdio_output@@V?$format_validation_base@DV?$stream_output_adapter@D@__crt_stdio_output@@@2@@__crt_stdio_output@@AAE_NXZ 10034613 f i libucrt:output.obj
 0001:0003361f       ?type_case_X@?$output_processor@DV?$stream_output_adapter@D@__crt_stdio_output@@V?$positional_parameter_base@DV?$stream_output_adapter@D@__crt_stdio_output@@@2@@__crt_stdio_output@@AAE_NXZ 1003461f f i libucrt:output.obj
 0001:0003362b       ?type_case_X@?$output_processor@DV?$stream_output_adapter@D@__crt_stdio_output@@V?$standard_base@DV?$stream_output_adapter@D@__crt_stdio_output@@@2@@__crt_stdio_output@@AAE_NXZ 1003462b f i libucrt:output.obj
 0001:00033637       ?type_case_X@?$output_processor@DV?$string_output_adapter@D@__crt_stdio_output@@V?$format_validation_base@DV?$string_output_adapter@D@__crt_stdio_output@@@2@@__crt_stdio_output@@AAE_NXZ 10034637 f i libucrt:output.obj
 0001:00033643       ?type_case_X@?$output_processor@DV?$string_output_adapter@D@__crt_stdio_output@@V?$positional_parameter_base@DV?$string_output_adapter@D@__crt_stdio_output@@@2@@__crt_stdio_output@@AAE_NXZ 10034643 f i libucrt:output.obj
 0001:0003364f       ?type_case_X@?$output_processor@DV?$string_output_adapter@D@__crt_stdio_output@@V?$standard_base@DV?$string_output_adapter@D@__crt_stdio_output@@@2@@__crt_stdio_output@@AAE_NXZ 1003464f f i libucrt:output.obj
 0001:0003365b       ?type_case_X@?$output_processor@_WV?$stream_output_adapter@_W@__crt_stdio_output@@V?$format_validation_base@_WV?$stream_output_adapter@_W@__crt_stdio_output@@@2@@__crt_stdio_output@@AAE_NXZ 1003465b f i libucrt:output.obj
 0001:00033667       ?type_case_X@?$output_processor@_WV?$stream_output_adapter@_W@__crt_stdio_output@@V?$positional_parameter_base@_WV?$stream_output_adapter@_W@__crt_stdio_output@@@2@@__crt_stdio_output@@AAE_NXZ 10034667 f i libucrt:output.obj
 0001:00033673       ?type_case_X@?$output_processor@_WV?$stream_output_adapter@_W@__crt_stdio_output@@V?$standard_base@_WV?$stream_output_adapter@_W@__crt_stdio_output@@@2@@__crt_stdio_output@@AAE_NXZ 10034673 f i libucrt:output.obj
 0001:0003367f       ?type_case_X@?$output_processor@_WV?$string_output_adapter@_W@__crt_stdio_output@@V?$format_validation_base@_WV?$string_output_adapter@_W@__crt_stdio_output@@@2@@__crt_stdio_output@@AAE_NXZ 1003467f f i libucrt:output.obj
 0001:0003368b       ?type_case_X@?$output_processor@_WV?$string_output_adapter@_W@__crt_stdio_output@@V?$positional_parameter_base@_WV?$string_output_adapter@_W@__crt_stdio_output@@@2@@__crt_stdio_output@@AAE_NXZ 1003468b f i libucrt:output.obj
 0001:00033697       ?type_case_X@?$output_processor@_WV?$string_output_adapter@_W@__crt_stdio_output@@V?$standard_base@_WV?$string_output_adapter@_W@__crt_stdio_output@@@2@@__crt_stdio_output@@AAE_NXZ 10034697 f i libucrt:output.obj
 0001:000336a3       ?type_case_Z@?$output_processor@DV?$stream_output_adapter@D@__crt_stdio_output@@V?$format_validation_base@DV?$stream_output_adapter@D@__crt_stdio_output@@@2@@__crt_stdio_output@@AAE_NXZ 100346a3 f i libucrt:output.obj
 0001:0003371c       ?type_case_Z@?$output_processor@DV?$stream_output_adapter@D@__crt_stdio_output@@V?$positional_parameter_base@DV?$stream_output_adapter@D@__crt_stdio_output@@@2@@__crt_stdio_output@@AAE_NXZ 1003471c f i libucrt:output.obj
 0001:00033832       ?type_case_Z@?$output_processor@DV?$stream_output_adapter@D@__crt_stdio_output@@V?$standard_base@DV?$stream_output_adapter@D@__crt_stdio_output@@@2@@__crt_stdio_output@@AAE_NXZ 10034832 f i libucrt:output.obj
 0001:000338ab       ?type_case_Z@?$output_processor@DV?$string_output_adapter@D@__crt_stdio_output@@V?$format_validation_base@DV?$string_output_adapter@D@__crt_stdio_output@@@2@@__crt_stdio_output@@AAE_NXZ 100348ab f i libucrt:output.obj
 0001:00033924       ?type_case_Z@?$output_processor@DV?$string_output_adapter@D@__crt_stdio_output@@V?$positional_parameter_base@DV?$string_output_adapter@D@__crt_stdio_output@@@2@@__crt_stdio_output@@AAE_NXZ 10034924 f i libucrt:output.obj
 0001:00033a3a       ?type_case_Z@?$output_processor@DV?$string_output_adapter@D@__crt_stdio_output@@V?$standard_base@DV?$string_output_adapter@D@__crt_stdio_output@@@2@@__crt_stdio_output@@AAE_NXZ 10034a3a f i libucrt:output.obj
 0001:00033ab3       ?type_case_Z@?$output_processor@_WV?$stream_output_adapter@_W@__crt_stdio_output@@V?$format_validation_base@_WV?$stream_output_adapter@_W@__crt_stdio_output@@@2@@__crt_stdio_output@@AAE_NXZ 10034ab3 f i libucrt:output.obj
 0001:00033b2c       ?type_case_Z@?$output_processor@_WV?$stream_output_adapter@_W@__crt_stdio_output@@V?$positional_parameter_base@_WV?$stream_output_adapter@_W@__crt_stdio_output@@@2@@__crt_stdio_output@@AAE_NXZ 10034b2c f i libucrt:output.obj
 0001:00033c42       ?type_case_Z@?$output_processor@_WV?$stream_output_adapter@_W@__crt_stdio_output@@V?$standard_base@_WV?$stream_output_adapter@_W@__crt_stdio_output@@@2@@__crt_stdio_output@@AAE_NXZ 10034c42 f i libucrt:output.obj
 0001:00033cbb       ?type_case_Z@?$output_processor@_WV?$string_output_adapter@_W@__crt_stdio_output@@V?$format_validation_base@_WV?$string_output_adapter@_W@__crt_stdio_output@@@2@@__crt_stdio_output@@AAE_NXZ 10034cbb f i libucrt:output.obj
 0001:00033d34       ?type_case_Z@?$output_processor@_WV?$string_output_adapter@_W@__crt_stdio_output@@V?$positional_parameter_base@_WV?$string_output_adapter@_W@__crt_stdio_output@@@2@@__crt_stdio_output@@AAE_NXZ 10034d34 f i libucrt:output.obj
 0001:00033e4a       ?type_case_Z@?$output_processor@_WV?$string_output_adapter@_W@__crt_stdio_output@@V?$standard_base@_WV?$string_output_adapter@_W@__crt_stdio_output@@@2@@__crt_stdio_output@@AAE_NXZ 10034e4a f i libucrt:output.obj
 0001:00033ec3       ?type_case_a@?$output_processor@DV?$stream_output_adapter@D@__crt_stdio_output@@V?$format_validation_base@DV?$stream_output_adapter@D@__crt_stdio_output@@@2@@__crt_stdio_output@@AAE_NXZ 10034ec3 f i libucrt:output.obj
 0001:00034072       ?type_case_a@?$output_processor@DV?$stream_output_adapter@D@__crt_stdio_output@@V?$positional_parameter_base@DV?$stream_output_adapter@D@__crt_stdio_output@@@2@@__crt_stdio_output@@AAE_NXZ 10035072 f i libucrt:output.obj
 0001:00034248       ?type_case_a@?$output_processor@DV?$stream_output_adapter@D@__crt_stdio_output@@V?$standard_base@DV?$stream_output_adapter@D@__crt_stdio_output@@@2@@__crt_stdio_output@@AAE_NXZ 10035248 f i libucrt:output.obj
 0001:000343f7       ?type_case_a@?$output_processor@DV?$string_output_adapter@D@__crt_stdio_output@@V?$format_validation_base@DV?$string_output_adapter@D@__crt_stdio_output@@@2@@__crt_stdio_output@@AAE_NXZ 100353f7 f i libucrt:output.obj
 0001:000345a6       ?type_case_a@?$output_processor@DV?$string_output_adapter@D@__crt_stdio_output@@V?$positional_parameter_base@DV?$string_output_adapter@D@__crt_stdio_output@@@2@@__crt_stdio_output@@AAE_NXZ 100355a6 f i libucrt:output.obj
 0001:0003477c       ?type_case_a@?$output_processor@DV?$string_output_adapter@D@__crt_stdio_output@@V?$standard_base@DV?$string_output_adapter@D@__crt_stdio_output@@@2@@__crt_stdio_output@@AAE_NXZ 1003577c f i libucrt:output.obj
 0001:0003492b       ?type_case_a@?$output_processor@_WV?$stream_output_adapter@_W@__crt_stdio_output@@V?$format_validation_base@_WV?$stream_output_adapter@_W@__crt_stdio_output@@@2@@__crt_stdio_output@@AAE_NXZ 1003592b f i libucrt:output.obj
 0001:00034af5       ?type_case_a@?$output_processor@_WV?$stream_output_adapter@_W@__crt_stdio_output@@V?$positional_parameter_base@_WV?$stream_output_adapter@_W@__crt_stdio_output@@@2@@__crt_stdio_output@@AAE_NXZ 10035af5 f i libucrt:output.obj
 0001:00034ce6       ?type_case_a@?$output_processor@_WV?$stream_output_adapter@_W@__crt_stdio_output@@V?$standard_base@_WV?$stream_output_adapter@_W@__crt_stdio_output@@@2@@__crt_stdio_output@@AAE_NXZ 10035ce6 f i libucrt:output.obj
 0001:00034eb0       ?type_case_a@?$output_processor@_WV?$string_output_adapter@_W@__crt_stdio_output@@V?$format_validation_base@_WV?$string_output_adapter@_W@__crt_stdio_output@@@2@@__crt_stdio_output@@AAE_NXZ 10035eb0 f i libucrt:output.obj
 0001:0003507a       ?type_case_a@?$output_processor@_WV?$string_output_adapter@_W@__crt_stdio_output@@V?$positional_parameter_base@_WV?$string_output_adapter@_W@__crt_stdio_output@@@2@@__crt_stdio_output@@AAE_NXZ 1003607a f i libucrt:output.obj
 0001:0003526b       ?type_case_a@?$output_processor@_WV?$string_output_adapter@_W@__crt_stdio_output@@V?$standard_base@_WV?$string_output_adapter@_W@__crt_stdio_output@@@2@@__crt_stdio_output@@AAE_NXZ 1003626b f i libucrt:output.obj
 0001:00035435       ?type_case_c@?$output_processor@DV?$stream_output_adapter@D@__crt_stdio_output@@V?$format_validation_base@DV?$stream_output_adapter@D@__crt_stdio_output@@@2@@__crt_stdio_output@@AAE_NXZ 10036435 f i libucrt:output.obj
 0001:0003543f       ?type_case_c@?$output_processor@DV?$stream_output_adapter@D@__crt_stdio_output@@V?$positional_parameter_base@DV?$stream_output_adapter@D@__crt_stdio_output@@@2@@__crt_stdio_output@@AAE_NXZ 1003643f f i libucrt:output.obj
 0001:00035449       ?type_case_c@?$output_processor@DV?$stream_output_adapter@D@__crt_stdio_output@@V?$standard_base@DV?$stream_output_adapter@D@__crt_stdio_output@@@2@@__crt_stdio_output@@AAE_NXZ 10036449 f i libucrt:output.obj
 0001:00035453       ?type_case_c@?$output_processor@DV?$string_output_adapter@D@__crt_stdio_output@@V?$format_validation_base@DV?$string_output_adapter@D@__crt_stdio_output@@@2@@__crt_stdio_output@@AAE_NXZ 10036453 f i libucrt:output.obj
 0001:0003545d       ?type_case_c@?$output_processor@DV?$string_output_adapter@D@__crt_stdio_output@@V?$positional_parameter_base@DV?$string_output_adapter@D@__crt_stdio_output@@@2@@__crt_stdio_output@@AAE_NXZ 1003645d f i libucrt:output.obj
 0001:00035467       ?type_case_c@?$output_processor@DV?$string_output_adapter@D@__crt_stdio_output@@V?$standard_base@DV?$string_output_adapter@D@__crt_stdio_output@@@2@@__crt_stdio_output@@AAE_NXZ 10036467 f i libucrt:output.obj
 0001:00035471       ?type_case_c@?$output_processor@_WV?$stream_output_adapter@_W@__crt_stdio_output@@V?$format_validation_base@_WV?$stream_output_adapter@_W@__crt_stdio_output@@@2@@__crt_stdio_output@@AAE_NXZ 10036471 f i libucrt:output.obj
 0001:0003547b       ?type_case_c@?$output_processor@_WV?$stream_output_adapter@_W@__crt_stdio_output@@V?$positional_parameter_base@_WV?$stream_output_adapter@_W@__crt_stdio_output@@@2@@__crt_stdio_output@@AAE_NXZ 1003647b f i libucrt:output.obj
 0001:00035485       ?type_case_c@?$output_processor@_WV?$stream_output_adapter@_W@__crt_stdio_output@@V?$standard_base@_WV?$stream_output_adapter@_W@__crt_stdio_output@@@2@@__crt_stdio_output@@AAE_NXZ 10036485 f i libucrt:output.obj
 0001:0003548f       ?type_case_c@?$output_processor@_WV?$string_output_adapter@_W@__crt_stdio_output@@V?$format_validation_base@_WV?$string_output_adapter@_W@__crt_stdio_output@@@2@@__crt_stdio_output@@AAE_NXZ 1003648f f i libucrt:output.obj
 0001:00035499       ?type_case_c@?$output_processor@_WV?$string_output_adapter@_W@__crt_stdio_output@@V?$positional_parameter_base@_WV?$string_output_adapter@_W@__crt_stdio_output@@@2@@__crt_stdio_output@@AAE_NXZ 10036499 f i libucrt:output.obj
 0001:000354a3       ?type_case_c@?$output_processor@_WV?$string_output_adapter@_W@__crt_stdio_output@@V?$standard_base@_WV?$string_output_adapter@_W@__crt_stdio_output@@@2@@__crt_stdio_output@@AAE_NXZ 100364a3 f i libucrt:output.obj
 0001:000354ad       ?type_case_c_tchar@?$output_processor@DV?$stream_output_adapter@D@__crt_stdio_output@@V?$format_validation_base@DV?$stream_output_adapter@D@__crt_stdio_output@@@2@@__crt_stdio_output@@AAE_ND@Z 100364ad f i libucrt:output.obj
 0001:00035561       ?type_case_c_tchar@?$output_processor@DV?$stream_output_adapter@D@__crt_stdio_output@@V?$positional_parameter_base@DV?$stream_output_adapter@D@__crt_stdio_output@@@2@@__crt_stdio_output@@AAE_ND@Z 10036561 f i libucrt:output.obj
 0001:00035651       ?type_case_c_tchar@?$output_processor@DV?$stream_output_adapter@D@__crt_stdio_output@@V?$standard_base@DV?$stream_output_adapter@D@__crt_stdio_output@@@2@@__crt_stdio_output@@AAE_ND@Z 10036651 f i libucrt:output.obj
 0001:00035705       ?type_case_c_tchar@?$output_processor@DV?$string_output_adapter@D@__crt_stdio_output@@V?$format_validation_base@DV?$string_output_adapter@D@__crt_stdio_output@@@2@@__crt_stdio_output@@AAE_ND@Z 10036705 f i libucrt:output.obj
 0001:000357b9       ?type_case_c_tchar@?$output_processor@DV?$string_output_adapter@D@__crt_stdio_output@@V?$positional_parameter_base@DV?$string_output_adapter@D@__crt_stdio_output@@@2@@__crt_stdio_output@@AAE_ND@Z 100367b9 f i libucrt:output.obj
 0001:000358a9       ?type_case_c_tchar@?$output_processor@DV?$string_output_adapter@D@__crt_stdio_output@@V?$standard_base@DV?$string_output_adapter@D@__crt_stdio_output@@@2@@__crt_stdio_output@@AAE_ND@Z 100368a9 f i libucrt:output.obj
 0001:0003595d       ?type_case_c_tchar@?$output_processor@_WV?$stream_output_adapter@_W@__crt_stdio_output@@V?$format_validation_base@_WV?$stream_output_adapter@_W@__crt_stdio_output@@@2@@__crt_stdio_output@@AAE_N_W@Z 1003695d f i libucrt:output.obj
 0001:00035a1b       ?type_case_c_tchar@?$output_processor@_WV?$stream_output_adapter@_W@__crt_stdio_output@@V?$positional_parameter_base@_WV?$stream_output_adapter@_W@__crt_stdio_output@@@2@@__crt_stdio_output@@AAE_N_W@Z 10036a1b f i libucrt:output.obj
 0001:00035af5       ?type_case_c_tchar@?$output_processor@_WV?$stream_output_adapter@_W@__crt_stdio_output@@V?$standard_base@_WV?$stream_output_adapter@_W@__crt_stdio_output@@@2@@__crt_stdio_output@@AAE_N_W@Z 10036af5 f i libucrt:output.obj
 0001:00035bb3       ?type_case_c_tchar@?$output_processor@_WV?$string_output_adapter@_W@__crt_stdio_output@@V?$format_validation_base@_WV?$string_output_adapter@_W@__crt_stdio_output@@@2@@__crt_stdio_output@@AAE_N_W@Z 10036bb3 f i libucrt:output.obj
 0001:00035c71       ?type_case_c_tchar@?$output_processor@_WV?$string_output_adapter@_W@__crt_stdio_output@@V?$positional_parameter_base@_WV?$string_output_adapter@_W@__crt_stdio_output@@@2@@__crt_stdio_output@@AAE_N_W@Z 10036c71 f i libucrt:output.obj
 0001:00035d4b       ?type_case_c_tchar@?$output_processor@_WV?$string_output_adapter@_W@__crt_stdio_output@@V?$standard_base@_WV?$string_output_adapter@_W@__crt_stdio_output@@@2@@__crt_stdio_output@@AAE_N_W@Z 10036d4b f i libucrt:output.obj
 0001:00035e09       ?type_case_d@?$output_processor@DV?$stream_output_adapter@D@__crt_stdio_output@@V?$format_validation_base@DV?$stream_output_adapter@D@__crt_stdio_output@@@2@@__crt_stdio_output@@AAE_NXZ 10036e09 f i libucrt:output.obj
 0001:00035e1a       ?type_case_d@?$output_processor@DV?$stream_output_adapter@D@__crt_stdio_output@@V?$positional_parameter_base@DV?$stream_output_adapter@D@__crt_stdio_output@@@2@@__crt_stdio_output@@AAE_NXZ 10036e1a f i libucrt:output.obj
 0001:00035e2b       ?type_case_d@?$output_processor@DV?$stream_output_adapter@D@__crt_stdio_output@@V?$standard_base@DV?$stream_output_adapter@D@__crt_stdio_output@@@2@@__crt_stdio_output@@AAE_NXZ 10036e2b f i libucrt:output.obj
 0001:00035e3c       ?type_case_d@?$output_processor@DV?$string_output_adapter@D@__crt_stdio_output@@V?$format_validation_base@DV?$string_output_adapter@D@__crt_stdio_output@@@2@@__crt_stdio_output@@AAE_NXZ 10036e3c f i libucrt:output.obj
 0001:00035e4d       ?type_case_d@?$output_processor@DV?$string_output_adapter@D@__crt_stdio_output@@V?$positional_parameter_base@DV?$string_output_adapter@D@__crt_stdio_output@@@2@@__crt_stdio_output@@AAE_NXZ 10036e4d f i libucrt:output.obj
 0001:00035e5e       ?type_case_d@?$output_processor@DV?$string_output_adapter@D@__crt_stdio_output@@V?$standard_base@DV?$string_output_adapter@D@__crt_stdio_output@@@2@@__crt_stdio_output@@AAE_NXZ 10036e5e f i libucrt:output.obj
 0001:00035e6f       ?type_case_d@?$output_processor@_WV?$stream_output_adapter@_W@__crt_stdio_output@@V?$format_validation_base@_WV?$stream_output_adapter@_W@__crt_stdio_output@@@2@@__crt_stdio_output@@AAE_NXZ 10036e6f f i libucrt:output.obj
 0001:00035e80       ?type_case_d@?$output_processor@_WV?$stream_output_adapter@_W@__crt_stdio_output@@V?$positional_parameter_base@_WV?$stream_output_adapter@_W@__crt_stdio_output@@@2@@__crt_stdio_output@@AAE_NXZ 10036e80 f i libucrt:output.obj
 0001:00035e91       ?type_case_d@?$output_processor@_WV?$stream_output_adapter@_W@__crt_stdio_output@@V?$standard_base@_WV?$stream_output_adapter@_W@__crt_stdio_output@@@2@@__crt_stdio_output@@AAE_NXZ 10036e91 f i libucrt:output.obj
 0001:00035ea2       ?type_case_d@?$output_processor@_WV?$string_output_adapter@_W@__crt_stdio_output@@V?$format_validation_base@_WV?$string_output_adapter@_W@__crt_stdio_output@@@2@@__crt_stdio_output@@AAE_NXZ 10036ea2 f i libucrt:output.obj
 0001:00035eb3       ?type_case_d@?$output_processor@_WV?$string_output_adapter@_W@__crt_stdio_output@@V?$positional_parameter_base@_WV?$string_output_adapter@_W@__crt_stdio_output@@@2@@__crt_stdio_output@@AAE_NXZ 10036eb3 f i libucrt:output.obj
 0001:00035ec4       ?type_case_d@?$output_processor@_WV?$string_output_adapter@_W@__crt_stdio_output@@V?$standard_base@_WV?$string_output_adapter@_W@__crt_stdio_output@@@2@@__crt_stdio_output@@AAE_NXZ 10036ec4 f i libucrt:output.obj
 0001:00035ed5       ?type_case_integer@?$output_processor@DV?$stream_output_adapter@D@__crt_stdio_output@@V?$format_validation_base@DV?$stream_output_adapter@D@__crt_stdio_output@@@2@@__crt_stdio_output@@AAE_NI_N@Z 10036ed5 f i libucrt:output.obj
 0001:0003607c       ?type_case_integer@?$output_processor@DV?$stream_output_adapter@D@__crt_stdio_output@@V?$positional_parameter_base@DV?$stream_output_adapter@D@__crt_stdio_output@@@2@@__crt_stdio_output@@AAE_NI_N@Z 1003707c f i libucrt:output.obj
 0001:0003625f       ?type_case_integer@?$output_processor@DV?$stream_output_adapter@D@__crt_stdio_output@@V?$standard_base@DV?$stream_output_adapter@D@__crt_stdio_output@@@2@@__crt_stdio_output@@AAE_NI_N@Z 1003725f f i libucrt:output.obj
 0001:00036406       ?type_case_integer@?$output_processor@DV?$string_output_adapter@D@__crt_stdio_output@@V?$format_validation_base@DV?$string_output_adapter@D@__crt_stdio_output@@@2@@__crt_stdio_output@@AAE_NI_N@Z 10037406 f i libucrt:output.obj
 0001:000365ad       ?type_case_integer@?$output_processor@DV?$string_output_adapter@D@__crt_stdio_output@@V?$positional_parameter_base@DV?$string_output_adapter@D@__crt_stdio_output@@@2@@__crt_stdio_output@@AAE_NI_N@Z 100375ad f i libucrt:output.obj
 0001:00036790       ?type_case_integer@?$output_processor@DV?$string_output_adapter@D@__crt_stdio_output@@V?$standard_base@DV?$string_output_adapter@D@__crt_stdio_output@@@2@@__crt_stdio_output@@AAE_NI_N@Z 10037790 f i libucrt:output.obj
 0001:00036937       ?type_case_integer@?$output_processor@_WV?$stream_output_adapter@_W@__crt_stdio_output@@V?$format_validation_base@_WV?$stream_output_adapter@_W@__crt_stdio_output@@@2@@__crt_stdio_output@@AAE_NI_N@Z 10037937 f i libucrt:output.obj
 0001:00036ae3       ?type_case_integer@?$output_processor@_WV?$stream_output_adapter@_W@__crt_stdio_output@@V?$positional_parameter_base@_WV?$stream_output_adapter@_W@__crt_stdio_output@@@2@@__crt_stdio_output@@AAE_NI_N@Z 10037ae3 f i libucrt:output.obj
 0001:00036ccb       ?type_case_integer@?$output_processor@_WV?$stream_output_adapter@_W@__crt_stdio_output@@V?$standard_base@_WV?$stream_output_adapter@_W@__crt_stdio_output@@@2@@__crt_stdio_output@@AAE_NI_N@Z 10037ccb f i libucrt:output.obj
 0001:00036e77       ?type_case_integer@?$output_processor@_WV?$string_output_adapter@_W@__crt_stdio_output@@V?$format_validation_base@_WV?$string_output_adapter@_W@__crt_stdio_output@@@2@@__crt_stdio_output@@AAE_NI_N@Z 10037e77 f i libucrt:output.obj
 0001:00037023       ?type_case_integer@?$output_processor@_WV?$string_output_adapter@_W@__crt_stdio_output@@V?$positional_parameter_base@_WV?$string_output_adapter@_W@__crt_stdio_output@@@2@@__crt_stdio_output@@AAE_NI_N@Z 10038023 f i libucrt:output.obj
 0001:0003720b       ?type_case_integer@?$output_processor@_WV?$string_output_adapter@_W@__crt_stdio_output@@V?$standard_base@_WV?$string_output_adapter@_W@__crt_stdio_output@@@2@@__crt_stdio_output@@AAE_NI_N@Z 1003820b f i libucrt:output.obj
 0001:000373b7       ?type_case_n@?$output_processor@DV?$stream_output_adapter@D@__crt_stdio_output@@V?$format_validation_base@DV?$stream_output_adapter@D@__crt_stdio_output@@@2@@__crt_stdio_output@@AAE_NXZ 100383b7 f i libucrt:output.obj
 0001:00037448       ?type_case_n@?$output_processor@DV?$stream_output_adapter@D@__crt_stdio_output@@V?$positional_parameter_base@DV?$stream_output_adapter@D@__crt_stdio_output@@@2@@__crt_stdio_output@@AAE_NXZ 10038448 f i libucrt:output.obj
 0001:00037507       ?type_case_n@?$output_processor@DV?$stream_output_adapter@D@__crt_stdio_output@@V?$standard_base@DV?$stream_output_adapter@D@__crt_stdio_output@@@2@@__crt_stdio_output@@AAE_NXZ 10038507 f i libucrt:output.obj
 0001:00037598       ?type_case_n@?$output_processor@DV?$string_output_adapter@D@__crt_stdio_output@@V?$format_validation_base@DV?$string_output_adapter@D@__crt_stdio_output@@@2@@__crt_stdio_output@@AAE_NXZ 10038598 f i libucrt:output.obj
 0001:00037629       ?type_case_n@?$output_processor@DV?$string_output_adapter@D@__crt_stdio_output@@V?$positional_parameter_base@DV?$string_output_adapter@D@__crt_stdio_output@@@2@@__crt_stdio_output@@AAE_NXZ 10038629 f i libucrt:output.obj
 0001:000376e8       ?type_case_n@?$output_processor@DV?$string_output_adapter@D@__crt_stdio_output@@V?$standard_base@DV?$string_output_adapter@D@__crt_stdio_output@@@2@@__crt_stdio_output@@AAE_NXZ 100386e8 f i libucrt:output.obj
 0001:00037779       ?type_case_n@?$output_processor@_WV?$stream_output_adapter@_W@__crt_stdio_output@@V?$format_validation_base@_WV?$stream_output_adapter@_W@__crt_stdio_output@@@2@@__crt_stdio_output@@AAE_NXZ 10038779 f i libucrt:output.obj
 0001:0003780a       ?type_case_n@?$output_processor@_WV?$stream_output_adapter@_W@__crt_stdio_output@@V?$positional_parameter_base@_WV?$stream_output_adapter@_W@__crt_stdio_output@@@2@@__crt_stdio_output@@AAE_NXZ 1003880a f i libucrt:output.obj
 0001:000378c9       ?type_case_n@?$output_processor@_WV?$stream_output_adapter@_W@__crt_stdio_output@@V?$standard_base@_WV?$stream_output_adapter@_W@__crt_stdio_output@@@2@@__crt_stdio_output@@AAE_NXZ 100388c9 f i libucrt:output.obj
 0001:0003795a       ?type_case_n@?$output_processor@_WV?$string_output_adapter@_W@__crt_stdio_output@@V?$format_validation_base@_WV?$string_output_adapter@_W@__crt_stdio_output@@@2@@__crt_stdio_output@@AAE_NXZ 1003895a f i libucrt:output.obj
 0001:000379eb       ?type_case_n@?$output_processor@_WV?$string_output_adapter@_W@__crt_stdio_output@@V?$positional_parameter_base@_WV?$string_output_adapter@_W@__crt_stdio_output@@@2@@__crt_stdio_output@@AAE_NXZ 100389eb f i libucrt:output.obj
 0001:00037aaa       ?type_case_n@?$output_processor@_WV?$string_output_adapter@_W@__crt_stdio_output@@V?$standard_base@_WV?$string_output_adapter@_W@__crt_stdio_output@@@2@@__crt_stdio_output@@AAE_NXZ 10038aaa f i libucrt:output.obj
 0001:00037b3b       ?type_case_o@?$output_processor@DV?$stream_output_adapter@D@__crt_stdio_output@@V?$format_validation_base@DV?$stream_output_adapter@D@__crt_stdio_output@@@2@@__crt_stdio_output@@AAE_NXZ 10038b3b f i libucrt:output.obj
 0001:00037b61       ?type_case_o@?$output_processor@DV?$stream_output_adapter@D@__crt_stdio_output@@V?$positional_parameter_base@DV?$stream_output_adapter@D@__crt_stdio_output@@@2@@__crt_stdio_output@@AAE_NXZ 10038b61 f i libucrt:output.obj
 0001:00037b87       ?type_case_o@?$output_processor@DV?$stream_output_adapter@D@__crt_stdio_output@@V?$standard_base@DV?$stream_output_adapter@D@__crt_stdio_output@@@2@@__crt_stdio_output@@AAE_NXZ 10038b87 f i libucrt:output.obj
 0001:00037bad       ?type_case_o@?$output_processor@DV?$string_output_adapter@D@__crt_stdio_output@@V?$format_validation_base@DV?$string_output_adapter@D@__crt_stdio_output@@@2@@__crt_stdio_output@@AAE_NXZ 10038bad f i libucrt:output.obj
 0001:00037bd3       ?type_case_o@?$output_processor@DV?$string_output_adapter@D@__crt_stdio_output@@V?$positional_parameter_base@DV?$string_output_adapter@D@__crt_stdio_output@@@2@@__crt_stdio_output@@AAE_NXZ 10038bd3 f i libucrt:output.obj
 0001:00037bf9       ?type_case_o@?$output_processor@DV?$string_output_adapter@D@__crt_stdio_output@@V?$standard_base@DV?$string_output_adapter@D@__crt_stdio_output@@@2@@__crt_stdio_output@@AAE_NXZ 10038bf9 f i libucrt:output.obj
 0001:00037c1f       ?type_case_o@?$output_processor@_WV?$stream_output_adapter@_W@__crt_stdio_output@@V?$format_validation_base@_WV?$stream_output_adapter@_W@__crt_stdio_output@@@2@@__crt_stdio_output@@AAE_NXZ 10038c1f f i libucrt:output.obj
 0001:00037c45       ?type_case_o@?$output_processor@_WV?$stream_output_adapter@_W@__crt_stdio_output@@V?$positional_parameter_base@_WV?$stream_output_adapter@_W@__crt_stdio_output@@@2@@__crt_stdio_output@@AAE_NXZ 10038c45 f i libucrt:output.obj
 0001:00037c6b       ?type_case_o@?$output_processor@_WV?$stream_output_adapter@_W@__crt_stdio_output@@V?$standard_base@_WV?$stream_output_adapter@_W@__crt_stdio_output@@@2@@__crt_stdio_output@@AAE_NXZ 10038c6b f i libucrt:output.obj
 0001:00037c91       ?type_case_o@?$output_processor@_WV?$string_output_adapter@_W@__crt_stdio_output@@V?$format_validation_base@_WV?$string_output_adapter@_W@__crt_stdio_output@@@2@@__crt_stdio_output@@AAE_NXZ 10038c91 f i libucrt:output.obj
 0001:00037cb7       ?type_case_o@?$output_processor@_WV?$string_output_adapter@_W@__crt_stdio_output@@V?$positional_parameter_base@_WV?$string_output_adapter@_W@__crt_stdio_output@@@2@@__crt_stdio_output@@AAE_NXZ 10038cb7 f i libucrt:output.obj
 0001:00037cdd       ?type_case_o@?$output_processor@_WV?$string_output_adapter@_W@__crt_stdio_output@@V?$standard_base@_WV?$string_output_adapter@_W@__crt_stdio_output@@@2@@__crt_stdio_output@@AAE_NXZ 10038cdd f i libucrt:output.obj
 0001:00037d03       ?type_case_p@?$output_processor@DV?$stream_output_adapter@D@__crt_stdio_output@@V?$format_validation_base@DV?$stream_output_adapter@D@__crt_stdio_output@@@2@@__crt_stdio_output@@AAE_NXZ 10038d03 f i libucrt:output.obj
 0001:00037d21       ?type_case_p@?$output_processor@DV?$stream_output_adapter@D@__crt_stdio_output@@V?$positional_parameter_base@DV?$stream_output_adapter@D@__crt_stdio_output@@@2@@__crt_stdio_output@@AAE_NXZ 10038d21 f i libucrt:output.obj
 0001:00037d3f       ?type_case_p@?$output_processor@DV?$stream_output_adapter@D@__crt_stdio_output@@V?$standard_base@DV?$stream_output_adapter@D@__crt_stdio_output@@@2@@__crt_stdio_output@@AAE_NXZ 10038d3f f i libucrt:output.obj
 0001:00037d5d       ?type_case_p@?$output_processor@DV?$string_output_adapter@D@__crt_stdio_output@@V?$format_validation_base@DV?$string_output_adapter@D@__crt_stdio_output@@@2@@__crt_stdio_output@@AAE_NXZ 10038d5d f i libucrt:output.obj
 0001:00037d7b       ?type_case_p@?$output_processor@DV?$string_output_adapter@D@__crt_stdio_output@@V?$positional_parameter_base@DV?$string_output_adapter@D@__crt_stdio_output@@@2@@__crt_stdio_output@@AAE_NXZ 10038d7b f i libucrt:output.obj
 0001:00037d99       ?type_case_p@?$output_processor@DV?$string_output_adapter@D@__crt_stdio_output@@V?$standard_base@DV?$string_output_adapter@D@__crt_stdio_output@@@2@@__crt_stdio_output@@AAE_NXZ 10038d99 f i libucrt:output.obj
 0001:00037db7       ?type_case_p@?$output_processor@_WV?$stream_output_adapter@_W@__crt_stdio_output@@V?$format_validation_base@_WV?$stream_output_adapter@_W@__crt_stdio_output@@@2@@__crt_stdio_output@@AAE_NXZ 10038db7 f i libucrt:output.obj
 0001:00037dd5       ?type_case_p@?$output_processor@_WV?$stream_output_adapter@_W@__crt_stdio_output@@V?$positional_parameter_base@_WV?$stream_output_adapter@_W@__crt_stdio_output@@@2@@__crt_stdio_output@@AAE_NXZ 10038dd5 f i libucrt:output.obj
 0001:00037df3       ?type_case_p@?$output_processor@_WV?$stream_output_adapter@_W@__crt_stdio_output@@V?$standard_base@_WV?$stream_output_adapter@_W@__crt_stdio_output@@@2@@__crt_stdio_output@@AAE_NXZ 10038df3 f i libucrt:output.obj
 0001:00037e11       ?type_case_p@?$output_processor@_WV?$string_output_adapter@_W@__crt_stdio_output@@V?$format_validation_base@_WV?$string_output_adapter@_W@__crt_stdio_output@@@2@@__crt_stdio_output@@AAE_NXZ 10038e11 f i libucrt:output.obj
 0001:00037e2f       ?type_case_p@?$output_processor@_WV?$string_output_adapter@_W@__crt_stdio_output@@V?$positional_parameter_base@_WV?$string_output_adapter@_W@__crt_stdio_output@@@2@@__crt_stdio_output@@AAE_NXZ 10038e2f f i libucrt:output.obj
 0001:00037e4d       ?type_case_p@?$output_processor@_WV?$string_output_adapter@_W@__crt_stdio_output@@V?$standard_base@_WV?$string_output_adapter@_W@__crt_stdio_output@@@2@@__crt_stdio_output@@AAE_NXZ 10038e4d f i libucrt:output.obj
 0001:00037e6b       ?type_case_s@?$output_processor@DV?$stream_output_adapter@D@__crt_stdio_output@@V?$format_validation_base@DV?$stream_output_adapter@D@__crt_stdio_output@@@2@@__crt_stdio_output@@AAE_NXZ 10038e6b f i libucrt:output.obj
 0001:00037ef8       ?type_case_s@?$output_processor@DV?$stream_output_adapter@D@__crt_stdio_output@@V?$positional_parameter_base@DV?$stream_output_adapter@D@__crt_stdio_output@@@2@@__crt_stdio_output@@AAE_NXZ 10038ef8 f i libucrt:output.obj
 0001:00037f95       ?type_case_s@?$output_processor@DV?$stream_output_adapter@D@__crt_stdio_output@@V?$standard_base@DV?$stream_output_adapter@D@__crt_stdio_output@@@2@@__crt_stdio_output@@AAE_NXZ 10038f95 f i libucrt:output.obj
 0001:00038022       ?type_case_s@?$output_processor@DV?$string_output_adapter@D@__crt_stdio_output@@V?$format_validation_base@DV?$string_output_adapter@D@__crt_stdio_output@@@2@@__crt_stdio_output@@AAE_NXZ 10039022 f i libucrt:output.obj
 0001:000380af       ?type_case_s@?$output_processor@DV?$string_output_adapter@D@__crt_stdio_output@@V?$positional_parameter_base@DV?$string_output_adapter@D@__crt_stdio_output@@@2@@__crt_stdio_output@@AAE_NXZ 100390af f i libucrt:output.obj
 0001:0003814c       ?type_case_s@?$output_processor@DV?$string_output_adapter@D@__crt_stdio_output@@V?$standard_base@DV?$string_output_adapter@D@__crt_stdio_output@@@2@@__crt_stdio_output@@AAE_NXZ 1003914c f i libucrt:output.obj
 0001:000381d9       ?type_case_s@?$output_processor@_WV?$stream_output_adapter@_W@__crt_stdio_output@@V?$format_validation_base@_WV?$stream_output_adapter@_W@__crt_stdio_output@@@2@@__crt_stdio_output@@AAE_NXZ 100391d9 f i libucrt:output.obj
 0001:00038268       ?type_case_s@?$output_processor@_WV?$stream_output_adapter@_W@__crt_stdio_output@@V?$positional_parameter_base@_WV?$stream_output_adapter@_W@__crt_stdio_output@@@2@@__crt_stdio_output@@AAE_NXZ 10039268 f i libucrt:output.obj
 0001:00038308       ?type_case_s@?$output_processor@_WV?$stream_output_adapter@_W@__crt_stdio_output@@V?$standard_base@_WV?$stream_output_adapter@_W@__crt_stdio_output@@@2@@__crt_stdio_output@@AAE_NXZ 10039308 f i libucrt:output.obj
 0001:00038397       ?type_case_s@?$output_processor@_WV?$string_output_adapter@_W@__crt_stdio_output@@V?$format_validation_base@_WV?$string_output_adapter@_W@__crt_stdio_output@@@2@@__crt_stdio_output@@AAE_NXZ 10039397 f i libucrt:output.obj
 0001:00038426       ?type_case_s@?$output_processor@_WV?$string_output_adapter@_W@__crt_stdio_output@@V?$positional_parameter_base@_WV?$string_output_adapter@_W@__crt_stdio_output@@@2@@__crt_stdio_output@@AAE_NXZ 10039426 f i libucrt:output.obj
 0001:000384c6       ?type_case_s@?$output_processor@_WV?$string_output_adapter@_W@__crt_stdio_output@@V?$standard_base@_WV?$string_output_adapter@_W@__crt_stdio_output@@@2@@__crt_stdio_output@@AAE_NXZ 100394c6 f i libucrt:output.obj
 0001:00038555       ?type_case_s_compute_narrow_string_length@?$output_processor@DV?$stream_output_adapter@D@__crt_stdio_output@@V?$format_validation_base@DV?$stream_output_adapter@D@__crt_stdio_output@@@2@@__crt_stdio_output@@ABEHHD@Z 10039555 f i libucrt:output.obj
 0001:00038570       ?type_case_s_compute_narrow_string_length@?$output_processor@DV?$stream_output_adapter@D@__crt_stdio_output@@V?$positional_parameter_base@DV?$stream_output_adapter@D@__crt_stdio_output@@@2@@__crt_stdio_output@@ABEHHD@Z 10039570 f i libucrt:output.obj
 0001:0003858b       ?type_case_s_compute_narrow_string_length@?$output_processor@DV?$stream_output_adapter@D@__crt_stdio_output@@V?$standard_base@DV?$stream_output_adapter@D@__crt_stdio_output@@@2@@__crt_stdio_output@@ABEHHD@Z 1003958b f i libucrt:output.obj
 0001:000385a6       ?type_case_s_compute_narrow_string_length@?$output_processor@DV?$string_output_adapter@D@__crt_stdio_output@@V?$format_validation_base@DV?$string_output_adapter@D@__crt_stdio_output@@@2@@__crt_stdio_output@@ABEHHD@Z 100395a6 f i libucrt:output.obj
 0001:000385c1       ?type_case_s_compute_narrow_string_length@?$output_processor@DV?$string_output_adapter@D@__crt_stdio_output@@V?$positional_parameter_base@DV?$string_output_adapter@D@__crt_stdio_output@@@2@@__crt_stdio_output@@ABEHHD@Z 100395c1 f i libucrt:output.obj
 0001:000385dc       ?type_case_s_compute_narrow_string_length@?$output_processor@DV?$string_output_adapter@D@__crt_stdio_output@@V?$standard_base@DV?$string_output_adapter@D@__crt_stdio_output@@@2@@__crt_stdio_output@@ABEHHD@Z 100395dc f i libucrt:output.obj
 0001:000385f7       ?type_case_s_compute_narrow_string_length@?$output_processor@_WV?$stream_output_adapter@_W@__crt_stdio_output@@V?$format_validation_base@_WV?$stream_output_adapter@_W@__crt_stdio_output@@@2@@__crt_stdio_output@@ABEHH_W@Z 100395f7 f i libucrt:output.obj
 0001:00038643       ?type_case_s_compute_narrow_string_length@?$output_processor@_WV?$stream_output_adapter@_W@__crt_stdio_output@@V?$positional_parameter_base@_WV?$stream_output_adapter@_W@__crt_stdio_output@@@2@@__crt_stdio_output@@ABEHH_W@Z 10039643 f i libucrt:output.obj
 0001:0003868f       ?type_case_s_compute_narrow_string_length@?$output_processor@_WV?$stream_output_adapter@_W@__crt_stdio_output@@V?$standard_base@_WV?$stream_output_adapter@_W@__crt_stdio_output@@@2@@__crt_stdio_output@@ABEHH_W@Z 1003968f f i libucrt:output.obj
 0001:000386db       ?type_case_s_compute_narrow_string_length@?$output_processor@_WV?$string_output_adapter@_W@__crt_stdio_output@@V?$format_validation_base@_WV?$string_output_adapter@_W@__crt_stdio_output@@@2@@__crt_stdio_output@@ABEHH_W@Z 100396db f i libucrt:output.obj
 0001:00038727       ?type_case_s_compute_narrow_string_length@?$output_processor@_WV?$string_output_adapter@_W@__crt_stdio_output@@V?$positional_parameter_base@_WV?$string_output_adapter@_W@__crt_stdio_output@@@2@@__crt_stdio_output@@ABEHH_W@Z 10039727 f i libucrt:output.obj
 0001:00038773       ?type_case_s_compute_narrow_string_length@?$output_processor@_WV?$string_output_adapter@_W@__crt_stdio_output@@V?$standard_base@_WV?$string_output_adapter@_W@__crt_stdio_output@@@2@@__crt_stdio_output@@ABEHH_W@Z 10039773 f i libucrt:output.obj
 0001:000387bf       ?type_case_u@?$output_processor@DV?$stream_output_adapter@D@__crt_stdio_output@@V?$format_validation_base@DV?$stream_output_adapter@D@__crt_stdio_output@@@2@@__crt_stdio_output@@AAE_NXZ 100397bf f i libucrt:output.obj
 0001:000387cb       ?type_case_u@?$output_processor@DV?$stream_output_adapter@D@__crt_stdio_output@@V?$positional_parameter_base@DV?$stream_output_adapter@D@__crt_stdio_output@@@2@@__crt_stdio_output@@AAE_NXZ 100397cb f i libucrt:output.obj
 0001:000387d7       ?type_case_u@?$output_processor@DV?$stream_output_adapter@D@__crt_stdio_output@@V?$standard_base@DV?$stream_output_adapter@D@__crt_stdio_output@@@2@@__crt_stdio_output@@AAE_NXZ 100397d7 f i libucrt:output.obj
 0001:000387e3       ?type_case_u@?$output_processor@DV?$string_output_adapter@D@__crt_stdio_output@@V?$format_validation_base@DV?$string_output_adapter@D@__crt_stdio_output@@@2@@__crt_stdio_output@@AAE_NXZ 100397e3 f i libucrt:output.obj
 0001:000387ef       ?type_case_u@?$output_processor@DV?$string_output_adapter@D@__crt_stdio_output@@V?$positional_parameter_base@DV?$string_output_adapter@D@__crt_stdio_output@@@2@@__crt_stdio_output@@AAE_NXZ 100397ef f i libucrt:output.obj
 0001:000387fb       ?type_case_u@?$output_processor@DV?$string_output_adapter@D@__crt_stdio_output@@V?$standard_base@DV?$string_output_adapter@D@__crt_stdio_output@@@2@@__crt_stdio_output@@AAE_NXZ 100397fb f i libucrt:output.obj
 0001:00038807       ?type_case_u@?$output_processor@_WV?$stream_output_adapter@_W@__crt_stdio_output@@V?$format_validation_base@_WV?$stream_output_adapter@_W@__crt_stdio_output@@@2@@__crt_stdio_output@@AAE_NXZ 10039807 f i libucrt:output.obj
 0001:00038813       ?type_case_u@?$output_processor@_WV?$stream_output_adapter@_W@__crt_stdio_output@@V?$positional_parameter_base@_WV?$stream_output_adapter@_W@__crt_stdio_output@@@2@@__crt_stdio_output@@AAE_NXZ 10039813 f i libucrt:output.obj
 0001:0003881f       ?type_case_u@?$output_processor@_WV?$stream_output_adapter@_W@__crt_stdio_output@@V?$standard_base@_WV?$stream_output_adapter@_W@__crt_stdio_output@@@2@@__crt_stdio_output@@AAE_NXZ 1003981f f i libucrt:output.obj
 0001:0003882b       ?type_case_u@?$output_processor@_WV?$string_output_adapter@_W@__crt_stdio_output@@V?$format_validation_base@_WV?$string_output_adapter@_W@__crt_stdio_output@@@2@@__crt_stdio_output@@AAE_NXZ 1003982b f i libucrt:output.obj
 0001:00038837       ?type_case_u@?$output_processor@_WV?$string_output_adapter@_W@__crt_stdio_output@@V?$positional_parameter_base@_WV?$string_output_adapter@_W@__crt_stdio_output@@@2@@__crt_stdio_output@@AAE_NXZ 10039837 f i libucrt:output.obj
 0001:00038843       ?type_case_u@?$output_processor@_WV?$string_output_adapter@_W@__crt_stdio_output@@V?$standard_base@_WV?$string_output_adapter@_W@__crt_stdio_output@@@2@@__crt_stdio_output@@AAE_NXZ 10039843 f i libucrt:output.obj
 0001:0003884f       ?type_case_x@?$output_processor@DV?$stream_output_adapter@D@__crt_stdio_output@@V?$format_validation_base@DV?$stream_output_adapter@D@__crt_stdio_output@@@2@@__crt_stdio_output@@AAE_NXZ 1003984f f i libucrt:output.obj
 0001:0003885b       ?type_case_x@?$output_processor@DV?$stream_output_adapter@D@__crt_stdio_output@@V?$positional_parameter_base@DV?$stream_output_adapter@D@__crt_stdio_output@@@2@@__crt_stdio_output@@AAE_NXZ 1003985b f i libucrt:output.obj
 0001:00038867       ?type_case_x@?$output_processor@DV?$stream_output_adapter@D@__crt_stdio_output@@V?$standard_base@DV?$stream_output_adapter@D@__crt_stdio_output@@@2@@__crt_stdio_output@@AAE_NXZ 10039867 f i libucrt:output.obj
 0001:00038873       ?type_case_x@?$output_processor@DV?$string_output_adapter@D@__crt_stdio_output@@V?$format_validation_base@DV?$string_output_adapter@D@__crt_stdio_output@@@2@@__crt_stdio_output@@AAE_NXZ 10039873 f i libucrt:output.obj
 0001:0003887f       ?type_case_x@?$output_processor@DV?$string_output_adapter@D@__crt_stdio_output@@V?$positional_parameter_base@DV?$string_output_adapter@D@__crt_stdio_output@@@2@@__crt_stdio_output@@AAE_NXZ 1003987f f i libucrt:output.obj
 0001:0003888b       ?type_case_x@?$output_processor@DV?$string_output_adapter@D@__crt_stdio_output@@V?$standard_base@DV?$string_output_adapter@D@__crt_stdio_output@@@2@@__crt_stdio_output@@AAE_NXZ 1003988b f i libucrt:output.obj
 0001:00038897       ?type_case_x@?$output_processor@_WV?$stream_output_adapter@_W@__crt_stdio_output@@V?$format_validation_base@_WV?$stream_output_adapter@_W@__crt_stdio_output@@@2@@__crt_stdio_output@@AAE_NXZ 10039897 f i libucrt:output.obj
 0001:000388a3       ?type_case_x@?$output_processor@_WV?$stream_output_adapter@_W@__crt_stdio_output@@V?$positional_parameter_base@_WV?$stream_output_adapter@_W@__crt_stdio_output@@@2@@__crt_stdio_output@@AAE_NXZ 100398a3 f i libucrt:output.obj
 0001:000388af       ?type_case_x@?$output_processor@_WV?$stream_output_adapter@_W@__crt_stdio_output@@V?$standard_base@_WV?$stream_output_adapter@_W@__crt_stdio_output@@@2@@__crt_stdio_output@@AAE_NXZ 100398af f i libucrt:output.obj
 0001:000388bb       ?type_case_x@?$output_processor@_WV?$string_output_adapter@_W@__crt_stdio_output@@V?$format_validation_base@_WV?$string_output_adapter@_W@__crt_stdio_output@@@2@@__crt_stdio_output@@AAE_NXZ 100398bb f i libucrt:output.obj
 0001:000388c7       ?type_case_x@?$output_processor@_WV?$string_output_adapter@_W@__crt_stdio_output@@V?$positional_parameter_base@_WV?$string_output_adapter@_W@__crt_stdio_output@@@2@@__crt_stdio_output@@AAE_NXZ 100398c7 f i libucrt:output.obj
 0001:000388d3       ?type_case_x@?$output_processor@_WV?$string_output_adapter@_W@__crt_stdio_output@@V?$standard_base@_WV?$string_output_adapter@_W@__crt_stdio_output@@@2@@__crt_stdio_output@@AAE_NXZ 100398d3 f i libucrt:output.obj
 0001:000388df       ?unset_flag@?$output_processor@DV?$stream_output_adapter@D@__crt_stdio_output@@V?$format_validation_base@DV?$stream_output_adapter@D@__crt_stdio_output@@@2@@__crt_stdio_output@@AAEXI@Z 100398df f i libucrt:output.obj
 0001:000388f4       ?unset_flag@?$output_processor@DV?$stream_output_adapter@D@__crt_stdio_output@@V?$positional_parameter_base@DV?$stream_output_adapter@D@__crt_stdio_output@@@2@@__crt_stdio_output@@AAEXI@Z 100398f4 f i libucrt:output.obj
 0001:00038909       ?unset_flag@?$output_processor@DV?$stream_output_adapter@D@__crt_stdio_output@@V?$standard_base@DV?$stream_output_adapter@D@__crt_stdio_output@@@2@@__crt_stdio_output@@AAEXI@Z 10039909 f i libucrt:output.obj
 0001:0003891e       ?unset_flag@?$output_processor@DV?$string_output_adapter@D@__crt_stdio_output@@V?$format_validation_base@DV?$string_output_adapter@D@__crt_stdio_output@@@2@@__crt_stdio_output@@AAEXI@Z 1003991e f i libucrt:output.obj
 0001:00038933       ?unset_flag@?$output_processor@DV?$string_output_adapter@D@__crt_stdio_output@@V?$positional_parameter_base@DV?$string_output_adapter@D@__crt_stdio_output@@@2@@__crt_stdio_output@@AAEXI@Z 10039933 f i libucrt:output.obj
 0001:00038948       ?unset_flag@?$output_processor@DV?$string_output_adapter@D@__crt_stdio_output@@V?$standard_base@DV?$string_output_adapter@D@__crt_stdio_output@@@2@@__crt_stdio_output@@AAEXI@Z 10039948 f i libucrt:output.obj
 0001:0003895d       ?unset_flag@?$output_processor@_WV?$stream_output_adapter@_W@__crt_stdio_output@@V?$format_validation_base@_WV?$stream_output_adapter@_W@__crt_stdio_output@@@2@@__crt_stdio_output@@AAEXI@Z 1003995d f i libucrt:output.obj
 0001:00038972       ?unset_flag@?$output_processor@_WV?$stream_output_adapter@_W@__crt_stdio_output@@V?$positional_parameter_base@_WV?$stream_output_adapter@_W@__crt_stdio_output@@@2@@__crt_stdio_output@@AAEXI@Z 10039972 f i libucrt:output.obj
 0001:00038987       ?unset_flag@?$output_processor@_WV?$stream_output_adapter@_W@__crt_stdio_output@@V?$standard_base@_WV?$stream_output_adapter@_W@__crt_stdio_output@@@2@@__crt_stdio_output@@AAEXI@Z 10039987 f i libucrt:output.obj
 0001:0003899c       ?unset_flag@?$output_processor@_WV?$string_output_adapter@_W@__crt_stdio_output@@V?$format_validation_base@_WV?$string_output_adapter@_W@__crt_stdio_output@@@2@@__crt_stdio_output@@AAEXI@Z 1003999c f i libucrt:output.obj
 0001:000389b1       ?unset_flag@?$output_processor@_WV?$string_output_adapter@_W@__crt_stdio_output@@V?$positional_parameter_base@_WV?$string_output_adapter@_W@__crt_stdio_output@@@2@@__crt_stdio_output@@AAEXI@Z 100399b1 f i libucrt:output.obj
 0001:000389c6       ?unset_flag@?$output_processor@_WV?$string_output_adapter@_W@__crt_stdio_output@@V?$standard_base@_WV?$string_output_adapter@_W@__crt_stdio_output@@@2@@__crt_stdio_output@@AAEXI@Z 100399c6 f i libucrt:output.obj
 0001:000389db       ?update_field_width@?$positional_parameter_base@DV?$stream_output_adapter@D@__crt_stdio_output@@@__crt_stdio_output@@IAE_NXZ 100399db f i libucrt:output.obj
 0001:00038abe       ?update_field_width@?$positional_parameter_base@DV?$string_output_adapter@D@__crt_stdio_output@@@__crt_stdio_output@@IAE_NXZ 10039abe f i libucrt:output.obj
 0001:00038ba1       ?update_field_width@?$positional_parameter_base@_WV?$stream_output_adapter@_W@__crt_stdio_output@@@__crt_stdio_output@@IAE_NXZ 10039ba1 f i libucrt:output.obj
 0001:00038c85       ?update_field_width@?$positional_parameter_base@_WV?$string_output_adapter@_W@__crt_stdio_output@@@__crt_stdio_output@@IAE_NXZ 10039c85 f i libucrt:output.obj
 0001:00038d69       ?update_field_width@?$standard_base@DV?$stream_output_adapter@D@__crt_stdio_output@@@__crt_stdio_output@@IAE_NXZ 10039d69 f i libucrt:output.obj
 0001:00038d7d       ?update_field_width@?$standard_base@DV?$string_output_adapter@D@__crt_stdio_output@@@__crt_stdio_output@@IAE_NXZ 10039d7d f i libucrt:output.obj
 0001:00038d91       ?update_field_width@?$standard_base@_WV?$stream_output_adapter@_W@__crt_stdio_output@@@__crt_stdio_output@@IAE_NXZ 10039d91 f i libucrt:output.obj
 0001:00038da5       ?update_field_width@?$standard_base@_WV?$string_output_adapter@_W@__crt_stdio_output@@@__crt_stdio_output@@IAE_NXZ 10039da5 f i libucrt:output.obj
 0001:00038db9       ?update_precision@?$positional_parameter_base@DV?$stream_output_adapter@D@__crt_stdio_output@@@__crt_stdio_output@@IAE_NXZ 10039db9 f i libucrt:output.obj
 0001:00038e9c       ?update_precision@?$positional_parameter_base@DV?$string_output_adapter@D@__crt_stdio_output@@@__crt_stdio_output@@IAE_NXZ 10039e9c f i libucrt:output.obj
 0001:00038f7f       ?update_precision@?$positional_parameter_base@_WV?$stream_output_adapter@_W@__crt_stdio_output@@@__crt_stdio_output@@IAE_NXZ 10039f7f f i libucrt:output.obj
 0001:00039063       ?update_precision@?$positional_parameter_base@_WV?$string_output_adapter@_W@__crt_stdio_output@@@__crt_stdio_output@@IAE_NXZ 1003a063 f i libucrt:output.obj
 0001:00039147       ?update_precision@?$standard_base@DV?$stream_output_adapter@D@__crt_stdio_output@@@__crt_stdio_output@@IAE_NXZ 1003a147 f i libucrt:output.obj
 0001:0003915b       ?update_precision@?$standard_base@DV?$string_output_adapter@D@__crt_stdio_output@@@__crt_stdio_output@@IAE_NXZ 1003a15b f i libucrt:output.obj
 0001:0003916f       ?update_precision@?$standard_base@_WV?$stream_output_adapter@_W@__crt_stdio_output@@@__crt_stdio_output@@IAE_NXZ 1003a16f f i libucrt:output.obj
 0001:00039183       ?update_precision@?$standard_base@_WV?$string_output_adapter@_W@__crt_stdio_output@@@__crt_stdio_output@@IAE_NXZ 1003a183 f i libucrt:output.obj
 0001:00039197       ?valid@__crt_stdio_stream@@QBE_NXZ 1003a197 f i libucrt:output.obj
 0001:0003919e       ?validate@?$stream_output_adapter@D@__crt_stdio_output@@QBE_NXZ 1003a19e f i libucrt:output.obj
 0001:000391c7       ?validate@?$stream_output_adapter@_W@__crt_stdio_output@@QBE_NXZ 1003a1c7 f i libucrt:output.obj
 0001:000391e8       ?validate@?$string_output_adapter@D@__crt_stdio_output@@QBE_NXZ 1003a1e8 f i libucrt:output.obj
 0001:00039209       ?validate@?$string_output_adapter@_W@__crt_stdio_output@@QBE_NXZ 1003a209 f i libucrt:output.obj
 0001:0003922a       ?validate_and_store_parameter_data@?$positional_parameter_base@DV?$stream_output_adapter@D@__crt_stdio_output@@@__crt_stdio_output@@AAE_NAAUparameter_data@12@W4parameter_type@12@DW4length_modifier@2@@Z 1003a22a f i libucrt:output.obj
 0001:00039287       ?validate_and_store_parameter_data@?$positional_parameter_base@DV?$string_output_adapter@D@__crt_stdio_output@@@__crt_stdio_output@@AAE_NAAUparameter_data@12@W4parameter_type@12@DW4length_modifier@2@@Z 1003a287 f i libucrt:output.obj
 0001:000392e4       ?validate_and_store_parameter_data@?$positional_parameter_base@_WV?$stream_output_adapter@_W@__crt_stdio_output@@@__crt_stdio_output@@AAE_NAAUparameter_data@12@W4parameter_type@12@_WW4length_modifier@2@@Z 1003a2e4 f i libucrt:output.obj
 0001:00039344       ?validate_and_store_parameter_data@?$positional_parameter_base@_WV?$string_output_adapter@_W@__crt_stdio_output@@@__crt_stdio_output@@AAE_NAAUparameter_data@12@W4parameter_type@12@_WW4length_modifier@2@@Z 1003a344 f i libucrt:output.obj
 0001:000393a4       ?validate_and_update_state_at_beginning_of_format_character@?$positional_parameter_base@DV?$stream_output_adapter@D@__crt_stdio_output@@@__crt_stdio_output@@IAE_NXZ 1003a3a4 f i libucrt:output.obj
 0001:000394dc       ?validate_and_update_state_at_beginning_of_format_character@?$positional_parameter_base@DV?$string_output_adapter@D@__crt_stdio_output@@@__crt_stdio_output@@IAE_NXZ 1003a4dc f i libucrt:output.obj
 0001:00039614       ?validate_and_update_state_at_beginning_of_format_character@?$positional_parameter_base@_WV?$stream_output_adapter@_W@__crt_stdio_output@@@__crt_stdio_output@@IAE_NXZ 1003a614 f i libucrt:output.obj
 0001:00039757       ?validate_and_update_state_at_beginning_of_format_character@?$positional_parameter_base@_WV?$string_output_adapter@_W@__crt_stdio_output@@@__crt_stdio_output@@IAE_NXZ 1003a757 f i libucrt:output.obj
 0001:0003989a       ?validate_and_update_state_at_beginning_of_format_character@?$standard_base@DV?$stream_output_adapter@D@__crt_stdio_output@@@__crt_stdio_output@@IAE_NXZ 1003a89a f i libucrt:output.obj
 0001:0003989d       ?validate_and_update_state_at_beginning_of_format_character@?$standard_base@DV?$string_output_adapter@D@__crt_stdio_output@@@__crt_stdio_output@@IAE_NXZ 1003a89d f i libucrt:output.obj
 0001:000398a0       ?validate_and_update_state_at_beginning_of_format_character@?$standard_base@_WV?$stream_output_adapter@_W@__crt_stdio_output@@@__crt_stdio_output@@IAE_NXZ 1003a8a0 f i libucrt:output.obj
 0001:000398a3       ?validate_and_update_state_at_beginning_of_format_character@?$standard_base@_WV?$string_output_adapter@_W@__crt_stdio_output@@@__crt_stdio_output@@IAE_NXZ 1003a8a3 f i libucrt:output.obj
 0001:000398a6       ?validate_and_update_state_at_end_of_format_string@?$format_validation_base@DV?$stream_output_adapter@D@__crt_stdio_output@@@__crt_stdio_output@@IBE_NXZ 1003a8a6 f i libucrt:output.obj
 0001:000398d0       ?validate_and_update_state_at_end_of_format_string@?$format_validation_base@DV?$string_output_adapter@D@__crt_stdio_output@@@__crt_stdio_output@@IBE_NXZ 1003a8d0 f i libucrt:output.obj
 0001:000398fa       ?validate_and_update_state_at_end_of_format_string@?$format_validation_base@_WV?$stream_output_adapter@_W@__crt_stdio_output@@@__crt_stdio_output@@IBE_NXZ 1003a8fa f i libucrt:output.obj
 0001:00039924       ?validate_and_update_state_at_end_of_format_string@?$format_validation_base@_WV?$string_output_adapter@_W@__crt_stdio_output@@@__crt_stdio_output@@IBE_NXZ 1003a924 f i libucrt:output.obj
 0001:0003994e       ?validate_and_update_state_at_end_of_format_string@?$positional_parameter_base@DV?$stream_output_adapter@D@__crt_stdio_output@@@__crt_stdio_output@@IAE_NXZ 1003a94e f i libucrt:output.obj
 0001:000399f4       ?validate_and_update_state_at_end_of_format_string@?$positional_parameter_base@DV?$string_output_adapter@D@__crt_stdio_output@@@__crt_stdio_output@@IAE_NXZ 1003a9f4 f i libucrt:output.obj
 0001:00039a9a       ?validate_and_update_state_at_end_of_format_string@?$positional_parameter_base@_WV?$stream_output_adapter@_W@__crt_stdio_output@@@__crt_stdio_output@@IAE_NXZ 1003aa9a f i libucrt:output.obj
 0001:00039b40       ?validate_and_update_state_at_end_of_format_string@?$positional_parameter_base@_WV?$string_output_adapter@_W@__crt_stdio_output@@@__crt_stdio_output@@IAE_NXZ 1003ab40 f i libucrt:output.obj
 0001:00039be6       ?validate_and_update_state_at_end_of_format_string@?$standard_base@DV?$stream_output_adapter@D@__crt_stdio_output@@@__crt_stdio_output@@IBE_NXZ 1003abe6 f i libucrt:output.obj
 0001:00039be9       ?validate_and_update_state_at_end_of_format_string@?$standard_base@DV?$string_output_adapter@D@__crt_stdio_output@@@__crt_stdio_output@@IBE_NXZ 1003abe9 f i libucrt:output.obj
 0001:00039bec       ?validate_and_update_state_at_end_of_format_string@?$standard_base@_WV?$stream_output_adapter@_W@__crt_stdio_output@@@__crt_stdio_output@@IBE_NXZ 1003abec f i libucrt:output.obj
 0001:00039bef       ?validate_and_update_state_at_end_of_format_string@?$standard_base@_WV?$string_output_adapter@_W@__crt_stdio_output@@@__crt_stdio_output@@IBE_NXZ 1003abef f i libucrt:output.obj
 0001:00039bf2       ?validate_state_for_type_case_a@?$positional_parameter_base@DV?$stream_output_adapter@D@__crt_stdio_output@@@__crt_stdio_output@@IAE_NXZ 1003abf2 f i libucrt:output.obj
 0001:00039c54       ?validate_state_for_type_case_a@?$positional_parameter_base@DV?$string_output_adapter@D@__crt_stdio_output@@@__crt_stdio_output@@IAE_NXZ 1003ac54 f i libucrt:output.obj
 0001:00039cb6       ?validate_state_for_type_case_a@?$positional_parameter_base@_WV?$stream_output_adapter@_W@__crt_stdio_output@@@__crt_stdio_output@@IAE_NXZ 1003acb6 f i libucrt:output.obj
 0001:00039d18       ?validate_state_for_type_case_a@?$positional_parameter_base@_WV?$string_output_adapter@_W@__crt_stdio_output@@@__crt_stdio_output@@IAE_NXZ 1003ad18 f i libucrt:output.obj
 0001:00039d7a       ?validate_state_for_type_case_a@?$standard_base@DV?$stream_output_adapter@D@__crt_stdio_output@@@__crt_stdio_output@@IBE_NXZ 1003ad7a f i libucrt:output.obj
 0001:00039d7d       ?validate_state_for_type_case_a@?$standard_base@DV?$string_output_adapter@D@__crt_stdio_output@@@__crt_stdio_output@@IBE_NXZ 1003ad7d f i libucrt:output.obj
 0001:00039d80       ?validate_state_for_type_case_a@?$standard_base@_WV?$stream_output_adapter@_W@__crt_stdio_output@@@__crt_stdio_output@@IBE_NXZ 1003ad80 f i libucrt:output.obj
 0001:00039d83       ?validate_state_for_type_case_a@?$standard_base@_WV?$string_output_adapter@_W@__crt_stdio_output@@@__crt_stdio_output@@IBE_NXZ 1003ad83 f i libucrt:output.obj
 0001:00039d86       ?validate_stream_is_ansi_if_required@?$__acrt_stdio_char_traits@D@@SA_NQAU_iobuf@@@Z 1003ad86 f i libucrt:output.obj
 0001:00039e2d       ?validate_stream_is_ansi_if_required@?$__acrt_stdio_char_traits@_W@@SA_NQAU_iobuf@@@Z 1003ae2d f i libucrt:output.obj
 0001:00039e30       ?wide_null_string@?$output_processor@DV?$stream_output_adapter@D@__crt_stdio_output@@V?$format_validation_base@DV?$stream_output_adapter@D@__crt_stdio_output@@@2@@__crt_stdio_output@@CAPA_WXZ 1003ae30 f i libucrt:output.obj
 0001:00039e36       ?wide_null_string@?$output_processor@DV?$stream_output_adapter@D@__crt_stdio_output@@V?$positional_parameter_base@DV?$stream_output_adapter@D@__crt_stdio_output@@@2@@__crt_stdio_output@@CAPA_WXZ 1003ae36 f i libucrt:output.obj
 0001:00039e3c       ?wide_null_string@?$output_processor@DV?$stream_output_adapter@D@__crt_stdio_output@@V?$standard_base@DV?$stream_output_adapter@D@__crt_stdio_output@@@2@@__crt_stdio_output@@CAPA_WXZ 1003ae3c f i libucrt:output.obj
 0001:00039e42       ?wide_null_string@?$output_processor@DV?$string_output_adapter@D@__crt_stdio_output@@V?$format_validation_base@DV?$string_output_adapter@D@__crt_stdio_output@@@2@@__crt_stdio_output@@CAPA_WXZ 1003ae42 f i libucrt:output.obj
 0001:00039e48       ?wide_null_string@?$output_processor@DV?$string_output_adapter@D@__crt_stdio_output@@V?$positional_parameter_base@DV?$string_output_adapter@D@__crt_stdio_output@@@2@@__crt_stdio_output@@CAPA_WXZ 1003ae48 f i libucrt:output.obj
 0001:00039e4e       ?wide_null_string@?$output_processor@DV?$string_output_adapter@D@__crt_stdio_output@@V?$standard_base@DV?$string_output_adapter@D@__crt_stdio_output@@@2@@__crt_stdio_output@@CAPA_WXZ 1003ae4e f i libucrt:output.obj
 0001:00039e54       ?wide_null_string@?$output_processor@_WV?$stream_output_adapter@_W@__crt_stdio_output@@V?$format_validation_base@_WV?$stream_output_adapter@_W@__crt_stdio_output@@@2@@__crt_stdio_output@@CAPA_WXZ 1003ae54 f i libucrt:output.obj
 0001:00039e5a       ?wide_null_string@?$output_processor@_WV?$stream_output_adapter@_W@__crt_stdio_output@@V?$positional_parameter_base@_WV?$stream_output_adapter@_W@__crt_stdio_output@@@2@@__crt_stdio_output@@CAPA_WXZ 1003ae5a f i libucrt:output.obj
 0001:00039e60       ?wide_null_string@?$output_processor@_WV?$stream_output_adapter@_W@__crt_stdio_output@@V?$standard_base@_WV?$stream_output_adapter@_W@__crt_stdio_output@@@2@@__crt_stdio_output@@CAPA_WXZ 1003ae60 f i libucrt:output.obj
 0001:00039e66       ?wide_null_string@?$output_processor@_WV?$string_output_adapter@_W@__crt_stdio_output@@V?$format_validation_base@_WV?$string_output_adapter@_W@__crt_stdio_output@@@2@@__crt_stdio_output@@CAPA_WXZ 1003ae66 f i libucrt:output.obj
 0001:00039e6c       ?wide_null_string@?$output_processor@_WV?$string_output_adapter@_W@__crt_stdio_output@@V?$positional_parameter_base@_WV?$string_output_adapter@_W@__crt_stdio_output@@@2@@__crt_stdio_output@@CAPA_WXZ 1003ae6c f i libucrt:output.obj
 0001:00039e72       ?wide_null_string@?$output_processor@_WV?$string_output_adapter@_W@__crt_stdio_output@@V?$standard_base@_WV?$string_output_adapter@_W@__crt_stdio_output@@@2@@__crt_stdio_output@@CAPA_WXZ 1003ae72 f i libucrt:output.obj
 0001:00039e78       ?write_character@?$output_adapter_common@DV?$stream_output_adapter@D@__crt_stdio_output@@@__crt_stdio_output@@QBEXDQAH@Z 1003ae78 f i libucrt:output.obj
 0001:00039e9e       ?write_character@?$output_adapter_common@_WV?$stream_output_adapter@_W@__crt_stdio_output@@@__crt_stdio_output@@QBEX_WQAH@Z 1003ae9e f i libucrt:output.obj
 0001:00039ec4       ?write_character@?$string_output_adapter@D@__crt_stdio_output@@QBE_NDQAH@Z 1003aec4 f i libucrt:output.obj
 0001:00039f16       ?write_character@?$string_output_adapter@_W@__crt_stdio_output@@QBE_N_WQAH@Z 1003af16 f i libucrt:output.obj
 0001:00039f6c       ?write_character_without_count_update@?$stream_output_adapter@D@__crt_stdio_output@@QBE_ND@Z 1003af6c f i libucrt:output.obj
 0001:00039fae       ?write_character_without_count_update@?$stream_output_adapter@_W@__crt_stdio_output@@QBE_N_W@Z 1003afae f i libucrt:output.obj
 0001:00039ff4       ?write_stored_string_tchar@?$output_processor@DV?$stream_output_adapter@D@__crt_stdio_output@@V?$format_validation_base@DV?$stream_output_adapter@D@__crt_stdio_output@@@2@@__crt_stdio_output@@AAE_ND@Z 1003aff4 f i libucrt:output.obj
 0001:0003a0c7       ?write_stored_string_tchar@?$output_processor@DV?$stream_output_adapter@D@__crt_stdio_output@@V?$positional_parameter_base@DV?$stream_output_adapter@D@__crt_stdio_output@@@2@@__crt_stdio_output@@AAE_ND@Z 1003b0c7 f i libucrt:output.obj
 0001:0003a19a       ?write_stored_string_tchar@?$output_processor@DV?$stream_output_adapter@D@__crt_stdio_output@@V?$standard_base@DV?$stream_output_adapter@D@__crt_stdio_output@@@2@@__crt_stdio_output@@AAE_ND@Z 1003b19a f i libucrt:output.obj
 0001:0003a26d       ?write_stored_string_tchar@?$output_processor@DV?$string_output_adapter@D@__crt_stdio_output@@V?$format_validation_base@DV?$string_output_adapter@D@__crt_stdio_output@@@2@@__crt_stdio_output@@AAE_ND@Z 1003b26d f i libucrt:output.obj
 0001:0003a340       ?write_stored_string_tchar@?$output_processor@DV?$string_output_adapter@D@__crt_stdio_output@@V?$positional_parameter_base@DV?$string_output_adapter@D@__crt_stdio_output@@@2@@__crt_stdio_output@@AAE_ND@Z 1003b340 f i libucrt:output.obj
 0001:0003a413       ?write_stored_string_tchar@?$output_processor@DV?$string_output_adapter@D@__crt_stdio_output@@V?$standard_base@DV?$string_output_adapter@D@__crt_stdio_output@@@2@@__crt_stdio_output@@AAE_ND@Z 1003b413 f i libucrt:output.obj
 0001:0003a4e6       ?write_stored_string_tchar@?$output_processor@_WV?$stream_output_adapter@_W@__crt_stdio_output@@V?$format_validation_base@_WV?$stream_output_adapter@_W@__crt_stdio_output@@@2@@__crt_stdio_output@@AAE_N_W@Z 1003b4e6 f i libucrt:output.obj
 0001:0003a5a0       ?write_stored_string_tchar@?$output_processor@_WV?$stream_output_adapter@_W@__crt_stdio_output@@V?$positional_parameter_base@_WV?$stream_output_adapter@_W@__crt_stdio_output@@@2@@__crt_stdio_output@@AAE_N_W@Z 1003b5a0 f i libucrt:output.obj
 0001:0003a65a       ?write_stored_string_tchar@?$output_processor@_WV?$stream_output_adapter@_W@__crt_stdio_output@@V?$standard_base@_WV?$stream_output_adapter@_W@__crt_stdio_output@@@2@@__crt_stdio_output@@AAE_N_W@Z 1003b65a f i libucrt:output.obj
 0001:0003a714       ?write_stored_string_tchar@?$output_processor@_WV?$string_output_adapter@_W@__crt_stdio_output@@V?$format_validation_base@_WV?$string_output_adapter@_W@__crt_stdio_output@@@2@@__crt_stdio_output@@AAE_N_W@Z 1003b714 f i libucrt:output.obj
 0001:0003a7ce       ?write_stored_string_tchar@?$output_processor@_WV?$string_output_adapter@_W@__crt_stdio_output@@V?$positional_parameter_base@_WV?$string_output_adapter@_W@__crt_stdio_output@@@2@@__crt_stdio_output@@AAE_N_W@Z 1003b7ce f i libucrt:output.obj
 0001:0003a888       ?write_stored_string_tchar@?$output_processor@_WV?$string_output_adapter@_W@__crt_stdio_output@@V?$standard_base@_WV?$string_output_adapter@_W@__crt_stdio_output@@@2@@__crt_stdio_output@@AAE_N_W@Z 1003b888 f i libucrt:output.obj
 0001:0003a942       ?write_string@?$stream_output_adapter@D@__crt_stdio_output@@QBEXQBDHQAHAAV__crt_deferred_errno_cache@@@Z 1003b942 f i libucrt:output.obj
 0001:0003a977       ?write_string@?$stream_output_adapter@_W@__crt_stdio_output@@QBEXQB_WHQAHAAV__crt_deferred_errno_cache@@@Z 1003b977 f i libucrt:output.obj
 0001:0003a9ac       ?write_string@?$string_output_adapter@D@__crt_stdio_output@@QBEXQBDHQAHAAV__crt_deferred_errno_cache@@@Z 1003b9ac f i libucrt:output.obj
 0001:0003aa2c       ?write_string@?$string_output_adapter@_W@__crt_stdio_output@@QBEXQB_WHQAHAAV__crt_deferred_errno_cache@@@Z 1003ba2c f i libucrt:output.obj
 0001:0003aabb       ?write_string_impl@?$output_adapter_common@DV?$stream_output_adapter@D@__crt_stdio_output@@@__crt_stdio_output@@IBEXQBDHQAHAAV__crt_deferred_errno_cache@@@Z 1003babb f i libucrt:output.obj
 0001:0003ab83       ?write_string_impl@?$output_adapter_common@_WV?$stream_output_adapter@_W@__crt_stdio_output@@@__crt_stdio_output@@IBEXQB_WHQAHAAV__crt_deferred_errno_cache@@@Z 1003bb83 f i libucrt:output.obj
 0001:0003ac4e       ___acrt_isleadbyte_l_noupdate 1003bc4e f i libucrt:output.obj
 0001:0003ac6f       ___acrt_locale_changed     1003bc6f f i libucrt:output.obj
 0001:0003ac7c       ___stdio_common_vfprintf   1003bc7c f   libucrt:output.obj
 0001:0003ad22       ___stdio_common_vfprintf_p 1003bd22 f   libucrt:output.obj
 0001:0003adc8       ___stdio_common_vfprintf_s 1003bdc8 f   libucrt:output.obj
 0001:0003ae6e       ___stdio_common_vfwprintf  1003be6e f   libucrt:output.obj
 0001:0003af14       ___stdio_common_vfwprintf_p 1003bf14 f   libucrt:output.obj
 0001:0003afba       ___stdio_common_vfwprintf_s 1003bfba f   libucrt:output.obj
 0001:0003b060       ___stdio_common_vsnprintf_s 1003c060 f   libucrt:output.obj
 0001:0003b090       ___stdio_common_vsnwprintf_s 1003c090 f   libucrt:output.obj
 0001:0003b0c0       ___stdio_common_vsprintf   1003c0c0 f   libucrt:output.obj
 0001:0003b0ed       ___stdio_common_vsprintf_p 1003c0ed f   libucrt:output.obj
 0001:0003b11a       ___stdio_common_vsprintf_s 1003c11a f   libucrt:output.obj
 0001:0003b147       ___stdio_common_vswprintf  1003c147 f   libucrt:output.obj
 0001:0003b174       ___stdio_common_vswprintf_p 1003c174 f   libucrt:output.obj
 0001:0003b1a1       ___stdio_common_vswprintf_s 1003c1a1 f   libucrt:output.obj
 0001:0003b1ce       _calloc                    1003c1ce f   libucrt:calloc.obj
 0001:0003b1db       _realloc                   1003c1db f   libucrt:realloc.obj
 0001:0003b1e8       ??$?B$$A6GXPAXK0@Z@__crt_fast_encoded_nullptr_t@@QBEP6GXPAXK0@ZXZ 1003c1e8 f i libucrt:exit.obj
 0001:0003b28b       ??$__crt_fast_decode_pointer@P6GXPAXK0@Z@@YAP6GXPAXK0@ZQ6GX0K0@Z@Z 1003c28b f i libucrt:exit.obj
 0001:0003b2a6       ??$__crt_fast_encode_pointer@P6GXPAXK0@Z@@YAP6GXPAXK0@ZQ6GX0K0@Z@Z 1003c2a6 f i libucrt:exit.obj
 0001:0003b2cc       ??$__crt_get_proc_address@P6GXI@Z@@YAP6GXI@ZQAUHINSTANCE__@@QBD@Z 1003c2cc f i libucrt:exit.obj
 0001:0003b332       ??0?$__crt_unique_handle_t@U__crt_hmodule_traits@@@@QAE@QAUHINSTANCE__@@@Z 1003c332 f i libucrt:exit.obj
 0001:0003b346       ??1?$__crt_unique_handle_t@U__crt_hmodule_traits@@@@QAE@XZ 1003c346 f i libucrt:exit.obj
 0001:0003b48b       ?__acrt_select_exit_lock@@YA?AW4__acrt_lock_id@@XZ 1003c48b f i libucrt:exit.obj
 0001:0003b4a6       ?close@?$__crt_unique_handle_t@U__crt_hmodule_traits@@@@QAEXXZ 1003c4a6 f i libucrt:exit.obj
 0001:0003b4c2       ?close@__crt_hmodule_traits@@SA_NPAUHINSTANCE__@@@Z 1003c4c2 f i libucrt:exit.obj
 0001:0003b5ad       ?get@?$__crt_unique_handle_t@U__crt_hmodule_traits@@@@QBEPAUHINSTANCE__@@XZ 1003c5ad f i libucrt:exit.obj
 0001:0003b5b0       ?get_address_of@?$__crt_unique_handle_t@U__crt_hmodule_traits@@@@QAEPAPAUHINSTANCE__@@XZ 1003c5b0 f i libucrt:exit.obj
 0001:0003b5b3       ?get_invalid_value@__crt_hmodule_traits@@SAPAUHINSTANCE__@@XZ 1003c5b3 f i libucrt:exit.obj
 0001:0003b6b4       __Exit                     1003c6b4 f   libucrt:exit.obj
 0001:0003b6cf       ___acrt_initialize_thread_local_exit_callback 1003c6cf f   libucrt:exit.obj
 0001:0003b6e1       __c_exit                   1003c6e1 f   libucrt:exit.obj
 0001:0003b6f3       __cexit                    1003c6f3 f   libucrt:exit.obj
 0001:0003b705       __exit                     1003c705 f   libucrt:exit.obj
 0001:0003b720       __is_c_termination_complete 1003c720 f   libucrt:exit.obj
 0001:0003b726       __register_thread_local_exe_atexit_callback 1003c726 f   libucrt:exit.obj
 0001:0003b76c       _exit                      1003c76c f   libucrt:exit.obj
 0001:0003b787       _quick_exit                1003c787 f   libucrt:exit.obj
 0001:0003b7b0       _strncat                   1003c7b0 f   libucrt:strncat.obj
 0001:0003b940       _strncpy                   1003c940 f   libucrt:strncpy.obj
 0001:0003baad       ?is_in_use@__crt_stdio_stream@@QBE_NXZ 1003caad f i libucrt:fclose.obj
 0001:0003baba       __fclose_nolock            1003caba f   libucrt:fclose.obj
 0001:0003bb4d       _fclose                    1003cb4d f   libucrt:fclose.obj
 0001:0003be43       ??$open_file@ABQBDABQBDABHPAU_iobuf@@@?$__crt_char_traits@D@@SAPAU_iobuf@@ABQBD0ABH$$QAPAU1@@Z 1003ce43 f i libucrt:fopen.obj
 0001:0003be6e       ??$open_file@ABQB_WABQB_WABHPAU_iobuf@@@?$__crt_char_traits@_W@@SAPAU_iobuf@@ABQB_W0ABH$$QAPAU1@@Z 1003ce6e f i libucrt:fopen.obj
 0001:0003be99       ?unlock@__crt_stdio_stream@@QBEXXZ 1003ce99 f i libucrt:fopen.obj
 0001:0003bea4       __fsopen                   1003cea4 f   libucrt:fopen.obj
 0001:0003beb1       __wfopen                   1003ceb1 f   libucrt:fopen.obj
 0001:0003becd       __wfopen_s                 1003cecd f   libucrt:fopen.obj
 0001:0003bf25       __wfsopen                  1003cf25 f   libucrt:fopen.obj
 0001:0003bf32       _fopen                     1003cf32 f   libucrt:fopen.obj
 0001:0003bf4e       _fopen_s                   1003cf4e f   libucrt:fopen.obj
 0001:0003bfa6       ?__acrt_stdio_reset_buffer@@YAXV__crt_stdio_stream@@@Z 1003cfa6 f i libucrt:fread.obj
 0001:0003bfc1       ?has_any_buffer@__crt_stdio_stream@@QBE_NXZ 1003cfc1 f i libucrt:fread.obj
 0001:0003bfd2       ?has_any_of@__crt_stdio_stream@@QBE_NJ@Z 1003cfd2 f i libucrt:fread.obj
 0001:0003bfeb       ?set_flags@__crt_stdio_stream@@QBE_NJ@Z 1003cfeb f i libucrt:fread.obj
 0001:0003c018       __fread_nolock             1003d018 f   libucrt:fread.obj
 0001:0003c03c       __fread_nolock_s           1003d03c f   libucrt:fread.obj
 0001:0003c28b       _fread                     1003d28b f   libucrt:fread.obj
 0001:0003c2af       _fread_s                   1003d2af f   libucrt:fread.obj
 0001:0003c560       ?has_big_buffer@__crt_stdio_stream@@QBE_NXZ 1003d560 f i libucrt:fwrite.obj
 0001:0003c56d       __fwrite_nolock            1003d56d f   libucrt:fwrite.obj
 0001:0003c746       _fwrite                    1003d746 f   libucrt:fwrite.obj
 0001:0003c869       ??$__acrt_mbs_to_wcs_cp@U__crt_win32_buffer_internal_dynamic_resizing@@@@YAHQBDAAV?$__crt_win32_buffer@_WU__crt_win32_buffer_internal_dynamic_resizing@@@@I@Z 1003d869 f i libucrt:unlink.obj
 0001:0003c88f       ??0?$__crt_win32_buffer@_WU__crt_win32_buffer_internal_dynamic_resizing@@@@QAE@XZ 1003d88f f i libucrt:unlink.obj
 0001:0003c8aa       ??1?$__crt_win32_buffer@_WU__crt_win32_buffer_internal_dynamic_resizing@@@@QAE@XZ 1003d8aa f i libucrt:unlink.obj
 0001:0003c8d8       ?__acrt_get_utf8_acp_compatibility_codepage@@YAIXZ 1003d8d8 f i libucrt:unlink.obj
 0001:0003c929       ?_deallocate@?$__crt_win32_buffer@_WU__crt_win32_buffer_internal_dynamic_resizing@@@@AAEXXZ 1003d929 f i libucrt:unlink.obj
 0001:0003c949       ?allocate@?$__crt_win32_buffer@_WU__crt_win32_buffer_internal_dynamic_resizing@@@@QAEHI@Z 1003d949 f i libucrt:unlink.obj
 0001:0003c997       ?allocate@__crt_win32_buffer_internal_dynamic_resizing@@SAHQAPAXIABV__crt_win32_buffer_empty_debug_info@@@Z 1003d997 f i libucrt:unlink.obj
 0001:0003c9bd       ?capacity@?$__crt_win32_buffer@_WU__crt_win32_buffer_internal_dynamic_resizing@@@@QBEIXZ 1003d9bd f i libucrt:unlink.obj
 0001:0003c9c1       ?data@?$__crt_win32_buffer@_WU__crt_win32_buffer_internal_dynamic_resizing@@@@QAEPA_WXZ 1003d9c1 f i libucrt:unlink.obj
 0001:0003c9c5       ?deallocate@__crt_win32_buffer_internal_dynamic_resizing@@SAXQAXABV__crt_win32_buffer_empty_debug_info@@@Z 1003d9c5 f i libucrt:unlink.obj
 0001:0003c9d9       ?debug_info@?$__crt_win32_buffer@_WU__crt_win32_buffer_internal_dynamic_resizing@@@@QBEABV__crt_win32_buffer_empty_debug_info@@XZ 1003d9d9 f i libucrt:unlink.obj
 0001:0003c9dc       ?size@?$__crt_win32_buffer@_WU__crt_win32_buffer_internal_dynamic_resizing@@@@QAEXI@Z 1003d9dc f i libucrt:unlink.obj
 0001:0003c9ee       __unlink                   1003d9ee f   libucrt:unlink.obj
 0001:0003c9fb       _remove                    1003d9fb f   libucrt:unlink.obj
 0001:0003ca82       ?has_all_of@__crt_stdio_stream@@QBE_NJ@Z 1003da82 f i libucrt:rewind.obj
 0001:0003ca9e       ?unset_flags@__crt_stdio_stream@@QBE_NJ@Z 1003da9e f i libucrt:rewind.obj
 0001:0003cad1       _rewind                    1003dad1 f   libucrt:rewind.obj
 0001:0003cbc3       _ldexp                     1003dbc3 f   libucrt:ldexp.obj
 0001:0003ce3c       ??$__vcrt_va_start_verify_argument_type@QBD@@YAXXZ 1003de3c f i libucrt:assert.obj
 0001:0003ce3d       ??$__vcrt_va_start_verify_argument_type@QB_W@@YAXXZ 1003de3d f i libucrt:assert.obj
 0001:0003dddf       ??$ftprintf@PAU_iobuf@@PBDABQBDABQBDABI@?$__crt_char_traits@D@@SAH$$QAPAU_iobuf@@$$QAPBDABQBD2ABI@Z 1003eddf f i libucrt:assert.obj
 0001:0003de11       ??$ftprintf@PAU_iobuf@@PB_WABQB_WABQB_WABI@?$__crt_char_traits@_W@@SAH$$QAPAU_iobuf@@$$QAPB_WABQB_W2ABI@Z 1003ee11 f i libucrt:assert.obj
 0001:0003de43       ??$get_module_file_name@AAPAUHINSTANCE__@@AAY0BAF@DK@?$__crt_char_traits@D@@SAKAAPAUHINSTANCE__@@AAY0BAF@D$$QAK@Z 1003ee43 f i libucrt:assert.obj
 0001:0003de66       ??$get_module_file_name@AAPAUHINSTANCE__@@AAY0BAF@_WK@?$__crt_char_traits@_W@@SAKAAPAUHINSTANCE__@@AAY0BAF@_W$$QAK@Z 1003ee66 f i libucrt:assert.obj
 0001:0003de86       ??$itot_s@ABIPADIH@?$__crt_char_traits@D@@SAHABI$$QAPAD$$QAI$$QAH@Z 1003ee86 f i libucrt:assert.obj
 0001:0003deb1       ??$itot_s@ABIPA_WIH@?$__crt_char_traits@_W@@SAHABI$$QAPA_W$$QAI$$QAH@Z 1003eeb1 f i libucrt:assert.obj
 0001:0003dedc       ??$show_message_box@AAY0CEA@DPBDJ@?$__crt_char_traits@D@@SAHAAY0CEA@D$$QAPBD$$QAJ@Z 1003eedc f i libucrt:assert.obj
 0001:0003deff       ??$show_message_box@AAY0CEA@_WPB_WJ@?$__crt_char_traits@_W@@SAHAAY0CEA@_W$$QAPB_W$$QAJ@Z 1003eeff f i libucrt:assert.obj
 0001:0003df22       ??$tcscat_s@ABQADABIAAPAD@?$__crt_char_traits@D@@SAHABQADABIAAPAD@Z 1003ef22 f i libucrt:assert.obj
 0001:0003df47       ??$tcscat_s@ABQADABIABQBD@?$__crt_char_traits@D@@SAHABQADABIABQBD@Z 1003ef47 f i libucrt:assert.obj
 0001:0003df6c       ??$tcscat_s@ABQADABIPBD@?$__crt_char_traits@D@@SAHABQADABI$$QAPBD@Z 1003ef6c f i libucrt:assert.obj
 0001:0003df91       ??$tcscat_s@ABQA_WABIAAPA_W@?$__crt_char_traits@_W@@SAHABQA_WABIAAPA_W@Z 1003ef91 f i libucrt:assert.obj
 0001:0003dfb6       ??$tcscat_s@ABQA_WABIABQB_W@?$__crt_char_traits@_W@@SAHABQA_WABIABQB_W@Z 1003efb6 f i libucrt:assert.obj
 0001:0003dfdb       ??$tcscat_s@ABQA_WABIPB_W@?$__crt_char_traits@_W@@SAHABQA_WABI$$QAPB_W@Z 1003efdb f i libucrt:assert.obj
 0001:0003e000       ??$tcscpy_s@AAY0BAF@DIPBD@?$__crt_char_traits@D@@SAHAAY0BAF@D$$QAI$$QAPBD@Z 1003f000 f i libucrt:assert.obj
 0001:0003e023       ??$tcscpy_s@AAY0BAF@_WIPB_W@?$__crt_char_traits@_W@@SAHAAY0BAF@_W$$QAI$$QAPB_W@Z 1003f023 f i libucrt:assert.obj
 0001:0003e046       ??$tcscpy_s@ABQADABIPBD@?$__crt_char_traits@D@@SAHABQADABI$$QAPBD@Z 1003f046 f i libucrt:assert.obj
 0001:0003e06b       ??$tcscpy_s@ABQA_WABIPB_W@?$__crt_char_traits@_W@@SAHABQA_WABI$$QAPB_W@Z 1003f06b f i libucrt:assert.obj
 0001:0003e090       ??$tcslen@AAY0BAF@D@?$__crt_char_traits@D@@SAIAAY0BAF@D@Z 1003f090 f i libucrt:assert.obj
 0001:0003e0ab       ??$tcslen@AAY0BAF@_W@?$__crt_char_traits@_W@@SAIAAY0BAF@_W@Z 1003f0ab f i libucrt:assert.obj
 0001:0003e0ce       ??$tcslen@ABQAD@?$__crt_char_traits@D@@SAIABQAD@Z 1003f0ce f i libucrt:assert.obj
 0001:0003e0ec       ??$tcslen@ABQA_W@?$__crt_char_traits@_W@@SAIABQA_W@Z 1003f0ec f i libucrt:assert.obj
 0001:0003e111       ??$tcslen@ABQBD@?$__crt_char_traits@D@@SAIABQBD@Z 1003f111 f i libucrt:assert.obj
 0001:0003e12f       ??$tcslen@ABQB_W@?$__crt_char_traits@_W@@SAIABQB_W@Z 1003f12f f i libucrt:assert.obj
 0001:0003e154       ??$tcsncat_s@ABQADABIAAPBDI@?$__crt_char_traits@D@@SAHABQADABIAAPBD$$QAI@Z 1003f154 f i libucrt:assert.obj
 0001:0003e17f       ??$tcsncat_s@ABQADABIABQBDABI@?$__crt_char_traits@D@@SAHABQADABIABQBD1@Z 1003f17f f i libucrt:assert.obj
 0001:0003e1aa       ??$tcsncat_s@ABQADABIPBDI@?$__crt_char_traits@D@@SAHABQADABI$$QAPBD$$QAI@Z 1003f1aa f i libucrt:assert.obj
 0001:0003e1d5       ??$tcsncat_s@ABQA_WABIAAPB_WI@?$__crt_char_traits@_W@@SAHABQA_WABIAAPB_W$$QAI@Z 1003f1d5 f i libucrt:assert.obj
 0001:0003e200       ??$tcsncat_s@ABQA_WABIABQB_WABI@?$__crt_char_traits@_W@@SAHABQA_WABIABQB_W1@Z 1003f200 f i libucrt:assert.obj
 0001:0003e22b       ??$tcsncat_s@ABQA_WABIPB_WI@?$__crt_char_traits@_W@@SAHABQA_WABI$$QAPB_W$$QAI@Z 1003f22b f i libucrt:assert.obj
 0001:0003e3d0       __assert                   1003f3d0 f   libucrt:assert.obj
 0001:0003e42a       __invoke_watson_if_error   1003f42a f i libucrt:assert.obj
 0001:0003e454       __vfwprintf_l              1003f454 f i libucrt:assert.obj
 0001:0003e482       __vswprintf_c_l            1003f482 f i libucrt:assert.obj
 0001:0003e4bc       __wassert                  1003f4bc f   libucrt:assert.obj
 0001:0003e516       _fwprintf                  1003f516 f i libucrt:assert.obj
 0001:0003e5d8       _swprintf                  1003f5d8 f i libucrt:assert.obj
 0001:0003e5fd       ??$?RE@__crt_internal_free_policy@@QBEXQBE@Z 1003f5fd f i libucrt:input.obj
 0001:0003e741       ??$assemble_floating_point_ind@M@__crt_strtox@@YAXAAM@Z 1003f741 f i libucrt:input.obj
 0001:0003e755       ??$assemble_floating_point_ind@N@__crt_strtox@@YAXAAN@Z 1003f755 f i libucrt:input.obj
 0001:0003e76e       ??$assemble_floating_point_infinity@M@__crt_strtox@@YAX_NAAM@Z 1003f76e f i libucrt:input.obj
 0001:0003e78d       ??$assemble_floating_point_infinity@N@__crt_strtox@@YAX_NAAN@Z 1003f78d f i libucrt:input.obj
 0001:0003e7b1       ??$assemble_floating_point_qnan@M@__crt_strtox@@YAX_NAAM@Z 1003f7b1 f i libucrt:input.obj
 0001:0003e7d0       ??$assemble_floating_point_qnan@N@__crt_strtox@@YAX_NAAN@Z 1003f7d0 f i libucrt:input.obj
 0001:0003e7f4       ??$assemble_floating_point_snan@M@__crt_strtox@@YAX_NAAM@Z 1003f7f4 f i libucrt:input.obj
 0001:0003e813       ??$assemble_floating_point_snan@N@__crt_strtox@@YAX_NAAN@Z 1003f813 f i libucrt:input.obj
 0001:0003e83c       ??$assemble_floating_point_value_t@M@__crt_strtox@@YA?AW4SLD_STATUS@@_NH_KAAM@Z 1003f83c f i libucrt:input.obj
 0001:0003e878       ??$assemble_floating_point_value_t@N@__crt_strtox@@YA?AW4SLD_STATUS@@_NH_KAAN@Z 1003f878 f i libucrt:input.obj
 0001:0003e8ca       ??$assemble_floating_point_zero@M@__crt_strtox@@YAX_NAAM@Z 1003f8ca f i libucrt:input.obj
 0001:0003e8e1       ??$assemble_floating_point_zero@N@__crt_strtox@@YAX_NAAN@Z 1003f8e1 f i libucrt:input.obj
 0001:0003eba1       ??$convert_decimal_string_to_floating_type@M@__crt_strtox@@YA?AW4SLD_STATUS@@ABUfloating_point_string@0@AAM@Z 1003fba1 f i libucrt:input.obj
 0001:0003ebcc       ??$convert_decimal_string_to_floating_type@N@__crt_strtox@@YA?AW4SLD_STATUS@@ABUfloating_point_string@0@AAN@Z 1003fbcc f i libucrt:input.obj
 0001:0003ebf7       ??$convert_hexadecimal_string_to_floating_type@M@__crt_strtox@@YA?AW4SLD_STATUS@@ABUfloating_point_string@0@AAM@Z 1003fbf7 f i libucrt:input.obj
 0001:0003ec22       ??$convert_hexadecimal_string_to_floating_type@N@__crt_strtox@@YA?AW4SLD_STATUS@@ABUfloating_point_string@0@AAN@Z 1003fc22 f i libucrt:input.obj
 0001:0003ec4d       ??$fill_buffer@D@?$input_processor@DV?$stream_input_adapter@D@__crt_stdio_input@@@__crt_stdio_input@@CAXQADII@Z 1003fc4d f i libucrt:input.obj
 0001:0003ec4e       ??$fill_buffer@D@?$input_processor@DV?$string_input_adapter@D@__crt_stdio_input@@@__crt_stdio_input@@CAXQADII@Z 1003fc4e f i libucrt:input.obj
 0001:0003ec4f       ??$fill_buffer@D@?$input_processor@_WV?$stream_input_adapter@_W@__crt_stdio_input@@@__crt_stdio_input@@CAXQADII@Z 1003fc4f f i libucrt:input.obj
 0001:0003ec50       ??$fill_buffer@D@?$input_processor@_WV?$string_input_adapter@_W@__crt_stdio_input@@@__crt_stdio_input@@CAXQADII@Z 1003fc50 f i libucrt:input.obj
 0001:0003ec51       ??$fill_buffer@_W@?$input_processor@DV?$stream_input_adapter@D@__crt_stdio_input@@@__crt_stdio_input@@CAXQA_WII@Z 1003fc51 f i libucrt:input.obj
 0001:0003ec52       ??$fill_buffer@_W@?$input_processor@DV?$string_input_adapter@D@__crt_stdio_input@@@__crt_stdio_input@@CAXQA_WII@Z 1003fc52 f i libucrt:input.obj
 0001:0003ec53       ??$fill_buffer@_W@?$input_processor@_WV?$stream_input_adapter@_W@__crt_stdio_input@@@__crt_stdio_input@@CAXQA_WII@Z 1003fc53 f i libucrt:input.obj
 0001:0003ec54       ??$fill_buffer@_W@?$input_processor@_WV?$string_input_adapter@_W@__crt_stdio_input@@@__crt_stdio_input@@CAXQA_WII@Z 1003fc54 f i libucrt:input.obj
 0001:0003ec55       ??$getc_nolock@PAU_iobuf@@@?$__crt_char_traits@D@@SAH$$QAPAU_iobuf@@@Z 1003fc55 f i libucrt:input.obj
 0001:0003ec6b       ??$getc_nolock@PAU_iobuf@@@?$__crt_char_traits@_W@@SAG$$QAPAU_iobuf@@@Z 1003fc6b f i libucrt:input.obj
 0001:0003ec81       ??$is_overflow_condition@_K@__crt_strtox@@YA_NI_K@Z 1003fc81 f i libucrt:input.obj
 0001:0003ecd2       ??$istspace@ABE@?$__crt_char_traits@D@@SAHABE@Z 1003fcd2 f i libucrt:input.obj
 0001:0003eceb       ??$istspace@AB_W@?$__crt_char_traits@_W@@SAHAB_W@Z 1003fceb f i libucrt:input.obj
 0001:0003ed07       ??$make_input_adapter_character_source@V?$stream_input_adapter@D@__crt_stdio_input@@@__crt_strtox@@YA?AV?$input_adapter_character_source@V?$stream_input_adapter@D@__crt_stdio_input@@@0@QAV?$stream_input_adapter@D@__crt_stdio_input@@_KQA_N@Z 1003fd07 f i libucrt:input.obj
 0001:0003ed2c       ??$make_input_adapter_character_source@V?$stream_input_adapter@_W@__crt_stdio_input@@@__crt_strtox@@YA?AV?$input_adapter_character_source@V?$stream_input_adapter@_W@__crt_stdio_input@@@0@QAV?$stream_input_adapter@_W@__crt_stdio_input@@_KQA_N@Z 1003fd2c f i libucrt:input.obj
 0001:0003ed51       ??$make_input_adapter_character_source@V?$string_input_adapter@D@__crt_stdio_input@@@__crt_strtox@@YA?AV?$input_adapter_character_source@V?$string_input_adapter@D@__crt_stdio_input@@@0@QAV?$string_input_adapter@D@__crt_stdio_input@@_KQA_N@Z 1003fd51 f i libucrt:input.obj
 0001:0003ed76       ??$make_input_adapter_character_source@V?$string_input_adapter@_W@__crt_stdio_input@@@__crt_strtox@@YA?AV?$input_adapter_character_source@V?$string_input_adapter@_W@__crt_stdio_input@@@0@QAV?$string_input_adapter@_W@__crt_stdio_input@@_KQA_N@Z 1003fd76 f i libucrt:input.obj
 0001:0003ed9b       ??$parse_floating_point@V?$input_adapter_character_source@V?$stream_input_adapter@D@__crt_stdio_input@@@__crt_strtox@@M@__crt_strtox@@YA?AW4SLD_STATUS@@QAU__crt_locale_pointers@@V?$input_adapter_character_source@V?$stream_input_adapter@D@__crt_stdio_input@@@0@QAM@Z 1003fd9b f i libucrt:input.obj
 0001:0003ee34       ??$parse_floating_point@V?$input_adapter_character_source@V?$stream_input_adapter@D@__crt_stdio_input@@@__crt_strtox@@N@__crt_strtox@@YA?AW4SLD_STATUS@@QAU__crt_locale_pointers@@V?$input_adapter_character_source@V?$stream_input_adapter@D@__crt_stdio_input@@@0@QAN@Z 1003fe34 f i libucrt:input.obj
 0001:0003eecd       ??$parse_floating_point@V?$input_adapter_character_source@V?$stream_input_adapter@_W@__crt_stdio_input@@@__crt_strtox@@M@__crt_strtox@@YA?AW4SLD_STATUS@@QAU__crt_locale_pointers@@V?$input_adapter_character_source@V?$stream_input_adapter@_W@__crt_stdio_input@@@0@QAM@Z 1003fecd f i libucrt:input.obj
 0001:0003ef66       ??$parse_floating_point@V?$input_adapter_character_source@V?$stream_input_adapter@_W@__crt_stdio_input@@@__crt_strtox@@N@__crt_strtox@@YA?AW4SLD_STATUS@@QAU__crt_locale_pointers@@V?$input_adapter_character_source@V?$stream_input_adapter@_W@__crt_stdio_input@@@0@QAN@Z 1003ff66 f i libucrt:input.obj
 0001:0003efff       ??$parse_floating_point@V?$input_adapter_character_source@V?$string_input_adapter@D@__crt_stdio_input@@@__crt_strtox@@M@__crt_strtox@@YA?AW4SLD_STATUS@@QAU__crt_locale_pointers@@V?$input_adapter_character_source@V?$string_input_adapter@D@__crt_stdio_input@@@0@QAM@Z 1003ffff f i libucrt:input.obj
 0001:0003f098       ??$parse_floating_point@V?$input_adapter_character_source@V?$string_input_adapter@D@__crt_stdio_input@@@__crt_strtox@@N@__crt_strtox@@YA?AW4SLD_STATUS@@QAU__crt_locale_pointers@@V?$input_adapter_character_source@V?$string_input_adapter@D@__crt_stdio_input@@@0@QAN@Z 10040098 f i libucrt:input.obj
 0001:0003f131       ??$parse_floating_point@V?$input_adapter_character_source@V?$string_input_adapter@_W@__crt_stdio_input@@@__crt_strtox@@M@__crt_strtox@@YA?AW4SLD_STATUS@@QAU__crt_locale_pointers@@V?$input_adapter_character_source@V?$string_input_adapter@_W@__crt_stdio_input@@@0@QAM@Z 10040131 f i libucrt:input.obj
 0001:0003f1ca       ??$parse_floating_point@V?$input_adapter_character_source@V?$string_input_adapter@_W@__crt_stdio_input@@@__crt_strtox@@N@__crt_strtox@@YA?AW4SLD_STATUS@@QAU__crt_locale_pointers@@V?$input_adapter_character_source@V?$string_input_adapter@_W@__crt_stdio_input@@@0@QAN@Z 100401ca f i libucrt:input.obj
 0001:0003f263       ??$parse_floating_point_from_source@V?$input_adapter_character_source@V?$stream_input_adapter@D@__crt_stdio_input@@@__crt_strtox@@@__crt_strtox@@YA?AW4floating_point_parse_result@0@QAU__crt_locale_pointers@@AAV?$input_adapter_character_source@V?$stream_input_adapter@D@__crt_stdio_input@@@0@AAUfloating_point_string@0@@Z 10040263 f i libucrt:input.obj
 0001:0003f7d8       ??$parse_floating_point_from_source@V?$input_adapter_character_source@V?$stream_input_adapter@_W@__crt_stdio_input@@@__crt_strtox@@@__crt_strtox@@YA?AW4floating_point_parse_result@0@QAU__crt_locale_pointers@@AAV?$input_adapter_character_source@V?$stream_input_adapter@_W@__crt_stdio_input@@@0@AAUfloating_point_string@0@@Z 100407d8 f i libucrt:input.obj
 0001:000409a8       ??$parse_floating_point_from_source@V?$input_adapter_character_source@V?$string_input_adapter@D@__crt_stdio_input@@@__crt_strtox@@@__crt_strtox@@YA?AW4floating_point_parse_result@0@QAU__crt_locale_pointers@@AAV?$input_adapter_character_source@V?$string_input_adapter@D@__crt_stdio_input@@@0@AAUfloating_point_string@0@@Z 100419a8 f i libucrt:input.obj
 0001:00040f1d       ??$parse_floating_point_from_source@V?$input_adapter_character_source@V?$string_input_adapter@_W@__crt_stdio_input@@@__crt_strtox@@@__crt_strtox@@YA?AW4floating_point_parse_result@0@QAU__crt_locale_pointers@@AAV?$input_adapter_character_source@V?$string_input_adapter@_W@__crt_stdio_input@@@0@AAUfloating_point_string@0@@Z 10041f1d f i libucrt:input.obj
 0001:000420ed       ??$parse_floating_point_possible_infinity@DV?$input_adapter_character_source@V?$stream_input_adapter@D@__crt_stdio_input@@@__crt_strtox@@_K@__crt_strtox@@YA?AW4floating_point_parse_result@0@AADAAV?$input_adapter_character_source@V?$stream_input_adapter@D@__crt_stdio_input@@@0@_K@Z 100430ed f i libucrt:input.obj
 0001:000421de       ??$parse_floating_point_possible_infinity@DV?$input_adapter_character_source@V?$string_input_adapter@D@__crt_stdio_input@@@__crt_strtox@@_K@__crt_strtox@@YA?AW4floating_point_parse_result@0@AADAAV?$input_adapter_character_source@V?$string_input_adapter@D@__crt_stdio_input@@@0@_K@Z 100431de f i libucrt:input.obj
 0001:000422cf       ??$parse_floating_point_possible_infinity@_WV?$input_adapter_character_source@V?$stream_input_adapter@_W@__crt_stdio_input@@@__crt_strtox@@_K@__crt_strtox@@YA?AW4floating_point_parse_result@0@AA_WAAV?$input_adapter_character_source@V?$stream_input_adapter@_W@__crt_stdio_input@@@0@_K@Z 100432cf f i libucrt:input.obj
 0001:000423d1       ??$parse_floating_point_possible_infinity@_WV?$input_adapter_character_source@V?$string_input_adapter@_W@__crt_stdio_input@@@__crt_strtox@@_K@__crt_strtox@@YA?AW4floating_point_parse_result@0@AA_WAAV?$input_adapter_character_source@V?$string_input_adapter@_W@__crt_stdio_input@@@0@_K@Z 100433d1 f i libucrt:input.obj
 0001:000424d3       ??$parse_floating_point_possible_nan@DV?$input_adapter_character_source@V?$stream_input_adapter@D@__crt_stdio_input@@@__crt_strtox@@_K@__crt_strtox@@YA?AW4floating_point_parse_result@0@AADAAV?$input_adapter_character_source@V?$stream_input_adapter@D@__crt_stdio_input@@@0@_K@Z 100434d3 f i libucrt:input.obj
 0001:00042637       ??$parse_floating_point_possible_nan@DV?$input_adapter_character_source@V?$string_input_adapter@D@__crt_stdio_input@@@__crt_strtox@@_K@__crt_strtox@@YA?AW4floating_point_parse_result@0@AADAAV?$input_adapter_character_source@V?$string_input_adapter@D@__crt_stdio_input@@@0@_K@Z 10043637 f i libucrt:input.obj
 0001:0004279b       ??$parse_floating_point_possible_nan@_WV?$input_adapter_character_source@V?$stream_input_adapter@_W@__crt_stdio_input@@@__crt_strtox@@_K@__crt_strtox@@YA?AW4floating_point_parse_result@0@AA_WAAV?$input_adapter_character_source@V?$stream_input_adapter@_W@__crt_stdio_input@@@0@_K@Z 1004379b f i libucrt:input.obj
 0001:00042919       ??$parse_floating_point_possible_nan@_WV?$input_adapter_character_source@V?$string_input_adapter@_W@__crt_stdio_input@@@__crt_strtox@@_K@__crt_strtox@@YA?AW4floating_point_parse_result@0@AA_WAAV?$input_adapter_character_source@V?$string_input_adapter@_W@__crt_stdio_input@@@0@_K@Z 10043919 f i libucrt:input.obj
 0001:00042a97       ??$parse_floating_point_possible_nan_is_ind@DV?$input_adapter_character_source@V?$stream_input_adapter@D@__crt_stdio_input@@@__crt_strtox@@@__crt_strtox@@YA_NAADAAV?$input_adapter_character_source@V?$stream_input_adapter@D@__crt_stdio_input@@@0@@Z 10043a97 f i libucrt:input.obj
 0001:00042adf       ??$parse_floating_point_possible_nan_is_ind@DV?$input_adapter_character_source@V?$string_input_adapter@D@__crt_stdio_input@@@__crt_strtox@@@__crt_strtox@@YA_NAADAAV?$input_adapter_character_source@V?$string_input_adapter@D@__crt_stdio_input@@@0@@Z 10043adf f i libucrt:input.obj
 0001:00042b27       ??$parse_floating_point_possible_nan_is_ind@_WV?$input_adapter_character_source@V?$stream_input_adapter@_W@__crt_stdio_input@@@__crt_strtox@@@__crt_strtox@@YA_NAA_WAAV?$input_adapter_character_source@V?$stream_input_adapter@_W@__crt_stdio_input@@@0@@Z 10043b27 f i libucrt:input.obj
 0001:00042b77       ??$parse_floating_point_possible_nan_is_ind@_WV?$input_adapter_character_source@V?$string_input_adapter@_W@__crt_stdio_input@@@__crt_strtox@@@__crt_strtox@@YA_NAA_WAAV?$input_adapter_character_source@V?$string_input_adapter@_W@__crt_stdio_input@@@0@@Z 10043b77 f i libucrt:input.obj
 0001:00042bc7       ??$parse_floating_point_possible_nan_is_snan@DV?$input_adapter_character_source@V?$stream_input_adapter@D@__crt_stdio_input@@@__crt_strtox@@@__crt_strtox@@YA_NAADAAV?$input_adapter_character_source@V?$stream_input_adapter@D@__crt_stdio_input@@@0@@Z 10043bc7 f i libucrt:input.obj
 0001:00042c0f       ??$parse_floating_point_possible_nan_is_snan@DV?$input_adapter_character_source@V?$string_input_adapter@D@__crt_stdio_input@@@__crt_strtox@@@__crt_strtox@@YA_NAADAAV?$input_adapter_character_source@V?$string_input_adapter@D@__crt_stdio_input@@@0@@Z 10043c0f f i libucrt:input.obj
 0001:00042c57       ??$parse_floating_point_possible_nan_is_snan@_WV?$input_adapter_character_source@V?$stream_input_adapter@_W@__crt_stdio_input@@@__crt_strtox@@@__crt_strtox@@YA_NAA_WAAV?$input_adapter_character_source@V?$stream_input_adapter@_W@__crt_stdio_input@@@0@@Z 10043c57 f i libucrt:input.obj
 0001:00042ca7       ??$parse_floating_point_possible_nan_is_snan@_WV?$input_adapter_character_source@V?$string_input_adapter@_W@__crt_stdio_input@@@__crt_strtox@@@__crt_strtox@@YA_NAA_WAAV?$input_adapter_character_source@V?$string_input_adapter@_W@__crt_stdio_input@@@0@@Z 10043ca7 f i libucrt:input.obj
 0001:00042cf7       ??$parse_floating_point_write_result@M@__crt_strtox@@YA?AW4SLD_STATUS@@W4floating_point_parse_result@0@ABUfloating_point_string@0@QAM@Z 10043cf7 f i libucrt:input.obj
 0001:00042ebe       ??$parse_floating_point_write_result@N@__crt_strtox@@YA?AW4SLD_STATUS@@W4floating_point_parse_result@0@ABUfloating_point_string@0@QAN@Z 10043ebe f i libucrt:input.obj
 0001:0004302b       ??$parse_integer@_KV?$input_adapter_character_source@V?$stream_input_adapter@D@__crt_stdio_input@@@__crt_strtox@@@__crt_strtox@@YA_KQAU__crt_locale_pointers@@V?$input_adapter_character_source@V?$stream_input_adapter@D@__crt_stdio_input@@@0@H_N@Z 1004402b f i libucrt:input.obj
 0001:00043399       ??$parse_integer@_KV?$input_adapter_character_source@V?$stream_input_adapter@_W@__crt_stdio_input@@@__crt_strtox@@@__crt_strtox@@YA_KQAU__crt_locale_pointers@@V?$input_adapter_character_source@V?$stream_input_adapter@_W@__crt_stdio_input@@@0@H_N@Z 10044399 f i libucrt:input.obj
 0001:00043b29       ??$parse_integer@_KV?$input_adapter_character_source@V?$string_input_adapter@D@__crt_stdio_input@@@__crt_strtox@@@__crt_strtox@@YA_KQAU__crt_locale_pointers@@V?$input_adapter_character_source@V?$string_input_adapter@D@__crt_stdio_input@@@0@H_N@Z 10044b29 f i libucrt:input.obj
 0001:00043e97       ??$parse_integer@_KV?$input_adapter_character_source@V?$string_input_adapter@_W@__crt_stdio_input@@@__crt_strtox@@@__crt_strtox@@YA_KQAU__crt_locale_pointers@@V?$input_adapter_character_source@V?$string_input_adapter@_W@__crt_stdio_input@@@0@H_N@Z 10044e97 f i libucrt:input.obj
 0001:00044627       ??$parse_next_characters_from_source@DV?$input_adapter_character_source@V?$stream_input_adapter@D@__crt_stdio_input@@@__crt_strtox@@@__crt_strtox@@YA_NQBD0IAADAAV?$input_adapter_character_source@V?$stream_input_adapter@D@__crt_stdio_input@@@0@@Z 10045627 f i libucrt:input.obj
 0001:0004467c       ??$parse_next_characters_from_source@DV?$input_adapter_character_source@V?$string_input_adapter@D@__crt_stdio_input@@@__crt_strtox@@@__crt_strtox@@YA_NQBD0IAADAAV?$input_adapter_character_source@V?$string_input_adapter@D@__crt_stdio_input@@@0@@Z 1004567c f i libucrt:input.obj
 0001:000446d1       ??$parse_next_characters_from_source@_WV?$input_adapter_character_source@V?$stream_input_adapter@_W@__crt_stdio_input@@@__crt_strtox@@@__crt_strtox@@YA_NQB_W0IAA_WAAV?$input_adapter_character_source@V?$stream_input_adapter@_W@__crt_stdio_input@@@0@@Z 100456d1 f i libucrt:input.obj
 0001:0004472d       ??$parse_next_characters_from_source@_WV?$input_adapter_character_source@V?$string_input_adapter@_W@__crt_stdio_input@@@__crt_strtox@@@__crt_strtox@@YA_NQB_W0IAA_WAAV?$input_adapter_character_source@V?$string_input_adapter@_W@__crt_stdio_input@@@0@@Z 1004572d f i libucrt:input.obj
 0001:00044789       ??$process_floating_point_specifier_t@M@?$input_processor@DV?$stream_input_adapter@D@__crt_stdio_input@@@__crt_stdio_input@@AAE_NXZ 10045789 f i libucrt:input.obj
 0001:0004480b       ??$process_floating_point_specifier_t@M@?$input_processor@DV?$string_input_adapter@D@__crt_stdio_input@@@__crt_stdio_input@@AAE_NXZ 1004580b f i libucrt:input.obj
 0001:0004488d       ??$process_floating_point_specifier_t@M@?$input_processor@_WV?$stream_input_adapter@_W@__crt_stdio_input@@@__crt_stdio_input@@AAE_NXZ 1004588d f i libucrt:input.obj
 0001:0004490f       ??$process_floating_point_specifier_t@M@?$input_processor@_WV?$string_input_adapter@_W@__crt_stdio_input@@@__crt_stdio_input@@AAE_NXZ 1004590f f i libucrt:input.obj
 0001:00044991       ??$process_floating_point_specifier_t@N@?$input_processor@DV?$stream_input_adapter@D@__crt_stdio_input@@@__crt_stdio_input@@AAE_NXZ 10045991 f i libucrt:input.obj
 0001:00044a13       ??$process_floating_point_specifier_t@N@?$input_processor@DV?$string_input_adapter@D@__crt_stdio_input@@@__crt_stdio_input@@AAE_NXZ 10045a13 f i libucrt:input.obj
 0001:00044a95       ??$process_floating_point_specifier_t@N@?$input_processor@_WV?$stream_input_adapter@_W@__crt_stdio_input@@@__crt_stdio_input@@AAE_NXZ 10045a95 f i libucrt:input.obj
 0001:00044b17       ??$process_floating_point_specifier_t@N@?$input_processor@_WV?$string_input_adapter@_W@__crt_stdio_input@@@__crt_stdio_input@@AAE_NXZ 10045b17 f i libucrt:input.obj
 0001:00044b99       ??$process_string_specifier_tchar@D@?$input_processor@DV?$stream_input_adapter@D@__crt_stdio_input@@@__crt_stdio_input@@AAE_NW4conversion_mode@1@D@Z 10045b99 f i libucrt:input.obj
 0001:00044d68       ??$process_string_specifier_tchar@D@?$input_processor@DV?$string_input_adapter@D@__crt_stdio_input@@@__crt_stdio_input@@AAE_NW4conversion_mode@1@D@Z 10045d68 f i libucrt:input.obj
 0001:00044f1e       ??$process_string_specifier_tchar@D@?$input_processor@_WV?$stream_input_adapter@_W@__crt_stdio_input@@@__crt_stdio_input@@AAE_NW4conversion_mode@1@D@Z 10045f1e f i libucrt:input.obj
 0001:000450e0       ??$process_string_specifier_tchar@D@?$input_processor@_WV?$string_input_adapter@_W@__crt_stdio_input@@@__crt_stdio_input@@AAE_NW4conversion_mode@1@D@Z 100460e0 f i libucrt:input.obj
 0001:000452a2       ??$process_string_specifier_tchar@_W@?$input_processor@DV?$stream_input_adapter@D@__crt_stdio_input@@@__crt_stdio_input@@AAE_NW4conversion_mode@1@_W@Z 100462a2 f i libucrt:input.obj
 0001:0004547e       ??$process_string_specifier_tchar@_W@?$input_processor@DV?$string_input_adapter@D@__crt_stdio_input@@@__crt_stdio_input@@AAE_NW4conversion_mode@1@_W@Z 1004647e f i libucrt:input.obj
 0001:00045641       ??$process_string_specifier_tchar@_W@?$input_processor@_WV?$stream_input_adapter@_W@__crt_stdio_input@@@__crt_stdio_input@@AAE_NW4conversion_mode@1@_W@Z 10046641 f i libucrt:input.obj
 0001:00045804       ??$process_string_specifier_tchar@_W@?$input_processor@_WV?$string_input_adapter@_W@__crt_stdio_input@@@__crt_stdio_input@@AAE_NW4conversion_mode@1@_W@Z 10046804 f i libucrt:input.obj
 0001:000459c7       ??$reset_buffer@D@?$input_processor@DV?$stream_input_adapter@D@__crt_stdio_input@@@__crt_stdio_input@@CAXQADI@Z 100469c7 f i libucrt:input.obj
 0001:000459de       ??$reset_buffer@D@?$input_processor@DV?$string_input_adapter@D@__crt_stdio_input@@@__crt_stdio_input@@CAXQADI@Z 100469de f i libucrt:input.obj
 0001:000459f5       ??$reset_buffer@D@?$input_processor@_WV?$stream_input_adapter@_W@__crt_stdio_input@@@__crt_stdio_input@@CAXQADI@Z 100469f5 f i libucrt:input.obj
 0001:00045a0c       ??$reset_buffer@D@?$input_processor@_WV?$string_input_adapter@_W@__crt_stdio_input@@@__crt_stdio_input@@CAXQADI@Z 10046a0c f i libucrt:input.obj
 0001:00045a23       ??$reset_buffer@_W@?$input_processor@DV?$stream_input_adapter@D@__crt_stdio_input@@@__crt_stdio_input@@CAXQA_WI@Z 10046a23 f i libucrt:input.obj
 0001:00045a3d       ??$reset_buffer@_W@?$input_processor@DV?$string_input_adapter@D@__crt_stdio_input@@@__crt_stdio_input@@CAXQA_WI@Z 10046a3d f i libucrt:input.obj
 0001:00045a57       ??$reset_buffer@_W@?$input_processor@_WV?$stream_input_adapter@_W@__crt_stdio_input@@@__crt_stdio_input@@CAXQA_WI@Z 10046a57 f i libucrt:input.obj
 0001:00045a71       ??$reset_buffer@_W@?$input_processor@_WV?$string_input_adapter@_W@__crt_stdio_input@@@__crt_stdio_input@@CAXQA_WI@Z 10046a71 f i libucrt:input.obj
 0001:00045a8b       ??$skip_whitespace@Vstream_input_adapter@__crt_stdio_input@@D@__crt_stdio_input@@YAHAAV?$stream_input_adapter@D@0@QAU__crt_locale_pointers@@@Z 10046a8b f i libucrt:input.obj
 0001:00045acf       ??$skip_whitespace@Vstream_input_adapter@__crt_stdio_input@@_W@__crt_stdio_input@@YAGAAV?$stream_input_adapter@_W@0@QAU__crt_locale_pointers@@@Z 10046acf f i libucrt:input.obj
 0001:00045b09       ??$skip_whitespace@Vstring_input_adapter@__crt_stdio_input@@D@__crt_stdio_input@@YAHAAV?$string_input_adapter@D@0@QAU__crt_locale_pointers@@@Z 10046b09 f i libucrt:input.obj
 0001:00045b43       ??$skip_whitespace@Vstring_input_adapter@__crt_stdio_input@@_W@__crt_stdio_input@@YAGAAV?$string_input_adapter@_W@0@QAU__crt_locale_pointers@@@Z 10046b43 f i libucrt:input.obj
 0001:00045b7d       ??$tcsnlen@ABQBDABI@?$__crt_char_traits@D@@SAIABQBDABI@Z 10046b7d f i libucrt:input.obj
 0001:00045b9b       ??$tcsnlen@ABQB_WABI@?$__crt_char_traits@_W@@SAIABQB_WABI@Z 10046b9b f i libucrt:input.obj
 0001:00045bb9       ??$tcstoull@AAPB_WPAPA_WH@?$__crt_char_traits@_W@@SA_KAAPB_W$$QAPAPA_W$$QAH@Z 10046bb9 f i libucrt:input.obj
 0001:00045bde       ??$tcstoull@PBDPAPADH@?$__crt_char_traits@D@@SA_K$$QAPBD$$QAPAPAD$$QAH@Z 10046bde f i libucrt:input.obj
 0001:00045c03       ??$ungettc_nolock@ABGPAU_iobuf@@@?$__crt_char_traits@_W@@SAGABG$$QAPAU_iobuf@@@Z 10046c03 f i libucrt:input.obj
 0001:00045c23       ??$ungettc_nolock@ABHPAU_iobuf@@@?$__crt_char_traits@D@@SAHABH$$QAPAU_iobuf@@@Z 10046c23 f i libucrt:input.obj
 0001:00045c41       ??$write_floating_point@M@?$input_processor@DV?$stream_input_adapter@D@__crt_stdio_input@@@__crt_stdio_input@@AAE_NABM@Z 10046c41 f i libucrt:input.obj
 0001:00045c82       ??$write_floating_point@M@?$input_processor@DV?$string_input_adapter@D@__crt_stdio_input@@@__crt_stdio_input@@AAE_NABM@Z 10046c82 f i libucrt:input.obj
 0001:00045cc3       ??$write_floating_point@M@?$input_processor@_WV?$stream_input_adapter@_W@__crt_stdio_input@@@__crt_stdio_input@@AAE_NABM@Z 10046cc3 f i libucrt:input.obj
 0001:00045d04       ??$write_floating_point@M@?$input_processor@_WV?$string_input_adapter@_W@__crt_stdio_input@@@__crt_stdio_input@@AAE_NABM@Z 10046d04 f i libucrt:input.obj
 0001:00045d45       ??$write_floating_point@N@?$input_processor@DV?$stream_input_adapter@D@__crt_stdio_input@@@__crt_stdio_input@@AAE_NABN@Z 10046d45 f i libucrt:input.obj
 0001:00045d8d       ??$write_floating_point@N@?$input_processor@DV?$string_input_adapter@D@__crt_stdio_input@@@__crt_stdio_input@@AAE_NABN@Z 10046d8d f i libucrt:input.obj
 0001:00045dd5       ??$write_floating_point@N@?$input_processor@_WV?$stream_input_adapter@_W@__crt_stdio_input@@@__crt_stdio_input@@AAE_NABN@Z 10046dd5 f i libucrt:input.obj
 0001:00045e1d       ??$write_floating_point@N@?$input_processor@_WV?$string_input_adapter@_W@__crt_stdio_input@@@__crt_stdio_input@@AAE_NABN@Z 10046e1d f i libucrt:input.obj
 0001:000460c5       ??0?$__crt_unique_heap_ptr@EU__crt_internal_free_policy@@@@QAE@QAE@Z 100470c5 f i libucrt:input.obj
 0001:000460d9       ??0?$format_string_parser@D@__crt_stdio_input@@QAE@_KQBE@Z 100470d9 f i libucrt:input.obj
 0001:00046135       ??0?$format_string_parser@_W@__crt_stdio_input@@QAE@_KQB_W@Z 10047135 f i libucrt:input.obj
 0001:00046182       ??0?$input_adapter_character_source@V?$stream_input_adapter@D@__crt_stdio_input@@@__crt_strtox@@QAE@QAV?$stream_input_adapter@D@__crt_stdio_input@@_KQA_N@Z 10047182 f i libucrt:input.obj
 0001:000461bf       ??0?$input_adapter_character_source@V?$stream_input_adapter@_W@__crt_stdio_input@@@__crt_strtox@@QAE@QAV?$stream_input_adapter@_W@__crt_stdio_input@@_KQA_N@Z 100471bf f i libucrt:input.obj
 0001:000461fc       ??0?$input_adapter_character_source@V?$string_input_adapter@D@__crt_stdio_input@@@__crt_strtox@@QAE@QAV?$string_input_adapter@D@__crt_stdio_input@@_KQA_N@Z 100471fc f i libucrt:input.obj
 0001:00046239       ??0?$input_adapter_character_source@V?$string_input_adapter@_W@__crt_stdio_input@@@__crt_strtox@@QAE@QAV?$string_input_adapter@_W@__crt_stdio_input@@_KQA_N@Z 10047239 f i libucrt:input.obj
 0001:00046276       ??0?$input_processor@DV?$stream_input_adapter@D@__crt_stdio_input@@@__crt_stdio_input@@QAE@ABV?$stream_input_adapter@D@1@_KQBDQAU__crt_locale_pointers@@QAD@Z 10047276 f i libucrt:input.obj
 0001:000462d1       ??0?$input_processor@DV?$string_input_adapter@D@__crt_stdio_input@@@__crt_stdio_input@@QAE@ABV?$string_input_adapter@D@1@_KQBDQAU__crt_locale_pointers@@QAD@Z 100472d1 f i libucrt:input.obj
 0001:00046326       ??0?$input_processor@_WV?$stream_input_adapter@_W@__crt_stdio_input@@@__crt_stdio_input@@QAE@ABV?$stream_input_adapter@_W@1@_KQB_WQAU__crt_locale_pointers@@QAD@Z 10047326 f i libucrt:input.obj
 0001:00046381       ??0?$input_processor@_WV?$string_input_adapter@_W@__crt_stdio_input@@@__crt_stdio_input@@QAE@ABV?$string_input_adapter@_W@1@_KQB_WQAU__crt_locale_pointers@@QAD@Z 10047381 f i libucrt:input.obj
 0001:000463d6       ??0?$scanset_buffer@E@__crt_stdio_input@@QAE@XZ 100473d6 f i libucrt:input.obj
 0001:000463ec       ??0?$scanset_buffer@_W@__crt_stdio_input@@QAE@XZ 100473ec f i libucrt:input.obj
 0001:000463f2       ??0?$scanset_storage@$00@__crt_stdio_input@@QAE@XZ 100473f2 f i libucrt:input.obj
 0001:00046408       ??0?$scanset_storage@$01@__crt_stdio_input@@QAE@XZ 10047408 f i libucrt:input.obj
 0001:0004640e       ??0?$stream_input_adapter@D@__crt_stdio_input@@QAE@QAU_iobuf@@@Z 1004740e f i libucrt:input.obj
 0001:00046427       ??0?$stream_input_adapter@_W@__crt_stdio_input@@QAE@QAU_iobuf@@@Z 10047427 f i libucrt:input.obj
 0001:00046440       ??0?$string_input_adapter@D@__crt_stdio_input@@QAE@QBDI@Z 10047440 f i libucrt:input.obj
 0001:00046461       ??0?$string_input_adapter@_W@__crt_stdio_input@@QAE@QB_WI@Z 10047461 f i libucrt:input.obj
 0001:00046490       ??0big_integer@__crt_strtox@@QAE@ABU01@@Z 10047490 f i libucrt:input.obj
 0001:000464d0       ??0big_integer@__crt_strtox@@QAE@XZ 100474d0 f i libucrt:input.obj
 0001:000464db       ??0floating_point_value@__crt_strtox@@QAE@QAM@Z 100474db f i libucrt:input.obj
 0001:000464f4       ??0floating_point_value@__crt_strtox@@QAE@QAN@Z 100474f4 f i libucrt:input.obj
 0001:0004650d       ??1?$__crt_unique_heap_ptr@EU__crt_internal_free_policy@@@@QAE@XZ 1004750d f i libucrt:input.obj
 0001:00046523       ??1?$format_string_parser@_W@__crt_stdio_input@@QAE@XZ 10047523 f i libucrt:input.obj
 0001:0004653c       ??1?$input_adapter_character_source@V?$stream_input_adapter@D@__crt_stdio_input@@@__crt_strtox@@QAE@XZ 1004753c f i libucrt:input.obj
 0001:00046552       ??1?$input_adapter_character_source@V?$stream_input_adapter@_W@__crt_stdio_input@@@__crt_strtox@@QAE@XZ 10047552 f i libucrt:input.obj
 0001:00046568       ??1?$input_adapter_character_source@V?$string_input_adapter@D@__crt_stdio_input@@@__crt_strtox@@QAE@XZ 10047568 f i libucrt:input.obj
 0001:0004657e       ??1?$input_adapter_character_source@V?$string_input_adapter@_W@__crt_stdio_input@@@__crt_strtox@@QAE@XZ 1004757e f i libucrt:input.obj
 0001:00046594       ??1?$input_processor@_WV?$stream_input_adapter@_W@__crt_stdio_input@@@__crt_stdio_input@@QAE@XZ 10047594 f i libucrt:input.obj
 0001:000465ad       ??1?$input_processor@_WV?$string_input_adapter@_W@__crt_stdio_input@@@__crt_stdio_input@@QAE@XZ 100475ad f i libucrt:input.obj
 0001:000465c6       ??1?$scanset_buffer@_W@__crt_stdio_input@@QAE@XZ 100475c6 f i libucrt:input.obj
 0001:000465dc       ??1?$scanset_storage@$01@__crt_stdio_input@@QAE@XZ 100475dc f i libucrt:input.obj
 0001:000465f2       ??4?$__crt_unique_heap_ptr@EU__crt_internal_free_policy@@@@QAEAAV0@$$QAV0@@Z 100475f2 f i libucrt:input.obj
 0001:00046620       ??4big_integer@__crt_strtox@@QAEAAU01@ABU01@@Z 10047620 f i libucrt:input.obj
 0001:0004665d       ??B?$__crt_unique_heap_ptr@EU__crt_internal_free_policy@@@@QBE_NXZ 1004765d f i libucrt:input.obj
 0001:00046670       ??M__crt_strtox@@YA_NABUbig_integer@0@0@Z 10047670 f i libucrt:input.obj
 0001:00046ac7       ?accumulate_decimal_digits_into_big_integer@__crt_strtox@@YAXQBE0AAUbig_integer@1@@Z 10047ac7 f i libucrt:input.obj
 0001:00047280       ?add@__crt_strtox@@YA_NAAUbig_integer@1@I@Z 10048280 f i libucrt:input.obj
 0001:00047320       ?add_carry@__crt_strtox@@YAIAAIII@Z 10048320 f i libucrt:input.obj
 0001:00047350       ?add_multiply_carry@__crt_strtox@@YAIAAIIII@Z 10048350 f i libucrt:input.obj
 0001:0004737d       ?advance@?$format_string_parser@D@__crt_stdio_input@@QAE_NXZ 1004837d f i libucrt:input.obj
 0001:000474eb       ?advance@?$format_string_parser@_W@__crt_stdio_input@@QAE_NXZ 100484eb f i libucrt:input.obj
 0001:00047637       ?as_double@floating_point_value@__crt_strtox@@QBEAANXZ 10048637 f i libucrt:input.obj
 0001:00047665       ?as_float@floating_point_value@__crt_strtox@@QBEAAMXZ 10048665 f i libucrt:input.obj
 0001:00047693       ?assemble_floating_point_infinity@__crt_strtox@@YAX_NABVfloating_point_value@1@@Z 10048693 f i libucrt:input.obj
 0001:000476e6       ?assemble_floating_point_value@__crt_strtox@@YA?AW4SLD_STATUS@@_KH_N1ABVfloating_point_value@1@@Z 100486e6 f i libucrt:input.obj
 0001:00047afd       ?assemble_floating_point_value_from_big_integer@__crt_strtox@@YA?AW4SLD_STATUS@@ABUbig_integer@1@I_N1ABVfloating_point_value@1@@Z 10048afd f i libucrt:input.obj
 0001:00047cf8       ?assemble_floating_point_zero@__crt_strtox@@YAX_NABVfloating_point_value@1@@Z 10048cf8 f i libucrt:input.obj
 0001:00047d40       ?bit_scan_reverse@__crt_strtox@@YAIABUbig_integer@1@@Z 10048d40 f i libucrt:input.obj
 0001:00047d90       ?bit_scan_reverse@__crt_strtox@@YAII@Z 10048d90 f i libucrt:input.obj
 0001:00047dc0       ?bit_scan_reverse@__crt_strtox@@YAI_K@Z 10048dc0 f i libucrt:input.obj
 0001:00047e18       ?characters_read@?$stream_input_adapter@D@__crt_stdio_input@@QBEIXZ 10048e18 f i libucrt:input.obj
 0001:00047e1c       ?characters_read@?$stream_input_adapter@_W@__crt_stdio_input@@QBEIXZ 10048e1c f i libucrt:input.obj
 0001:00047e20       ?characters_read@?$string_input_adapter@D@__crt_stdio_input@@QBEIXZ 10048e20 f i libucrt:input.obj
 0001:00047e26       ?characters_read@?$string_input_adapter@_W@__crt_stdio_input@@QBEIXZ 10048e26 f i libucrt:input.obj
 0001:00047e30       ?convert_decimal_string_to_floating_type_common@__crt_strtox@@YA?AW4SLD_STATUS@@ABUfloating_point_string@1@ABVfloating_point_value@1@@Z 10048e30 f i libucrt:input.obj
 0001:0004a302       ?convert_hexadecimal_string_to_floating_type_common@__crt_strtox@@YA?AW4SLD_STATUS@@ABUfloating_point_string@1@ABVfloating_point_value@1@@Z 1004b302 f i libucrt:input.obj
 0001:0004a3e0       ?count_sequential_high_zeroes@__crt_strtox@@YAII@Z 1004b3e0 f i libucrt:input.obj
 0001:0004a401       ?data@?$scanset_storage@$00@__crt_stdio_input@@QBEPAEXZ 1004b401 f i libucrt:input.obj
 0001:0004a404       ?data@?$scanset_storage@$01@__crt_stdio_input@@QBEPAEXZ 1004b404 f i libucrt:input.obj
 0001:0004a44d       ?denormal_mantissa_mask@floating_point_value@__crt_strtox@@QBE_KXZ 1004b44d f i libucrt:input.obj
 0001:0004a470       ?divide@__crt_strtox@@YA_KAAUbig_integer@1@ABU21@@Z 1004b470 f i libucrt:input.obj
 0001:0004aa20       ?error_code@?$format_string_parser@D@__crt_stdio_input@@QBEHXZ 1004ba20 f i libucrt:input.obj
 0001:0004aa24       ?error_code@?$format_string_parser@_W@__crt_stdio_input@@QBEHXZ 1004ba24 f i libucrt:input.obj
 0001:0004aa28       ?exponent_bias@floating_point_value@__crt_strtox@@QBEHXZ 1004ba28 f i libucrt:input.obj
 0001:0004aa3e       ?get@?$__crt_unique_heap_ptr@EU__crt_internal_free_policy@@@@QBEPAEXZ 1004ba3e f i libucrt:input.obj
 0001:0004aa41       ?get@?$input_adapter_character_source@V?$stream_input_adapter@D@__crt_stdio_input@@@__crt_strtox@@QAEDXZ 1004ba41 f i libucrt:input.obj
 0001:0004aa8f       ?get@?$input_adapter_character_source@V?$stream_input_adapter@_W@__crt_stdio_input@@@__crt_strtox@@QAE_WXZ 1004ba8f f i libucrt:input.obj
 0001:0004aadd       ?get@?$input_adapter_character_source@V?$string_input_adapter@D@__crt_stdio_input@@@__crt_strtox@@QAEDXZ 1004badd f i libucrt:input.obj
 0001:0004ab2d       ?get@?$input_adapter_character_source@V?$string_input_adapter@_W@__crt_stdio_input@@@__crt_strtox@@QAE_WXZ 1004bb2d f i libucrt:input.obj
 0001:0004ab7b       ?get@?$stream_input_adapter@D@__crt_stdio_input@@QAEHXZ 1004bb7b f i libucrt:input.obj
 0001:0004ab97       ?get@?$stream_input_adapter@_W@__crt_stdio_input@@QAEGXZ 1004bb97 f i libucrt:input.obj
 0001:0004abbd       ?get@?$string_input_adapter@D@__crt_stdio_input@@QAEHXZ 1004bbbd f i libucrt:input.obj
 0001:0004abd8       ?get@?$string_input_adapter@_W@__crt_stdio_input@@QAEGXZ 1004bbd8 f i libucrt:input.obj
 0001:0004abf8       ?invert@?$scanset_buffer@E@__crt_stdio_input@@QAEXXZ 1004bbf8 f i libucrt:input.obj
 0001:0004ac1d       ?invert@?$scanset_buffer@_W@__crt_stdio_input@@QAEXXZ 1004bc1d f i libucrt:input.obj
 0001:0004ac56       ?is_character_allowed_in_string@?$input_processor@DV?$stream_input_adapter@D@__crt_stdio_input@@@__crt_stdio_input@@ABE_NW4conversion_mode@2@H@Z 1004bc56 f i libucrt:input.obj
 0001:0004acbf       ?is_character_allowed_in_string@?$input_processor@DV?$string_input_adapter@D@__crt_stdio_input@@@__crt_stdio_input@@ABE_NW4conversion_mode@2@H@Z 1004bcbf f i libucrt:input.obj
 0001:0004ad28       ?is_character_allowed_in_string@?$input_processor@_WV?$stream_input_adapter@_W@__crt_stdio_input@@@__crt_stdio_input@@ABE_NW4conversion_mode@2@G@Z 1004bd28 f i libucrt:input.obj
 0001:0004ad88       ?is_character_allowed_in_string@?$input_processor@_WV?$string_input_adapter@_W@__crt_stdio_input@@@__crt_stdio_input@@ABE_NW4conversion_mode@2@G@Z 1004bd88 f i libucrt:input.obj
 0001:0004ade8       ?is_digit_or_nondigit@__crt_strtox@@YA_NH@Z 1004bde8 f i libucrt:input.obj
 0001:0004ae1f       ?is_double@floating_point_value@__crt_strtox@@QBE_NXZ 1004be1f f i libucrt:input.obj
 0001:0004ae23       ?is_length_valid@__crt_stdio_input@@YA_NW4conversion_mode@1@W4length_modifier@1@@Z 1004be23 f i libucrt:input.obj
 0001:0004ae42       ?is_space@__crt_strtox@@YA_NDQAU__crt_locale_pointers@@@Z 1004be42 f i libucrt:input.obj
 0001:0004ae67       ?is_space@__crt_strtox@@YA_N_WPAU__crt_locale_pointers@@@Z 1004be67 f i libucrt:input.obj
 0001:0004ae85       ?is_usable@?$scanset_buffer@E@__crt_stdio_input@@QAE_NXZ 1004be85 f i libucrt:input.obj
 0001:0004ae8b       ?is_usable@?$scanset_buffer@_W@__crt_stdio_input@@QAE_NXZ 1004be8b f i libucrt:input.obj
 0001:0004ae98       ?is_valid@?$__crt_unique_heap_ptr@EU__crt_internal_free_policy@@@@QBE_NXZ 1004be98 f i libucrt:input.obj
 0001:0004ae9f       ?kind@?$format_string_parser@D@__crt_stdio_input@@QBE?AW4format_directive_kind@2@XZ 1004be9f f i libucrt:input.obj
 0001:0004aea3       ?kind@?$format_string_parser@_W@__crt_stdio_input@@QBE?AW4format_directive_kind@2@XZ 1004bea3 f i libucrt:input.obj
 0001:0004aea7       ?length@?$format_string_parser@D@__crt_stdio_input@@QBEIXZ 1004bea7 f i libucrt:input.obj
 0001:0004aef8       ?length@?$format_string_parser@_W@__crt_stdio_input@@QBEIXZ 1004bef8 f i libucrt:input.obj
 0001:0004af49       ?literal_character_lead@?$format_string_parser@D@__crt_stdio_input@@QBEEXZ 1004bf49 f i libucrt:input.obj
 0001:0004af4d       ?literal_character_lead@?$format_string_parser@_W@__crt_stdio_input@@QBE_WXZ 1004bf4d f i libucrt:input.obj
 0001:0004af52       ?literal_character_trail@?$format_string_parser@D@__crt_stdio_input@@QBEEXZ 1004bf52 f i libucrt:input.obj
 0001:0004af60       ?make_big_integer@__crt_strtox@@YA?AUbig_integer@1@_K@Z 1004bf60 f i libucrt:input.obj
 0001:0004af88       ?mantissa_bits@floating_point_value@__crt_strtox@@QBEHXZ 1004bf88 f i libucrt:input.obj
 0001:0004af9c       ?maximum_binary_exponent@floating_point_value@__crt_strtox@@QBEHXZ 1004bf9c f i libucrt:input.obj
 0001:0004afb2       ?maximum_signed_value@__crt_strtox@@YA_J_K@Z 1004bfb2 f i libucrt:input.obj
 0001:0004afbd       ?minimum_binary_exponent@floating_point_value@__crt_strtox@@QBEHXZ 1004bfbd f i libucrt:input.obj
 0001:0004afd3       ?minimum_signed_value@__crt_strtox@@YA_J_K@Z 1004bfd3 f i libucrt:input.obj
 0001:0004afdd       ?mode@?$format_string_parser@D@__crt_stdio_input@@QBE?AW4conversion_mode@2@XZ 1004bfdd f i libucrt:input.obj
 0001:0004afe1       ?mode@?$format_string_parser@_W@__crt_stdio_input@@QBE?AW4conversion_mode@2@XZ 1004bfe1 f i libucrt:input.obj
 0001:0004aff0       ?multiply@__crt_strtox@@YA_NAAUbig_integer@1@ABU21@@Z 1004bff0 f i libucrt:input.obj
 0001:0004b400       ?multiply@__crt_strtox@@YA_NAAUbig_integer@1@I@Z 1004c400 f i libucrt:input.obj
 0001:0004b500       ?multiply_64_32@__crt_strtox@@YA_K_KI@Z 1004c500 f i libucrt:input.obj
 0001:0004b520       ?multiply_by_power_of_ten@__crt_strtox@@YA_NAAUbig_integer@1@I@Z 1004c520 f i libucrt:input.obj
 0001:0004bb90       ?multiply_core@__crt_strtox@@YAIQAIII@Z 1004cb90 f i libucrt:input.obj
 0001:0004bbdd       ?normal_mantissa_mask@floating_point_value@__crt_strtox@@QBE_KXZ 1004cbdd f i libucrt:input.obj
 0001:0004bbf9       ?parse_digit@__crt_strtox@@YAID@Z 1004cbf9 f i libucrt:input.obj
 0001:0004bc41       ?parse_digit@__crt_strtox@@YAI_W@Z 1004cc41 f i libucrt:input.obj
 0001:0004beb2       ?process@?$input_processor@DV?$stream_input_adapter@D@__crt_stdio_input@@@__crt_stdio_input@@QAEHXZ 1004ceb2 f i libucrt:input.obj
 0001:0004bf66       ?process@?$input_processor@DV?$string_input_adapter@D@__crt_stdio_input@@@__crt_stdio_input@@QAEHXZ 1004cf66 f i libucrt:input.obj
 0001:0004c011       ?process@?$input_processor@_WV?$stream_input_adapter@_W@__crt_stdio_input@@@__crt_stdio_input@@QAEHXZ 1004d011 f i libucrt:input.obj
 0001:0004c0c7       ?process@?$input_processor@_WV?$string_input_adapter@_W@__crt_stdio_input@@@__crt_stdio_input@@QAEHXZ 1004d0c7 f i libucrt:input.obj
 0001:0004c17d       ?process_character_count_specifier@?$input_processor@DV?$stream_input_adapter@D@__crt_stdio_input@@@__crt_stdio_input@@AAE_NXZ 1004d17d f i libucrt:input.obj
 0001:0004c196       ?process_character_count_specifier@?$input_processor@DV?$string_input_adapter@D@__crt_stdio_input@@@__crt_stdio_input@@AAE_NXZ 1004d196 f i libucrt:input.obj
 0001:0004c1b4       ?process_character_count_specifier@?$input_processor@_WV?$stream_input_adapter@_W@__crt_stdio_input@@@__crt_stdio_input@@AAE_NXZ 1004d1b4 f i libucrt:input.obj
 0001:0004c1cd       ?process_character_count_specifier@?$input_processor@_WV?$string_input_adapter@_W@__crt_stdio_input@@@__crt_stdio_input@@AAE_NXZ 1004d1cd f i libucrt:input.obj
 0001:0004c1ed       ?process_conversion_specifier@?$input_processor@DV?$stream_input_adapter@D@__crt_stdio_input@@@__crt_stdio_input@@AAE_NXZ 1004d1ed f i libucrt:input.obj
 0001:0004c27e       ?process_conversion_specifier@?$input_processor@DV?$string_input_adapter@D@__crt_stdio_input@@@__crt_stdio_input@@AAE_NXZ 1004d27e f i libucrt:input.obj
 0001:0004c30f       ?process_conversion_specifier@?$input_processor@_WV?$stream_input_adapter@_W@__crt_stdio_input@@@__crt_stdio_input@@AAE_NXZ 1004d30f f i libucrt:input.obj
 0001:0004c3a0       ?process_conversion_specifier@?$input_processor@_WV?$string_input_adapter@_W@__crt_stdio_input@@@__crt_stdio_input@@AAE_NXZ 1004d3a0 f i libucrt:input.obj
 0001:0004c431       ?process_floating_point_specifier@?$input_processor@DV?$stream_input_adapter@D@__crt_stdio_input@@@__crt_stdio_input@@AAE_NXZ 1004d431 f i libucrt:input.obj
 0001:0004c46d       ?process_floating_point_specifier@?$input_processor@DV?$string_input_adapter@D@__crt_stdio_input@@@__crt_stdio_input@@AAE_NXZ 1004d46d f i libucrt:input.obj
 0001:0004c4a9       ?process_floating_point_specifier@?$input_processor@_WV?$stream_input_adapter@_W@__crt_stdio_input@@@__crt_stdio_input@@AAE_NXZ 1004d4a9 f i libucrt:input.obj
 0001:0004c4e5       ?process_floating_point_specifier@?$input_processor@_WV?$string_input_adapter@_W@__crt_stdio_input@@@__crt_stdio_input@@AAE_NXZ 1004d4e5 f i libucrt:input.obj
 0001:0004c521       ?process_integer_specifier@?$input_processor@DV?$stream_input_adapter@D@__crt_stdio_input@@@__crt_stdio_input@@AAE_NI_N@Z 1004d521 f i libucrt:input.obj
 0001:0004c59e       ?process_integer_specifier@?$input_processor@DV?$string_input_adapter@D@__crt_stdio_input@@@__crt_stdio_input@@AAE_NI_N@Z 1004d59e f i libucrt:input.obj
 0001:0004c61b       ?process_integer_specifier@?$input_processor@_WV?$stream_input_adapter@_W@__crt_stdio_input@@@__crt_stdio_input@@AAE_NI_N@Z 1004d61b f i libucrt:input.obj
 0001:0004c698       ?process_integer_specifier@?$input_processor@_WV?$string_input_adapter@_W@__crt_stdio_input@@@__crt_stdio_input@@AAE_NI_N@Z 1004d698 f i libucrt:input.obj
 0001:0004c715       ?process_literal_character@?$input_processor@DV?$stream_input_adapter@D@__crt_stdio_input@@@__crt_stdio_input@@AAE_NXZ 1004d715 f i libucrt:input.obj
 0001:0004c758       ?process_literal_character@?$input_processor@DV?$string_input_adapter@D@__crt_stdio_input@@@__crt_stdio_input@@AAE_NXZ 1004d758 f i libucrt:input.obj
 0001:0004c79b       ?process_literal_character@?$input_processor@_WV?$stream_input_adapter@_W@__crt_stdio_input@@@__crt_stdio_input@@AAE_NXZ 1004d79b f i libucrt:input.obj
 0001:0004c7dd       ?process_literal_character@?$input_processor@_WV?$string_input_adapter@_W@__crt_stdio_input@@@__crt_stdio_input@@AAE_NXZ 1004d7dd f i libucrt:input.obj
 0001:0004c81f       ?process_literal_character_tchar@?$input_processor@DV?$stream_input_adapter@D@__crt_stdio_input@@@__crt_stdio_input@@AAE_ND@Z 1004d81f f i libucrt:input.obj
 0001:0004c890       ?process_literal_character_tchar@?$input_processor@DV?$string_input_adapter@D@__crt_stdio_input@@@__crt_stdio_input@@AAE_ND@Z 1004d890 f i libucrt:input.obj
 0001:0004c8f6       ?process_literal_character_tchar@?$input_processor@_WV?$stream_input_adapter@_W@__crt_stdio_input@@@__crt_stdio_input@@AAE_N_W@Z 1004d8f6 f i libucrt:input.obj
 0001:0004c8fb       ?process_literal_character_tchar@?$input_processor@_WV?$string_input_adapter@_W@__crt_stdio_input@@@__crt_stdio_input@@AAE_N_W@Z 1004d8fb f i libucrt:input.obj
 0001:0004c900       ?process_state@?$input_processor@DV?$stream_input_adapter@D@__crt_stdio_input@@@__crt_stdio_input@@AAE_NXZ 1004d900 f i libucrt:input.obj
 0001:0004c952       ?process_state@?$input_processor@DV?$string_input_adapter@D@__crt_stdio_input@@@__crt_stdio_input@@AAE_NXZ 1004d952 f i libucrt:input.obj
 0001:0004c9a4       ?process_state@?$input_processor@_WV?$stream_input_adapter@_W@__crt_stdio_input@@@__crt_stdio_input@@AAE_NXZ 1004d9a4 f i libucrt:input.obj
 0001:0004c9f6       ?process_state@?$input_processor@_WV?$string_input_adapter@_W@__crt_stdio_input@@@__crt_stdio_input@@AAE_NXZ 1004d9f6 f i libucrt:input.obj
 0001:0004ca48       ?process_string_specifier@?$input_processor@DV?$stream_input_adapter@D@__crt_stdio_input@@@__crt_stdio_input@@AAE_NW4conversion_mode@2@@Z 1004da48 f i libucrt:input.obj
 0001:0004caa2       ?process_string_specifier@?$input_processor@DV?$string_input_adapter@D@__crt_stdio_input@@@__crt_stdio_input@@AAE_NW4conversion_mode@2@@Z 1004daa2 f i libucrt:input.obj
 0001:0004cafc       ?process_string_specifier@?$input_processor@_WV?$stream_input_adapter@_W@__crt_stdio_input@@@__crt_stdio_input@@AAE_NW4conversion_mode@2@@Z 1004dafc f i libucrt:input.obj
 0001:0004cb56       ?process_string_specifier@?$input_processor@_WV?$string_input_adapter@_W@__crt_stdio_input@@@__crt_stdio_input@@AAE_NW4conversion_mode@2@@Z 1004db56 f i libucrt:input.obj
 0001:0004cbb0       ?process_whitespace@?$input_processor@DV?$stream_input_adapter@D@__crt_stdio_input@@@__crt_stdio_input@@AAE_NXZ 1004dbb0 f i libucrt:input.obj
 0001:0004cbd4       ?process_whitespace@?$input_processor@DV?$string_input_adapter@D@__crt_stdio_input@@@__crt_stdio_input@@AAE_NXZ 1004dbd4 f i libucrt:input.obj
 0001:0004cbf8       ?process_whitespace@?$input_processor@_WV?$stream_input_adapter@_W@__crt_stdio_input@@@__crt_stdio_input@@AAE_NXZ 1004dbf8 f i libucrt:input.obj
 0001:0004cc20       ?process_whitespace@?$input_processor@_WV?$string_input_adapter@_W@__crt_stdio_input@@@__crt_stdio_input@@AAE_NXZ 1004dc20 f i libucrt:input.obj
 0001:0004cc48       ?release@?$__crt_unique_heap_ptr@EU__crt_internal_free_policy@@@@QAEXXZ 1004dc48 f i libucrt:input.obj
 0001:0004cc5e       ?reset@?$scanset_buffer@E@__crt_stdio_input@@QAEXXZ 1004dc5e f i libucrt:input.obj
 0001:0004cc74       ?reset@?$scanset_buffer@_W@__crt_stdio_input@@QAEXXZ 1004dc74 f i libucrt:input.obj
 0001:0004cc94       ?reset_token_state@?$format_string_parser@D@__crt_stdio_input@@AAEXXZ 1004dc94 f i libucrt:input.obj
 0001:0004ccb7       ?reset_token_state@?$format_string_parser@_W@__crt_stdio_input@@AAEXXZ 1004dcb7 f i libucrt:input.obj
 0001:0004ccdb       ?reset_token_state_for_error@?$format_string_parser@D@__crt_stdio_input@@AAEXH@Z 1004dcdb f i libucrt:input.obj
 0001:0004cd0f       ?reset_token_state_for_error@?$format_string_parser@_W@__crt_stdio_input@@AAEXH@Z 1004dd0f f i libucrt:input.obj
 0001:0004cd44       ?restore_state@?$input_adapter_character_source@V?$stream_input_adapter@D@__crt_stdio_input@@@__crt_strtox@@QAE_N_K@Z 1004dd44 f i libucrt:input.obj
 0001:0004cd72       ?restore_state@?$input_adapter_character_source@V?$stream_input_adapter@_W@__crt_stdio_input@@@__crt_strtox@@QAE_N_K@Z 1004dd72 f i libucrt:input.obj
 0001:0004cda0       ?restore_state@?$input_adapter_character_source@V?$string_input_adapter@D@__crt_stdio_input@@@__crt_strtox@@QAE_N_K@Z 1004dda0 f i libucrt:input.obj
 0001:0004cdce       ?restore_state@?$input_adapter_character_source@V?$string_input_adapter@_W@__crt_stdio_input@@@__crt_strtox@@QAE_N_K@Z 1004ddce f i libucrt:input.obj
 0001:0004cdfc       ?right_shift_with_rounding@__crt_strtox@@YA_K_N_KI0@Z 1004ddfc f i libucrt:input.obj
 0001:0004cf17       ?save_state@?$input_adapter_character_source@V?$stream_input_adapter@D@__crt_stdio_input@@@__crt_strtox@@QBE_KXZ 1004df17 f i libucrt:input.obj
 0001:0004cf1e       ?save_state@?$input_adapter_character_source@V?$stream_input_adapter@_W@__crt_stdio_input@@@__crt_strtox@@QBE_KXZ 1004df1e f i libucrt:input.obj
 0001:0004cf25       ?save_state@?$input_adapter_character_source@V?$string_input_adapter@D@__crt_stdio_input@@@__crt_strtox@@QBE_KXZ 1004df25 f i libucrt:input.obj
 0001:0004cf2c       ?save_state@?$input_adapter_character_source@V?$string_input_adapter@_W@__crt_stdio_input@@@__crt_strtox@@QBE_KXZ 1004df2c f i libucrt:input.obj
 0001:0004cf33       ?scan_conversion_specifier@?$format_string_parser@D@__crt_stdio_input@@AAE_NXZ 1004df33 f i libucrt:input.obj
 0001:0004d0ff       ?scan_conversion_specifier@?$format_string_parser@_W@__crt_stdio_input@@AAE_NXZ 1004e0ff f i libucrt:input.obj
 0001:0004d2a4       ?scan_optional_assignment_suppressor@?$format_string_parser@D@__crt_stdio_input@@AAEXXZ 1004e2a4 f i libucrt:input.obj
 0001:0004d2b9       ?scan_optional_assignment_suppressor@?$format_string_parser@_W@__crt_stdio_input@@AAEXXZ 1004e2b9 f i libucrt:input.obj
 0001:0004d2d2       ?scan_optional_field_width@?$format_string_parser@D@__crt_stdio_input@@AAE_NXZ 1004e2d2 f i libucrt:input.obj
 0001:0004d398       ?scan_optional_field_width@?$format_string_parser@_W@__crt_stdio_input@@AAE_NXZ 1004e398 f i libucrt:input.obj
 0001:0004d661       ?scan_optional_length_modifier@?$format_string_parser@D@__crt_stdio_input@@AAEXXZ 1004e661 f i libucrt:input.obj
 0001:0004d7bf       ?scan_optional_length_modifier@?$format_string_parser@_W@__crt_stdio_input@@AAEXXZ 1004e7bf f i libucrt:input.obj
 0001:0004d93e       ?scan_optional_literal_character_trail_bytes_tchar@?$format_string_parser@D@__crt_stdio_input@@AAE_ND@Z 1004e93e f i libucrt:input.obj
 0001:0004d9a4       ?scan_optional_literal_character_trail_bytes_tchar@?$format_string_parser@_W@__crt_stdio_input@@AAE_N_W@Z 1004e9a4 f i libucrt:input.obj
 0001:0004d9a9       ?scan_optional_wide_modifier@?$format_string_parser@D@__crt_stdio_input@@AAEXXZ 1004e9a9 f i libucrt:input.obj
 0001:0004d9ce       ?scan_optional_wide_modifier@?$format_string_parser@_W@__crt_stdio_input@@AAEXXZ 1004e9ce f i libucrt:input.obj
 0001:0004da02       ?scan_scanset_range@?$format_string_parser@D@__crt_stdio_input@@AAE_NXZ 1004ea02 f i libucrt:input.obj
 0001:0004db7b       ?scan_scanset_range@?$format_string_parser@_W@__crt_stdio_input@@AAE_NXZ 1004eb7b f i libucrt:input.obj
 0001:0004dd11       ?scanset@?$format_string_parser@D@__crt_stdio_input@@QBEABV?$scanset_buffer@E@2@XZ 1004ed11 f i libucrt:input.obj
 0001:0004dd15       ?scanset@?$format_string_parser@_W@__crt_stdio_input@@QBEABV?$scanset_buffer@_W@2@XZ 1004ed15 f i libucrt:input.obj
 0001:0004dd19       ?secure_buffers@?$input_processor@DV?$stream_input_adapter@D@__crt_stdio_input@@@__crt_stdio_input@@ABE_NXZ 1004ed19 f i libucrt:input.obj
 0001:0004dd2e       ?secure_buffers@?$input_processor@DV?$string_input_adapter@D@__crt_stdio_input@@@__crt_stdio_input@@ABE_NXZ 1004ed2e f i libucrt:input.obj
 0001:0004dd43       ?secure_buffers@?$input_processor@_WV?$stream_input_adapter@_W@__crt_stdio_input@@@__crt_stdio_input@@ABE_NXZ 1004ed43 f i libucrt:input.obj
 0001:0004dd58       ?secure_buffers@?$input_processor@_WV?$string_input_adapter@_W@__crt_stdio_input@@@__crt_stdio_input@@ABE_NXZ 1004ed58 f i libucrt:input.obj
 0001:0004dd6d       ?set@?$scanset_buffer@E@__crt_stdio_input@@QAEXE@Z 1004ed6d f i libucrt:input.obj
 0001:0004dd96       ?set@?$scanset_buffer@_W@__crt_stdio_input@@QAEX_W@Z 1004ed96 f i libucrt:input.obj
 0001:0004ddc5       ?set_wide_for_c_s_or_scanset@?$format_string_parser@D@__crt_stdio_input@@AAEXXZ 1004edc5 f i libucrt:input.obj
 0001:0004dded       ?set_wide_for_c_s_or_scanset@?$format_string_parser@_W@__crt_stdio_input@@AAEXXZ 1004eded f i libucrt:input.obj
 0001:0004de20       ?shift_left@__crt_strtox@@YA_NAAUbig_integer@1@I@Z 1004ee20 f i libucrt:input.obj
 0001:0004dfcb       ?should_default_to_wide@?$format_string_parser@D@__crt_stdio_input@@AAE_NE@Z 1004efcb f i libucrt:input.obj
 0001:0004dfeb       ?should_default_to_wide@?$format_string_parser@_W@__crt_stdio_input@@AAE_N_W@Z 1004efeb f i libucrt:input.obj
 0001:0004e02c       ?should_round_up@__crt_strtox@@YA_N_N000@Z 1004f02c f i libucrt:input.obj
 0001:0004e08c       ?size@?$scanset_storage@$00@__crt_stdio_input@@QBEIXZ 1004f08c f i libucrt:input.obj
 0001:0004e090       ?size@?$scanset_storage@$01@__crt_stdio_input@@QBEIXZ 1004f090 f i libucrt:input.obj
 0001:0004e096       ?suppress_assignment@?$format_string_parser@D@__crt_stdio_input@@QBE_NXZ 1004f096 f i libucrt:input.obj
 0001:0004e09a       ?suppress_assignment@?$format_string_parser@_W@__crt_stdio_input@@QBE_NXZ 1004f09a f i libucrt:input.obj
 0001:0004e09e       ?test@?$scanset_buffer@E@__crt_stdio_input@@QBE_NE@Z 1004f09e f i libucrt:input.obj
 0001:0004e0cb       ?test@?$scanset_buffer@_W@__crt_stdio_input@@QBE_N_W@Z 1004f0cb f i libucrt:input.obj
 0001:0004e100       ?to_floating_point_length@__crt_stdio_input@@YAIW4length_modifier@1@@Z 1004f100 f i libucrt:input.obj
 0001:0004e12b       ?to_integer_length@__crt_stdio_input@@YAIW4length_modifier@1@@Z 1004f12b f i libucrt:input.obj
 0001:0004e199       ?unget@?$input_adapter_character_source@V?$stream_input_adapter@D@__crt_stdio_input@@@__crt_strtox@@QAEXD@Z 1004f199 f i libucrt:input.obj
 0001:0004e1f1       ?unget@?$input_adapter_character_source@V?$stream_input_adapter@_W@__crt_stdio_input@@@__crt_strtox@@QAEX_W@Z 1004f1f1 f i libucrt:input.obj
 0001:0004e24e       ?unget@?$input_adapter_character_source@V?$string_input_adapter@D@__crt_stdio_input@@@__crt_strtox@@QAEXD@Z 1004f24e f i libucrt:input.obj
 0001:0004e2a6       ?unget@?$input_adapter_character_source@V?$string_input_adapter@_W@__crt_stdio_input@@@__crt_strtox@@QAEX_W@Z 1004f2a6 f i libucrt:input.obj
 0001:0004e303       ?unget@?$stream_input_adapter@D@__crt_stdio_input@@QAEXH@Z 1004f303 f i libucrt:input.obj
 0001:0004e328       ?unget@?$stream_input_adapter@_W@__crt_stdio_input@@QAEXG@Z 1004f328 f i libucrt:input.obj
 0001:0004e353       ?unget@?$string_input_adapter@D@__crt_stdio_input@@QAEXH@Z 1004f353 f i libucrt:input.obj
 0001:0004e379       ?unget@?$string_input_adapter@_W@__crt_stdio_input@@QAEXG@Z 1004f379 f i libucrt:input.obj
 0001:0004e3a8       ?validate@?$format_string_parser@D@__crt_stdio_input@@QBE_NXZ 1004f3a8 f i libucrt:input.obj
 0001:0004e3cb       ?validate@?$format_string_parser@_W@__crt_stdio_input@@QBE_NXZ 1004f3cb f i libucrt:input.obj
 0001:0004e3ee       ?validate@?$input_adapter_character_source@V?$stream_input_adapter@D@__crt_stdio_input@@@__crt_strtox@@QBE_NXZ 1004f3ee f i libucrt:input.obj
 0001:0004e417       ?validate@?$input_adapter_character_source@V?$stream_input_adapter@_W@__crt_stdio_input@@@__crt_strtox@@QBE_NXZ 1004f417 f i libucrt:input.obj
 0001:0004e440       ?validate@?$input_adapter_character_source@V?$string_input_adapter@D@__crt_stdio_input@@@__crt_strtox@@QBE_NXZ 1004f440 f i libucrt:input.obj
 0001:0004e469       ?validate@?$input_adapter_character_source@V?$string_input_adapter@_W@__crt_stdio_input@@@__crt_strtox@@QBE_NXZ 1004f469 f i libucrt:input.obj
 0001:0004e492       ?validate@?$stream_input_adapter@D@__crt_stdio_input@@QBE_NXZ 1004f492 f i libucrt:input.obj
 0001:0004e4bb       ?validate@?$stream_input_adapter@_W@__crt_stdio_input@@QBE_NXZ 1004f4bb f i libucrt:input.obj
 0001:0004e4dc       ?validate@?$string_input_adapter@D@__crt_stdio_input@@QAE_NXZ 1004f4dc f i libucrt:input.obj
 0001:0004e506       ?validate@?$string_input_adapter@_W@__crt_stdio_input@@QAE_NXZ 1004f506 f i libucrt:input.obj
 0001:0004e530       ?wide_character_to_digit@__crt_strtox@@YAH_W@Z 1004f530 f i libucrt:input.obj
 0001:0004e739       ?width@?$format_string_parser@D@__crt_stdio_input@@QBE_KXZ 1004f739 f i libucrt:input.obj
 0001:0004e740       ?width@?$format_string_parser@_W@__crt_stdio_input@@QBE_KXZ 1004f740 f i libucrt:input.obj
 0001:0004e747       ?write_character@?$input_processor@DV?$stream_input_adapter@D@__crt_stdio_input@@@__crt_stdio_input@@AAE_NQADIAAPADAAID@Z 1004f747 f i libucrt:input.obj
 0001:0004e76a       ?write_character@?$input_processor@DV?$stream_input_adapter@D@__crt_stdio_input@@@__crt_stdio_input@@AAE_NQA_WIAAPA_WAAID@Z 1004f76a f i libucrt:input.obj
 0001:0004e800       ?write_character@?$input_processor@DV?$string_input_adapter@D@__crt_stdio_input@@@__crt_stdio_input@@AAE_NQADIAAPADAAID@Z 1004f800 f i libucrt:input.obj
 0001:0004e823       ?write_character@?$input_processor@DV?$string_input_adapter@D@__crt_stdio_input@@@__crt_stdio_input@@AAE_NQA_WIAAPA_WAAID@Z 1004f823 f i libucrt:input.obj
 0001:0004e8ad       ?write_character@?$input_processor@_WV?$stream_input_adapter@_W@__crt_stdio_input@@@__crt_stdio_input@@AAE_NQADIAAPADAAI_W@Z 1004f8ad f i libucrt:input.obj
 0001:0004e957       ?write_character@?$input_processor@_WV?$stream_input_adapter@_W@__crt_stdio_input@@@__crt_stdio_input@@AAE_NQA_WIAAPA_WAAI_W@Z 1004f957 f i libucrt:input.obj
 0001:0004e97d       ?write_character@?$input_processor@_WV?$string_input_adapter@_W@__crt_stdio_input@@@__crt_stdio_input@@AAE_NQADIAAPADAAI_W@Z 1004f97d f i libucrt:input.obj
 0001:0004ea27       ?write_character@?$input_processor@_WV?$string_input_adapter@_W@__crt_stdio_input@@@__crt_stdio_input@@AAE_NQA_WIAAPA_WAAI_W@Z 1004fa27 f i libucrt:input.obj
 0001:0004ea4d       ?write_integer@?$input_processor@DV?$stream_input_adapter@D@__crt_stdio_input@@@__crt_stdio_input@@AAE_N_K@Z 1004fa4d f i libucrt:input.obj
 0001:0004ead6       ?write_integer@?$input_processor@DV?$string_input_adapter@D@__crt_stdio_input@@@__crt_stdio_input@@AAE_N_K@Z 1004fad6 f i libucrt:input.obj
 0001:0004eb5f       ?write_integer@?$input_processor@_WV?$stream_input_adapter@_W@__crt_stdio_input@@@__crt_stdio_input@@AAE_N_K@Z 1004fb5f f i libucrt:input.obj
 0001:0004ebe8       ?write_integer@?$input_processor@_WV?$string_input_adapter@_W@__crt_stdio_input@@@__crt_stdio_input@@AAE_N_K@Z 1004fbe8 f i libucrt:input.obj
 0001:0004ec71       ___acrt_get_locale_data_prefix 1004fc71 f i libucrt:input.obj
 0001:0004ec80       ___stdio_common_vfscanf    1004fc80 f   libucrt:input.obj
 0001:0004ed26       ___stdio_common_vfwscanf   1004fd26 f   libucrt:input.obj
 0001:0004edcc       ___stdio_common_vsscanf    1004fdcc f   libucrt:input.obj
 0001:0004edf9       ___stdio_common_vswscanf   1004fdf9 f   libucrt:input.obj
 0001:0004ee26       __chvalidchk_l             1004fe26 f i libucrt:input.obj
 0001:0004ee55       __invoke_watson_if_oneof   1004fe55 f i libucrt:input.obj
 0001:0004ee8d       __ischartype_l             1004fe8d f i libucrt:input.obj
 0001:0004ef6d       __errcode                  1004ff6d f   libucrt:fpexcept.obj
 0001:0004efae       __except1                  1004ffae f   libucrt:fpexcept.obj
 0001:0004f0af       __except2                  100500af f   libucrt:fpexcept.obj
 0001:0004f1f8       __handle_exc               100501f8 f   libucrt:fpexcept.obj
 0001:0004f460       __handle_qnan2             10050460 f   libucrt:fpexcept.obj
 0001:0004f470       __raise_exc                10050470 f   libucrt:fpexcept.obj
 0001:0004f49b       __raise_exc_ex             1005049b f   libucrt:fpexcept.obj
 0001:0004f84e       __raise_excf               1005084e f   libucrt:fpexcept.obj
 0001:0004f879       __set_errno_from_matherr   10050879 f   libucrt:fpexcept.obj
 0001:0004f8b3       __umatherr                 100508b3 f   libucrt:fpexcept.obj
 0001:0004f97d       __initterm                 1005097d f   libucrt:initterm.obj
 0001:0004f9f0       __initterm_e               100509f0 f   libucrt:initterm.obj
 0001:0004fa73       __seh_filter_dll           10050a73 f   libucrt:exception_filter.obj
 0001:0004fa9b       __seh_filter_exe           10050a9b f   libucrt:exception_filter.obj
 0001:0004fc5a       ??$?RPAD@__crt_internal_free_policy@@QBEXQBQAD@Z 10050c5a f i libucrt:argv_parsing.obj
 0001:0004fc70       ??$?RPA_W@__crt_internal_free_policy@@QBEXQBQA_W@Z 10050c70 f i libucrt:argv_parsing.obj
 0001:0004ff89       ??$get_module_file_name@$$TAAY0BAF@DH@?$__crt_char_traits@D@@SAK$$QA$$TAAY0BAF@D$$QAH@Z 10050f89 f i libucrt:argv_parsing.obj
 0001:0004ffac       ??$get_module_file_name@$$TAAY0BAF@_WH@?$__crt_char_traits@_W@@SAK$$QA$$TAAY0BAF@_W$$QAH@Z 10050fac f i libucrt:argv_parsing.obj
 0001:0005039f       ??$set_program_name@PAD@?$__crt_char_traits@D@@SAX$$QAPAD@Z 1005139f f i libucrt:argv_parsing.obj
 0001:000503b4       ??$set_program_name@PA_W@?$__crt_char_traits@_W@@SAX$$QAPA_W@Z 100513b4 f i libucrt:argv_parsing.obj
 0001:000503f1       ??0?$__crt_unique_heap_ptr@PADU__crt_internal_free_policy@@@@QAE@QAPAD@Z 100513f1 f i libucrt:argv_parsing.obj
 0001:00050405       ??0?$__crt_unique_heap_ptr@PA_WU__crt_internal_free_policy@@@@QAE@QAPA_W@Z 10051405 f i libucrt:argv_parsing.obj
 0001:00050419       ??1?$__crt_unique_heap_ptr@PADU__crt_internal_free_policy@@@@QAE@XZ 10051419 f i libucrt:argv_parsing.obj
 0001:0005042f       ??1?$__crt_unique_heap_ptr@PA_WU__crt_internal_free_policy@@@@QAE@XZ 1005142f f i libucrt:argv_parsing.obj
 0001:0005047b       ?detach@?$__crt_unique_heap_ptr@EU__crt_internal_free_policy@@@@QAEPAEXZ 1005147b f i libucrt:argv_parsing.obj
 0001:00050481       ?detach@?$__crt_unique_heap_ptr@PADU__crt_internal_free_policy@@@@QAEPAPADXZ 10051481 f i libucrt:argv_parsing.obj
 0001:00050487       ?detach@?$__crt_unique_heap_ptr@PA_WU__crt_internal_free_policy@@@@QAEPAPA_WXZ 10051487 f i libucrt:argv_parsing.obj
 0001:000504ad       ?get@?$__crt_unique_heap_ptr@PADU__crt_internal_free_policy@@@@QBEPAPADXZ 100514ad f i libucrt:argv_parsing.obj
 0001:000504b0       ?get@?$__crt_unique_heap_ptr@PA_WU__crt_internal_free_policy@@@@QBEPAPA_WXZ 100514b0 f i libucrt:argv_parsing.obj
 0001:000504b3       ?get_address_of@?$__crt_unique_heap_ptr@PADU__crt_internal_free_policy@@@@QAEPAPAPADXZ 100514b3 f i libucrt:argv_parsing.obj
 0001:000504b6       ?get_address_of@?$__crt_unique_heap_ptr@PA_WU__crt_internal_free_policy@@@@QAEPAPAPA_WXZ 100514b6 f i libucrt:argv_parsing.obj
 0001:000504d1       ?release@?$__crt_unique_heap_ptr@PADU__crt_internal_free_policy@@@@QAEXXZ 100514d1 f i libucrt:argv_parsing.obj
 0001:000504e7       ?release@?$__crt_unique_heap_ptr@PA_WU__crt_internal_free_policy@@@@QAEXXZ 100514e7 f i libucrt:argv_parsing.obj
 0001:0005051c       ___acrt_allocate_buffer_for_argv 1005151c f   libucrt:argv_parsing.obj
 0001:0005057e       __configure_narrow_argv    1005157e f   libucrt:argv_parsing.obj
 0001:0005058b       __configure_wide_argv      1005158b f   libucrt:argv_parsing.obj
 0001:00050598       __set_pgmptr               10051598 f i libucrt:argv_parsing.obj
 0001:000505aa       __set_wpgmptr              100515aa f i libucrt:argv_parsing.obj
 0001:000505bc       ??$?R_W@__crt_internal_free_policy@@QBEXQB_W@Z 100515bc f i libucrt:environment_initialization.obj
 0001:00050aa2       ??$get_environment_from_os@$$V@?$__crt_char_traits@D@@SAPADXZ 10051aa2 f i libucrt:environment_initialization.obj
 0001:00050aa7       ??$get_environment_from_os@$$V@?$__crt_char_traits@_W@@SAPA_WXZ 10051aa7 f i libucrt:environment_initialization.obj
 0001:00050bf8       ??$set_variable_in_environment_nolock@PADH@?$__crt_char_traits@D@@SAH$$QAPAD$$QAH@Z 10051bf8 f i libucrt:environment_initialization.obj
 0001:00050c16       ??$set_variable_in_environment_nolock@PA_WH@?$__crt_char_traits@_W@@SAH$$QAPA_W$$QAH@Z 10051c16 f i libucrt:environment_initialization.obj
 0001:00050c34       ??$tcscpy_s@PADABIAAPAD@?$__crt_char_traits@D@@SAH$$QAPADABIAAPAD@Z 10051c34 f i libucrt:environment_initialization.obj
 0001:00050c59       ??$tcscpy_s@PA_WABIAAPA_W@?$__crt_char_traits@_W@@SAH$$QAPA_WABIAAPA_W@Z 10051c59 f i libucrt:environment_initialization.obj
 0001:00050c7e       ??$tcslen@AAPAD@?$__crt_char_traits@D@@SAIAAPAD@Z 10051c7e f i libucrt:environment_initialization.obj
 0001:00050c9c       ??$tcslen@AAPA_W@?$__crt_char_traits@_W@@SAIAAPA_W@Z 10051c9c f i libucrt:environment_initialization.obj
 0001:00050cc1       ??$uninitialize@A6AXAAPAPAD@Z@?$dual_state_global@PAPAD@__crt_state_management@@QAEXA6AXAAPAPAD@Z@Z 10051cc1 f i libucrt:environment_initialization.obj
 0001:00050d11       ??$uninitialize@A6AXAAPAPA_W@Z@?$dual_state_global@PAPA_W@__crt_state_management@@QAEXA6AXAAPAPA_W@Z@Z 10051d11 f i libucrt:environment_initialization.obj
 0001:00050da3       ??0?$__crt_unique_heap_ptr@_WU__crt_internal_free_policy@@@@QAE@QA_W@Z 10051da3 f i libucrt:environment_initialization.obj
 0001:00050db7       ??1?$__crt_unique_heap_ptr@_WU__crt_internal_free_policy@@@@QAE@XZ 10051db7 f i libucrt:environment_initialization.obj
 0001:00050dcd       ??B?$__crt_unique_heap_ptr@PADU__crt_internal_free_policy@@@@QBE_NXZ 10051dcd f i libucrt:environment_initialization.obj
 0001:00050dd4       ??B?$__crt_unique_heap_ptr@PA_WU__crt_internal_free_policy@@@@QBE_NXZ 10051dd4 f i libucrt:environment_initialization.obj
 0001:00050ddb       ??B?$__crt_unique_heap_ptr@_WU__crt_internal_free_policy@@@@QBE_NXZ 10051ddb f i libucrt:environment_initialization.obj
 0001:00050de2       ?__crt_compute_required_transform_buffer_count@@YAIIQBD@Z 10051de2 f i libucrt:environment_initialization.obj
 0001:00050e05       ?__crt_compute_required_transform_buffer_count@@YAIIQB_W@Z 10051e05 f i libucrt:environment_initialization.obj
 0001:00050e2a       ?__crt_transform_string@@YAIIQBDQA_WI@Z 10051e2a f i libucrt:environment_initialization.obj
 0001:00050e50       ?__crt_transform_string@@YAIIQB_WQADI@Z 10051e50 f i libucrt:environment_initialization.obj
 0001:00050e7a       ?detach@?$__crt_unique_heap_ptr@DU__crt_internal_free_policy@@@@QAEPADXZ 10051e7a f i libucrt:environment_initialization.obj
 0001:00050e80       ?detach@?$__crt_unique_heap_ptr@_WU__crt_internal_free_policy@@@@QAEPA_WXZ 10051e80 f i libucrt:environment_initialization.obj
 0001:00050e86       ?get@?$__crt_unique_heap_ptr@_WU__crt_internal_free_policy@@@@QBEPA_WXZ 10051e86 f i libucrt:environment_initialization.obj
 0001:00050e89       ?get_current_state_index@__crt_state_management@@YAIXZ 10051e89 f i libucrt:environment_initialization.obj
 0001:00050eb0       ?initialize@?$dual_state_global@PAPAD@__crt_state_management@@QAEXQAPAD@Z 10051eb0 f i libucrt:environment_initialization.obj
 0001:00050edf       ?initialize@?$dual_state_global@PAPA_W@__crt_state_management@@QAEXQAPA_W@Z 10051edf f i libucrt:environment_initialization.obj
 0001:00050f0e       ?is_valid@?$__crt_unique_heap_ptr@PADU__crt_internal_free_policy@@@@QBE_NXZ 10051f0e f i libucrt:environment_initialization.obj
 0001:00050f15       ?is_valid@?$__crt_unique_heap_ptr@PA_WU__crt_internal_free_policy@@@@QBE_NXZ 10051f15 f i libucrt:environment_initialization.obj
 0001:00050f1c       ?is_valid@?$__crt_unique_heap_ptr@_WU__crt_internal_free_policy@@@@QBE_NXZ 10051f1c f i libucrt:environment_initialization.obj
 0001:00050f29       ?release@?$__crt_unique_heap_ptr@_WU__crt_internal_free_policy@@@@QAEXXZ 10051f29 f i libucrt:environment_initialization.obj
 0001:00050f3f       ?value@?$dual_state_global@PAPAD@__crt_state_management@@QAEAAPAPADXZ 10051f3f f i libucrt:environment_initialization.obj
 0001:00050f42       ?value@?$dual_state_global@PAPA_W@__crt_state_management@@QAEAAPAPA_WXZ 10051f42 f i libucrt:environment_initialization.obj
 0001:00050f45       ___dcrt_get_or_create_narrow_environment_nolock 10051f45 f   libucrt:environment_initialization.obj
 0001:00050f4a       ___dcrt_get_or_create_wide_environment_nolock 10051f4a f   libucrt:environment_initialization.obj
 0001:00050f4f       ___dcrt_uninitialize_environments_nolock 10051f4f f   libucrt:environment_initialization.obj
 0001:00050f93       ___p__environ              10051f93 f   libucrt:environment_initialization.obj
 0001:00050f99       ___p__wenviron             10051f99 f   libucrt:environment_initialization.obj
 0001:00050f9f       __get_initial_narrow_environment 10051f9f f   libucrt:environment_initialization.obj
 0001:00050fb8       __get_initial_wide_environment 10051fb8 f   libucrt:environment_initialization.obj
 0001:00050fd1       __initialize_narrow_environment 10051fd1 f   libucrt:environment_initialization.obj
 0001:00050fd6       __initialize_wide_environment 10051fd6 f   libucrt:environment_initialization.obj
 0001:00050fdb       ??$?BP6AXXZ@__crt_fast_encoded_nullptr_t@@QBEPAP6AXXZXZ 10051fdb f i libucrt:onexit.obj
 0001:00050ff9       ??$?RP6AXXZ@__crt_internal_free_policy@@QBEXQBQ6AXXZ@Z 10051ff9 f i libucrt:onexit.obj
 0001:0005113d       ??$__crt_fast_encode_pointer@P6AHXZ@@YAP6AHXZQ6AHXZ@Z 1005213d f i libucrt:onexit.obj
 0001:000511ea       ??0?$__crt_unique_heap_ptr@P6AXXZU__crt_internal_free_policy@@@@QAE@QAP6AXXZ@Z 100521ea f i libucrt:onexit.obj
 0001:000511fe       ??1?$__crt_unique_heap_ptr@P6AXXZU__crt_internal_free_policy@@@@QAE@XZ 100521fe f i libucrt:onexit.obj
 0001:00051214       ??1scoped_global_state_reset@__crt_state_management@@QAE@XZ 10052214 f i libucrt:onexit.obj
 0001:0005153f       ?detach@?$__crt_unique_heap_ptr@P6AXXZU__crt_internal_free_policy@@@@QAEPAP6AXXZXZ 1005253f f i libucrt:onexit.obj
 0001:00051545       ?release@?$__crt_unique_heap_ptr@P6AXXZU__crt_internal_free_policy@@@@QAEXXZ 10052545 f i libucrt:onexit.obj
 0001:0005155b       __crt_at_quick_exit        1005255b f   libucrt:onexit.obj
 0001:00051576       __crt_atexit               10052576 f   libucrt:onexit.obj
 0001:00051591       __execute_onexit_table     10052591 f   libucrt:onexit.obj
 0001:000515cb       __initialize_onexit_table  100525cb f   libucrt:onexit.obj
 0001:00051617       __register_onexit_function 10052617 f   libucrt:onexit.obj
 0001:000517e2       ?__acrt_stdio_is_initialized@@YA_NXZ 100527e2 f i libucrt:initialization.obj
 0001:000517ef       ?initialize@?$dual_state_global@PAU__crt_locale_data@@@__crt_state_management@@QAEXQAU__crt_locale_data@@@Z 100527ef f i libucrt:initialization.obj
 0001:0005181e       ___acrt_initialize         1005281e f   libucrt:initialization.obj
 0001:00051834       ___acrt_thread_attach      10052834 f   libucrt:initialization.obj
 0001:00051841       ___acrt_thread_detach      10052841 f   libucrt:initialization.obj
 0001:0005184b       ___acrt_uninitialize       1005284b f   libucrt:initialization.obj
 0001:00051887       ___acrt_uninitialize_critical 10052887 f   libucrt:initialization.obj
 0001:000518b8       __get_terminate            100528b8 f   libucrt:terminate.obj
 0001:000518ce       _set_terminate             100528ce f   libucrt:terminate.obj
 0001:000518f6       _terminate                 100528f6 f   libucrt:terminate.obj
 0001:000519b1       _strcpy_s                  100529b1 f   libucrt:strcpy_s.obj
 0001:00051a21       ??$is_overflow_condition@K@__crt_strtox@@YA_NIK@Z 10052a21 f i libucrt:atox.obj
 0001:00051a5e       ??$make_c_string_character_source@D$$T@__crt_strtox@@YA?AV?$c_string_character_source@D@0@QBD$$T@Z 10052a5e f i libucrt:atox.obj
 0001:00051a7f       ??$make_c_string_character_source@_W$$T@__crt_strtox@@YA?AV?$c_string_character_source@_W@0@QB_W$$T@Z 10052a7f f i libucrt:atox.obj
 0001:00051aa0       ??$parse_integer@KV?$c_string_character_source@D@__crt_strtox@@@__crt_strtox@@YAKQAU__crt_locale_pointers@@V?$c_string_character_source@D@0@H_N@Z 10052aa0 f i libucrt:atox.obj
 0001:00051d53       ??$parse_integer@KV?$c_string_character_source@_W@__crt_strtox@@@__crt_strtox@@YAKQAU__crt_locale_pointers@@V?$c_string_character_source@_W@0@H_N@Z 10052d53 f i libucrt:atox.obj
 0001:00052524       ??$parse_integer@_KV?$c_string_character_source@D@__crt_strtox@@@__crt_strtox@@YA_KQAU__crt_locale_pointers@@V?$c_string_character_source@D@0@H_N@Z 10053524 f i libucrt:atox.obj
 0001:00052874       ??$parse_integer@_KV?$c_string_character_source@_W@__crt_strtox@@@__crt_strtox@@YA_KQAU__crt_locale_pointers@@V?$c_string_character_source@_W@0@H_N@Z 10053874 f i libucrt:atox.obj
 0001:00053141       ??$parse_integer_from_string@JD$$T@__crt_strtox@@YAJQBD$$THQAU__crt_locale_pointers@@@Z 10054141 f i libucrt:atox.obj
 0001:00053179       ??$parse_integer_from_string@J_W$$T@__crt_strtox@@YAJQB_W$$THQAU__crt_locale_pointers@@@Z 10054179 f i libucrt:atox.obj
 0001:000531b1       ??$parse_integer_from_string@_JD$$T@__crt_strtox@@YA_JQBD$$THQAU__crt_locale_pointers@@@Z 100541b1 f i libucrt:atox.obj
 0001:000531e9       ??$parse_integer_from_string@_J_W$$T@__crt_strtox@@YA_JQB_W$$THQAU__crt_locale_pointers@@@Z 100541e9 f i libucrt:atox.obj
 0001:00053221       ??0?$c_string_character_source@D@__crt_strtox@@QAE@QBDQAPBD@Z 10054221 f i libucrt:atox.obj
 0001:00053244       ??0?$c_string_character_source@_W@__crt_strtox@@QAE@QB_WQAPB_W@Z 10054244 f i libucrt:atox.obj
 0001:00053267       ??1?$c_string_character_source@D@__crt_strtox@@QAE@XZ 10054267 f i libucrt:atox.obj
 0001:00053276       ??1?$c_string_character_source@_W@__crt_strtox@@QAE@XZ 10054276 f i libucrt:atox.obj
 0001:00053285       ?get@?$c_string_character_source@D@__crt_strtox@@QAEDXZ 10054285 f i libucrt:atox.obj
 0001:0005328f       ?get@?$c_string_character_source@_W@__crt_strtox@@QAE_WXZ 1005428f f i libucrt:atox.obj
 0001:0005329c       ?maximum_signed_value@__crt_strtox@@YAJK@Z 1005429c f i libucrt:atox.obj
 0001:000532a2       ?minimum_signed_value@__crt_strtox@@YAJK@Z 100542a2 f i libucrt:atox.obj
 0001:000532a8       ?restore_state@?$c_string_character_source@D@__crt_strtox@@QAE_NQBD@Z 100542a8 f i libucrt:atox.obj
 0001:000532bc       ?restore_state@?$c_string_character_source@_W@__crt_strtox@@QAE_NQB_W@Z 100542bc f i libucrt:atox.obj
 0001:000532d0       ?save_state@?$c_string_character_source@D@__crt_strtox@@QBEPBDXZ 100542d0 f i libucrt:atox.obj
 0001:000532d3       ?save_state@?$c_string_character_source@_W@__crt_strtox@@QBEPB_WXZ 100542d3 f i libucrt:atox.obj
 0001:000532d6       ?unget@?$c_string_character_source@D@__crt_strtox@@QAEXD@Z 100542d6 f i libucrt:atox.obj
 0001:00053309       ?unget@?$c_string_character_source@_W@__crt_strtox@@QAEX_W@Z 10054309 f i libucrt:atox.obj
 0001:00053342       ?validate@?$c_string_character_source@D@__crt_strtox@@QBE_NXZ 10054342 f i libucrt:atox.obj
 0001:00053363       ?validate@?$c_string_character_source@_W@__crt_strtox@@QBE_NXZ 10054363 f i libucrt:atox.obj
 0001:00053384       __atoi64                   10054384 f   libucrt:atox.obj
 0001:000533b2       __atoi64_l                 100543b2 f   libucrt:atox.obj
 0001:000533e1       __atoi_l                   100543e1 f   libucrt:atox.obj
 0001:00053410       __atol_l                   10054410 f   libucrt:atox.obj
 0001:0005343f       __atoll_l                  1005443f f   libucrt:atox.obj
 0001:0005346e       __wtoi                     1005446e f   libucrt:atox.obj
 0001:0005349c       __wtoi64                   1005449c f   libucrt:atox.obj
 0001:000534ca       __wtoi64_l                 100544ca f   libucrt:atox.obj
 0001:000534f9       __wtoi_l                   100544f9 f   libucrt:atox.obj
 0001:00053528       __wtol                     10054528 f   libucrt:atox.obj
 0001:00053556       __wtol_l                   10054556 f   libucrt:atox.obj
 0001:00053585       __wtoll                    10054585 f   libucrt:atox.obj
 0001:000535b3       __wtoll_l                  100545b3 f   libucrt:atox.obj
 0001:000535e2       _atoi                      100545e2 f   libucrt:atox.obj
 0001:00053610       _atol                      10054610 f   libucrt:atox.obj
 0001:0005363e       _atoll                     1005463e f   libucrt:atox.obj
 0001:00053670       _strncmp                   10054670 f   libucrt:strncmp.obj
 0001:00053706       __set_abort_behavior       10054706 f   libucrt:abort.obj
 0001:0005372f       _abort                     1005472f f   libucrt:abort.obj
 0001:00053784       _wcsncmp                   10054784 f   libucrt:wcsncmp.obj
 0001:000537cc       __malloc_base              100547cc f   libucrt:malloc_base.obj
 0001:00053833       __free_base                10054833 f   libucrt:free_base.obj
 0001:0005387b       ??$__crt_fast_decode_pointer@P6AXPB_W00II@Z@@YAP6AXPB_W00II@ZQ6AX000II@Z@Z 1005487b f i libucrt:invalid_parameter.obj
 0001:00053896       ??$__crt_fast_encode_pointer@P6AXPB_W00II@Z@@YAP6AXPB_W00II@ZQ6AX000II@Z@Z 10054896 f i libucrt:invalid_parameter.obj
 0001:000538bc       ??$initialize_from_array@$$BY00Q6AXPB_W00II@Z@?$dual_state_global@P6AXPB_W00II@Z@__crt_state_management@@QAAXAAY00Q6AXPB_W00II@Z@Z 100548bc f i libucrt:invalid_parameter.obj
 0001:000538d1       ?dangerous_get_state_array@?$dual_state_global@P6AXPB_W00II@Z@__crt_state_management@@QAEPAP6AXPB_W00II@ZXZ 100548d1 f i libucrt:invalid_parameter.obj
 0001:000538d4       ?value@?$dual_state_global@P6AXPB_W00II@Z@__crt_state_management@@QAEAAP6AXPB_W00II@ZXZ 100548d4 f i libucrt:invalid_parameter.obj
 0001:000538d7       ___acrt_call_reportfault   100548d7 f   libucrt:invalid_parameter.obj
 0001:00053a60       ___acrt_initialize_invalid_parameter_handler 10054a60 f   libucrt:invalid_parameter.obj
 0001:00053a72       __get_invalid_parameter_handler 10054a72 f   libucrt:invalid_parameter.obj
 0001:00053a89       __get_thread_local_invalid_parameter_handler 10054a89 f   libucrt:invalid_parameter.obj
 0001:00053a9e       __invalid_parameter        10054a9e f   libucrt:invalid_parameter.obj
 0001:00053b37       __invalid_parameter_noinfo 10054b37 f   libucrt:invalid_parameter.obj
 0001:00053b4b       __invalid_parameter_noinfo_noreturn 10054b4b f   libucrt:invalid_parameter.obj
 0001:00053b6f       __invoke_watson            10054b6f f   libucrt:invalid_parameter.obj
 0001:00053bb0       __set_invalid_parameter_handler 10054bb0 f   libucrt:invalid_parameter.obj
 0001:00053bec       __set_thread_local_invalid_parameter_handler 10054bec f   libucrt:invalid_parameter.obj
 0001:00053c10       ___acrt_errno_from_os_error 10054c10 f   libucrt:errno.obj
 0001:00053c63       ___acrt_errno_map_os_error 10054c63 f   libucrt:errno.obj
 0001:00053c8e       ___doserrno                10054c8e f   libucrt:errno.obj
 0001:00053ca5       __errno                    10054ca5 f   libucrt:errno.obj
 0001:00053cbc       __get_doserrno             10054cbc f   libucrt:errno.obj
 0001:00053cea       __get_errno                10054cea f   libucrt:errno.obj
 0001:00053d18       __set_doserrno             10054d18 f   libucrt:errno.obj
 0001:00053d41       __set_errno                10054d41 f   libucrt:errno.obj
 0001:00053d6a       __calloc_base              10054d6a f   libucrt:calloc_base.obj
 0001:00053dee       ??$?B$$A6GHPA_WKJ@Z@__crt_fast_encoded_nullptr_t@@QBEP6GHPA_WKJ@ZXZ 10054dee f i libucrt:winapi_thunks.obj
 0001:00053ee8       ??$__crt_fast_decode_pointer@P6GHPA_WKJ@Z@@YAP6GHPA_WKJ@ZQ6GH0KJ@Z@Z 10054ee8 f i libucrt:winapi_thunks.obj
 0001:00053f03       ??$__crt_fast_encode_pointer@P6GHPA_WKJ@Z@@YAP6GHPA_WKJ@ZQ6GH0KJ@Z@Z 10054f03 f i libucrt:winapi_thunks.obj
 0001:00054762       _GetCurrentThreadEffectiveToken 10055762 f i libucrt:winapi_thunks.obj
 0001:00054766       ___acrt_AppPolicyGetProcessTerminationMethodInternal@4 10055766 f   libucrt:winapi_thunks.obj
 0001:000547d2       ___acrt_AppPolicyGetShowDeveloperDiagnosticInternal@4 100557d2 f   libucrt:winapi_thunks.obj
 0001:0005483e       ___acrt_AppPolicyGetThreadInitializationTypeInternal@4 1005583e f   libucrt:winapi_thunks.obj
 0001:000548aa       ___acrt_AppPolicyGetWindowingModelInternal@4 100558aa f   libucrt:winapi_thunks.obj
 0001:00054916       ___acrt_AreFileApisANSI@0  10055916 f   libucrt:winapi_thunks.obj
 0001:0005495e       ___acrt_CompareStringEx@36 1005595e f   libucrt:winapi_thunks.obj
 0001:000549ef       ___acrt_EnumSystemLocalesEx@16 100559ef f   libucrt:winapi_thunks.obj
 0001:00054a73       ___acrt_FlsAlloc@4         10055a73 f   libucrt:winapi_thunks.obj
 0001:00054ade       ___acrt_FlsFree@4          10055ade f   libucrt:winapi_thunks.obj
 0001:00054b49       ___acrt_FlsGetValue@4      10055b49 f   libucrt:winapi_thunks.obj
 0001:00054bb4       ___acrt_FlsSetValue@8      10055bb4 f   libucrt:winapi_thunks.obj
 0001:00054c23       ___acrt_GetDateFormatEx@28 10055c23 f   libucrt:winapi_thunks.obj
 0001:00054cac       ___acrt_GetEnabledXStateFeatures@0 10055cac f   libucrt:winapi_thunks.obj
 0001:00054d0e       ___acrt_GetLocaleInfoEx@16 10055d0e f   libucrt:winapi_thunks.obj
 0001:00054d79       ___acrt_GetSystemTimePreciseAsFileTime@4 10055d79 f   libucrt:winapi_thunks.obj
 0001:00054de4       ___acrt_GetTimeFormatEx@24 10055de4 f   libucrt:winapi_thunks.obj
 0001:00054e57       ___acrt_GetUserDefaultLocaleName@8 10055e57 f   libucrt:winapi_thunks.obj
 0001:00054ebe       ___acrt_GetXStateFeaturesMask@8 10055ebe f   libucrt:winapi_thunks.obj
 0001:00054f2a       ___acrt_InitializeCriticalSectionEx@12 10055f2a f   libucrt:winapi_thunks.obj
 0001:00054fa4       ___acrt_IsValidLocaleName@4 10055fa4 f   libucrt:winapi_thunks.obj
 0001:00055006       ___acrt_LCIDToLocaleName@16 10056006 f   libucrt:winapi_thunks.obj
 0001:00055071       ___acrt_LCMapStringEx@36   10056071 f   libucrt:winapi_thunks.obj
 0001:00055102       ___acrt_LocaleNameToLCID@8 10056102 f   libucrt:winapi_thunks.obj
 0001:0005515c       ___acrt_LocateXStateFeature@12 1005615c f   libucrt:winapi_thunks.obj
 0001:000551b3       ___acrt_MessageBoxA@16     100561b3 f   libucrt:winapi_thunks.obj
 0001:0005520e       ___acrt_MessageBoxW@16     1005620e f   libucrt:winapi_thunks.obj
 0001:00055269       ___acrt_RoInitialize@4     10056269 f   libucrt:winapi_thunks.obj
 0001:000552cf       ___acrt_RoUninitialize@0   100562cf f   libucrt:winapi_thunks.obj
 0001:0005532a       ___acrt_RtlGenRandom@8     1005632a f   libucrt:winapi_thunks.obj
 0001:00055396       ___acrt_SetThreadStackGuarantee@4 10056396 f   libucrt:winapi_thunks.obj
 0001:000553fc       ___acrt_can_show_message_box 100563fc f   libucrt:winapi_thunks.obj
 0001:0005542c       ___acrt_can_use_vista_locale_apis 1005642c f   libucrt:winapi_thunks.obj
 0001:00055439       ___acrt_can_use_xstate_apis 10056439 f   libucrt:winapi_thunks.obj
 0001:00055446       ___acrt_eagerly_load_locale_apis 10056446 f   libucrt:winapi_thunks.obj
 0001:0005548a       ___acrt_get_parent_window  1005648a f   libucrt:winapi_thunks.obj
 0001:00055528       ___acrt_initialize_winapi_thunks 10056528 f   libucrt:winapi_thunks.obj
 0001:00055573       ___acrt_is_interactive     10056573 f   libucrt:winapi_thunks.obj
 0001:00055642       ___acrt_uninitialize_winapi_thunks 10056642 f   libucrt:winapi_thunks.obj
 0001:00055685       ??0__crt_stdio_stream@@QAE@QAU__crt_stdio_stream_data@@@Z 10056685 f i libucrt:closeall.obj
 0001:00055699       __fcloseall                10056699 f   libucrt:closeall.obj
 0001:00055d07       ___acrt_stdio_flush_nolock 10056d07 f   libucrt:fflush.obj
 0001:00055d82       __fflush_nolock            10056d82 f   libucrt:fflush.obj
 0001:00055dda       __flushall                 10056dda f   libucrt:fflush.obj
 0001:00055de5       _fflush                    10056de5 f   libucrt:fflush.obj
 0001:00055e4e       ?has_crt_buffer@__crt_stdio_stream@@QBE_NXZ 10056e4e f i libucrt:_freebuf.obj
 0001:00055e5b       ___acrt_stdio_free_buffer_nolock 10056e5b f   libucrt:_freebuf.obj
 0001:00056099       ___acrt_initialize_lowio   10057099 f   libucrt:ioinit.obj
 0001:00056104       ___acrt_uninitialize_lowio 10057104 f   libucrt:ioinit.obj
 0001:00056157       ___isascii                 10057157 f i libucrt:_ctype.obj
 0001:0005616d       ___iscsym                  1005716d f i libucrt:_ctype.obj
 0001:00056197       ___iscsymf                 10057197 f i libucrt:_ctype.obj
 0001:000561bd       ___toascii                 100571bd f i libucrt:_ctype.obj
 0001:000561cd       __isalnum_l                100571cd f i libucrt:_ctype.obj
 0001:00056216       __isalpha_l                10057216 f i libucrt:_ctype.obj
 0001:0005625f       __isblank_l                1005725f f i libucrt:_ctype.obj
 0001:000562b2       __iscntrl_l                100572b2 f i libucrt:_ctype.obj
 0001:000562f8       __iscsym_l                 100572f8 f i libucrt:_ctype.obj
 0001:00056323       __iscsymf_l                10057323 f i libucrt:_ctype.obj
 0001:0005634e       __isdigit_l                1005734e f i libucrt:_ctype.obj
 0001:00056394       __isgraph_l                10057394 f i libucrt:_ctype.obj
 0001:000563dd       __islower_l                100573dd f i libucrt:_ctype.obj
 0001:00056423       __isprint_l                10057423 f i libucrt:_ctype.obj
 0001:0005646c       __ispunct_l                1005746c f i libucrt:_ctype.obj
 0001:000564b2       __isspace_l                100574b2 f i libucrt:_ctype.obj
 0001:000564f8       __isupper_l                100574f8 f i libucrt:_ctype.obj
 0001:0005653e       __isxdigit_l               1005753e f i libucrt:_ctype.obj
 0001:00056587       _isalnum                   10057587 f i libucrt:_ctype.obj
 0001:000565c3       _isalpha                   100575c3 f i libucrt:_ctype.obj
 0001:000565ff       _isblank                   100575ff f i libucrt:_ctype.obj
 0001:00056647       _iscntrl                   10057647 f i libucrt:_ctype.obj
 0001:00056680       _isdigit                   10057680 f i libucrt:_ctype.obj
 0001:000566b9       _isgraph                   100576b9 f i libucrt:_ctype.obj
 0001:000566f5       _islower                   100576f5 f i libucrt:_ctype.obj
 0001:0005672e       _isprint                   1005772e f i libucrt:_ctype.obj
 0001:0005676a       _ispunct                   1005776a f i libucrt:_ctype.obj
 0001:000567a3       _isspace                   100577a3 f i libucrt:_ctype.obj
 0001:000567dc       _isupper                   100577dc f i libucrt:_ctype.obj
 0001:00056815       _isxdigit                  10057815 f i libucrt:_ctype.obj
 0001:00056c0d       __tolower                  10057c0d f   libucrt:tolower_toupper.obj
 0001:00056c1d       __tolower_l                10057c1d f   libucrt:tolower_toupper.obj
 0001:00056c3d       __toupper                  10057c3d f   libucrt:tolower_toupper.obj
 0001:00056c4d       __toupper_l                10057c4d f   libucrt:tolower_toupper.obj
 0001:00056c6d       _tolower                   10057c6d f   libucrt:tolower_toupper.obj
 0001:00056ca9       _toupper                   10057ca9 f   libucrt:tolower_toupper.obj
 0001:00056ce5       ??$make_c_string_character_source@DPAPAD@__crt_strtox@@YA?AV?$c_string_character_source@D@0@QBDQAPAD@Z 10057ce5 f i libucrt:strtox.obj
 0001:00056d06       ??$make_c_string_character_source@_WPAPA_W@__crt_strtox@@YA?AV?$c_string_character_source@_W@0@QB_WQAPA_W@Z 10057d06 f i libucrt:strtox.obj
 0001:00056d27       ??$parse_integer_from_string@JDPAPAD@__crt_strtox@@YAJQBDQAPADHQAU__crt_locale_pointers@@@Z 10057d27 f i libucrt:strtox.obj
 0001:00056d5f       ??$parse_integer_from_string@J_WPAPA_W@__crt_strtox@@YAJQB_WQAPA_WHQAU__crt_locale_pointers@@@Z 10057d5f f i libucrt:strtox.obj
 0001:00056d97       ??$parse_integer_from_string@KDPAPAD@__crt_strtox@@YAKQBDQAPADHQAU__crt_locale_pointers@@@Z 10057d97 f i libucrt:strtox.obj
 0001:00056dcf       ??$parse_integer_from_string@K_WPAPA_W@__crt_strtox@@YAKQB_WQAPA_WHQAU__crt_locale_pointers@@@Z 10057dcf f i libucrt:strtox.obj
 0001:00056e07       ??$parse_integer_from_string@_JDPAPAD@__crt_strtox@@YA_JQBDQAPADHQAU__crt_locale_pointers@@@Z 10057e07 f i libucrt:strtox.obj
 0001:00056e3f       ??$parse_integer_from_string@_J_WPAPA_W@__crt_strtox@@YA_JQB_WQAPA_WHQAU__crt_locale_pointers@@@Z 10057e3f f i libucrt:strtox.obj
 0001:00056e77       ??$parse_integer_from_string@_KDPAPAD@__crt_strtox@@YA_KQBDQAPADHQAU__crt_locale_pointers@@@Z 10057e77 f i libucrt:strtox.obj
 0001:00056eaf       ??$parse_integer_from_string@_K_WPAPA_W@__crt_strtox@@YA_KQB_WQAPA_WHQAU__crt_locale_pointers@@@Z 10057eaf f i libucrt:strtox.obj
 0001:00056ee7       __strtoi64                 10057ee7 f   libucrt:strtox.obj
 0001:00056f1e       __strtoi64_l               10057f1e f   libucrt:strtox.obj
 0001:00056f56       __strtoimax_l              10057f56 f   libucrt:strtox.obj
 0001:00056f8e       __strtol_l                 10057f8e f   libucrt:strtox.obj
 0001:00056fc6       __strtoll_l                10057fc6 f   libucrt:strtox.obj
 0001:00056ffe       __strtoui64                10057ffe f   libucrt:strtox.obj
 0001:00057035       __strtoui64_l              10058035 f   libucrt:strtox.obj
 0001:0005706d       __strtoul_l                1005806d f   libucrt:strtox.obj
 0001:000570a5       __strtoull_l               100580a5 f   libucrt:strtox.obj
 0001:000570dd       __strtoumax_l              100580dd f   libucrt:strtox.obj
 0001:00057115       __wcstoi64                 10058115 f   libucrt:strtox.obj
 0001:0005714c       __wcstoi64_l               1005814c f   libucrt:strtox.obj
 0001:00057184       __wcstoimax_l              10058184 f   libucrt:strtox.obj
 0001:000571bc       __wcstol_l                 100581bc f   libucrt:strtox.obj
 0001:000571f4       __wcstoll_l                100581f4 f   libucrt:strtox.obj
 0001:0005722c       __wcstoui64                1005822c f   libucrt:strtox.obj
 0001:00057263       __wcstoui64_l              10058263 f   libucrt:strtox.obj
 0001:0005729b       __wcstoul_l                1005829b f   libucrt:strtox.obj
 0001:000572d3       __wcstoull_l               100582d3 f   libucrt:strtox.obj
 0001:0005730b       __wcstoumax_l              1005830b f   libucrt:strtox.obj
 0001:00057343       _strtoimax                 10058343 f   libucrt:strtox.obj
 0001:0005737a       _strtol                    1005837a f   libucrt:strtox.obj
 0001:000573b1       _strtoll                   100583b1 f   libucrt:strtox.obj
 0001:000573e8       _strtoul                   100583e8 f   libucrt:strtox.obj
 0001:0005741f       _strtoull                  1005841f f   libucrt:strtox.obj
 0001:00057456       _strtoumax                 10058456 f   libucrt:strtox.obj
 0001:0005748d       _wcstoimax                 1005848d f   libucrt:strtox.obj
 0001:000574c4       _wcstol                    100584c4 f   libucrt:strtox.obj
 0001:000574fb       _wcstoll                   100584fb f   libucrt:strtox.obj
 0001:00057532       _wcstoul                   10058532 f   libucrt:strtox.obj
 0001:00057569       _wcstoull                  10058569 f   libucrt:strtox.obj
 0001:000575a0       _wcstoumax                 100585a0 f   libucrt:strtox.obj
 0001:000575d7       __mbtowc_l                 100585d7 f   libucrt:mbtowc.obj
 0001:0005776c       _mbtowc                    1005876c f   libucrt:mbtowc.obj
 0001:0005778c       __wctomb_l                 1005878c f   libucrt:wctomb.obj
 0001:000577f3       __wctomb_s_l               100587f3 f   libucrt:wctomb.obj
 0001:0005795e       _wctomb                    1005895e f   libucrt:wctomb.obj
 0001:0005799f       _wctomb_s                  1005899f f   libucrt:wctomb.obj
 0001:000583bc       ??1?$__crt_simd_cleanup_guard@$00@@QAE@XZ 100593bc f i libucrt:strnlen.obj
 0001:000583c0       ??1?$__crt_simd_cleanup_guard@$0A@@@QAE@XZ 100593c0 f i libucrt:strnlen.obj
 0001:000583c1       ?compare_equals@?$__crt_simd_traits@$00E@@SA?AT__m256i@@T2@0@Z 100593c1 f i libucrt:strnlen.obj
 0001:000583c6       ?compare_equals@?$__crt_simd_traits@$00G@@SA?AT__m256i@@T2@0@Z 100593c6 f i libucrt:strnlen.obj
 0001:000583cb       ?compare_equals@?$__crt_simd_traits@$0A@E@@SA?AT__m128i@@T2@0@Z 100593cb f i libucrt:strnlen.obj
 0001:000583d0       ?compare_equals@?$__crt_simd_traits@$0A@G@@SA?AT__m128i@@T2@0@Z 100593d0 f i libucrt:strnlen.obj
 0001:000583d5       ?compute_byte_mask@?$__crt_simd_pack_traits@$00@@SAHT__m256i@@@Z 100593d5 f i libucrt:strnlen.obj
 0001:000583da       ?compute_byte_mask@?$__crt_simd_pack_traits@$0A@@@SAHT__m128i@@@Z 100593da f i libucrt:strnlen.obj
 0001:000583df       ?get_zero_pack@?$__crt_simd_pack_traits@$00@@SA?AT__m256i@@XZ 100593df f i libucrt:strnlen.obj
 0001:000583e4       ?get_zero_pack@?$__crt_simd_pack_traits@$0A@@@SA?AT__m128i@@XZ 100593e4 f i libucrt:strnlen.obj
 0001:000583e8       _strnlen                   100593e8 f   libucrt:strnlen.obj
 0001:00058552       _wcslen                    10059552 f   libucrt:strnlen.obj
 0001:000586c4       _wcsnlen                   100596c4 f   libucrt:strnlen.obj
 0001:000588e0       ??$?RU__acrt_ptd@@@__crt_internal_free_policy@@QBEXQBU__acrt_ptd@@@Z 100598e0 f i libucrt:per_thread_data.obj
 0001:00058c59       ??0?$__crt_unique_heap_ptr@U__acrt_ptd@@U__crt_internal_free_policy@@@@QAE@QAU__acrt_ptd@@@Z 10059c59 f i libucrt:per_thread_data.obj
 0001:00058c6d       ??0__crt_scoped_get_last_error_reset@@QAE@XZ 10059c6d f i libucrt:per_thread_data.obj
 0001:00058c82       ??1?$__crt_unique_heap_ptr@U__acrt_ptd@@U__crt_internal_free_policy@@@@QAE@XZ 10059c82 f i libucrt:per_thread_data.obj
 0001:00058c98       ??1__crt_scoped_get_last_error_reset@@QAE@XZ 10059c98 f i libucrt:per_thread_data.obj
 0001:00058ca3       ??B?$__crt_unique_heap_ptr@U__acrt_ptd@@U__crt_internal_free_policy@@@@QBE_NXZ 10059ca3 f i libucrt:per_thread_data.obj
 0001:00058e40       ?dangerous_get_state_array@?$dual_state_global@PAU__crt_locale_data@@@__crt_state_management@@QAEPAPAU__crt_locale_data@@XZ 10059e40 f i libucrt:per_thread_data.obj
 0001:00058f73       ?detach@?$__crt_unique_heap_ptr@U__acrt_ptd@@U__crt_internal_free_policy@@@@QAEPAU__acrt_ptd@@XZ 10059f73 f i libucrt:per_thread_data.obj
 0001:00058f79       ?get@?$__crt_unique_heap_ptr@U__acrt_ptd@@U__crt_internal_free_policy@@@@QBEPAU__acrt_ptd@@XZ 10059f79 f i libucrt:per_thread_data.obj
 0001:00058f7c       ?get_current_state_index@__crt_state_management@@YAIABV__crt_scoped_get_last_error_reset@@@Z 10059f7c f i libucrt:per_thread_data.obj
 0001:00059102       ?is_valid@?$__crt_unique_heap_ptr@U__acrt_ptd@@U__crt_internal_free_policy@@@@QBE_NXZ 1005a102 f i libucrt:per_thread_data.obj
 0001:00059109       ?release@?$__crt_unique_heap_ptr@U__acrt_ptd@@U__crt_internal_free_policy@@@@QAEXXZ 1005a109 f i libucrt:per_thread_data.obj
 0001:00059195       ?value@?$dual_state_global@PAU__crt_locale_data@@@__crt_state_management@@QAEAAPAU__crt_locale_data@@XZ 1005a195 f i libucrt:per_thread_data.obj
 0001:00059198       ___acrt_freeptd            1005a198 f   libucrt:per_thread_data.obj
 0001:000591cf       ___acrt_getptd             1005a1cf f   libucrt:per_thread_data.obj
 0001:000592b3       ___acrt_getptd_head        1005a2b3 f   libucrt:per_thread_data.obj
 0001:00059373       ___acrt_getptd_noexit      1005a373 f   libucrt:per_thread_data.obj
 0001:0005944b       ___acrt_initialize_ptd     1005a44b f   libucrt:per_thread_data.obj
 0001:00059482       ___acrt_uninitialize_ptd   1005a482 f   libucrt:per_thread_data.obj
 0001:000594a2       ___threadhandle            1005a4a2 f   libucrt:per_thread_data.obj
 0001:000594a8       ___threadid                1005a4a8 f   libucrt:per_thread_data.obj
 0001:000594ae       ?value@?$dual_state_global@PAU__crt_multibyte_data@@@__crt_state_management@@QAEAAPAU__crt_multibyte_data@@XZ 1005a4ae f i libucrt:locale_update.obj
 0001:000594b1       ___acrt_update_locale_info 1005a4b1 f   libucrt:locale_update.obj
 0001:000594e9       ___acrt_update_multibyte_info 1005a4e9 f   libucrt:locale_update.obj
 0001:00059521       ?__acrt_fp_classify@@YA?AW4__acrt_fp_class@@ABN@Z 1005a521 f i libucrt:cvt.obj
 0001:0005959b       ?__acrt_fp_is_negative@@YA_NABN@Z 1005a59b f i libucrt:cvt.obj
 0001:0005a020       ?strrchr@@YAPADQADH@Z      1005b020 f i libucrt:cvt.obj
 0001:0005a02d       ___acrt_fp_format          1005b02d f   libucrt:cvt.obj
 0001:0005a1f5       __fputwc_nolock            1005b1f5 f   libucrt:fputwc.obj
 0001:0005a369       __fputwchar                1005b369 f   libucrt:fputwc.obj
 0001:0005a389       __putwc_nolock             1005b389 f   libucrt:fputwc.obj
 0001:0005a396       _fputwc                    1005b396 f   libucrt:fputwc.obj
 0001:0005a427       _putwc                     1005b427 f   libucrt:fputwc.obj
 0001:0005a434       _putwchar                  1005b434 f   libucrt:fputwc.obj
 0001:0005a441       ?lowio_handle@__crt_stdio_stream@@QBEHXZ 1005b441 f i libucrt:fileno.obj
 0001:0005a447       __fileno                   1005b447 f   libucrt:fileno.obj
 0001:0005a476       __fputc_nolock             1005b476 f   libucrt:fputc.obj
 0001:0005a4a9       __fputchar                 1005b4a9 f   libucrt:fputc.obj
 0001:0005a4c9       __putc_nolock              1005b4c9 f   libucrt:fputc.obj
 0001:0005a4d6       _fputc                     1005b4d6 f   libucrt:fputc.obj
 0001:0005a614       _putc                      1005b614 f   libucrt:fputc.obj
 0001:0005a621       _putchar                   1005b621 f   libucrt:fputc.obj
 0001:0005a62e       __get_printf_count_output  1005b62e f   libucrt:printf_count_output.obj
 0001:0005a648       __set_printf_count_output  1005b648 f   libucrt:printf_count_output.obj
 0001:0005a67c       ?has_temporary_buffer@__crt_stdio_stream@@QBE_NXZ 1005b67c f i libucrt:_sftbuf.obj
 0001:0005a689       ___acrt_stdio_begin_temporary_buffering_nolock 1005b689 f   libucrt:_sftbuf.obj
 0001:0005a76b       ___acrt_stdio_end_temporary_buffering_nolock 1005b76b f   libucrt:_sftbuf.obj
 0001:0005a7b5       ??$?RU__crt_locale_data@@@__crt_internal_free_policy@@QBEXQBU__crt_locale_data@@@Z 1005b7b5 f i libucrt:wsetlocale.obj
 0001:0005a7cb       ??$?RU__crt_locale_pointers@@@__crt_internal_free_policy@@QBEXQBU__crt_locale_pointers@@@Z 1005b7cb f i libucrt:wsetlocale.obj
 0001:0005a7e1       ??$?RU__crt_multibyte_data@@@__crt_internal_free_policy@@QBEXQBU__crt_multibyte_data@@@Z 1005b7e1 f i libucrt:wsetlocale.obj
 0001:0005aab1       ??$__vcrt_va_start_verify_argument_type@H@@YAXXZ 1005bab1 f i libucrt:wsetlocale.obj
 0001:0005ac3c       ??0?$__crt_unique_heap_ptr@U__crt_locale_data@@U__crt_internal_free_policy@@@@QAE@QAU__crt_locale_data@@@Z 1005bc3c f i libucrt:wsetlocale.obj
 0001:0005ac50       ??0?$__crt_unique_heap_ptr@U__crt_locale_pointers@@U__crt_internal_free_policy@@@@QAE@QAU__crt_locale_pointers@@@Z 1005bc50 f i libucrt:wsetlocale.obj
 0001:0005ac64       ??0?$__crt_unique_heap_ptr@U__crt_multibyte_data@@U__crt_internal_free_policy@@@@QAE@QAU__crt_multibyte_data@@@Z 1005bc64 f i libucrt:wsetlocale.obj
 0001:0005ac78       ??1?$__crt_unique_heap_ptr@U__crt_locale_data@@U__crt_internal_free_policy@@@@QAE@XZ 1005bc78 f i libucrt:wsetlocale.obj
 0001:0005ac8e       ??1?$__crt_unique_heap_ptr@U__crt_locale_pointers@@U__crt_internal_free_policy@@@@QAE@XZ 1005bc8e f i libucrt:wsetlocale.obj
 0001:0005aca4       ??1?$__crt_unique_heap_ptr@U__crt_multibyte_data@@U__crt_internal_free_policy@@@@QAE@XZ 1005bca4 f i libucrt:wsetlocale.obj
 0001:0005acba       ??B?$__crt_unique_heap_ptr@U__crt_locale_data@@U__crt_internal_free_policy@@@@QBE_NXZ 1005bcba f i libucrt:wsetlocale.obj
 0001:0005acc1       ??B?$__crt_unique_heap_ptr@U__crt_locale_pointers@@U__crt_internal_free_policy@@@@QBE_NXZ 1005bcc1 f i libucrt:wsetlocale.obj
 0001:0005acc8       ??B?$__crt_unique_heap_ptr@U__crt_multibyte_data@@U__crt_internal_free_policy@@@@QBE_NXZ 1005bcc8 f i libucrt:wsetlocale.obj
 0001:0005af6a       ?detach@?$__crt_unique_heap_ptr@U__crt_locale_data@@U__crt_internal_free_policy@@@@QAEPAU__crt_locale_data@@XZ 1005bf6a f i libucrt:wsetlocale.obj
 0001:0005af70       ?detach@?$__crt_unique_heap_ptr@U__crt_locale_pointers@@U__crt_internal_free_policy@@@@QAEPAU__crt_locale_pointers@@XZ 1005bf70 f i libucrt:wsetlocale.obj
 0001:0005af76       ?detach@?$__crt_unique_heap_ptr@U__crt_multibyte_data@@U__crt_internal_free_policy@@@@QAEPAU__crt_multibyte_data@@XZ 1005bf76 f i libucrt:wsetlocale.obj
 0001:0005af7c       ?get@?$__crt_unique_heap_ptr@U__crt_locale_data@@U__crt_internal_free_policy@@@@QBEPAU__crt_locale_data@@XZ 1005bf7c f i libucrt:wsetlocale.obj
 0001:0005af7f       ?get@?$__crt_unique_heap_ptr@U__crt_locale_pointers@@U__crt_internal_free_policy@@@@QBEPAU__crt_locale_pointers@@XZ 1005bf7f f i libucrt:wsetlocale.obj
 0001:0005af82       ?get@?$__crt_unique_heap_ptr@U__crt_multibyte_data@@U__crt_internal_free_policy@@@@QBEPAU__crt_multibyte_data@@XZ 1005bf82 f i libucrt:wsetlocale.obj
 0001:0005af85       ?is_valid@?$__crt_unique_heap_ptr@U__crt_locale_data@@U__crt_internal_free_policy@@@@QBE_NXZ 1005bf85 f i libucrt:wsetlocale.obj
 0001:0005af8c       ?is_valid@?$__crt_unique_heap_ptr@U__crt_locale_pointers@@U__crt_internal_free_policy@@@@QBE_NXZ 1005bf8c f i libucrt:wsetlocale.obj
 0001:0005af93       ?is_valid@?$__crt_unique_heap_ptr@U__crt_multibyte_data@@U__crt_internal_free_policy@@@@QBE_NXZ 1005bf93 f i libucrt:wsetlocale.obj
 0001:0005af9a       ?release@?$__crt_unique_heap_ptr@U__crt_locale_data@@U__crt_internal_free_policy@@@@QAEXXZ 1005bf9a f i libucrt:wsetlocale.obj
 0001:0005afb0       ?release@?$__crt_unique_heap_ptr@U__crt_locale_pointers@@U__crt_internal_free_policy@@@@QAEXXZ 1005bfb0 f i libucrt:wsetlocale.obj
 0001:0005afc6       ?release@?$__crt_unique_heap_ptr@U__crt_multibyte_data@@U__crt_internal_free_policy@@@@QAEXXZ 1005bfc6 f i libucrt:wsetlocale.obj
 0001:0005afdc       ___acrt_copy_locale_name   1005bfdc f   libucrt:wsetlocale.obj
 0001:0005b05b       ___acrt_set_locale_changed 1005c05b f   libucrt:wsetlocale.obj
 0001:0005b068       ___acrt_uninitialize_locale 1005c068 f   libucrt:wsetlocale.obj
 0001:0005b09b       ___lc_lctowcs              1005c09b f   libucrt:wsetlocale.obj
 0001:0005b127       ___lc_wcstolc              1005c127 f   libucrt:wsetlocale.obj
 0001:0005b2c7       __configthreadlocale       1005c2c7 f   libucrt:wsetlocale.obj
 0001:0005b37b       __create_locale            1005c37b f   libucrt:wsetlocale.obj
 0001:0005b3fa       __expandlocale             1005c3fa f   libucrt:wsetlocale.obj
 0001:0005b8ce       __free_locale              1005c8ce f   libucrt:wsetlocale.obj
 0001:0005b9b4       __get_current_locale       1005c9b4 f   libucrt:wsetlocale.obj
 0001:0005ba78       __wcreate_locale           1005ca78 f   libucrt:wsetlocale.obj
 0001:0005bbc3       __wcscats                  1005cbc3 f   libucrt:wsetlocale.obj
 0001:0005bc14       __wsetlocale               1005cc14 f   libucrt:wsetlocale.obj
 0001:0005c74b       ___p___mb_cur_max          1005d74b f   libucrt:nlsdata.obj
 0001:0005c77b       __realloc_base             1005d77b f   libucrt:realloc_base.obj
 0001:0005c7fe       ___acrt_initialize_locks   1005d7fe f   libucrt:locks.obj
 0001:0005c84f       ___acrt_lock               1005d84f f   libucrt:locks.obj
 0001:0005c86b       ___acrt_uninitialize_locks 1005d86b f   libucrt:locks.obj
 0001:0005c8a8       ___acrt_unlock             1005d8a8 f   libucrt:locks.obj
 0001:0005c8c4       __lock_locales             1005d8c4 f   libucrt:locks.obj
 0001:0005c8d5       __unlock_locales           1005d8d5 f   libucrt:locks.obj
 0001:0005caf3       ___acrt_get_begin_thread_init_policy 1005daf3 f   libucrt:win_policies.obj
 0001:0005cb49       ___acrt_get_developer_information_policy 1005db49 f   libucrt:win_policies.obj
 0001:0005cb9f       ___acrt_get_process_end_policy 1005db9f f   libucrt:win_policies.obj
 0001:0005cbde       ___acrt_get_windowing_model_policy 1005dbde f   libucrt:win_policies.obj
 0001:0005ce47       __close                    1005de47 f   libucrt:close.obj
 0001:0005cef9       __close_nolock             1005def9 f   libucrt:close.obj
 0001:0005cfbc       ??$?RU__crt_stdio_stream_data@@@__crt_internal_free_policy@@QBEXQBU__crt_stdio_stream_data@@@Z 1005dfbc f i libucrt:stream.obj
 0001:0005cfd2       ??0?$__crt_unique_heap_ptr@U__crt_stdio_stream_data@@U__crt_internal_free_policy@@@@QAE@QAU__crt_stdio_stream_data@@@Z 1005dfd2 f i libucrt:stream.obj
 0001:0005cfe6       ??0__crt_stdio_stream@@QAE@XZ 1005dfe6 f i libucrt:stream.obj
 0001:0005cfec       ??1?$__crt_unique_heap_ptr@U__crt_stdio_stream_data@@U__crt_internal_free_policy@@@@QAE@XZ 1005dfec f i libucrt:stream.obj
 0001:0005d002       ?__acrt_stdio_allocate_stream@@YA?AV__crt_stdio_stream@@XZ 1005e002 f   libucrt:stream.obj
 0001:0005d078       ?__acrt_stdio_free_stream@@YAXV__crt_stdio_stream@@@Z 1005e078 f   libucrt:stream.obj
 0001:0005d0c1       ?deallocate@__crt_stdio_stream@@QAEXXZ 1005e0c1 f i libucrt:stream.obj
 0001:0005d0cd       ?detach@?$__crt_unique_heap_ptr@U__crt_stdio_stream_data@@U__crt_internal_free_policy@@@@QAEPAU__crt_stdio_stream_data@@XZ 1005e0cd f i libucrt:stream.obj
 0001:0005d1c6       ?lock@__crt_stdio_stream@@QBEXXZ 1005e1c6 f i libucrt:stream.obj
 0001:0005d1d1       ?release@?$__crt_unique_heap_ptr@U__crt_stdio_stream_data@@U__crt_internal_free_policy@@@@QAEXXZ 1005e1d1 f i libucrt:stream.obj
 0001:0005d1e7       ?try_allocate@__crt_stdio_stream@@QAE_NXZ 1005e1e7 f i libucrt:stream.obj
 0001:0005d20f       ??$__acrt_stdio_parse_mode@D@@YA?AU__acrt_stdio_stream_mode@@QBD@Z 1005e20f f i libucrt:openfile.obj
 0001:0005d4c9       ??$__acrt_stdio_parse_mode@_W@@YA?AU__acrt_stdio_stream_mode@@QB_W@Z 1005e4c9 f i libucrt:openfile.obj
 0001:0005d91e       ??$tcsncmp@AAPBDAAY02$$CBDI@?$__crt_char_traits@D@@SAHAAPBDAAY02$$CBD$$QAI@Z 1005e91e f i libucrt:openfile.obj
 0001:0005d941       ??$tcsncmp@AAPB_WAAY02$$CB_WI@?$__crt_char_traits@_W@@SAHAAPB_WAAY02$$CB_W$$QAI@Z 1005e941 f i libucrt:openfile.obj
 0001:0005d964       ??$tcsnicmp@AAPBDAAY04$$CBDI@?$__crt_char_traits@D@@SAHAAPBDAAY04$$CBD$$QAI@Z 1005e964 f i libucrt:openfile.obj
 0001:0005d987       ??$tcsnicmp@AAPBDAAY06$$CBDI@?$__crt_char_traits@D@@SAHAAPBDAAY06$$CBD$$QAI@Z 1005e987 f i libucrt:openfile.obj
 0001:0005d9aa       ??$tcsnicmp@AAPBDAAY07$$CBDI@?$__crt_char_traits@D@@SAHAAPBDAAY07$$CBD$$QAI@Z 1005e9aa f i libucrt:openfile.obj
 0001:0005d9cd       ??$tcsnicmp@AAPB_WAAY04$$CB_WI@?$__crt_char_traits@_W@@SAHAAPB_WAAY04$$CB_W$$QAI@Z 1005e9cd f i libucrt:openfile.obj
 0001:0005d9f0       ??$tcsnicmp@AAPB_WAAY06$$CB_WI@?$__crt_char_traits@_W@@SAHAAPB_WAAY06$$CB_W$$QAI@Z 1005e9f0 f i libucrt:openfile.obj
 0001:0005da13       ??$tcsnicmp@AAPB_WAAY07$$CB_WI@?$__crt_char_traits@_W@@SAHAAPB_WAAY07$$CB_W$$QAI@Z 1005ea13 f i libucrt:openfile.obj
 0001:0005da36       ??$tsopen_s@PAHABQBDABHABHH@?$__crt_char_traits@D@@SAH$$QAPAHABQBDABH2$$QAH@Z 1005ea36 f i libucrt:openfile.obj
 0001:0005da68       ??$tsopen_s@PAHABQB_WABHABHH@?$__crt_char_traits@_W@@SAH$$QAPAHABQB_WABH2$$QAH@Z 1005ea68 f i libucrt:openfile.obj
 0001:0005da9a       ?__acrt_stdio_parse_mode_D@@YA_NAAU__acrt_stdio_stream_mode@@@Z 1005ea9a f i libucrt:openfile.obj
 0001:0005dabb       ?__acrt_stdio_parse_mode_N@@YA_NAAU__acrt_stdio_stream_mode@@@Z 1005eabb f i libucrt:openfile.obj
 0001:0005dad1       ?__acrt_stdio_parse_mode_R@@YA_NAAU__acrt_stdio_stream_mode@@AA_N@Z 1005ead1 f i libucrt:openfile.obj
 0001:0005daf6       ?__acrt_stdio_parse_mode_S@@YA_NAAU__acrt_stdio_stream_mode@@AA_N@Z 1005eaf6 f i libucrt:openfile.obj
 0001:0005db1b       ?__acrt_stdio_parse_mode_T@@YA_NAAU__acrt_stdio_stream_mode@@@Z 1005eb1b f i libucrt:openfile.obj
 0001:0005db41       ?__acrt_stdio_parse_mode_b@@YA_NAAU__acrt_stdio_stream_mode@@@Z 1005eb41 f i libucrt:openfile.obj
 0001:0005db69       ?__acrt_stdio_parse_mode_c@@YA_NAAU__acrt_stdio_stream_mode@@AA_N@Z 1005eb69 f i libucrt:openfile.obj
 0001:0005db93       ?__acrt_stdio_parse_mode_n@@YA_NAAU__acrt_stdio_stream_mode@@AA_N@Z 1005eb93 f i libucrt:openfile.obj
 0001:0005dbbd       ?__acrt_stdio_parse_mode_plus@@YA_NAAU__acrt_stdio_stream_mode@@AA_N@Z 1005ebbd f i libucrt:openfile.obj
 0001:0005dbff       ?__acrt_stdio_parse_mode_t@@YA_NAAU__acrt_stdio_stream_mode@@@Z 1005ebff f i libucrt:openfile.obj
 0001:0005dc27       ?__acrt_stdio_parse_mode_x@@YA_NAAU__acrt_stdio_stream_mode@@@Z 1005ec27 f i libucrt:openfile.obj
 0001:0005dc4f       __openfile                 1005ec4f f   libucrt:openfile.obj
 0001:0005dc5c       __wopenfile                1005ec5c f   libucrt:openfile.obj
 0001:0005e32f       __read                     1005f32f f   libucrt:read.obj
 0001:0005e47b       __read_nolock              1005f47b f   libucrt:read.obj
 0001:0005e919       __utf8_no_of_trailbytes    1005f919 f i libucrt:read.obj
 0001:0005ee38       ___acrt_stdio_refill_and_read_narrow_nolock 1005fe38 f   libucrt:_filbuf.obj
 0001:0005ee45       ___acrt_stdio_refill_and_read_wide_nolock 1005fe45 f   libucrt:_filbuf.obj
 0001:0005f5c7       __write                    100605c7 f   libucrt:write.obj
 0001:0005f6e9       __write_nolock             100606e9 f   libucrt:write.obj
 0001:0005fe2b       ___acrt_stdio_flush_and_write_narrow_nolock 10060e2b f   libucrt:_flsbuf.obj
 0001:0005fe38       ___acrt_stdio_flush_and_write_wide_nolock 10060e38 f   libucrt:_flsbuf.obj
 0001:0005fec7       ___acrt_MultiByteToWideChar 10060ec7 f   libucrt:multibytetowidechar.obj
 0001:0005ff62       __wremove                  10060f62 f   libucrt:wunlink.obj
 0001:0005ff94       __wunlink                  10060f94 f   libucrt:wunlink.obj
 0001:00060401       __lseek                    10061401 f   libucrt:lseek.obj
 0001:0006040e       __lseek_nolock             1006140e f   libucrt:lseek.obj
 0001:0006041b       __lseeki64                 1006141b f   libucrt:lseek.obj
 0001:0006043c       __lseeki64_nolock          1006143c f   libucrt:lseek.obj
 0001:0006045d       __chgsign                  1006145d f   libucrt:ieeemisc.obj
 0001:00060497       __chgsignf                 10061497 f   libucrt:ieeemisc.obj
 0001:000604c2       __copysign                 100614c2 f   libucrt:ieeemisc.obj
 0001:000604f6       __copysignf                100614f6 f   libucrt:ieeemisc.obj
 0001:0006051b       __finite                   1006151b f   libucrt:ieeemisc.obj
 0001:0006053b       __fpclass                  1006153b f   libucrt:ieeemisc.obj
 0001:00060608       __isnan                    10061608 f   libucrt:ieeemisc.obj
 0001:0006064b       __logb                     1006164b f   libucrt:ieeemisc.obj
 0001:00060750       __nextafter                10061750 f   libucrt:ieeemisc.obj
 0001:00060776       __scalb                    10061776 f   libucrt:ieeemisc.obj
 0001:00060796       __add_exp                  10061796 f   libucrt:util.obj
 0001:000607d0       __decomp                   100617d0 f   libucrt:util.obj
 0001:000608e5       __get_exp                  100618e5 f   libucrt:util.obj
 0001:00060903       __set_bexp                 10061903 f   libucrt:util.obj
 0001:00060936       __set_exp                  10061936 f   libucrt:util.obj
 0001:00060970       __sptype                   10061970 f   libucrt:util.obj
 0001:000609e5       ___clrfp_sse2              100619e5 f   libucrt:fpctrl.obj
 0001:00060a0e       ___ctrlfp_sse2             10061a0e f   libucrt:fpctrl.obj
 0001:00060a57       ___fclrf_sse2              10061a57 f   libucrt:fpctrl.obj
 0001:00060a7d       ___get_fpsr_sse2           10061a7d f   libucrt:fpctrl.obj
 0001:00060aa2       ___set_fpsr_sse2           10061aa2 f   libucrt:fpctrl.obj
 0001:00060b35       ___set_statfp_sse2         10061b35 f   libucrt:fpctrl.obj
 0001:00060b56       ___statfp_sse2             10061b56 f   libucrt:fpctrl.obj
 0001:00060b70       __clrfp                    10061b70 f   libucrt:fpctrl.obj
 0001:00060b87       __ctrlfp                   10061b87 f   libucrt:fpctrl.obj
 0001:00060bbe       __set_statfp               10061bbe f   libucrt:fpctrl.obj
 0001:00060c2f       __statfp                   10061c2f f   libucrt:fpctrl.obj
 0001:00060d0c       ___acrt_report_runtime_error 10061d0c f   libucrt:report_runtime_error.obj
 0001:00060e66       __query_app_type           10061e66 f   libucrt:report_runtime_error.obj
 0001:00060e6c       __set_app_type             10061e6c f   libucrt:report_runtime_error.obj
 0001:00061483       __i64toa                   10062483 f   libucrt:xtoa.obj
 0001:000614d6       __i64toa_s                 100624d6 f   libucrt:xtoa.obj
 0001:00061527       __i64tow                   10062527 f   libucrt:xtoa.obj
 0001:0006157a       __i64tow_s                 1006257a f   libucrt:xtoa.obj
 0001:000615cb       __itoa                     100625cb f   libucrt:xtoa.obj
 0001:0006160f       __itoa_s                   1006260f f   libucrt:xtoa.obj
 0001:00061651       __itow                     10062651 f   libucrt:xtoa.obj
 0001:00061695       __itow_s                   10062695 f   libucrt:xtoa.obj
 0001:000616d7       __ltoa                     100626d7 f   libucrt:xtoa.obj
 0001:0006171b       __ltoa_s                   1006271b f   libucrt:xtoa.obj
 0001:0006175d       __ltow                     1006275d f   libucrt:xtoa.obj
 0001:000617a1       __ltow_s                   100627a1 f   libucrt:xtoa.obj
 0001:000617e3       __ui64toa                  100627e3 f   libucrt:xtoa.obj
 0001:0006180d       __ui64toa_s                1006280d f   libucrt:xtoa.obj
 0001:00061835       __ui64tow                  10062835 f   libucrt:xtoa.obj
 0001:0006185f       __ui64tow_s                1006285f f   libucrt:xtoa.obj
 0001:00061887       __ultoa                    10062887 f   libucrt:xtoa.obj
 0001:000618ad       __ultoa_s                  100628ad f   libucrt:xtoa.obj
 0001:000618d1       __ultow                    100628d1 f   libucrt:xtoa.obj
 0001:000618f7       __ultow_s                  100628f7 f   libucrt:xtoa.obj
 0001:0006191b       __set_error_mode           1006291b f   libucrt:set_error_mode.obj
 0001:000619f7       _wcscat_s                  100629f7 f   libucrt:wcscat_s.obj
 0001:00061b01       _wcscpy_s                  10062b01 f   libucrt:wcscpy_s.obj
 0001:00061ca1       _wcsncat_s                 10062ca1 f   libucrt:wcsncat_s.obj
 0001:00061d31       _strcat_s                  10062d31 f   libucrt:strcat_s.obj
 0001:00061eb8       _strncat_s                 10062eb8 f   libucrt:strncat_s.obj
 0001:00061ec5       ___acrt_GetModuleFileNameA 10062ec5 f   libucrt:getmodulefilenamea.obj
 0001:0006207d       ??$message_box@$$TABQBDABQBDK@?$__crt_char_traits@D@@SAH$$QA$$TABQBD1$$QAK@Z 1006307d f i libucrt:crtmbox.obj
 0001:000620a5       ??$message_box@$$TABQB_WABQB_WK@?$__crt_char_traits@_W@@SAH$$QA$$TABQB_W1$$QAK@Z 100630a5 f i libucrt:crtmbox.obj
 0001:000620cd       ??$message_box@PAUHWND__@@ABQBDABQBDABI@?$__crt_char_traits@D@@SAH$$QAPAUHWND__@@ABQBD1ABI@Z 100630cd f i libucrt:crtmbox.obj
 0001:000620f5       ??$message_box@PAUHWND__@@ABQB_WABQB_WABI@?$__crt_char_traits@_W@@SAH$$QAPAUHWND__@@ABQB_W1ABI@Z 100630f5 f i libucrt:crtmbox.obj
 0001:0006211d       ??$output_debug_string@ABQBD@?$__crt_char_traits@D@@SAXABQBD@Z 1006311d f i libucrt:crtmbox.obj
 0001:00062132       ??$output_debug_string@ABQB_W@?$__crt_char_traits@_W@@SAXABQB_W@Z 10063132 f i libucrt:crtmbox.obj
 0001:00062148       ___acrt_show_narrow_message_box 10063148 f   libucrt:crtmbox.obj
 0001:00062155       ___acrt_show_wide_message_box 10063155 f   libucrt:crtmbox.obj
 0001:00062364       _setvbuf                   10063364 f   libucrt:setvbuf.obj
 0001:00062409       ??$?B$$A6AXH@Z@__crt_fast_encoded_nullptr_t@@QBEP6AXH@ZXZ 10063409 f i libucrt:signal.obj
 0001:000624c9       ??$__crt_fast_decode_pointer@P6AXH@Z@@YAP6AXH@ZQ6AXH@Z@Z 100634c9 f i libucrt:signal.obj
 0001:000624e4       ??$__crt_fast_encode_pointer@P6AXH@Z@@YAP6AXH@ZQ6AXH@Z@Z 100634e4 f i libucrt:signal.obj
 0001:0006268e       ?initialize@?$dual_state_global@P6AXH@Z@__crt_state_management@@QAEXQ6AXH@Z@Z 1006368e f i libucrt:signal.obj
 0001:0006276c       ?value@?$dual_state_global@P6AXH@Z@__crt_state_management@@QAEAAP6AXH@ZXZ 1006376c f i libucrt:signal.obj
 0001:0006276f       ___acrt_get_sigabrt_handler 1006376f f   libucrt:signal.obj
 0001:000627a2       ___acrt_initialize_signal_handlers 100637a2 f   libucrt:signal.obj
 0001:000627c7       ___fpecode                 100637c7 f   libucrt:signal.obj
 0001:000627d2       ___pxcptinfoptrs           100637d2 f   libucrt:signal.obj
 0001:000627dd       _raise                     100637dd f   libucrt:signal.obj
 0001:00062a5f       _signal                    10063a5f f   libucrt:signal.obj
 0001:00062c7c       ___pctype_func             10063c7c f   libucrt:ctype.obj
 0001:00062cab       ___pwctype_func            10063cab f   libucrt:ctype.obj
 0001:00062cb1       __iswctype_l               10063cb1 f   libucrt:iswctype.obj
 0001:00062cca       _iswctype                  10063cca f   libucrt:iswctype.obj
 0001:00062d4f       __isctype                  10063d4f f   libucrt:isctype.obj
 0001:00062d8d       __isctype_l                10063d8d f   libucrt:isctype.obj
 0001:00062e9b       __fgetwc_nolock            10063e9b f   libucrt:fgetwc.obj
 0001:00063069       __fgetwchar                10064069 f   libucrt:fgetwc.obj
 0001:0006307d       __getwc_nolock             1006407d f   libucrt:fgetwc.obj
 0001:0006308a       _fgetwc                    1006408a f   libucrt:fgetwc.obj
 0001:00063112       _getwc                     10064112 f   libucrt:fgetwc.obj
 0001:0006311f       _getwchar                  1006411f f   libucrt:fgetwc.obj
 0001:00063308       __ungetwc_nolock           10064308 f   libucrt:ungetwc.obj
 0001:000633eb       _ungetwc                   100643eb f   libucrt:ungetwc.obj
 0001:0006347c       __fgetc_nolock             1006447c f   libucrt:fgetc.obj
 0001:000634c7       __fgetchar                 100644c7 f   libucrt:fgetc.obj
 0001:000634db       __getc_nolock              100644db f   libucrt:fgetc.obj
 0001:000634e8       _fgetc                     100644e8 f   libucrt:fgetc.obj
 0001:00063624       _getc                      10064624 f   libucrt:fgetc.obj
 0001:00063631       _getchar                   10064631 f   libucrt:fgetc.obj
 0001:00063636       __ungetc_nolock            10064636 f   libucrt:ungetc.obj
 0001:00063769       _ungetc                    10064769 f   libucrt:ungetc.obj
 0001:000637ec       ___fpe_flt_rounds          100647ec f   libucrt:fegetround.obj
 0001:0006382d       _fegetround                1006482d f   libucrt:fegetround.obj
 0001:0006383d       ??$__crt_fast_decode_pointer@P6AHPAU_exception@@@Z@@YAP6AHPAU_exception@@@ZQ6AH0@Z@Z 1006483d f i libucrt:matherr.obj
 0001:00063858       ??$__crt_fast_encode_pointer@P6AHPAU_exception@@@Z@@YAP6AHPAU_exception@@@ZQ6AH0@Z@Z 10064858 f i libucrt:matherr.obj
 0001:0006387e       ?initialize@?$dual_state_global@P6AHPAU_exception@@@Z@__crt_state_management@@QAEXQ6AHPAU_exception@@@Z@Z 1006487e f i libucrt:matherr.obj
 0001:000638ad       ?value@?$dual_state_global@P6AHPAU_exception@@@Z@__crt_state_management@@QAEAAP6AHPAU_exception@@@ZXZ 100648ad f i libucrt:matherr.obj
 0001:000638b0       ___acrt_has_user_matherr   100648b0 f   libucrt:matherr.obj
 0001:000638ce       ___acrt_initialize_user_matherr 100648ce f   libucrt:matherr.obj
 0001:000638e0       ___acrt_invoke_user_matherr 100648e0 f   libucrt:matherr.obj
 0001:0006393b       ___setusermatherr          1006493b f   libucrt:matherr.obj
 0001:00064446       ??$find_first_file_ex@ABQADW4_FINDEX_INFO_LEVELS@@PAU_WIN32_FIND_DATAA@@W4_FINDEX_SEARCH_OPS@@$$TH@?$__crt_char_traits@D@@SAPAXABQAD$$QAW4_FINDEX_INFO_LEVELS@@$$QAPAU_WIN32_FIND_DATAA@@$$QAW4_FINDEX_SEARCH_OPS@@$$QA$$T$$QAH@Z 10065446 f i libucrt:argv_wildcards.obj
 0001:0006447e       ??$find_first_file_ex@ABQA_WW4_FINDEX_INFO_LEVELS@@PAU_WIN32_FIND_DATAW@@W4_FINDEX_SEARCH_OPS@@$$TH@?$__crt_char_traits@_W@@SAPAXABQA_W$$QAW4_FINDEX_INFO_LEVELS@@$$QAPAU_WIN32_FIND_DATAW@@$$QAW4_FINDEX_SEARCH_OPS@@$$QA$$T$$QAH@Z 1006547e f i libucrt:argv_wildcards.obj
 0001:000644b3       ??$find_next_file@PAXPAU_WIN32_FIND_DATAA@@@?$__crt_char_traits@D@@SAH$$QAPAX$$QAPAU_WIN32_FIND_DATAA@@@Z 100654b3 f i libucrt:argv_wildcards.obj
 0001:000644d1       ??$find_next_file@PAXPAU_WIN32_FIND_DATAW@@@?$__crt_char_traits@_W@@SAH$$QAPAX$$QAPAU_WIN32_FIND_DATAW@@@Z 100654d1 f i libucrt:argv_wildcards.obj
 0001:000644ed       ??$tcsncpy_s@AAPADIAAPADABI@?$__crt_char_traits@D@@SAHAAPAD$$QAI0ABI@Z 100654ed f i libucrt:argv_wildcards.obj
 0001:00064518       ??$tcsncpy_s@AAPA_WIAAPA_WABI@?$__crt_char_traits@_W@@SAHAAPA_W$$QAI0ABI@Z 10065518 f i libucrt:argv_wildcards.obj
 0001:00064543       ??$tcsncpy_s@PADABIABQBDABI@?$__crt_char_traits@D@@SAH$$QAPADABIABQBD1@Z 10065543 f i libucrt:argv_wildcards.obj
 0001:0006456e       ??$tcsncpy_s@PADIABQBDABI@?$__crt_char_traits@D@@SAH$$QAPAD$$QAIABQBDABI@Z 1006556e f i libucrt:argv_wildcards.obj
 0001:00064599       ??$tcsncpy_s@PA_WABIABQB_WABI@?$__crt_char_traits@_W@@SAH$$QAPA_WABIABQB_W1@Z 10065599 f i libucrt:argv_wildcards.obj
 0001:000645c4       ??$tcsncpy_s@PA_WIABQB_WABI@?$__crt_char_traits@_W@@SAH$$QAPA_W$$QAIABQB_WABI@Z 100655c4 f i libucrt:argv_wildcards.obj
 0001:000645ef       ??$tcspbrk@AAPADAAY02$$CBD@?$__crt_char_traits@D@@SAPADAAPADAAY02$$CBD@Z 100655ef f i libucrt:argv_wildcards.obj
 0001:0006460a       ??$tcspbrk@AAPA_WAAY02$$CB_W@?$__crt_char_traits@_W@@SAPA_WAAPA_WAAY02$$CB_W@Z 1006560a f i libucrt:argv_wildcards.obj
 0001:00064625       ??0?$__crt_unique_handle_t@U__crt_findfile_traits@@@@QAE@QAX@Z 10065625 f i libucrt:argv_wildcards.obj
 0001:00064659       ??1?$__crt_unique_handle_t@U__crt_findfile_traits@@@@QAE@XZ 10065659 f i libucrt:argv_wildcards.obj
 0001:00064803       ?close@?$__crt_unique_handle_t@U__crt_findfile_traits@@@@QAEXXZ 10065803 f i libucrt:argv_wildcards.obj
 0001:0006481f       ?close@__crt_findfile_traits@@SA_NPAX@Z 1006581f f i libucrt:argv_wildcards.obj
 0001:00064991       ?get@?$__crt_unique_handle_t@U__crt_findfile_traits@@@@QBEPAXXZ 10065991 f i libucrt:argv_wildcards.obj
 0001:00064994       ?get_invalid_value@__crt_findfile_traits@@SAPAXXZ 10065994 f i libucrt:argv_wildcards.obj
 0001:000649cb       ?strpbrk@@YAPADQADQBD@Z    100659cb f i libucrt:argv_wildcards.obj
 0001:000649d8       ?wcspbrk@@YAPA_WPA_WPB_W@Z 100659d8 f i libucrt:argv_wildcards.obj
 0001:000649e5       ___acrt_expand_narrow_argv_wildcards 100659e5 f   libucrt:argv_wildcards.obj
 0001:000649f2       ___acrt_expand_wide_argv_wildcards 100659f2 f   libucrt:argv_wildcards.obj
 0001:00064a84       ??$initialize_from_array@$$BY10BAA@E@?$dual_state_global@PAE@__crt_state_management@@QAAXAAY10BAA@E@Z 10065a84 f i libucrt:mbctype.obj
 0001:00064a96       ??$initialize_from_array@$$BY10BAB@E@?$dual_state_global@PAE@__crt_state_management@@QAAXAAY10BAB@E@Z 10065a96 f i libucrt:mbctype.obj
 0001:00064bf5       ?dangerous_get_state_array@?$dual_state_global@PAE@__crt_state_management@@QAEPAPAEXZ 10065bf5 f i libucrt:mbctype.obj
 0001:00064bf8       ?dangerous_get_state_array@?$dual_state_global@PAU__crt_multibyte_data@@@__crt_state_management@@QAEPAPAU__crt_multibyte_data@@XZ 10065bf8 f i libucrt:mbctype.obj
 0001:00064c8a       ?initialize@?$dual_state_global@PAU__crt_multibyte_data@@@__crt_state_management@@QAEXQAU__crt_multibyte_data@@@Z 10065c8a f i libucrt:mbctype.obj
 0001:00065179       ?value@?$dual_state_global@PAE@__crt_state_management@@QAEAAPAEXZ 10066179 f i libucrt:mbctype.obj
 0001:0006517c       ___acrt_initialize_multibyte 1006617c f   libucrt:mbctype.obj
 0001:000651d6       ___acrt_update_thread_multibyte_data 100661d6 f   libucrt:mbctype.obj
 0001:000651ed       ___p__mbcasemap            100661ed f   libucrt:mbctype.obj
 0001:000651f3       ___p__mbctype              100661f3 f   libucrt:mbctype.obj
 0001:000651f9       __getmbcp                  100661f9 f   libucrt:mbctype.obj
 0001:0006523c       __setmbcp                  1006623c f   libucrt:mbctype.obj
 0001:00065262       __setmbcp_nolock           10066262 f   libucrt:mbctype.obj
 0001:000655eb       __ismbbalnum               100665eb f   libucrt:ismbbyte.obj
 0001:0006560c       __ismbbalnum_l             1006660c f   libucrt:ismbbyte.obj
 0001:0006562f       __ismbbalpha               1006662f f   libucrt:ismbbyte.obj
 0001:00065650       __ismbbalpha_l             10066650 f   libucrt:ismbbyte.obj
 0001:00065673       __ismbbblank               10066673 f   libucrt:ismbbyte.obj
 0001:0006569e       __ismbbblank_l             1006669e f   libucrt:ismbbyte.obj
 0001:000656cb       __ismbbgraph               100666cb f   libucrt:ismbbyte.obj
 0001:000656ec       __ismbbgraph_l             100666ec f   libucrt:ismbbyte.obj
 0001:0006570f       __ismbbkalnum              1006670f f   libucrt:ismbbyte.obj
 0001:0006572d       __ismbbkalnum_l            1006672d f   libucrt:ismbbyte.obj
 0001:0006574c       __ismbbkana                1006674c f   libucrt:ismbbyte.obj
 0001:00065763       __ismbbkana_l              10066763 f   libucrt:ismbbyte.obj
 0001:000657c8       __ismbbkprint              100667c8 f   libucrt:ismbbyte.obj
 0001:000657e6       __ismbbkprint_l            100667e6 f   libucrt:ismbbyte.obj
 0001:00065805       __ismbbkpunct              10066805 f   libucrt:ismbbyte.obj
 0001:00065823       __ismbbkpunct_l            10066823 f   libucrt:ismbbyte.obj
 0001:00065842       __ismbblead                10066842 f   libucrt:ismbbyte.obj
 0001:00065860       __ismbblead_l              10066860 f   libucrt:ismbbyte.obj
 0001:0006587f       __ismbbprint               1006687f f   libucrt:ismbbyte.obj
 0001:000658a0       __ismbbprint_l             100668a0 f   libucrt:ismbbyte.obj
 0001:000658c3       __ismbbpunct               100668c3 f   libucrt:ismbbyte.obj
 0001:000658e1       __ismbbpunct_l             100668e1 f   libucrt:ismbbyte.obj
 0001:00065900       __ismbbtrail               10066900 f   libucrt:ismbbyte.obj
 0001:0006591e       __ismbbtrail_l             1006691e f   libucrt:ismbbyte.obj
 0001:0006593d       ___acrt_initialize_command_line 1006693d f   libucrt:argv_data.obj
 0001:0006595c       ___acrt_uninitialize_command_line 1006695c f   libucrt:argv_data.obj
 0001:0006595f       ___p___argc                1006695f f   libucrt:argv_data.obj
 0001:00065965       ___p___argv                10066965 f   libucrt:argv_data.obj
 0001:0006596b       ___p___wargv               1006696b f   libucrt:argv_data.obj
 0001:00065971       ___p__acmdln               10066971 f   libucrt:argv_data.obj
 0001:00065977       ___p__pgmptr               10066977 f   libucrt:argv_data.obj
 0001:0006597d       ___p__wcmdln               1006697d f   libucrt:argv_data.obj
 0001:00065983       ___p__wpgmptr              10066983 f   libucrt:argv_data.obj
 0001:00065989       __get_pgmptr               10066989 f   libucrt:argv_data.obj
 0001:000659c6       __get_wpgmptr              100669c6 f   libucrt:argv_data.obj
 0001:00065a81       ___acrt_WideCharToMultiByte 10066a81 f   libucrt:widechartomultibyte.obj
 0001:00065c13       ___dcrt_get_narrow_environment_from_os 10066c13 f   libucrt:get_environment_from_os.obj
 0001:00065cba       ___dcrt_get_wide_environment_from_os 10066cba f   libucrt:get_environment_from_os.obj
 0001:000665be       ??$get_or_create_environment_nolock@$$V@?$__crt_char_traits@D@@SAPAPADXZ 100675be f i libucrt:setenv.obj
 0001:000665c3       ??$get_or_create_environment_nolock@$$V@?$__crt_char_traits@_W@@SAPAPA_WXZ 100675c3 f i libucrt:setenv.obj
 0001:000665c8       ??$set_environment_variable@ABQADQAD@?$__crt_char_traits@D@@SAHABQAD$$QBQAD@Z 100675c8 f i libucrt:setenv.obj
 0001:000665e6       ??$set_environment_variable@ABQA_WQA_W@?$__crt_char_traits@_W@@SAHABQA_W$$QBQA_W@Z 100675e6 f i libucrt:setenv.obj
 0001:00066602       ??$tcschr@ABQADD@?$__crt_char_traits@D@@SAPADABQAD$$QAD@Z 10067602 f i libucrt:setenv.obj
 0001:00066622       ??$tcschr@ABQA_WD@?$__crt_char_traits@_W@@SAPA_WABQA_W$$QAD@Z 10067622 f i libucrt:setenv.obj
 0001:00066647       ??$tcscpy_s@AAPADABIAAPAD@?$__crt_char_traits@D@@SAHAAPADABI0@Z 10067647 f i libucrt:setenv.obj
 0001:0006666c       ??$tcscpy_s@AAPA_WABIAAPA_W@?$__crt_char_traits@_W@@SAHAAPA_WABI0@Z 1006766c f i libucrt:setenv.obj
 0001:00066691       ??$tcscpy_s@ABQADABIABQAD@?$__crt_char_traits@D@@SAHABQADABI0@Z 10067691 f i libucrt:setenv.obj
 0001:000666b6       ??$tcscpy_s@ABQA_WABIABQA_W@?$__crt_char_traits@_W@@SAHABQA_WABI0@Z 100676b6 f i libucrt:setenv.obj
 0001:000666db       ??$tcsnicoll@ABQBDAAPADABI@?$__crt_char_traits@D@@SAHABQBDAAPADABI@Z 100676db f i libucrt:setenv.obj
 0001:00066700       ??$tcsnicoll@ABQB_WAAPA_WABI@?$__crt_char_traits@_W@@SAHABQB_WAAPA_WABI@Z 10067700 f i libucrt:setenv.obj
 0001:00066749       ?strchr@@YAPADQADH@Z       10067749 f i libucrt:setenv.obj
 0001:00066756       ?wcschr@@YAPA_WPA_W_W@Z    10067756 f i libucrt:setenv.obj
 0001:00066763       ___dcrt_set_variable_in_narrow_environment_nolock 10067763 f   libucrt:setenv.obj
 0001:00066770       ___dcrt_set_variable_in_wide_environment_nolock 10067770 f   libucrt:setenv.obj
 0001:0006677d       __recalloc                 1006777d f   libucrt:recalloc.obj
 0001:0006678a       __recalloc_base            1006778a f   libucrt:recalloc.obj
 0001:00066812       ___acrt_getheap            10067812 f   libucrt:heap_handle.obj
 0001:00066818       ___acrt_initialize_heap    10067818 f   libucrt:heap_handle.obj
 0001:0006682d       ___acrt_uninitialize_heap  1006782d f   libucrt:heap_handle.obj
 0001:00066839       __get_heap_handle          10067839 f   libucrt:heap_handle.obj
 0001:0006683f       ___acrt_execute_initializers 1006783f f   libucrt:shared_initialization.obj
 0001:000668e2       ___acrt_execute_uninitializers 100678e2 f   libucrt:shared_initialization.obj
 0001:0006693c       ??$?B$$A6AHI@Z@__crt_fast_encoded_nullptr_t@@QBEP6AHI@ZXZ 1006793c f i libucrt:new_handler.obj
 0001:0006695a       ??$__crt_fast_decode_pointer@P6AHI@Z@@YAP6AHI@ZQ6AHI@Z@Z 1006795a f i libucrt:new_handler.obj
 0001:00066975       ??$__crt_fast_encode_pointer@P6AHI@Z@@YAP6AHI@ZQ6AHI@Z@Z 10067975 f i libucrt:new_handler.obj
 0001:0006699b       ?_set_new_handler@@YAP6AHI@ZH@Z 1006799b f   libucrt:new_handler.obj
 0001:000669c1       ?initialize@?$dual_state_global@P6AHI@Z@__crt_state_management@@QAEXQ6AHI@Z@Z 100679c1 f i libucrt:new_handler.obj
 0001:000669f0       ?value@?$dual_state_global@P6AHI@Z@__crt_state_management@@QAEAAP6AHI@ZXZ 100679f0 f i libucrt:new_handler.obj
 0001:000669f3       ___acrt_initialize_new_handler 100679f3 f   libucrt:new_handler.obj
 0001:00066a05       __callnewh                 10067a05 f   libucrt:new_handler.obj
 0001:00066a5a       __query_new_handler        10067a5a f   libucrt:new_handler.obj
 0001:00066ac0       __set_new_handler          10067ac0 f   libucrt:new_handler.obj
 0001:00066b38       ?value@?$dual_state_global@J@__crt_state_management@@QAEAAJXZ 10067b38 f i libucrt:new_mode.obj
 0001:00066b3b       __query_new_mode           10067b3b f   libucrt:new_mode.obj
 0001:00066b41       __set_new_mode             10067b41 f   libucrt:new_mode.obj
 0001:00066d27       ___acrt_DownlevelLCIDToLocaleName 10067d27 f   libucrt:lcidtoname_downlevel.obj
 0001:00066dfb       ___acrt_DownlevelLocaleNameToLCID 10067dfb f   libucrt:lcidtoname_downlevel.obj
 0001:00066fe2       __commit                   10067fe2 f   libucrt:commit.obj
 0001:00067080       ??$?RU__crt_lowio_handle_data@@@__crt_internal_free_policy@@QBEXQBU__crt_lowio_handle_data@@@Z 10068080 f i libucrt:osfinfo.obj
 0001:00067096       ??0?$__crt_unique_heap_ptr@U__crt_lowio_handle_data@@U__crt_internal_free_policy@@@@QAE@QAU__crt_lowio_handle_data@@@Z 10068096 f i libucrt:osfinfo.obj
 0001:000670aa       ??1?$__crt_unique_heap_ptr@U__crt_lowio_handle_data@@U__crt_internal_free_policy@@@@QAE@XZ 100680aa f i libucrt:osfinfo.obj
 0001:000670c0       ??B?$__crt_unique_heap_ptr@U__crt_lowio_handle_data@@U__crt_internal_free_policy@@@@QBE_NXZ 100680c0 f i libucrt:osfinfo.obj
 0001:000670c7       ?detach@?$__crt_unique_heap_ptr@U__crt_lowio_handle_data@@U__crt_internal_free_policy@@@@QAEPAU__crt_lowio_handle_data@@XZ 100680c7 f i libucrt:osfinfo.obj
 0001:000670cd       ?get@?$__crt_unique_heap_ptr@U__crt_lowio_handle_data@@U__crt_internal_free_policy@@@@QBEPAU__crt_lowio_handle_data@@XZ 100680cd f i libucrt:osfinfo.obj
 0001:000670d0       ?is_valid@?$__crt_unique_heap_ptr@U__crt_lowio_handle_data@@U__crt_internal_free_policy@@@@QBE_NXZ 100680d0 f i libucrt:osfinfo.obj
 0001:000670d7       ?release@?$__crt_unique_heap_ptr@U__crt_lowio_handle_data@@U__crt_internal_free_policy@@@@QAEXXZ 100680d7 f i libucrt:osfinfo.obj
 0001:000670ed       ___acrt_lowio_create_handle_array 100680ed f   libucrt:osfinfo.obj
 0001:00067185       ___acrt_lowio_destroy_handle_array 10068185 f   libucrt:osfinfo.obj
 0001:000671c7       ___acrt_lowio_ensure_fh_exists 100681c7 f   libucrt:osfinfo.obj
 0001:00067280       ___acrt_lowio_lock_fh      10068280 f   libucrt:osfinfo.obj
 0001:000672ab       ___acrt_lowio_set_os_handle 100682ab f   libucrt:osfinfo.obj
 0001:00067364       ___acrt_lowio_unlock_fh    10068364 f   libucrt:osfinfo.obj
 0001:0006738f       __alloc_osfhnd             1006838f f   libucrt:osfinfo.obj
 0001:000674da       __free_osfhnd              100684da f   libucrt:osfinfo.obj
 0001:0006758f       __get_osfhandle            1006858f f   libucrt:osfinfo.obj
 0001:00067613       __open_osfhandle           10068613 f   libucrt:osfinfo.obj
 0001:00067762       ___iswcsym                 10068762 f i libucrt:_wctype.obj
 0001:00067791       ___iswcsymf                10068791 f i libucrt:_wctype.obj
 0001:000677c0       __isleadbyte_l             100687c0 f i libucrt:_wctype.obj
 0001:00067807       __iswalnum_l               10068807 f i libucrt:_wctype.obj
 0001:00067822       __iswalpha_l               10068822 f i libucrt:_wctype.obj
 0001:0006783d       __iswblank_l               1006883d f i libucrt:_wctype.obj
 0001:00067861       __iswcntrl_l               10068861 f i libucrt:_wctype.obj
 0001:00067878       __iswcsym_l                10068878 f i libucrt:_wctype.obj
 0001:000678a7       __iswcsymf_l               100688a7 f i libucrt:_wctype.obj
 0001:000678d6       __iswdigit_l               100688d6 f i libucrt:_wctype.obj
 0001:000678ed       __iswgraph_l               100688ed f i libucrt:_wctype.obj
 0001:00067908       __iswlower_l               10068908 f i libucrt:_wctype.obj
 0001:0006791f       __iswprint_l               1006891f f i libucrt:_wctype.obj
 0001:0006793a       __iswpunct_l               1006893a f i libucrt:_wctype.obj
 0001:00067951       __iswspace_l               10068951 f i libucrt:_wctype.obj
 0001:00067968       __iswupper_l               10068968 f i libucrt:_wctype.obj
 0001:0006797f       __iswxdigit_l              1006897f f i libucrt:_wctype.obj
 0001:0006799a       _isleadbyte                1006899a f i libucrt:_wctype.obj
 0001:000679b1       _iswalnum                  100689b1 f i libucrt:_wctype.obj
 0001:000679cc       _iswalpha                  100689cc f i libucrt:_wctype.obj
 0001:000679e7       _iswascii                  100689e7 f i libucrt:_wctype.obj
 0001:00067a00       _iswblank                  10068a00 f i libucrt:_wctype.obj
 0001:00067a24       _iswcntrl                  10068a24 f i libucrt:_wctype.obj
 0001:00067a3b       _iswdigit                  10068a3b f i libucrt:_wctype.obj
 0001:00067a52       _iswgraph                  10068a52 f i libucrt:_wctype.obj
 0001:00067a6d       _iswlower                  10068a6d f i libucrt:_wctype.obj
 0001:00067a84       _iswprint                  10068a84 f i libucrt:_wctype.obj
 0001:00067a9f       _iswpunct                  10068a9f f i libucrt:_wctype.obj
 0001:00067ab6       _iswspace                  10068ab6 f i libucrt:_wctype.obj
 0001:00067acd       _iswupper                  10068acd f i libucrt:_wctype.obj
 0001:00067ae4       _iswxdigit                 10068ae4 f i libucrt:_wctype.obj
 0001:00067aff       ??0?$__crt_scoped_stack_ptr@_W@@QAE@U?$__crt_scoped_stack_ptr_tag@_W@@@Z 10068aff f i libucrt:lcmapstringa.obj
 0001:00067b13       ??0?$__crt_scoped_stack_ptr_tag@_W@@QAE@QA_W@Z 10068b13 f i libucrt:lcmapstringa.obj
 0001:00067b27       ??1?$__crt_scoped_stack_ptr@_W@@QAE@XZ 10068b27 f i libucrt:lcmapstringa.obj
 0001:00067b32       ??B?$__crt_scoped_stack_ptr@_W@@QBE_NXZ 10068b32 f i libucrt:lcmapstringa.obj
 0001:00067da0       ?get@?$__crt_scoped_stack_ptr@_W@@QBEPA_WXZ 10068da0 f i libucrt:lcmapstringa.obj
 0001:00067da3       __MallocaComputeSize       10068da3 f i libucrt:lcmapstringa.obj
 0001:00067dba       __MarkAllocaS              10068dba f i libucrt:lcmapstringa.obj
 0001:00067dd5       ___acrt_LCMapStringA       10068dd5 f   libucrt:lcmapstringa.obj
 0001:00067e32       __freea_crt                10068e32 f i libucrt:lcmapstringa.obj
 0001:00067e91       ?__mbrtowc_utf8@__crt_mbstring@@YAIPA_WPBDIPAU_Mbstatet@@@Z 10068e91 f   libucrt:mbrtowc.obj
 0001:00067ee3       ?__mbsrtowcs_utf8@__crt_mbstring@@YAIPA_WPAPBDIPAU_Mbstatet@@@Z 10068ee3 f   libucrt:mbrtowc.obj
 0001:00068400       _btowc                     10069400 f   libucrt:mbrtowc.obj
 0001:00068470       _mbrlen                    10069470 f   libucrt:mbrtowc.obj
 0001:000684b1       _mbrtowc                   100694b1 f   libucrt:mbrtowc.obj
 0001:00068518       _mbsrtowcs                 10069518 f   libucrt:mbrtowc.obj
 0001:00068525       _mbsrtowcs_s               10069525 f   libucrt:mbrtowc.obj
 0001:000685f0       ??$?RG@__crt_internal_free_policy@@QBEXQBG@Z 100695f0 f i libucrt:initctype.obj
 0001:00068606       ??$?RJ@__crt_internal_free_policy@@QBEXQBJ@Z 10069606 f i libucrt:initctype.obj
 0001:0006861c       ??0?$__crt_unique_heap_ptr@GU__crt_internal_free_policy@@@@QAE@QAG@Z 1006961c f i libucrt:initctype.obj
 0001:00068630       ??0?$__crt_unique_heap_ptr@JU__crt_internal_free_policy@@@@QAE@QAJ@Z 10069630 f i libucrt:initctype.obj
 0001:00068644       ??1?$__crt_unique_heap_ptr@GU__crt_internal_free_policy@@@@QAE@XZ 10069644 f i libucrt:initctype.obj
 0001:0006865a       ??1?$__crt_unique_heap_ptr@JU__crt_internal_free_policy@@@@QAE@XZ 1006965a f i libucrt:initctype.obj
 0001:00068670       ?detach@?$__crt_unique_heap_ptr@GU__crt_internal_free_policy@@@@QAEPAGXZ 10069670 f i libucrt:initctype.obj
 0001:00068676       ?detach@?$__crt_unique_heap_ptr@JU__crt_internal_free_policy@@@@QAEPAJXZ 10069676 f i libucrt:initctype.obj
 0001:0006867c       ?release@?$__crt_unique_heap_ptr@GU__crt_internal_free_policy@@@@QAEXXZ 1006967c f i libucrt:initctype.obj
 0001:00068692       ?release@?$__crt_unique_heap_ptr@JU__crt_internal_free_policy@@@@QAEXXZ 10069692 f i libucrt:initctype.obj
 0001:000686a8       ____lc_codepage_func       100696a8 f   libucrt:initctype.obj
 0001:000686d8       ____lc_collate_cp_func     100696d8 f   libucrt:initctype.obj
 0001:00068708       ____lc_locale_name_func    10069708 f   libucrt:initctype.obj
 0001:0006873b       ____mb_cur_max_func        1006973b f   libucrt:initctype.obj
 0001:0006876b       ____mb_cur_max_l_func      1006976b f   libucrt:initctype.obj
 0001:0006878a       ___acrt_locale_initialize_ctype 1006978a f   libucrt:initctype.obj
 0001:00068ccb       ___acrt_add_locale_ref     10069ccb f   libucrt:locale_refcounting.obj
 0001:00068d67       ___acrt_free_locale        10069d67 f   libucrt:locale_refcounting.obj
 0001:00068f03       ___acrt_locale_add_lc_time_reference 10069f03 f   libucrt:locale_refcounting.obj
 0001:00068f36       ___acrt_locale_free_lc_time_if_unreferenced 10069f36 f   libucrt:locale_refcounting.obj
 0001:00068f72       ___acrt_locale_release_lc_time_reference 10069f72 f   libucrt:locale_refcounting.obj
 0001:00068fa5       ___acrt_release_locale_ref 10069fa5 f   libucrt:locale_refcounting.obj
 0001:00069046       ___acrt_update_thread_locale_data 1006a046 f   libucrt:locale_refcounting.obj
 0001:000690da       __updatetlocinfoEx_nolock  1006a0da f   libucrt:locale_refcounting.obj
 0001:0006913e       ___acrt_fp_strflt_to_string 1006a13e f   libucrt:_fptostr.obj
 0001:0006aaa0       ??8__crt_strtox@@YA_NABUbig_integer@0@0@Z 1006baa0 f i libucrt:cfout.obj
 0001:0006aaf0       ??9__crt_strtox@@YA_NABUbig_integer@0@0@Z 1006baf0 f i libucrt:cfout.obj
 0001:0006ab40       ?is_zero@__crt_strtox@@YA_NABUbig_integer@1@@Z 1006bb40 f i libucrt:cfout.obj
 0001:0006ab60       ?make_big_integer_power_of_two@__crt_strtox@@YA?AUbig_integer@1@I@Z 1006bb60 f i libucrt:cfout.obj
 0001:0006abbf       ___acrt_fltout             1006bbbf f   libucrt:cfout.obj
 0001:0006c4aa       __isatty                   1006d4aa f   libucrt:isatty.obj
 0001:0006c515       ??$?RUlconv@@@__crt_internal_free_policy@@QBEXQBUlconv@@@Z 1006d515 f i libucrt:initmon.obj
 0001:0006c52b       ??0?$__crt_unique_heap_ptr@Ulconv@@U__crt_internal_free_policy@@@@QAE@QAUlconv@@@Z 1006d52b f i libucrt:initmon.obj
 0001:0006c53f       ??1?$__crt_unique_heap_ptr@Ulconv@@U__crt_internal_free_policy@@@@QAE@XZ 1006d53f f i libucrt:initmon.obj
 0001:0006c555       ?detach@?$__crt_unique_heap_ptr@Ulconv@@U__crt_internal_free_policy@@@@QAEPAUlconv@@XZ 1006d555 f i libucrt:initmon.obj
 0001:0006c55b       ?release@?$__crt_unique_heap_ptr@Ulconv@@U__crt_internal_free_policy@@@@QAEXXZ 1006d55b f i libucrt:initmon.obj
 0001:0006c571       ___acrt_locale_free_monetary 1006d571 f   libucrt:initmon.obj
 0001:0006c6ae       ___acrt_locale_initialize_monetary 1006d6ae f   libucrt:initmon.obj
 0001:0006cb9b       ___acrt_locale_free_numeric 1006db9b f   libucrt:initnum.obj
 0001:0006cc1e       ___acrt_locale_initialize_numeric 1006dc1e f   libucrt:initnum.obj
 0001:0006cef9       ??$?RU__crt_lc_time_data@@@__crt_internal_free_policy@@QBEXQBU__crt_lc_time_data@@@Z 1006def9 f i libucrt:inittime.obj
 0001:0006cf99       ??0?$__crt_unique_heap_ptr@U__crt_lc_time_data@@U__crt_internal_free_policy@@@@QAE@QAU__crt_lc_time_data@@@Z 1006df99 f i libucrt:inittime.obj
 0001:0006cfad       ??1?$__crt_unique_heap_ptr@U__crt_lc_time_data@@U__crt_internal_free_policy@@@@QAE@XZ 1006dfad f i libucrt:inittime.obj
 0001:0006cfc3       ??B?$__crt_unique_heap_ptr@U__crt_lc_time_data@@U__crt_internal_free_policy@@@@QBE_NXZ 1006dfc3 f i libucrt:inittime.obj
 0001:0006cfca       ?detach@?$__crt_unique_heap_ptr@U__crt_lc_time_data@@U__crt_internal_free_policy@@@@QAEPAU__crt_lc_time_data@@XZ 1006dfca f i libucrt:inittime.obj
 0001:0006d016       ?get@?$__crt_unique_heap_ptr@U__crt_lc_time_data@@U__crt_internal_free_policy@@@@QBEPAU__crt_lc_time_data@@XZ 1006e016 f i libucrt:inittime.obj
 0001:0006d3af       ?is_valid@?$__crt_unique_heap_ptr@U__crt_lc_time_data@@U__crt_internal_free_policy@@@@QBE_NXZ 1006e3af f i libucrt:inittime.obj
 0001:0006d3b6       ?release@?$__crt_unique_heap_ptr@U__crt_lc_time_data@@U__crt_internal_free_policy@@@@QAEXXZ 1006e3b6 f i libucrt:inittime.obj
 0001:0006d3cc       ___acrt_locale_free_time   1006e3cc f   libucrt:inittime.obj
 0001:0006d4e9       ___acrt_locale_initialize_time 1006e4e9 f   libucrt:inittime.obj
 0001:0006d681       _wcsncpy_s                 1006e681 f   libucrt:wcsncpy_s.obj
 0001:0006d68e       _wcscspn                   1006e68e f   libucrt:wcscspn.obj
 0001:0006d6ff       _wcspbrk                   1006e6ff f   libucrt:wcspbrk.obj
 0001:0006d760       __wcsicmp                  1006e760 f   libucrt:wcsicmp.obj
 0001:0006d811       __wcsicmp_l                1006e811 f   libucrt:wcsicmp.obj
 0001:0006d925       ___acrt_GetStringTypeA     1006e925 f   libucrt:getstringtypea.obj
 0001:0006e39a       ___acrt_get_qualified_locale 1006f39a f   libucrt:get_qualified_locale.obj
 0001:0006ef88       ___acrt_get_qualified_locale_downlevel 1006ff88 f   libucrt:getqloc_downlevel.obj
 0001:0006f1fc       _localeconv                100701fc f   libucrt:localeconv.obj
 0001:0006f230       __wcsnicmp                 10070230 f   libucrt:wcsnicmp.obj
 0001:0006f30d       __wcsnicmp_l               1007030d f   libucrt:wcsnicmp.obj
 0001:0006f449       __strnicmp                 10070449 f   libucrt:strnicmp.obj
 0001:0006f4d1       __strnicmp_l               100704d1 f   libucrt:strnicmp.obj
 0001:0006f65a       ??$__vcrt_va_start_verify_argument_type@$$CBH@@YAXXZ 1007065a f i libucrt:open.obj
 0001:0006f9cb       ??$tsopen_nolock@PAHABQAHABQBDABHABHABHABH@?$__crt_char_traits@D@@SAH$$QAPAHABQAHABQBDABH333@Z 100709cb f i libucrt:open.obj
 0001:0006fa09       ??$tsopen_nolock@PAHABQAHABQB_WABHABHABHABH@?$__crt_char_traits@_W@@SAH$$QAPAHABQAHABQB_WABH333@Z 10070a09 f i libucrt:open.obj
 0001:0006fa47       ??$tsopen_nolock@PAHPAHABQBDABHHABHH@?$__crt_char_traits@D@@SAH$$QAPAH0ABQBDABH$$QAH23@Z 10070a47 f i libucrt:open.obj
 0001:0006fa85       ??$tsopen_nolock@PAHPAHABQB_WABHHABHH@?$__crt_char_traits@_W@@SAH$$QAPAH0ABQB_WABH$$QAH23@Z 10070a85 f i libucrt:open.obj
 0001:00070277       __open                     10071277 f   libucrt:open.obj
 0001:00070295       __sopen                    10071295 f   libucrt:open.obj
 0001:000702d7       __sopen_dispatch           100712d7 f   libucrt:open.obj
 0001:000702e4       __sopen_nolock             100712e4 f   libucrt:open.obj
 0001:00070370       __sopen_s                  10071370 f   libucrt:open.obj
 0001:00070398       __wopen                    10071398 f   libucrt:open.obj
 0001:000703b6       __wsopen                   100713b6 f   libucrt:open.obj
 0001:000703f8       __wsopen_dispatch          100713f8 f   libucrt:open.obj
 0001:00070405       __wsopen_nolock            10071405 f   libucrt:open.obj
 0001:000707fc       __wsopen_s                 100717fc f   libucrt:open.obj
 0001:00070824       ___p__commode              10071824 f   libucrt:ncommode.obj
 0001:0007082a       ___acrt_stdio_allocate_buffer_nolock 1007182a f   libucrt:_getbuf.obj
 0001:000709a6       __putwch                   100719a6 f   libucrt:putwch.obj
 0001:000709e0       __putwch_nolock            100719e0 f   libucrt:putwch.obj
 0001:00070a21       _nextafter                 10071a21 f   libucrt:nextafter.obj
 0001:00070c55       __mbstowcs_l               10071c55 f   libucrt:mbstowcs.obj
 0001:00070c62       __mbstowcs_s_l             10071c62 f   libucrt:mbstowcs.obj
 0001:00070d7c       _mbstowcs                  10071d7c f   libucrt:mbstowcs.obj
 0001:00070db0       _mbstowcs_s                10071db0 f   libucrt:mbstowcs.obj
 0001:00070dd8       ___acrt_OutputDebugStringA@4 10071dd8 f   libucrt:outputdebugstringa.obj
 0001:00070e65       ___acrt_GetStringTypeW     10071e65 f   libucrt:getstringtypew.obj
 0001:00070e84       ??$__acrt_fenv_shift_bits@W4__acrt_fenv_abstract_control@@@@YA?AW4__acrt_fenv_abstract_control@@W40@0I@Z 10071e84 f i libucrt:_fenvutils.obj
 0001:00070e9a       ??$__acrt_fenv_shift_bits@W4__acrt_fenv_abstract_status@@@@YA?AW4__acrt_fenv_abstract_status@@W40@0I@Z 10071e9a f i libucrt:_fenvutils.obj
 0001:00070eb0       ??$__acrt_fenv_translate_bit@W4__acrt_fenv_abstract_control@@W4__acrt_fenv_machine_sse_control@@@@YA?AW4__acrt_fenv_abstract_control@@W4__acrt_fenv_machine_sse_control@@0W40@1@Z 10071eb0 f i libucrt:_fenvutils.obj
 0001:00070ece       ??$__acrt_fenv_translate_bit@W4__acrt_fenv_abstract_control@@W4__acrt_fenv_machine_x87_control@@@@YA?AW4__acrt_fenv_abstract_control@@W4__acrt_fenv_machine_x87_control@@0W40@1@Z 10071ece f i libucrt:_fenvutils.obj
 0001:00070eec       ??$__acrt_fenv_translate_bit@W4__acrt_fenv_abstract_status@@W4__acrt_fenv_machine_sse_status@@@@YA?AW4__acrt_fenv_abstract_status@@W4__acrt_fenv_machine_sse_status@@0W40@1@Z 10071eec f i libucrt:_fenvutils.obj
 0001:00070f06       ??$__acrt_fenv_translate_bit@W4__acrt_fenv_abstract_status@@W4__acrt_fenv_machine_x87_status@@@@YA?AW4__acrt_fenv_abstract_status@@W4__acrt_fenv_machine_x87_status@@0W40@1@Z 10071f06 f i libucrt:_fenvutils.obj
 0001:00070f20       ??$__acrt_fenv_translate_bit@W4__acrt_fenv_machine_sse_control@@W4__acrt_fenv_abstract_control@@@@YA?AW4__acrt_fenv_machine_sse_control@@W4__acrt_fenv_abstract_control@@0W40@1@Z 10071f20 f i libucrt:_fenvutils.obj
 0001:00070f3c       ??$__acrt_fenv_translate_bit@W4__acrt_fenv_machine_sse_status@@W4__acrt_fenv_abstract_status@@@@YA?AW4__acrt_fenv_machine_sse_status@@W4__acrt_fenv_abstract_status@@0W40@1@Z 10071f3c f i libucrt:_fenvutils.obj
 0001:00070f56       ??$__acrt_fenv_translate_bit@W4__acrt_fenv_machine_x87_control@@W4__acrt_fenv_abstract_control@@@@YA?AW4__acrt_fenv_machine_x87_control@@W4__acrt_fenv_abstract_control@@0W40@1@Z 10071f56 f i libucrt:_fenvutils.obj
 0001:00070f72       ??$__acrt_fenv_translate_bit@W4__acrt_fenv_machine_x87_status@@W4__acrt_fenv_abstract_status@@@@YA?AW4__acrt_fenv_machine_x87_status@@W4__acrt_fenv_abstract_status@@0W40@1@Z 10071f72 f i libucrt:_fenvutils.obj
 0001:00070f8c       ??$__acrt_fenv_unshift_bits@W4__acrt_fenv_abstract_control@@@@YA?AW4__acrt_fenv_abstract_control@@W40@0I@Z 10071f8c f i libucrt:_fenvutils.obj
 0001:00070fa2       ??$__acrt_fenv_unshift_bits@W4__acrt_fenv_abstract_status@@@@YA?AW4__acrt_fenv_abstract_status@@W40@0I@Z 10071fa2 f i libucrt:_fenvutils.obj
 0001:000715cd       ??I@YA?AW4__acrt_fenv_abstract_control@@W40@0@Z 100725cd f i libucrt:_fenvutils.obj
 0001:000715dd       ??I@YA?AW4__acrt_fenv_abstract_status@@W40@0@Z 100725dd f i libucrt:_fenvutils.obj
 0001:000715ed       ??I@YA?AW4__acrt_fenv_machine_sse_control@@W40@0@Z 100725ed f i libucrt:_fenvutils.obj
 0001:000715fd       ??I@YA?AW4__acrt_fenv_machine_sse_status@@W40@0@Z 100725fd f i libucrt:_fenvutils.obj
 0001:0007160d       ??I@YA?AW4__acrt_fenv_machine_x87_control@@W40@0@Z 1007260d f i libucrt:_fenvutils.obj
 0001:0007161d       ??I@YA?AW4__acrt_fenv_machine_x87_status@@W40@0@Z 1007261d f i libucrt:_fenvutils.obj
 0001:0007162d       ??U@YA?AW4__acrt_fenv_abstract_control@@W40@0@Z 1007262d f i libucrt:_fenvutils.obj
 0001:0007163d       ??U@YA?AW4__acrt_fenv_abstract_status@@W40@0@Z 1007263d f i libucrt:_fenvutils.obj
 0001:0007164d       ??U@YA?AW4__acrt_fenv_machine_sse_control@@W40@0@Z 1007264d f i libucrt:_fenvutils.obj
 0001:0007165d       ??U@YA?AW4__acrt_fenv_machine_x87_control@@W40@0@Z 1007265d f i libucrt:_fenvutils.obj
 0001:0007166d       ??_5@YAAAW4__acrt_fenv_abstract_control@@AAW40@W40@@Z 1007266d f i libucrt:_fenvutils.obj
 0001:0007167f       ??_5@YAAAW4__acrt_fenv_abstract_status@@AAW40@W40@@Z 1007267f f i libucrt:_fenvutils.obj
 0001:00071691       ??_5@YAAAW4__acrt_fenv_machine_sse_control@@AAW40@W40@@Z 10072691 f i libucrt:_fenvutils.obj
 0001:000716a6       ??_5@YAAAW4__acrt_fenv_machine_sse_status@@AAW40@W40@@Z 100726a6 f i libucrt:_fenvutils.obj
 0001:000716b8       ??_5@YAAAW4__acrt_fenv_machine_x87_control@@AAW40@W40@@Z 100726b8 f i libucrt:_fenvutils.obj
 0001:000716cd       ??_5@YAAAW4__acrt_fenv_machine_x87_status@@AAW40@W40@@Z 100726cd f i libucrt:_fenvutils.obj
 0001:000716df       ?__acrt_fenv_shift_abstract_sse_control@@YA?AW4__acrt_fenv_abstract_control@@W41@@Z 100726df f i libucrt:_fenvutils.obj
 0001:00071703       ?__acrt_fenv_shift_abstract_sse_status@@YA?AW4__acrt_fenv_abstract_status@@W41@@Z 10072703 f i libucrt:_fenvutils.obj
 0001:00071717       ?__acrt_fenv_shift_abstract_x87_control@@YA?AW4__acrt_fenv_abstract_control@@W41@@Z 10072717 f i libucrt:_fenvutils.obj
 0001:0007173b       ?__acrt_fenv_shift_abstract_x87_status@@YA?AW4__acrt_fenv_abstract_status@@W41@@Z 1007273b f i libucrt:_fenvutils.obj
 0001:0007174f       ?__acrt_fenv_unshift_abstract_sse_control@@YA?AW4__acrt_fenv_abstract_control@@W41@@Z 1007274f f i libucrt:_fenvutils.obj
 0001:00071775       ?__acrt_fenv_unshift_abstract_sse_status@@YA?AW4__acrt_fenv_abstract_status@@W41@@Z 10072775 f i libucrt:_fenvutils.obj
 0001:00071789       ?__acrt_fenv_unshift_abstract_x87_control@@YA?AW4__acrt_fenv_abstract_control@@W41@@Z 10072789 f i libucrt:_fenvutils.obj
 0001:000717af       ?__acrt_fenv_unshift_abstract_x87_status@@YA?AW4__acrt_fenv_abstract_status@@W41@@Z 100727af f i libucrt:_fenvutils.obj
 0001:00071e66       ___acrt_fenv_expand_round_control 10072e66 f   libucrt:_fenvutils.obj
 0001:00071ea9       ___acrt_fenv_get_common_round_control 10072ea9 f   libucrt:_fenvutils.obj
 0001:00071ed3       ___acrt_fenv_get_control   10072ed3 f   libucrt:_fenvutils.obj
 0001:00071f75       ___acrt_fenv_get_fp_status_word_from_exception_mask 10072f75 f   libucrt:_fenvutils.obj
 0001:00071f95       ___acrt_fenv_get_status    10072f95 f   libucrt:_fenvutils.obj
 0001:00072087       ___acrt_fenv_set_control   10073087 f   libucrt:_fenvutils.obj
 0001:0007210b       ___acrt_fenv_set_status    1007310b f   libucrt:_fenvutils.obj
 0001:00072360       _qsort                     10073360 f   libucrt:qsort.obj
 0001:00072991       _strncpy_s                 10073991 f   libucrt:strncpy_s.obj
 0001:000729a0       _strpbrk                   100739a0 f   libucrt:strpbrk.obj
 0001:000729f0       ??$__acrt_convert_wcs_mbs@D_W$$A6AIPA_WPBDIPAU__crt_locale_pointers@@@ZU__crt_win32_buffer_internal_dynamic_resizing@@@@YAHQBDAAV?$__crt_win32_buffer@_WU__crt_win32_buffer_internal_dynamic_resizing@@@@A6AIPA_WPBDIPAU__crt_locale_pointers@@@Z4@Z 100739f0 f i libucrt:findfirstfileexa.obj
 0001:00072ab9       ??$__acrt_mbs_to_wcs@U__crt_win32_buffer_internal_dynamic_resizing@@@@YAHQBDAAV?$__crt_win32_buffer@_WU__crt_win32_buffer_internal_dynamic_resizing@@@@PAU__crt_locale_pointers@@@Z 10073ab9 f i libucrt:findfirstfileexa.obj
 0001:00072add       ?set_to_nullptr@?$__crt_win32_buffer@_WU__crt_win32_buffer_internal_dynamic_resizing@@@@QAEXXZ 10073add f i libucrt:findfirstfileexa.obj
 0001:00072af9       ___acrt_FindFirstFileExA   10073af9 f   libucrt:findfirstfileexa.obj
 0001:00072b78       ??$?0$0BAE@@?$__crt_win32_buffer@DU__crt_win32_buffer_no_resizing@@@@QAE@AAY0BAE@D@Z 10073b78 f i libucrt:findnextfilea.obj
 0001:00072ba7       ??$?0$0O@@?$__crt_win32_buffer@DU__crt_win32_buffer_no_resizing@@@@QAE@AAY0O@D@Z 10073ba7 f i libucrt:findnextfilea.obj
 0001:00072bd4       ??$__acrt_convert_wcs_mbs@_WD$$A6AIPADPB_WIPAU__crt_locale_pointers@@@ZU__crt_win32_buffer_no_resizing@@@@YAHQB_WAAV?$__crt_win32_buffer@DU__crt_win32_buffer_no_resizing@@@@A6AIPADPB_WIPAU__crt_locale_pointers@@@Z4@Z 10073bd4 f i libucrt:findnextfilea.obj
 0001:00072c9e       ??$__acrt_wcs_to_mbs@U__crt_win32_buffer_no_resizing@@@@YAHQB_WAAV?$__crt_win32_buffer@DU__crt_win32_buffer_no_resizing@@@@PAU__crt_locale_pointers@@@Z 10073c9e f i libucrt:findnextfilea.obj
 0001:00072cc2       ??1?$__crt_win32_buffer@DU__crt_win32_buffer_no_resizing@@@@QAE@XZ 10073cc2 f i libucrt:findnextfilea.obj
 0001:00072ccf       ?_deallocate@?$__crt_win32_buffer@DU__crt_win32_buffer_no_resizing@@@@AAEXXZ 10073ccf f i libucrt:findnextfilea.obj
 0001:00072cdc       ?allocate@?$__crt_win32_buffer@DU__crt_win32_buffer_no_resizing@@@@QAEHI@Z 10073cdc f i libucrt:findnextfilea.obj
 0001:00072d0c       ?allocate@__crt_win32_buffer_no_resizing@@SAHQAPAXIABV__crt_win32_buffer_empty_debug_info@@@Z 10073d0c f i libucrt:findnextfilea.obj
 0001:00072d1c       ?capacity@?$__crt_win32_buffer@DU__crt_win32_buffer_no_resizing@@@@QBEIXZ 10073d1c f i libucrt:findnextfilea.obj
 0001:00072d20       ?data@?$__crt_win32_buffer@DU__crt_win32_buffer_no_resizing@@@@QAEPADXZ 10073d20 f i libucrt:findnextfilea.obj
 0001:00072d24       ?deallocate@__crt_win32_buffer_no_resizing@@SAXQAXABV__crt_win32_buffer_empty_debug_info@@@Z 10073d24 f i libucrt:findnextfilea.obj
 0001:00072d25       ?debug_info@?$__crt_win32_buffer@DU__crt_win32_buffer_no_resizing@@@@QBEABV__crt_win32_buffer_empty_debug_info@@XZ 10073d25 f i libucrt:findnextfilea.obj
 0001:00072d28       ?set_to_nullptr@?$__crt_win32_buffer@DU__crt_win32_buffer_no_resizing@@@@QAEXXZ 10073d28 f i libucrt:findnextfilea.obj
 0001:00072d41       ?size@?$__crt_win32_buffer@DU__crt_win32_buffer_no_resizing@@@@QAEXI@Z 10073d41 f i libucrt:findnextfilea.obj
 0001:00072d53       ___acrt_FindNextFileA      10073d53 f   libucrt:findnextfilea.obj
 0001:00072ee4       __mbsdec                   10073ee4 f   libucrt:mbsdec.obj
 0001:00072f00       __mbsdec_l                 10073f00 f   libucrt:mbsdec.obj
 0001:00072fc4       __wcsnicoll                10073fc4 f   libucrt:wcsnicol.obj
 0001:000730bc       __wcsnicoll_l              100740bc f   libucrt:wcsnicol.obj
 0001:00073221       __strnicoll                10074221 f   libucrt:strnicol.obj
 0001:00073254       __strnicoll_l              10074254 f   libucrt:strnicol.obj
 0001:00073350       ___acrt_SetEnvironmentVariableA 10074350 f   libucrt:setenvironmentvariablea.obj
 0001:0007341f       __msize                    1007441f f   libucrt:msize.obj
 0001:0007342c       __msize_base               1007442c f   libucrt:msize.obj
 0001:0007346b       ___strncnt                 1007446b f   libucrt:strncnt.obj
 0001:0007348e       ?__mbrtoc32_utf8@__crt_mbstring@@YAIPA_UPBDIPAU_Mbstatet@@@Z 1007448e f   libucrt:mbrtoc32.obj
 0001:000736af       ?reset_and_return@__crt_mbstring@@YAIIPAU_Mbstatet@@@Z 100746af f i libucrt:mbrtoc32.obj
 0001:000736c8       ?return_illegal_sequence@__crt_mbstring@@YAIPAU_Mbstatet@@@Z 100746c8 f i libucrt:mbrtoc32.obj
 0001:000736ee       _mbrtoc32                  100746ee f   libucrt:mbrtoc32.obj
 0001:00073814       ___acrt_GetLocaleInfoA     10074814 f   libucrt:getlocaleinfoa.obj
 0001:00073a32       _fegetenv                  10074a32 f   libucrt:fegetenv.obj
 0001:00073a56       _fesetenv                  10074a56 f   libucrt:fesetenv.obj
 0001:00073ab6       _feholdexcept              10074ab6 f   libucrt:feholdexcept.obj
 0001:00073b20       __CIlog10                  10074b20 f   libucrt:log10_impl.obj
 0001:00073b5b       __CIlog10_default          10074b5b f   libucrt:log10_impl.obj
 0001:00073b6f       __log10_default            10074b6f     libucrt:log10_impl.obj
 0001:00073c80       _ceil                      10074c80 f   libucrt:ceil_pentium4.obj
 0001:00073cc0       __ceil_pentium4            10074cc0 f   libucrt:ceil_pentium4.obj
 0001:00073de4       __towlower_l               10074de4 f   libucrt:towlower.obj
 0001:00073edf       _towlower                  10074edf f   libucrt:towlower.obj
 0001:00073f00       ___ascii_strnicmp          10074f00 f   libucrt:_strnicm.obj
 0001:00073f79       ??$__crt_interlocked_read@H@@YAHPDH@Z 10074f79 f i libucrt:setmode.obj
 0001:00073f88       ?value@?$dual_state_global@H@__crt_state_management@@QAEAAHXZ 10074f88 f i libucrt:setmode.obj
 0001:00073f8b       __get_fmode                10074f8b f   libucrt:setmode.obj
 0001:00073fc2       __set_fmode                10074fc2 f   libucrt:setmode.obj
 0001:0007400e       __setmode                  1007500e f   libucrt:setmode.obj
 0001:00074156       __setmode_nolock           10075156 f   libucrt:setmode.obj
 0001:000743e7       __chsize                   100753e7 f   libucrt:chsize.obj
 0001:0007440a       __chsize_nolock            1007540a f   libucrt:chsize.obj
 0001:000745ff       __chsize_s                 100755ff f   libucrt:chsize.obj
 0001:000746d7       __umask                    100756d7 f   libucrt:umask.obj
 0001:00074705       __umask_s                  10075705 f   libucrt:umask.obj
 0001:00074828       ___dcrt_lowio_ensure_console_output_initialized 10075828 f   libucrt:initcon.obj
 0001:0007484e       ___dcrt_terminate_console_output 1007584e f   libucrt:initcon.obj
 0001:0007486a       ___dcrt_write_console      1007586a f   libucrt:initcon.obj
 0001:000748d4       _nexttoward                100758d4 f   libucrt:nexttoward.obj
 0001:00074e1c       __wcstombs_l               10075e1c f   libucrt:wcstombs.obj
 0001:00074e29       __wcstombs_s_l             10075e29 f   libucrt:wcstombs.obj
 0001:00074f29       _wcstombs                  10075f29 f   libucrt:wcstombs.obj
 0001:00074f49       _wcstombs_s                10075f49 f   libucrt:wcstombs.obj
 0001:00074f71       ___acrt_CompareStringW     10075f71 f   libucrt:comparestringw.obj
 0001:00075308       ___acrt_CompareStringA     10076308 f   libucrt:comparestringa.obj
 0001:000754f7       ___control87_2             100764f7 f   libucrt:ieee87.obj
 0001:00075ac3       ___fpreset_sse2            10076ac3 f   libucrt:ieee87.obj
 0001:00075d0c       __clearfp                  10076d0c f   libucrt:ieee87.obj
 0001:00075e24       __control87                10076e24 f   libucrt:ieee87.obj
 0001:000761e2       __controlfp                100771e2 f   libucrt:ieee87.obj
 0001:00076202       __fpreset                  10077202 f   libucrt:ieee87.obj
 0001:00076305       __set_controlfp            10077305 f   libucrt:ieee87.obj
 0001:0007639b       __statusfp                 1007739b f   libucrt:ieee87.obj
 0001:0007645f       __statusfp2                1007745f f   libucrt:ieee87.obj
 0001:000764dd       ___acrt_initialize_sse2    100774dd f   libucrt:mathfcns.obj
 0001:000764f1       __set_SSE2_enable          100774f1 f   libucrt:mathfcns.obj
 0001:00076520       __CIlog10_pentium4         10077520 f   libucrt:log10_pentium4.obj
 0001:00076538       __log10_pentium4           10077538     libucrt:log10_pentium4.obj
 0001:00076880       __fFEXP                    10077880 f   libucrt:87tran.obj
 0001:000768d7       __rtinfpopse               100778d7     libucrt:87tran.obj
 0001:000768d9       __rtinfnpopse              100778d9     libucrt:87tran.obj
 0001:000768e9       __fFLN                     100778e9     libucrt:87tran.obj
 0001:0007699e       __rtinfpop                 1007799e     libucrt:87tran.obj
 0001:000769a0       __rtinfnpop                100779a0     libucrt:87tran.obj
 0001:000769b0       __rtforexpinf              100779b0 f   libucrt:87tran.obj
 0001:000769bd       __ffexpm1                  100779bd     libucrt:87tran.obj
 0001:00076af0       __trandisp1                10077af0 f   libucrt:87disp.obj
 0001:00076b65       __trandisp2                10077b65 f   libucrt:87disp.obj
 0001:00076bff       __rttospopde               10077bff     libucrt:87disp.obj
 0001:00076c04       __rttospop                 10077c04     libucrt:87disp.obj
 0001:00076c10       __rtnospop                 10077c10 f   libucrt:87disp.obj
 0001:00076c20       __rttosnpop                10077c20 f   libucrt:87disp.obj
 0001:00076c21       __rtnospopde               10077c21     libucrt:87disp.obj
 0001:00076c28       __rtzeropop                10077c28     libucrt:87disp.obj
 0001:00076c2a       __rtzeronpop               10077c2a     libucrt:87disp.obj
 0001:00076c30       __rtzerospop               10077c30 f   libucrt:87disp.obj
 0001:00076c3d       __rtonepop                 10077c3d     libucrt:87disp.obj
 0001:00076c40       __rtonenpop                10077c40 f   libucrt:87disp.obj
 0001:00076c50       __tosnan1                  10077c50 f   libucrt:87disp.obj
 0001:00076c80       __nosnan2                  10077c80 f   libucrt:87disp.obj
 0001:00076c90       __tosnan2                  10077c90 f   libucrt:87disp.obj
 0001:00076cc0       __nan2                     10077cc0 f   libucrt:87disp.obj
 0001:00076d00       __rtindfpop                10077d00 f   libucrt:87disp.obj
 0001:00076d02       __rtindfnpop               10077d02     libucrt:87disp.obj
 0001:00076d13       __rttosnpopde              10077d13     libucrt:87disp.obj
 0001:00076d20       __rtatan2inf               10077d20 f   libucrt:87disp.obj
 0001:00076d3d       __rtchsifneg               10077d3d     libucrt:87disp.obj
 0001:00076dd9       ___setfflag                10077dd9 f   libucrt:fp_flags.obj
 0001:00076e00       __twoToTOS                 10077e00 f   libucrt:common.obj
 0001:00076e15       __load_CW                  10077e15 f   libucrt:common.obj
 0001:00076e2c       __convertTOStoQNaN         10077e2c f   libucrt:common.obj
 0001:00076e45       __fload_withFB             10077e45 f   libucrt:common.obj
 0001:00076e88       __checkTOS_withFB          10077e88 f   libucrt:common.obj
 0001:00076e9e       __fast_exit                10077e9e f   libucrt:common.obj
 0001:00076eab       __math_exit                10077eab f   libucrt:common.obj
 0001:00076ed5       __check_overflow_exit      10077ed5 f   libucrt:common.obj
 0001:00076ee9       __check_range_exit         10077ee9 f   libucrt:common.obj
 0001:00076ff0       __startTwoArgErrorHandling 10077ff0 f   libucrt:genexcep.obj
 0001:00077007       __startOneArgErrorHandling 10078007 f   libucrt:genexcep.obj
 0001:00077057       ___libm_error_support      10078057 f   libucrt:libm_error.obj
 0001:000772f5       ___libm_setusermatherr     100782f5 f   libucrt:libm_error.obj
 0001:00077325       __ceil_default             10078325 f   libucrt:ceil.obj
 0001:0007740c       ___acrt_LCMapStringW       1007840c f   libucrt:lcmapstringw.obj
 0001:00077459       ___p__fmode                10078459 f   libucrt:txtmode.obj
 0001:000774f5       __d_int                    100784f5 f   libucrt:_test.obj
 0001:0007763f       __dtest                    1007863f f   libucrt:_test.obj
 0001:000776bc       __fd_int                   100786bc f   libucrt:_test.obj
 0001:000777be       __fdtest                   100787be f   libucrt:_test.obj
 0001:0007781f       __fperrraise               1007881f f   libucrt:_test.obj
 0001:0007784a       __ld_int                   1007884a f   libucrt:_test.obj
 0001:00077857       __ldtest                   10078857 f   libucrt:_test.obj
 0001:00077864       ?__wcsrtombs_utf8@__crt_mbstring@@YAIPADPAPB_WIPAU_Mbstatet@@@Z 10078864 f   libucrt:wcrtomb.obj
 0001:00077d0e       _wcrtomb                   10078d0e f   libucrt:wcrtomb.obj
 0001:00077d4b       _wcrtomb_s                 10078d4b f   libucrt:wcrtomb.obj
 0001:00077de2       _wcsrtombs                 10078de2 f   libucrt:wcrtomb.obj
 0001:00077def       _wcsrtombs_s               10078def f   libucrt:wcrtomb.obj
 0001:00077eae       _wctob                     10078eae f   libucrt:wcrtomb.obj
 0001:00077f22       __controlfp_s              10078f22 f   libucrt:contrlfp.obj
 0001:00077f98       __d_inttype                10078f98 f   libucrt:powhlp.obj
 0001:0007801c       __powhlp                   1007901c f   libucrt:powhlp.obj
 0001:00078191       __87except                 10079191 f   libucrt:87except.obj
 0001:000782dd       __frnd                     100792dd f   libucrt:frnd.obj
 0001:000782f8       ??_4@YAAAW4__acrt_fenv_abstract_status@@AAW40@W40@@Z 100792f8 f i libucrt:fegetexceptflag.obj
 0001:0007830a       _fegetexceptflag           1007930a f   libucrt:fegetexceptflag.obj
 0001:00078347       ??S@YA?AW4__acrt_fenv_abstract_status@@W40@@Z 10079347 f i libucrt:fesetexceptflag.obj
 0001:00078356       _fesetexceptflag           10079356 f   libucrt:fesetexceptflag.obj
 0001:000783c5       ?__c16rtomb_utf8@__crt_mbstring@@YAIPAD_SPAU_Mbstatet@@@Z 100793c5 f   libucrt:c16rtomb.obj
 0001:0007851d       _c16rtomb                  1007951d f   libucrt:c16rtomb.obj
 0001:0007852a       _fetestexcept              1007952a f   libucrt:fetestexcept.obj
 0001:00078554       ?__c32rtomb_utf8@__crt_mbstring@@YAIPAD_UPAU_Mbstatet@@@Z 10079554 f   libucrt:c32rtomb.obj
 0001:0007862e       _c32rtomb                  1007962e f   libucrt:c32rtomb.obj
 0001:00078640       __FindPESection            10079640 f   LIBCMT:pesect.obj
 0001:000786a0       __IsNonwritableInCurrentImage 100796a0 f   LIBCMT:pesect.obj
 0001:00078790       __ValidateImageBase        10079790 f   LIBCMT:pesect.obj
 0001:000787cf       __EH_epilog3               100797cf f   LIBCMT:ehprolg3.obj
 0001:000787e9       __EH_epilog3_GS            100797e9 f   LIBCMT:ehprolg3.obj
 0001:000787fe       __EH_epilog3_catch_GS      100797fe f   LIBCMT:ehprolg3.obj
 0001:00078813       __EH_prolog3               10079813 f   LIBCMT:ehprolg3.obj
 0001:00078854       __EH_prolog3_GS            10079854 f   LIBCMT:ehprolg3.obj
 0001:00078898       __EH_prolog3_catch         10079898 f   LIBCMT:ehprolg3.obj
 0001:000788dc       __EH_prolog3_catch_GS      100798dc f   LIBCMT:ehprolg3.obj
 0001:00078930       __aulldvrm                 10079930 f   LIBCMT:ulldvrm.obj
 0001:000789ea       ??1type_info@@UAE@XZ       100799ea f   LIBCMT:std_type_info_static.obj
 0001:000789f1       ??_Etype_info@@UAEPAXI@Z   100799f1 f i LIBCMT:std_type_info_static.obj
 0001:000789f1       ??_Gtype_info@@UAEPAXI@Z   100799f1 f i LIBCMT:std_type_info_static.obj
 0001:00078a1c       ??3@YAXPAXI@Z              10079a1c f   LIBCMT:delete_scalar_size.obj
 0001:00078a30       __SEH_prolog4_GS           10079a30 f   LIBCMT:sehprolg4gs.obj
 0001:00078a79       __SEH_epilog4_GS           10079a79 f   LIBCMT:sehprolg4gs.obj
 0001:00078aa0       __allmul                   10079aa0 f   LIBCMT:llmul.obj
 0001:00078af0       __allshl                   10079af0 f   LIBCMT:llshl.obj
 0001:00078b20       __aullshr                  10079b20 f   LIBCMT:ullshr.obj
 0001:00078b50       __alldvrm                  10079b50 f   LIBCMT:lldvrm.obj
 0001:00078c70       __chkstk                   10079c70 f   LIBCMT:chkstk.obj
 0001:00078c70       __alloca_probe             10079c70 f   LIBCMT:chkstk.obj
 0001:00078cb0       __alloca_probe_16          10079cb0 f   LIBCMT:alloca16.obj
 0001:00078cc6       __alloca_probe_8           10079cc6     LIBCMT:alloca16.obj
 0001:00078cf0       __ftol2_sse                10079cf0 f   LIBCMT:ftol2.obj
 0001:00078cf9       __ftol2_pentium4           10079cf9 f   LIBCMT:ftol2.obj
 0001:00078d0c       __ftol2_sse_excpt          10079d0c f   LIBCMT:ftol2.obj
 0001:00078d30       __ftol2                    10079d30 f   LIBCMT:ftol2.obj
 0001:00078dd2       __initialize_default_precision 10079dd2 f   LIBCMT:default_precision.obj
 0001:00078dfb       ??3@YAXPAX@Z               10079dfb f   LIBCMT:delete_scalar.obj
 0001:00078e00       _InterlockedPushEntrySList@8 10079e00 f   kernel32:KERNEL32.dll
 0001:00078e06       _InterlockedFlushSList@4   10079e06 f   kernel32:KERNEL32.dll
 0001:00078e0c       _RtlUnwind@16              10079e0c f   kernel32:KERNEL32.dll
 0001:00078e12       _GetLastError@0            10079e12 f   kernel32:KERNEL32.dll
 0001:00078e18       _SetLastError@4            10079e18 f   kernel32:KERNEL32.dll
 0001:00078e1e       _EnterCriticalSection@4    10079e1e f   kernel32:KERNEL32.dll
 0001:00078e24       _LeaveCriticalSection@4    10079e24 f   kernel32:KERNEL32.dll
 0001:00078e2a       _DeleteCriticalSection@4   10079e2a f   kernel32:KERNEL32.dll
 0001:00078e30       _InitializeCriticalSectionAndSpinCount@8 10079e30 f   kernel32:KERNEL32.dll
 0001:00078e36       _TlsAlloc@0                10079e36 f   kernel32:KERNEL32.dll
 0001:00078e3c       _TlsGetValue@4             10079e3c f   kernel32:KERNEL32.dll
 0001:00078e42       _TlsSetValue@8             10079e42 f   kernel32:KERNEL32.dll
 0001:00078e48       _TlsFree@4                 10079e48 f   kernel32:KERNEL32.dll
 0001:00078e4e       _FreeLibrary@4             10079e4e f   kernel32:KERNEL32.dll
 0001:00078e54       _LoadLibraryExW@12         10079e54 f   kernel32:KERNEL32.dll
 0001:00078e5a       _EncodePointer@4           10079e5a f   kernel32:KERNEL32.dll
 0001:00078e60       _RaiseException@16         10079e60 f   kernel32:KERNEL32.dll
 0001:00078e66       _ExitProcess@4             10079e66 f   kernel32:KERNEL32.dll
 0001:00078e6c       _GetModuleHandleExW@12     10079e6c f   kernel32:KERNEL32.dll
 0001:00078e72       _GetStdHandle@4            10079e72 f   kernel32:KERNEL32.dll
 0001:00078e78       _GetFileType@4             10079e78 f   kernel32:KERNEL32.dll
 0001:00078e7e       _GetModuleFileNameW@12     10079e7e f   kernel32:KERNEL32.dll
 0001:00078e84       _WriteConsoleW@20          10079e84 f   kernel32:KERNEL32.dll
 0001:00078e8a       _HeapAlloc@12              10079e8a f   kernel32:KERNEL32.dll
 0001:00078e90       _HeapFree@12               10079e90 f   kernel32:KERNEL32.dll
 0001:00078e96       _GetDateFormatW@24         10079e96 f   kernel32:KERNEL32.dll
 0001:00078e9c       _GetTimeFormatW@24         10079e9c f   kernel32:KERNEL32.dll
 0001:00078ea2       _CompareStringW@24         10079ea2 f   kernel32:KERNEL32.dll
 0001:00078ea8       _LCMapStringW@24           10079ea8 f   kernel32:KERNEL32.dll
 0001:00078eae       _GetLocaleInfoW@16         10079eae f   kernel32:KERNEL32.dll
 0001:00078eb4       _IsValidLocale@8           10079eb4 f   kernel32:KERNEL32.dll
 0001:00078eba       _GetUserDefaultLCID@0      10079eba f   kernel32:KERNEL32.dll
 0001:00078ec0       _EnumSystemLocalesW@8      10079ec0 f   kernel32:KERNEL32.dll
 0001:00078ec6       _GetCurrentThread@0        10079ec6 f   kernel32:KERNEL32.dll
 0001:00078ecc       _HeapReAlloc@16            10079ecc f   kernel32:KERNEL32.dll
 0001:00078ed2       _CloseHandle@4             10079ed2 f   kernel32:KERNEL32.dll
 0001:00078ed8       _ReadFile@20               10079ed8 f   kernel32:KERNEL32.dll
 0001:00078ede       _GetConsoleMode@8          10079ede f   kernel32:KERNEL32.dll
 0001:00078ee4       _ReadConsoleW@20           10079ee4 f   kernel32:KERNEL32.dll
 0001:00078eea       _WriteFile@20              10079eea f   kernel32:KERNEL32.dll
 0001:00078ef0       _GetConsoleCP@0            10079ef0 f   kernel32:KERNEL32.dll
 0001:00078ef6       _MultiByteToWideChar@24    10079ef6 f   kernel32:KERNEL32.dll
 0001:00078efc       _DeleteFileW@4             10079efc f   kernel32:KERNEL32.dll
 0001:00078f02       _SetFilePointerEx@20       10079f02 f   kernel32:KERNEL32.dll
 0001:00078f08       _OutputDebugStringW@4      10079f08 f   kernel32:KERNEL32.dll
 0001:00078f0e       _SetConsoleCtrlHandler@8   10079f0e f   kernel32:KERNEL32.dll
 0001:00078f14       _FindClose@4               10079f14 f   kernel32:KERNEL32.dll
 0001:00078f1a       _FindFirstFileExW@24       10079f1a f   kernel32:KERNEL32.dll
 0001:00078f20       _FindNextFileW@8           10079f20 f   kernel32:KERNEL32.dll
 0001:00078f26       _IsValidCodePage@4         10079f26 f   kernel32:KERNEL32.dll
 0001:00078f2c       _GetACP@0                  10079f2c f   kernel32:KERNEL32.dll
 0001:00078f32       _GetOEMCP@0                10079f32 f   kernel32:KERNEL32.dll
 0001:00078f38       _GetCPInfo@8               10079f38 f   kernel32:KERNEL32.dll
 0001:00078f3e       _GetCommandLineA@0         10079f3e f   kernel32:KERNEL32.dll
 0001:00078f44       _GetCommandLineW@0         10079f44 f   kernel32:KERNEL32.dll
 0001:00078f4a       _WideCharToMultiByte@32    10079f4a f   kernel32:KERNEL32.dll
 0001:00078f50       _GetEnvironmentStringsW@0  10079f50 f   kernel32:KERNEL32.dll
 0001:00078f56       _FreeEnvironmentStringsW@4 10079f56 f   kernel32:KERNEL32.dll
 0001:00078f5c       _SetEnvironmentVariableW@8 10079f5c f   kernel32:KERNEL32.dll
 0001:00078f62       _GetProcessHeap@0          10079f62 f   kernel32:KERNEL32.dll
 0001:00078f68       _FlushFileBuffers@4        10079f68 f   kernel32:KERNEL32.dll
 0001:00078f6e       _SetStdHandle@8            10079f6e f   kernel32:KERNEL32.dll
 0001:00078f74       _GetStringTypeW@16         10079f74 f   kernel32:KERNEL32.dll
 0001:00078f7a       _CreateFileW@28            10079f7a f   kernel32:KERNEL32.dll
 0001:00078f80       _HeapSize@12               10079f80 f   kernel32:KERNEL32.dll
 0001:00078f86       _SetEndOfFile@4            10079f86 f   kernel32:KERNEL32.dll
 0001:00078f8c       _DecodePointer@4           10079f8c f   kernel32:KERNEL32.dll
 0001:00078fa0       _strrchr                   10079fa0 f   libvcruntime:strrchr.obj
 0001:00079255       _memcmp                    1007a255 f   libvcruntime:memcmp.obj
 0001:0007b73a       _wcschr                    1007c73a f   libvcruntime:wcschr.obj
 0002:00000000       ___xc_a                    10081000     LIBCMT:initializers.obj
 0002:00000104       ___xc_z                    10081104     LIBCMT:initializers.obj
 0002:00000208       ___xi_a                    10081208     LIBCMT:initializers.obj
 0002:0000030c       ___acrt_stdio_initializer  1008130c     libucrt:stdio_initializer.obj
 0002:00000310       ___acrt_multibyte_initializer 10081310     libucrt:multibyte_initializer.obj
 0002:00000314       ___acrt_tran_sse2_initializer 10081314     libucrt:sse2_initializer.obj
 0002:0000041c       ___xi_z                    1008141c     LIBCMT:initializers.obj
 0002:00000520       ___xp_a                    10081520     LIBCMT:initializers.obj
 0002:00000624       ___acrt_locale_terminator  10081624     libucrt:locale_initializer.obj
 0002:00000628       ___dcrt_console_output_terminator 10081628     libucrt:console_output_initializer.obj
 0002:00000730       ___acrt_stdio_terminator   10081730     libucrt:stdio_initializer.obj
 0002:00000834       ___xp_z                    10081834     LIBCMT:initializers.obj
 0002:00000938       ___xt_a                    10081938     LIBCMT:initializers.obj
 0002:00000a3c       ___xt_z                    10081a3c     LIBCMT:initializers.obj
 0002:00000b40       ??_C@_0O@LJNNLLGA@udp_comm_test@ 10081b40     xpctarget.obj
 0002:00000b50       _ptsetfilename             10081b50     xpctarget.obj
 0002:00000b54       _xmlfile                   10081b54     xpctarget.obj
 0002:00000b5c       ??_C@_03COLHFAIP@6?48@     10081b5c     xpctarget.obj
 0002:00000b60       ??_C@_01DNKMNLPK@?$HM@     10081b60     xpctarget.obj
 0002:00000b68       __real@3fb999999999999a    10081b68     xpctarget.obj
 0002:00000b78       __real@408f400000000000    10081b78     xpctarget.obj
 0002:00000b88       _udp_comm_test_BIOMAP      10081b88     appmappingData.obj
 0002:00000ce8       _udp_comm_test_LBLMAP      10081ce8     appmappingData.obj
 0002:00000e48       _udp_comm_test_SIDMAP      10081e48     appmappingData.obj
 0002:00000fa8       _udp_comm_test_SBIO        10081fa8     appmappingData.obj
 0002:00001020       _udp_comm_test_SLBL        10082020     appmappingData.obj
 0002:00001098       _udp_comm_test_PTIDSMAP    10082098     appmappingData.obj
 0002:00001228       _udp_comm_test_PTNAMESMAP  10082228     appmappingData.obj
 0002:000013b8       _udp_comm_test_SPTMAP      100823b8     appmappingData.obj
 0002:00001480       _udp_comm_test_dtmap       10082480     appmappingData.obj
 0002:000014b0       _appInfo                   100824b0     appmappingData.obj
 0002:000016e0       ??_C@_00CNPNBAHC@@         100826e0     appmappingData.obj
 0002:000016e8       __real@3cb0000000000000    100826e8     rt_matrx.obj
 0002:000016f8       __real@3fe0000000000000    100826f8     rt_matrx.obj
 0002:00001708       __real@3ff0000000000000    10082708     rt_matrx.obj
 0002:00001f78       ??_C@_0DJ@FHKINPLE@Unexpected?5itemKind?5?$DN?5DATA_ITEM@ 10082f78     rt_logging.obj
 0002:00001fbc       ??_C@_0DA@IEHFPFCJ@Unexpected?5itemKind?$DN?$CFd?5in?5rt_Pr@ 10082fbc     rt_logging.obj
 0002:00001ff8       ??_C@_0DA@IFLHJPBO@Unexpected?5itemKind?$DN?$CFd?5in?5rt_Pr@ 10082ff8     rt_logging.obj
 0002:00002034       ??_C@_0DA@IAPIIJJL@Unexpected?5itemKind?$DN?$CFd?5in?5rt_Pr@ 10083034     rt_logging.obj
 0002:00002070       ??_C@_0BE@LCIGPJIG@MATLAB?55?40?5MAT?9file@ 10083070     rt_logging.obj
 0002:00002088       ??_C@_0FB@PCJEAJIB@?$CK?$CK?$CK?5Log?5variable?5?$CFs?5has?5wrapped@ 10083088     rt_logging.obj
 0002:000020f0       ??_C@_0MG@NKMLMOGF@?$CK?$CK?$CK?5To?5avoid?5wrapping?0?5explicit@ 100830f0     rt_logging.obj
 0002:000021e0       ??_C@_0N@IPAEOLLP@_rtw_tmw?4tmw@ 100831e0     rt_logging.obj
 0002:000021f0       ??_C@_04HDOCAJNK@?$CFs?$CFs@ 100831f0     rt_logging.obj
 0002:000021f8       ??_C@_03ELIABIOC@w?$CLb@   100831f8     rt_logging.obj
 0002:000021fc       ??_C@_0BF@JPILDDFA@?$CK?$CK?$CK?5Error?5opening?5?$CFs@ 100831fc     rt_logging.obj
 0002:00002218       ??_C@_0BK@EEMDELA@unable?5to?5open?5data?5file?6@ 10083218     rt_logging.obj
 0002:00002238       ??_C@_04CGFJFPFD@none@     10083238     rt_logging.obj
 0002:00002240       ??_C@_0EE@LCGFPNON@?$CK?$CK?$CK?5Error?5creating?5signals?5stru@ 10083240     rt_logging.obj
 0002:00002294       ??_C@_0CE@NHECEDMK@?$CK?$CK?$CK?5Error?5creating?5log?5variable@ 10083294     rt_logging.obj
 0002:000022c0       ??_C@_0DB@IOCGKAGH@?$CK?$CK?$CK?5Errors?5occurred?5when?5starti@ 100832c0     rt_logging.obj
 0002:000022fc       ??_C@_0BO@BBLOGEBK@?$CK?$CK?$CK?5Memory?5allocation?5error?4?6@ 100832fc     rt_logging.obj
 0002:00002320       ??_C@_0N@LGFBAGEL@?5?$CIreal?5part?$CJ@ 10083320     rt_logging.obj
 0002:00002330       ??_C@_0KH@CGNMHNFE@?5?5?5?5varName?5?5?5?5?5?5?5?5?5?5?$DN?5?$CFs?$CFs?6?5?5?5@ 10083330     rt_logging.obj
 0002:000023f8       ??_C@_0LE@OALKKEFM@?5?5?5?5varName?5?5?5?5?5?5?5?5?5?5?$DN?5?$CFs?5?$CIcomp@ 100833f8     rt_logging.obj
 0002:000024d0       ??_C@_0KF@JDDLEOKO@?5?5?5?5varName?5?5?5?5?5?5?5?5?5?5?$DN?5?$CFs?6?5?5?5?5n@ 100834d0     rt_logging.obj
 0002:00002598       ??_C@_0DP@HPDMIOFM@?$CK?$CK?$CK?5Using?5a?5default?5buffer?5of?5s@ 10083598     rt_logging.obj
 0002:000025e8       ??_C@_0KE@JEFOLKNF@?6?$CK?$CK?$CK?5Memory?5required?5to?5log?5var@ 100835e8     rt_logging.obj
 0002:000026b0       ??_C@_0JP@DKLMHCBI@?$CK?$CK?$CK?5Details?3?6?5?5?5?5?5?5?5varName?5?5?5?5@ 100836b0     rt_logging.obj
 0002:00002770       ??_C@_0CM@CAMILBED@?$CK?$CK?$CK?5Error?5allocating?5memory?5for@ 10083770     rt_logging.obj
 0002:000027a4       ??_C@_0DF@BBCNMOPM@?$CK?$CK?$CK?5Error?5allocating?5memory?5for@ 100837a4     rt_logging.obj
 0002:000027e8       ??_C@_0JP@DBCLPCCI@?$CK?$CK?$CK?5Details?3?6?5?5?5?5?5?5?5varName?5?5?5?5@ 100837e8     rt_logging.obj
 0002:000028a8       ??_C@_0FK@DPGAOBGA@?$CK?$CK?$CK?5Error?5allocating?5memory?5for@ 100838a8     rt_logging.obj
 0002:00002914       ??_C@_0BI@GGDNPHLJ@?$CK?$CK?$CK?5Error?5writing?5to?5?$CFs@ 10083914     rt_logging.obj
 0002:00002930       ??_C@_0CB@IBGJGELG@?$CK?$CK?$CK?5Error?5writing?5?$CFs?5due?5to?3?5?$CFs@ 10083930     rt_logging.obj
 0002:00002958       ??_C@_0CN@FLMCHCPB@?$CK?$CK?$CK?5Error?5writing?5log?5variable?5@ 10083958     rt_logging.obj
 0002:00002990       ??_C@_0DH@GAJCNOJP@?$CK?$CK?$CK?5Error?5writing?5structure?5log@ 10083990     rt_logging.obj
 0002:000029d4       ??_C@_0BD@POEALECL@?$CK?$CK?5created?5?$CFs?5?$CK?$CK?6?6@ 100839d4     rt_logging.obj
 0002:000029f0       __real@4020000000000000    100839f0     rt_logging.obj
 0002:00002a00       __real@41dfffffffc00000    10083a00     rt_logging.obj
 0002:00002a10       __real@41efffffffe00000    10083a10     rt_logging.obj
 0002:00002a20       __real@4330000000000000    10083a20     rt_logging.obj
 0002:00002a30       __real@8000000000000000    10083a30     rt_logging.obj
 0002:00002a40       __real@bfbf9add3afd2773    10083a40     rt_logging.obj
 0002:00002a50       __real@bff0000000000000    10083a50     rt_logging.obj
 0002:00002a60       __real@c000000000000000    10083a60     rt_logging.obj
 0002:00002a70       __xmm@20202020202020202020202020202020 10083a70     rt_logging.obj
 0002:00002a90       __xmm@41f00000000000000000000000000000 10083a90     rt_logging.obj
 0002:00002aa4       _udp_comm_test_M           10083aa4     udp_comm_test.obj
 0002:00002aa8       ??_C@_0BC@OJJPBDHH@FixedStepDiscrete@ 10083aa8     udp_comm_test.obj
 0002:00002ac0       ??_C@_04EPKDLPPB@tout@     10083ac0     udp_comm_test.obj
 0002:00002ac8       ??_C@_03HBFGMJOD@rt_@      10083ac8     udp_comm_test.obj
 0002:00002acc       ??_C@_0O@IGJILCBD@UDP?5Configure@ 10083acc     udp_comm_test.obj
 0002:00002adc       ??_C@_0BM@FOEDEFJO@udp_comm_test?1UDP?5Configure@ 10083adc     udp_comm_test.obj
 0002:00002b00       ??_C@_0P@OIHMDNGO@ASCII?5Encode?52@ 10083b00     udp_comm_test.obj
 0002:00002b14       ??_C@_0BN@HLKNBJAE@udp_comm_test?1ASCII?5Encode?52@ 10083b14     udp_comm_test.obj
 0002:00002b38       ??_C@_08JIAODFFN@UDP?5Send@ 10083b38     udp_comm_test.obj
 0002:00002b44       ??_C@_0BH@BPIAONDM@udp_comm_test?1UDP?5Send@ 10083b44     udp_comm_test.obj
 0002:00002b60       ??_C@_0M@GCGBFLLD@UDP?5Receive@ 10083b60     udp_comm_test.obj
 0002:00002b70       ??_C@_0BK@GIJFBLBD@udp_comm_test?1UDP?5Receive@ 10083b70     udp_comm_test.obj
 0002:00002b90       ??_C@_0O@MCJDFIKD@ASCII?5Decode?5@ 10083b90     udp_comm_test.obj
 0002:00002ba0       ??_C@_0BM@BKEIKPCO@udp_comm_test?1ASCII?5Decode?5@ 10083ba0     udp_comm_test.obj
 0002:00002bc8       __real@3f50624dd2f1a9fc    10083bc8     udp_comm_test.obj
 0002:00002bd8       __real@41f0000000000000    10083bd8     udp_comm_test.obj
 0002:00002bf0       __xmm@00000000000000003f50624dd2f1a9fc 10083bf0     udp_comm_test.obj
 0002:00002c10       __xmm@000001040000001c0000002800000001 10083c10     udp_comm_test.obj
 0002:0000362c       ??_C@_09LKEICJMG@Constant3@ 1008462c     udp_comm_test_capi.obj
 0002:00003638       ??_C@_0BB@KKKHCGND@ASCII?5Decode?5?1p1@ 10084638     udp_comm_test_capi.obj
 0002:0000364c       ??_C@_0BB@IBIKHFBA@ASCII?5Decode?5?1p2@ 1008464c     udp_comm_test_capi.obj
 0002:00003660       ??_C@_0BB@JIJBEEFB@ASCII?5Decode?5?1p3@ 10084660     udp_comm_test_capi.obj
 0002:00003674       ??_C@_0BB@NHNANCJG@ASCII?5Decode?5?1p4@ 10084674     udp_comm_test_capi.obj
 0002:00003688       ??_C@_0BB@MOMLODNH@ASCII?5Decode?5?1p5@ 10084688     udp_comm_test_capi.obj
 0002:0000369c       ??_C@_0BB@OFOGLABE@ASCII?5Decode?5?1p6@ 1008469c     udp_comm_test_capi.obj
 0002:000036b0       ??_C@_0BB@PMPNIBFF@ASCII?5Decode?5?1p7@ 100846b0     udp_comm_test_capi.obj
 0002:000036c4       ??_C@_0BB@HLGFJNJK@ASCII?5Decode?5?1p8@ 100846c4     udp_comm_test_capi.obj
 0002:000036d8       ??_C@_0BB@GCHOKMNL@ASCII?5Decode?5?1p9@ 100846d8     udp_comm_test_capi.obj
 0002:000036ec       ??_C@_0BC@MADGBCLL@ASCII?5Decode?5?1p10@ 100846ec     udp_comm_test_capi.obj
 0002:00003704       ??_C@_0BC@NJCNCDPK@ASCII?5Decode?5?1p11@ 10084704     udp_comm_test_capi.obj
 0002:0000371c       ??_C@_0BC@PCAAHADJ@ASCII?5Decode?5?1p12@ 1008471c     udp_comm_test_capi.obj
 0002:00003734       ??_C@_0P@MOBPEFPA@UDP?5Receive?1p1@ 10084734     udp_comm_test_capi.obj
 0002:00003748       ??_C@_0P@OFDCBGDD@UDP?5Receive?1p2@ 10084748     udp_comm_test_capi.obj
 0002:0000375c       ??_C@_01HIHLOKLC@1@        1008475c     udp_comm_test_capi.obj
 0002:00003760       ??_C@_01FDFGLJHB@2@        10084760     udp_comm_test_capi.obj
 0002:00003764       ??_C@_01EKENIIDA@3@        10084764     udp_comm_test_capi.obj
 0002:00003768       ??_C@_01FAMBOPH@4@         10084768     udp_comm_test_capi.obj
 0002:0000376c       ??_C@_01BMBHCPLG@5@        1008476c     udp_comm_test_capi.obj
 0002:00003770       ??_C@_01DHDKHMHF@6@        10084770     udp_comm_test_capi.obj
 0002:00003774       ??_C@_04GBIJHNAB@Add1@     10084774     udp_comm_test_capi.obj
 0002:0000377c       ??_C@_04EKKECOMC@Add2@     1008477c     udp_comm_test_capi.obj
 0002:00003784       ??_C@_04FDLPBPID@Add3@     10084784     udp_comm_test_capi.obj
 0002:0000378c       ??_C@_04BMPOIJEE@Add4@     1008478c     udp_comm_test_capi.obj
 0002:00003794       ??_C@_04FOFLIAF@Add5@      10084794     udp_comm_test_capi.obj
 0002:0000379c       ??_C@_04COMIOLMG@Add6@     1008479c     udp_comm_test_capi.obj
 0002:000037a4       ??_C@_05LPIJGKJ@Value@     100847a4     udp_comm_test_capi.obj
 0002:000037ac       ??_C@_0P@CPEHNNHL@abduction_tune@ 100847ac     udp_comm_test_capi.obj
 0002:000037c0       ??_C@_0L@LNFICPKM@ankle_tune@ 100847c0     udp_comm_test_capi.obj
 0002:000037d0       ??_C@_0BB@NLLPIHGF@ankle_twist_tune@ 100847d0     udp_comm_test_capi.obj
 0002:000037e4       ??_C@_08CKCJHGBN@hip_tune@ 100847e4     udp_comm_test_capi.obj
 0002:000037f0       ??_C@_09BHPOCKOO@knee_tune@ 100847f0     udp_comm_test_capi.obj
 0002:000037fc       ??_C@_0BB@OMDHHLIL@left_abduction2?5@ 100847fc     udp_comm_test_capi.obj
 0002:00003810       ??_C@_0M@FGAAFPMB@left_ankle2@ 10084810     udp_comm_test_capi.obj
 0002:00003820       ??_C@_0BD@BCJCIPEF@left_ankle_twist2?5@ 10084820     udp_comm_test_capi.obj
 0002:00003838       ??_C@_0L@ICFHFGAJ@left_hip2?5@ 10084838     udp_comm_test_capi.obj
 0002:00003848       ??_C@_0L@MACDBHPM@left_knee2@ 10084848     udp_comm_test_capi.obj
 0002:00003858       ??_C@_0BA@MOKDFPBE@left_rotation2?5@ 10084858     udp_comm_test_capi.obj
 0002:0000386c       ??_C@_0BC@BAACGLCK@right_abduction2?5@ 1008486c     udp_comm_test_capi.obj
 0002:00003884       ??_C@_0O@IBPPNCDD@right_annkle2@ 10084884     udp_comm_test_capi.obj
 0002:00003894       ??_C@_0BF@DCLKOFBP@right_annkle_twist2?5@ 10084894     udp_comm_test_capi.obj
 0002:000038b0       ??_C@_0M@OHBEJJAM@right_hip2?5@ 100848b0     udp_comm_test_capi.obj
 0002:000038c0       ??_C@_0M@KFGANIPJ@right_knee2@ 100848c0     udp_comm_test_capi.obj
 0002:000038d0       ??_C@_0BA@LCHEADOB@right_rotation2@ 100848d0     udp_comm_test_capi.obj
 0002:000038e4       ??_C@_0O@JAFIEPDB@rotation_tune@ 100848e4     udp_comm_test_capi.obj
 0002:000038f4       ??_C@_02KKFPAPOP@P1@       100848f4     udp_comm_test_capi.obj
 0002:000038f8       ??_C@_02IBHCFMCM@P2@       100848f8     udp_comm_test_capi.obj
 0002:000038fc       ??_C@_02JIGJGNGN@P3@       100848fc     udp_comm_test_capi.obj
 0002:00003900       ??_C@_02NHCIPLKK@P4@       10084900     udp_comm_test_capi.obj
 0002:00003904       ??_C@_02MODDMKOL@P5@       10084904     udp_comm_test_capi.obj
 0002:00003908       ??_C@_02HLJNLEKG@P8@       10084908     udp_comm_test_capi.obj
 0002:0000390c       ??_C@_02GCIGIFOH@P9@       1008490c     udp_comm_test_capi.obj
 0002:00003910       ??_C@_03OPFJJGBF@P10@      10084910     udp_comm_test_capi.obj
 0002:00003914       ??_C@_03PGECKHFE@P11@      10084914     udp_comm_test_capi.obj
 0002:00003918       ??_C@_03NNGPPEJH@P12@      10084918     udp_comm_test_capi.obj
 0002:0000391c       ??_C@_02OFBOJJCI@P6@       1008491c     udp_comm_test_capi.obj
 0002:00003920       ??_C@_02PMAFKIGJ@P7@       10084920     udp_comm_test_capi.obj
 0002:00003924       ??_C@_06BNJCAIGJ@double@   10084924     udp_comm_test_capi.obj
 0002:0000392c       ??_C@_06CNMIJIPB@real_T@   1008492c     udp_comm_test_capi.obj
 0002:00003934       ??_C@_0N@OFHMGPAL@unsigned?5int@ 10084934     udp_comm_test_capi.obj
 0002:00003944       ??_C@_08CCMIKNJF@uint32_T@ 10084944     udp_comm_test_capi.obj
 0002:00003950       ??_C@_0O@PPAIJIHF@unsigned?5char@ 10084950     udp_comm_test_capi.obj
 0002:00003960       ??_C@_07NCEHLPOC@uint8_T@  10084960     udp_comm_test_capi.obj
 0002:0000396c       ??_C@_03JBIPMCLC@int@      1008496c     udp_comm_test_capi.obj
 0002:00003970       ??_C@_07BLNHOAMI@int32_T@  10084970     udp_comm_test_capi.obj
 0002:0000397c       ??_C@_05KNFBNCOH@float@    1008497c     udp_comm_test_capi.obj
 0002:00003984       ??_C@_0DL@PGGFBBLM@Error?3?5task?5ID?5?$CFd?5is?5out?5of?5ran@ 10084984     udp_comm_test_xcp_TET.obj
 0002:000039d0       __real@3e112e0be826d695    100849d0     udp_comm_test_xcp_TET.obj
 0002:000039e0       __real@3f847ae147ae147b    100849e0     udp_comm_test_xcp_TET.obj
 0002:000039f0       __real@3fefae147ae147ae    100849f0     udp_comm_test_xcp_TET.obj
 0002:000039fc       _serialfifoground          100849fc     xpc_datatype_ground.obj
 0002:00003a08       _bcmsg1553ground           10084a08     xpc_datatype_ground.obj
 0002:00003a18       _bcstatground              10084a18     xpc_datatype_ground.obj
 0002:00003a30       _bmmsg1553ground           10084a30     xpc_datatype_ground.obj
 0002:00003a6c       ??_C@_0BI@INNPNFJN@Memory?5Allocation?5Error@ 10084a6c     rtw_modelmap_utils.obj
 0002:00003a88       ??_C@_1HC@PKAJIAEN@?$AAC?$AA?3?$AA?2?$AAP?$AAR?$AAO?$AAG?$AAR?$AAA?$AA?$HO?$AA1?$AA?2?$AAM?$AAA?$AAT@ 10084a88     rtw_modelmap_utils.obj
 0002:00003b10       ??_C@_1CI@OEAJCJND@?$AAj?$AA?5?$AA?$DN?$AA?$DN?$AA?5?$AAe?$AAn?$AAc?$AAo?$AAd?$AAe?$AAd?$AAP?$AAa?$AAt@ 10084b10     rtw_modelmap_utils.obj
 0002:00003b40       ??_C@_1DC@NFAOIFKB@?$AAe?$AAn?$AAc?$AAo?$AAd?$AAe?$AAd?$AAP?$AAa?$AAt?$AAh?$AA?$FL?$AAj?$AA?9?$AA1@ 10084b40     rtw_modelmap_utils.obj
 0002:00003b7c       ??_C@_1DI@FLNJGPEE@?$AAs?$AAi?$AAg?$AAC?$AAo?$AAm?$AAp?$AAl?$AAe?$AAx?$AAi?$AAt?$AAy?$AA?$FL?$AA?$CK@ 10084b7c     rtw_modelmap_utils.obj
 0002:00003bc0       ??_C@_1KI@OFELMGBG@?$AA?$CI?$AA?$CI?$AA?$CI?$AAd?$AAa?$AAt?$AAa?$AAT?$AAy?$AAp?$AAe?$AAM?$AAa?$AAp?$AA?$CJ@ 10084bc0     rtw_modelmap_utils.obj
 0002:00003c8c       ??_C@_1DA@ILCMPHNE@?$AAf?$AAu?$AAl?$AAl?$AAP?$AAa?$AAt?$AAh?$AA?5?$AA?$CB?$AA?$DN?$AA?5?$AA?$CI?$AA?$CI?$AAv@ 10084c8c     rtw_modelmap_utils.obj
 0002:00003cc8       ??_C@_1CI@OEPPFCCA@?$AAp?$AAa?$AAt?$AAh?$AA?5?$AA?$CB?$AA?$DN?$AA?5?$AA?$CI?$AA?$CI?$AAv?$AAo?$AAi?$AAd?$AA?5@ 10084cc8     rtw_modelmap_utils.obj
 0002:00003cf8       ??_C@_1FK@GLJIMFHB@?$AA?$CI?$AA?$CI?$AAm?$AAm?$AAi?$AA?$CJ?$AA?9?$AA?$DO?$AAI?$AAn?$AAs?$AAt?$AAa?$AAn?$AAc@ 10084cf8     rtw_modelmap_utils.obj
 0002:00003d64       ??_C@_1DG@HPCJGNCE@?$AAm?$AAm?$AAi?$AAP?$AAa?$AAt?$AAh?$AA?$FL?$AAp?$AAa?$AAt?$AAh?$AAL?$AAe?$AAn@ 10084d64     rtw_modelmap_utils.obj
 0002:00003da4       ??_C@_1DM@DBAOGGOO@?$AAm?$AAm?$AAi?$AAP?$AAa?$AAt?$AAh?$AA?$FL?$AAm?$AAm?$AAi?$AAP?$AAa?$AAt?$AAh@ 10084da4     rtw_modelmap_utils.obj
 0002:00003dec       ??_C@_1DC@LHIAKAFE@?$AAb?$AAl?$AAo?$AAc?$AAk?$AAP?$AAa?$AAt?$AAh?$AA?5?$AA?$CB?$AA?$DN?$AA?5?$AA?$CI?$AA?$CI@ 10084dec     rtw_modelmap_utils.obj
 0002:00003e28       ??_C@_1GI@KIEJKPGC@?$AAf?$AAu?$AAl?$AAl?$AAS?$AAt?$AAa?$AAt?$AAe?$AAB?$AAl?$AAo?$AAc?$AAk?$AAP@ 10084e28     rtw_modelmap_utils.obj
 0002:00003ea8       ??_C@_1EE@DNPIBJHC@?$AA?$CI?$AA?$CI?$AAd?$AAi?$AAm?$AAM?$AAa?$AAp?$AA?$CJ?$AA?$FL?$AA?$CI?$AAm?$AAa?$AAp?$AAI@ 10084ea8     rtw_modelmap_utils.obj
 0002:00003efc       ??_C@_06JFOKFOED@CSTATE@   10084efc     rtw_modelmap_utils.obj
 0002:00003f04       ??_C@_06FAENGAMN@DSTATE@   10084f04     rtw_modelmap_utils.obj
 0002:00003f0c       ??_C@_1BI@LEBJNOGG@?$AAc?$AAs?$AAv?$AAI?$AAd?$AAx?$AA?5?$AA?$DO?$AA?$DN?$AA?5?$AA0@ 10084f0c     rtw_modelmap_utils.obj
 0002:00003f28       ??_C@_1BA@KDMGHCHP@?$AAT?$AAI?$AAD?$AA?$DN?$AA?$DN?$AA?9?$AA1@ 10084f28     rtw_modelmap_utils.obj
 0002:00003f3c       ??_C@_1DM@DHGKBPCE@?$AAs?$AAi?$AAg?$AAP?$AAa?$AAt?$AAh?$AA?$FL?$AAs?$AAi?$AAg?$AAP?$AAa?$AAt?$AAh@ 10084f3c     rtw_modelmap_utils.obj
 0002:00003f88       ??_C@_0ED@LKHIFFLC@Wrong?5number?5of?5input?5arguments@ 10084f88     asciidecode.obj
 0002:00003fd8       ??_C@_0CP@GNPFCBGC@Number?5of?5variables?5argument?5mu@ 10084fd8     asciidecode.obj
 0002:00004010       ??_C@_0DE@JPPPAPBN@ASCII?5Decode?3?5Unable?5to?5allocat@ 10085010     asciidecode.obj
 0002:00004050       ??_C@_0BI@MKEHIOKD@error?5in?5format?5string?6@ 10085050     asciidecode.obj
 0002:0000406c       ??_C@_0CD@HPFDKADH@RS232?5Send?1Rec?3?5receive?5data?5er@ 1008506c     asciidecode.obj
 0002:00004098       ??_C@_0DO@FPEMOPIN@Converted?5string?5length?5exceeds@ 10085098     asciiencode.obj
 0002:000040e4       ??_C@_0CC@HOBPNJNM@Error?5getting?5board?5configurati@ 100850e4     slrtIPConfig.obj
 0002:0000410c       ??_C@_0CB@NBMNJKGH@Error?5?$CFs?5initializing?5interface@ 1008510c     slrtIPConfig.obj
 0002:00004134       ??_C@_0DP@MDFBBNI@Ethernet?5interface?5not?5found?5at@ 10085134     slrtIPConfig.obj
 0002:00004180       ??_C@_0GJ@FCKIJHNC@Device?5at?5PCI?5Bus?3?$CFd?5Slot?3?$CFd?5Fu@ 10085180     slrtIPConfig.obj
 0002:00004200       ??_C@_0DE@CBCIHBDI@Error?5setting?5IP?5address?0?5inter@ 10085200     slrtIPConfig.obj
 0002:00004240       ??_C@_0BM@CGPFMAHK@Error?5?$CFd?5setting?5IP?5address@ 10085240     slrtIPConfig.obj
 0002:00004268       ??_C@_0EK@BBEACNDD@IP?5address?5already?5in?5use?5for?5c@ 10085268     slrtIPConfig.obj
 0002:000042c0       ??_C@_0EH@FMJBALDK@Subnet?5already?5in?5use?5for?5commu@ 100852c0     slrtIPConfig.obj
 0002:00004318       ??_C@_0BI@JGFKGBGL@Invalid?5gateway?5address@ 10085318     slrtIPConfig.obj
 0002:00004334       ??_C@_0BM@EPGFEMO@Error?5?$CFs?5setting?5IP?5address@ 10085334     slrtIPConfig.obj
 0002:00004358       ??_C@_0CF@JGOPHNAL@Invalid?5multicast?5IP?5address?5or@ 10085358     slrtIPConfig.obj
 0002:00004384       ??_C@_0CA@MMGIOPJH@Error?5?$CFs?5adding?5multicast?5route@ 10085384     slrtIPConfig.obj
 0002:000043ac       ??_C@_0BJ@EOBAMGKI@Error?5closing?5device?3?5?$CFs@ 100853ac     slrtIPConfig.obj
 0002:000043cc       ??_C@_0BP@LNHNEODM@Invalid?5local?5port?5for?5receive@ 100853cc     slrtUDPReceive.obj
 0002:000043f4       ??_C@_0BJ@DMMKJICG@UDP?5Initialize?5error?3?5?$CFs@ 100853f4     slrtUDPReceive.obj
 0002:00004414       ??_C@_0BF@CNHBOFGC@UDP?5Initialize?5error@ 10085414     slrtUDPReceive.obj
 0002:00004430       ??_C@_0CB@GLIGAFEB@Invalid?5multicast?5group?5address@ 10085430     slrtUDPReceive.obj
 0002:00004458       ??_C@_0CD@FIGFIJJN@UDP?5add?5multicast?5member?5error?3@ 10085458     slrtUDPReceive.obj
 0002:00004484       ??_C@_0CF@EDEKNHFK@Error?5checking?5socket?5I?1O?5statu@ 10085484     slrtUDPReceive.obj
 0002:000044b0       ??_C@_0BG@DLJKGPE@UDP?5receive?5error?3?5?$CFs@ 100854b0     slrtUDPReceive.obj
 0002:000044cc       ??_C@_0CJ@GAKAOIGG@Data?5port?5width?5exceeds?5maximum@ 100854cc     slrtUDPSend.obj
 0002:00004500       ??_C@_0DI@ICMDLECJ@Route?5to?5?$CFs?5is?5not?5available?0?5n@ 10085500     slrtUDPSend.obj
 0002:00004544       ??_C@_0BJ@JMOBKMKG@Warning?3?5block?5?8?$CFs?8?3?5?$CFs?6@ 10085544     slrtUDPSend.obj
 0002:00004564       ??_C@_0BD@KCHFJACO@UDP?5send?5error?3?5?$CFs@ 10085564     slrtUDPSend.obj
 0002:0000457c       ??_C@_0BK@EBKJELMI@maxfunc?5?$DN?5?$CFd?5at?5?$FL?$CFd?0?5?$CFd?$FN?6@ 1008557c     xpcruntime:xpcimports.obj
 0002:0000459c       ??_C@_0CC@DMFKNLL@VendorId?5?$DN?50x?$CFx?0?5DeviceId?5?$DN?50x?$CF@ 1008559c     xpcruntime:xpcimports.obj
 0002:000045c4       ??_C@_0DH@OHCBLNMG@Subsystem?5Device?5ID?5?$DN?50x?$CFx?6Subs@ 100855c4     xpcruntime:xpcimports.obj
 0002:00004608       ??_C@_0BD@MMMMEFCM@Class?5Code?5?$DN?50x?$CFx?6@ 10085608     xpcruntime:xpcimports.obj
 0002:00004620       ??_C@_0BE@OLDDDNHM@InterruptLine?5?$DN?5?$CFd?6@ 10085620     xpcruntime:xpcimports.obj
 0002:00004638       ??_C@_0CE@IBMFFAPN@bus?5?$DN?5?$CFd?0?5slot?5?$DN?5?$CFd?0?5function?5?$DN@ 10085638     xpcruntime:xpcimports.obj
 0002:00004664       ??_C@_0CE@DGLLGDFH@?5?5?5?5Phys?5?5?5Virtual?5?5?5Length?5IO?1@ 10085664     xpcruntime:xpcimports.obj
 0002:00004690       ??_C@_0BI@FEOPLEMG@?$CF08x?5?$CF08x?5?$CF08x?5?5?5?5?5?5?$CFc?6@ 10085690     xpcruntime:xpcimports.obj
 0002:000046ac       ??_C@_0BB@BNNCEDPC@rl32eScopeExists@ 100856ac     xpcruntime:xpcimports.obj
 0002:000046c0       ??_C@_0BM@FJBFEGFG@rl32eScopeExists?5not?5found?6@ 100856c0     xpcruntime:xpcimports.obj
 0002:000046e4       ??_C@_0O@BNNGKJEA@rl32eDefScope@ 100856e4     xpcruntime:xpcimports.obj
 0002:000046f4       ??_C@_0BJ@CDNOENKA@rl32eDefScope?5not?5found?6@ 100856f4     xpcruntime:xpcimports.obj
 0002:00004714       ??_C@_0P@CKNKILDP@rl32eAddSignal@ 10085714     xpcruntime:xpcimports.obj
 0002:00004728       ??_C@_0BK@GMJAJBAI@rl32eAddSignal?5not?5found?6@ 10085728     xpcruntime:xpcimports.obj
 0002:00004748       ??_C@_0BB@LDMIHGCE@rl32eGetSignalNo@ 10085748     xpcruntime:xpcimports.obj
 0002:0000475c       ??_C@_0BM@LGAMBAID@rl32eGetSignalNo?5not?5found?6@ 1008575c     xpcruntime:xpcimports.obj
 0002:00004780       ??_C@_0O@CFDGALBP@rl32eSetScope@ 10085780     xpcruntime:xpcimports.obj
 0002:00004790       ??_C@_0BJ@JCLHHIN@rl32eSetScope?5not?5found?6@ 10085790     xpcruntime:xpcimports.obj
 0002:000047b0       ??_C@_0P@IKMCBMHH@xpceFSScopeSet@ 100857b0     xpcruntime:xpcimports.obj
 0002:000047c4       ??_C@_0BK@JODJPNNH@xpceFSScopeSet?5not?5found?6@ 100857c4     xpcruntime:xpcimports.obj
 0002:000047e4       ??_C@_0BE@DLACEEJM@rl32eSetTargetScope@ 100857e4     xpcruntime:xpcimports.obj
 0002:000047fc       ??_C@_0BP@JCHFMKPJ@rl32eSetTargetScope?5not?5found?6@ 100857fc     xpcruntime:xpcimports.obj
 0002:00004824       ??_C@_0BJ@LIDLNDHC@rl32eSetTargetScopeSigFt@ 10085824     xpcruntime:xpcimports.obj
 0002:00004844       ??_C@_0CE@JLGHCFHI@rl32eSetTargetScopeSigFt?5not?5fo@ 10085844     xpcruntime:xpcimports.obj
 0002:00004870       ??_C@_0BI@JAPOIDNG@rl32eRestartAcquisition@ 10085870     xpcruntime:xpcimports.obj
 0002:0000488c       ??_C@_0CD@LLBEFFBO@rl32eRestartAcquisition?5not?5fou@ 1008588c     xpcruntime:xpcimports.obj
 0002:000048b8       ??_C@_0P@IEIIADJB@xpceScopeAcqOK@ 100858b8     xpcruntime:xpcimports.obj
 0002:000048cc       ??_C@_0BK@NJCKNFPN@xpceScopeAcqOK?5not?5found?6@ 100858cc     xpcruntime:xpcimports.obj
 0002:000048ec       ??_C@_0BA@IJINKAHF@xpceRegisterISR@ 100858ec     xpcruntime:xpcimports.obj
 0002:00004900       ??_C@_0BL@NNDLOEJE@xpceRegisterISR?5not?5found?6@ 10085900     xpcruntime:xpcimports.obj
 0002:00004920       ??_C@_0BC@NLBADGKF@xpceDeRegisterISR@ 10085920     xpcruntime:xpcimports.obj
 0002:00004938       ??_C@_0BN@DCAIKFFD@xpceDeRegisterISR?5not?5found?6@ 10085938     xpcruntime:xpcimports.obj
 0002:0000495c       ??_C@_07JPMEPILD@xpcInpB@  1008595c     xpcruntime:xpcimports.obj
 0002:00004968       ??_C@_0BD@PGABEJOL@xpcInpB?5not?5found?6@ 10085968     xpcruntime:xpcimports.obj
 0002:00004980       ??_C@_07KIHBBOKH@xpcInpW@  10085980     xpcruntime:xpcimports.obj
 0002:0000498c       ??_C@_0BD@FPCJFMCC@xpcInpW?5not?5found?6@ 1008598c     xpcruntime:xpcimports.obj
 0002:000049a4       ??_C@_08KDIAJBOP@xpcInpDW@ 100859a4     xpcruntime:xpcimports.obj
 0002:000049b0       ??_C@_0BE@PIELDNIL@xpcInpDW?5not?5found?6@ 100859b0     xpcruntime:xpcimports.obj
 0002:000049c8       ??_C@_08PJFMOIGO@xpcOutpB@ 100859c8     xpcruntime:xpcimports.obj
 0002:000049d4       ??_C@_0BE@HCKNCEKF@xpcOutpB?5not?5found?6@ 100859d4     xpcruntime:xpcimports.obj
 0002:000049ec       ??_C@_08MOOJAOHK@xpcOutpW@ 100859ec     xpcruntime:xpcimports.obj
 0002:000049f8       ??_C@_0BE@NLIFDBGM@xpcOutpW?5not?5found?6@ 100859f8     xpcruntime:xpcimports.obj
 0002:00004a10       ??_C@_09FLIEKHJG@xpcOutpDW@ 10085a10     xpcruntime:xpcimports.obj
 0002:00004a1c       ??_C@_0BF@GJKLPNHB@xpcOutpDW?5not?5found?6@ 10085a1c     xpcruntime:xpcimports.obj
 0002:00004a38       ??_C@_0BH@EHOLELHH@xpcReserveMemoryRegion@ 10085a38     xpcruntime:xpcimports.obj
 0002:00004a54       ??_C@_0CC@KAAAGPI@xpcReserveMemoryRegion?5not?5foun@ 10085a54     xpcruntime:xpcimports.obj
 0002:00004a7c       ??_C@_0BA@JGPMHGAF@rl32eShowPCIDev@ 10085a7c     xpcruntime:xpcimports.obj
 0002:00004a90       ??_C@_0BL@DDFFLNHI@rl32eShowPCIDev?5not?5found?6@ 10085a90     xpcruntime:xpcimports.obj
 0002:00004ab0       ??_C@_0BB@KBCOJPFB@rl32eShowPCIInfo@ 10085ab0     xpcruntime:xpcimports.obj
 0002:00004ac4       ??_C@_0BM@IFDMAGLO@rl32eShowPCIInfo?5not?5found?6@ 10085ac4     xpcruntime:xpcimports.obj
 0002:00004ae8       ??_C@_0BA@BGPAADB@rl32eGetPCIInfo@ 10085ae8     xpcruntime:xpcimports.obj
 0002:00004afc       ??_C@_0BL@IGOMLDCK@rl32eGetPCIInfo?5not?5found?6@ 10085afc     xpcruntime:xpcimports.obj
 0002:00004b1c       ??_C@_0BG@NJPFKFDP@rl32eGetPCIInfoAtSlot@ 10085b1c     xpcruntime:xpcimports.obj
 0002:00004b38       ??_C@_0CB@BBKIPMLA@rl32eGetPCIInfoAtSlot?5not?5found@ 10085b38     xpcruntime:xpcimports.obj
 0002:00004b60       ??_C@_0BH@OKBOPNFG@xpceAssignPCIInterrupt@ 10085b60     xpcruntime:xpcimports.obj
 0002:00004b7c       ??_C@_0CC@CDNDNJBJ@xpceAssignPCIInterrupt?5not?5foun@ 10085b7c     xpcruntime:xpcimports.obj
 0002:00004ba4       ??_C@_0BD@PCKOKHO@xpceGetSignalValue@ 10085ba4     xpcruntime:xpcimports.obj
 0002:00004bbc       ??_C@_0BO@GCBDJHMB@xpceGetSignalValue?5not?5found?6@ 10085bbc     xpcruntime:xpcimports.obj
 0002:00004be0       ??_C@_0BB@BJONJAGA@xpceSetParameter@ 10085be0     xpcruntime:xpcimports.obj
 0002:00004bf4       ??_C@_0BM@BJIKDLHA@xpceSetParameter?5not?5found?6@ 10085bf4     xpcruntime:xpcimports.obj
 0002:00004c18       ??_C@_0BB@GNFDFMCM@xpceGetParameter@ 10085c18     xpcruntime:xpcimports.obj
 0002:00004c2c       ??_C@_0BM@POHNKBC@xpceGetParameter?5not?5found?6@ 10085c2c     xpcruntime:xpcimports.obj
 0002:00004c50       ??_C@_0BB@CEIJLFCD@xpceGetParamDims@ 10085c50     xpcruntime:xpcimports.obj
 0002:00004c64       ??_C@_0BM@OABDBKAO@xpceGetParamDims?5not?5found?6@ 10085c64     xpcruntime:xpcimports.obj
 0002:00004c88       ??_C@_0L@OCBLLHBM@xpceGetTET@ 10085c88     xpcruntime:xpcimports.obj
 0002:00004c98       ??_C@_0BG@HNOFBOB@xpceGetTET?5not?5found?6@ 10085c98     xpcruntime:xpcimports.obj
 0002:00004cb4       ??_C@_0P@OKGNGAGH@xpcIsModelInit@ 10085cb4     xpcruntime:xpcimports.obj
 0002:00004cc8       ??_C@_0BK@DHEMLBIM@xpcIsModelInit?5not?5found?6@ 10085cc8     xpcruntime:xpcimports.obj
 0002:00004ce8       ??_C@_0BH@KJJLCAOJ@xpcAllocPhysicalMemory@ 10085ce8     xpcruntime:xpcimports.obj
 0002:00004d04       ??_C@_0CC@MOJPNHKL@xpcAllocPhysicalMemory?5not?5foun@ 10085d04     xpcruntime:xpcimports.obj
 0002:00004d2c       ??_C@_0BG@CBNPGAEL@xpcFreePhysicalMemory@ 10085d2c     xpcruntime:xpcimports.obj
 0002:00004d48       ??_C@_0CB@PKJEBPOG@xpcFreePhysicalMemory?5not?5found@ 10085d48     xpcruntime:xpcimports.obj
 0002:00004d70       ??_C@_0BC@JGKNLICL@xpcGetElapsedTime@ 10085d70     xpcruntime:xpcimports.obj
 0002:00004d88       ??_C@_0BN@OEOAHCIO@xpcGetElapsedTime?5not?5found?6@ 10085d88     xpcruntime:xpcimports.obj
 0002:00004dac       ??_C@_0M@ICBLMODA@xpcBusyWait@ 10085dac     xpcruntime:xpcimports.obj
 0002:00004dbc       ??_C@_0BH@FBOPECBI@xpcBusyWait?5not?5found?6@ 10085dbc     xpcruntime:xpcimports.obj
 0002:00004dd8       ??_C@_0N@LKKJEKKA@TBCreateSpin@ 10085dd8     xpcruntime:xpcimports.obj
 0002:00004de8       ??_C@_0BI@FHKMLKOE@TBCreateSpin?5not?5found?6@ 10085de8     xpcruntime:xpcimports.obj
 0002:00004e04       ??_C@_0N@HOAJHNBD@TBDeleteSpin@ 10085e04     xpcruntime:xpcimports.obj
 0002:00004e14       ??_C@_0BI@BKCPAAG@TBDeleteSpin?5not?5found?6@ 10085e14     xpcruntime:xpcimports.obj
 0002:00004e30       ??_C@_0P@DAHDDBJG@TBTakeSpinFast@ 10085e30     xpcruntime:xpcimports.obj
 0002:00004e44       ??_C@_0BK@NKAIBHGB@TBTakeSpinFast?5not?5found?6@ 10085e44     xpcruntime:xpcimports.obj
 0002:00004e64       ??_C@_0P@FKNAAELA@TBGiveSpinFast@ 10085e64     xpcruntime:xpcimports.obj
 0002:00004e78       ??_C@_0BK@KGPJBJND@TBGiveSpinFast?5not?5found?6@ 10085e78     xpcruntime:xpcimports.obj
 0002:00004e98       ??_C@_0BE@IIGBFDHK@xpceCreateSemaphore@ 10085e98     xpcruntime:xpcimports.obj
 0002:00004eb0       ??_C@_0BP@KFBAFFKJ@xpceCreateSemaphore?5not?5found?6@ 10085eb0     xpcruntime:xpcimports.obj
 0002:00004ed8       ??_C@_0BC@IFNIONKJ@xpceWaitSemaphore@ 10085ed8     xpcruntime:xpcimports.obj
 0002:00004ef0       ??_C@_0BN@NMFAADIO@xpceWaitSemaphore?5not?5found?6@ 10085ef0     xpcruntime:xpcimports.obj
 0002:00004f14       ??_C@_0BE@NNDIOBKE@xpceSignalSemaphore@ 10085f14     xpcruntime:xpcimports.obj
 0002:00004f2c       ??_C@_0BP@LBANMHJP@xpceSignalSemaphore?5not?5found?6@ 10085f2c     xpcruntime:xpcimports.obj
 0002:00004f54       ??_C@_0BE@MEBEKOIM@xpceDeleteSemaphore@ 10085f54     xpcruntime:xpcimports.obj
 0002:00004f6c       ??_C@_0BP@OFNCKOJH@xpceDeleteSemaphore?5not?5found?6@ 10085f6c     xpcruntime:xpcimports.obj
 0002:00004f94       ??_C@_0BD@MFNDMBOF@FindUsbVideoDevice@ 10085f94     xpcruntime:xpcimports.obj
 0002:00004fac       ??_C@_0BO@POKLDHMI@FindUsbVideoDevice?5not?5found?6@ 10085fac     xpcruntime:xpcimports.obj
 0002:00004fd0       ??_C@_0BA@PLPAPNAB@GetVideoConfigs@ 10085fd0     xpcruntime:xpcimports.obj
 0002:00004fe4       ??_C@_0BL@DALDHKHC@GetVideoConfigs?5not?5found?6@ 10085fe4     xpcruntime:xpcimports.obj
 0002:00005004       ??_C@_0L@GBAEMHMH@StartVideo@ 10086004     xpcruntime:xpcimports.obj
 0002:00005014       ??_C@_0BG@HDCELEBP@StartVideo?5not?5found?6@ 10086014     xpcruntime:xpcimports.obj
 0002:00005030       ??_C@_0BA@FDNPOCLN@ReadFrameBuffer@ 10086030     xpcruntime:xpcimports.obj
 0002:00005044       ??_C@_0BL@JHGHPNBI@ReadFrameBuffer?5not?5found?6@ 10086044     xpcruntime:xpcimports.obj
 0002:00005064       ??_C@_09FAHCLKAG@StopVideo@ 10086064     xpcruntime:xpcimports.obj
 0002:00005070       ??_C@_0BF@NKGKKADL@StopVideo?5not?5found?6@ 10086070     xpcruntime:xpcimports.obj
 0002:0000508c       ??_C@_0O@MCPKDLLL@ConvertUImage@ 1008608c     xpcruntime:xpcimports.obj
 0002:0000509c       ??_C@_0BJ@PHJKOAFL@ConvertUImage?5not?5found?6@ 1008609c     xpcruntime:xpcimports.obj
 0002:000050bc       ??_C@_0BD@NKCBPBJJ@CreateVideoDisplay@ 100860bc     xpcruntime:xpcimports.obj
 0002:000050d4       ??_C@_0BO@HPPLLNFP@CreateVideoDisplay?5not?5found?6@ 100860d4     xpcruntime:xpcimports.obj
 0002:000050f8       ??_C@_0BE@KJCKGPHA@DestroyVideoDisplay@ 100860f8     xpcruntime:xpcimports.obj
 0002:00005110       ??_C@_0BP@FMGLJAIJ@DestroyVideoDisplay?5not?5found?6@ 10086110     xpcruntime:xpcimports.obj
 0002:00005138       ??_C@_0BC@HCMIMIDN@StartVideoDisplay@ 10086138     xpcruntime:xpcimports.obj
 0002:00005150       ??_C@_0BN@EFIEBGOO@StartVideoDisplay?5not?5found?6@ 10086150     xpcruntime:xpcimports.obj
 0002:00005174       ??_C@_0BB@JBBLMILG@StopVideoDisplay@ 10086174     xpcruntime:xpcimports.obj
 0002:00005188       ??_C@_0BM@DBJBPLEL@StopVideoDisplay?5not?5found?6@ 10086188     xpcruntime:xpcimports.obj
 0002:000051ac       ??_C@_0M@MFJEGMHC@StreamVideo@ 100861ac     xpcruntime:xpcimports.obj
 0002:000051bc       ??_C@_0BH@OINCDMLA@StreamVideo?5not?5found?6@ 100861bc     xpcruntime:xpcimports.obj
 0002:000051d8       ??_C@_0N@IGGLCIGE@xpceaddEvent@ 100861d8     xpcruntime:xpcimports.obj
 0002:000051e8       ??_C@_0BI@NHJNFMKH@xpceaddEvent?5not?5found?6@ 100861e8     xpcruntime:xpcimports.obj
 0002:00005204       ??_C@_0BC@MLJODBHJ@slrtStartProfiler@ 10086204     xpcruntime:xpcimports.obj
 0002:0000521c       ??_C@_0BN@HLNCOKA@slrtStartProfiler?5not?5found?6@ 1008621c     xpcruntime:xpcimports.obj
 0002:00005240       ??_C@_0BB@ONJONMCD@slrtStopProfiler@ 10086240     xpcruntime:xpcimports.obj
 0002:00005254       ??_C@_0BM@GAKJEGBA@slrtStopProfiler?5not?5found?6@ 10086254     xpcruntime:xpcimports.obj
 0002:00005278       ??_C@_0BF@EILBHBBF@slrtGetProfilerState@ 10086278     xpcruntime:xpcimports.obj
 0002:00005294       ??_C@_0CA@EDDFOCLE@slrtGetProfilerState?5not?5found?6@ 10086294     xpcruntime:xpcimports.obj
 0002:000052bc       ??_C@_0BB@HDPOIJAB@xpceDAQPostEvent@ 100862bc     xpcruntime:xpcimports.obj
 0002:000052d0       ??_C@_0BM@IHANBKGN@xpceDAQPostEvent?5not?5found?6@ 100862d0     xpcruntime:xpcimports.obj
 0002:000052f4       ??_C@_0BH@MBACMOD@xpceDAQUpdateTimeStamp@ 100862f4     xpcruntime:xpcimports.obj
 0002:00005310       ??_C@_0CC@DAKBBINL@xpceDAQUpdateTimeStamp?5not?5foun@ 10086310     xpcruntime:xpcimports.obj
 0002:00005338       ??_C@_0BD@HLALHPHI@slrtRegisterSignal@ 10086338     xpcruntime:xpcimports.obj
 0002:00005350       ??_C@_0BO@BALEBHKF@slrtRegisterSignal?5not?5found?6@ 10086350     xpcruntime:xpcimports.obj
 0002:00005374       ??_C@_0O@DKILEOIJ@slrtLogSignal@ 10086374     xpcruntime:xpcimports.obj
 0002:00005384       ??_C@_0BJ@FMKKIEDD@slrtLogSignal?5not?5found?6@ 10086384     xpcruntime:xpcimports.obj
 0002:000053a4       ??_C@_0BG@CCHICKPN@slrteSetStepSizeDelta@ 100863a4     xpcruntime:xpcimports.obj
 0002:000053c0       ??_C@_0CB@MKHINEIJ@slrteSetStepSizeDelta?5not?5found@ 100863c0     xpcruntime:xpcimports.obj
 0002:000053e8       ??_C@_0BI@CLNBLDKJ@slrteGetCurrentStepSize@ 100863e8     xpcruntime:xpcimports.obj
 0002:00005404       ??_C@_0CD@GIOJPGJA@slrteGetCurrentStepSize?5not?5fou@ 10086404     xpcruntime:xpcimports.obj
 0002:00005430       ??_C@_0BE@FCLCBOC@registerPTPTimeRead@ 10086430     xpcruntime:xpcimports.obj
 0002:00005448       ??_C@_0BP@LHPKAJIP@registerPTPTimeRead?5not?5found?6@ 10086448     xpcruntime:xpcimports.obj
 0002:00005470       ??_C@_0BG@KIGCDDJI@unRegisterPTPTimeRead@ 10086470     xpcruntime:xpcimports.obj
 0002:0000548c       ??_C@_0CB@MLFFBFCM@unRegisterPTPTimeRead?5not?5found@ 1008648c     xpcruntime:xpcimports.obj
 0002:000054b4       ??_C@_0BB@IPMDDBHK@slTestInitialize@ 100864b4     xpcruntime:xpcimports.obj
 0002:000054c8       ??_C@_0BM@LAJFCCJH@slTestInitialize?5not?5found?6@ 100864c8     xpcruntime:xpcimports.obj
 0002:000054ec       ??_C@_0BF@OOMPMEBC@slTestLogAssessments@ 100864ec     xpcruntime:xpcimports.obj
 0002:00005508       ??_C@_0CA@FGJCEBAG@slTestLogAssessments?5not?5found?6@ 10086508     xpcruntime:xpcimports.obj
 0002:00005530       ??_C@_0BB@HJHKONHO@slTestEvalOnFail@ 10086530     xpcruntime:xpcimports.obj
 0002:00005544       ??_C@_0BM@JIKCFFNJ@slTestEvalOnFail?5not?5found?6@ 10086544     xpcruntime:xpcimports.obj
 0002:00005568       ??_C@_0BA@LBHLABFP@slTestTerminate@ 10086568     xpcruntime:xpcimports.obj
 0002:0000557c       ??_C@_0BL@EMFGKAPA@slTestTerminate?5not?5found?6@ 1008657c     xpcruntime:xpcimports.obj
 0002:0000559c       ??_C@_0BE@JPNPBBEO@slTestRegAssessment@ 1008659c     xpcruntime:xpcimports.obj
 0002:000055b4       ??_C@_0BP@FBDEJJJH@slTestRegAssessment?5not?5found?6@ 100865b4     xpcruntime:xpcimports.obj
 0002:000055dc       ??_C@_0O@NCLGDNIB@slrteSetupMSI@ 100865dc     xpcruntime:xpcimports.obj
 0002:000055ec       ??_C@_0BJ@HEFMECLM@slrteSetupMSI?5not?5found?6@ 100865ec     xpcruntime:xpcimports.obj
 0002:0000560c       ??_C@_0BH@BPOLALHD@slrtGetCRBScratchSpace@ 1008660c     xpcruntime:xpcimports.obj
 0002:00005628       ??_C@_0CC@KCKAJKKJ@slrtGetCRBScratchSpace?5not?5foun@ 10086628     xpcruntime:xpcimports.obj
 0002:00005650       ??_C@_0BC@MKFDAKOL@slrtGetSgCRBSpace@ 10086650     xpcruntime:xpcimports.obj
 0002:00005668       ??_C@_0BN@JDPHPLHL@slrtGetSgCRBSpace?5not?5found?6@ 10086668     xpcruntime:xpcimports.obj
 0002:0000568c       ??_C@_0P@EPAPKLIF@slrtfsOpenFile@ 1008668c     xpcruntime:xpcimports.obj
 0002:000056a0       ??_C@_0BK@FIHCBOHG@slrtfsOpenFile?5not?5found?6@ 100866a0     xpcruntime:xpcimports.obj
 0002:000056c0       ??_C@_0BA@LILAFDDL@slrtfsCloseFile@ 100866c0     xpcruntime:xpcimports.obj
 0002:000056d4       ??_C@_0BL@DEGHJFIB@slrtfsCloseFile?5not?5found?6@ 100866d4     xpcruntime:xpcimports.obj
 0002:000056f4       ??_C@_0BC@OKMJDIEH@slrtfsWriteToFile@ 100866f4     xpcruntime:xpcimports.obj
 0002:0000570c       ??_C@_0BN@KCFLCLAH@slrtfsWriteToFile?5not?5found?6@ 1008670c     xpcruntime:xpcimports.obj
 0002:00005730       ??_C@_0BK@GIPNFFFF@slrtfsGetFileErrorMessage@ 10086730     xpcruntime:xpcimports.obj
 0002:00005750       ??_C@_0CF@BCBLMKLE@slrtfsGetFileErrorMessage?5not?5f@ 10086750     xpcruntime:xpcimports.obj
 0002:0000577c       ??_C@_0BD@ICBOKMK@slrtfsGetFileError@ 1008677c     xpcruntime:xpcimports.obj
 0002:00005794       ??_C@_0BO@FNBANAE@slrtfsGetFileError?5not?5found?6@ 10086794     xpcruntime:xpcimports.obj
 0002:000057b8       ??_C@_0BE@PPAJMHJP@slrtfsOpenFileAsync@ 100867b8     xpcruntime:xpcimports.obj
 0002:000057d0       ??_C@_0BP@HKBMMJOK@slrtfsOpenFileAsync?5not?5found?6@ 100867d0     xpcruntime:xpcimports.obj
 0002:000057f8       ??_C@_0BF@IGNDIBPF@slrtfsCloseFileAsync@ 100867f8     xpcruntime:xpcimports.obj
 0002:00005814       ??_C@_0CA@GJPFDBKN@slrtfsCloseFileAsync?5not?5found?6@ 10086814     xpcruntime:xpcimports.obj
 0002:0000583c       ??_C@_0BE@IOLEBNB@slrtfsGetFileStatus@ 1008683c     xpcruntime:xpcimports.obj
 0002:00005854       ??_C@_0BP@PEFHDGHL@slrtfsGetFileStatus?5not?5found?6@ 10086854     xpcruntime:xpcimports.obj
 0002:0000587c       ??_C@_0M@HKIJIMG@slrtfsFread@ 1008687c     xpcruntime:xpcimports.obj
 0002:0000588c       ??_C@_0BH@OOKBGONO@slrtfsFread?5not?5found?6@ 1008688c     xpcruntime:xpcimports.obj
 0002:000058a8       ??_C@_0BE@OGCMPLAP@slrtGetDefaultDrive@ 100868a8     xpcruntime:xpcimports.obj
 0002:000058c0       ??_C@_0BP@HKFGLHOE@slrtGetDefaultDrive?5not?5found?6@ 100868c0     xpcruntime:xpcimports.obj
 0002:000058e8       ??_C@_0N@NAJIKFFI@slrtLogEvent@ 100868e8     xpcruntime:xpcimports.obj
 0002:000058f8       ??_C@_0BI@NKCEACND@slrtLogEvent?5not?5found?6@ 100868f8     xpcruntime:xpcimports.obj
 0002:00005914       ??_C@_0N@IDKFJOHI@getlasterror@ 10086914     xpcruntime:xpcimports.obj
 0002:00005924       ??_C@_0BI@MIHMCHGL@getlasterror?5not?5found?6@ 10086924     xpcruntime:xpcimports.obj
 0002:00005940       ??_C@_0P@OKHGKJKN@geterrorstring@ 10086940     xpcruntime:xpcimports.obj
 0002:00005954       ??_C@_0BK@NOHFDMLP@geterrorstring?5not?5found?6@ 10086954     xpcruntime:xpcimports.obj
 0002:00005974       ??_C@_0BD@HNFFKMGJ@slrtGetCPUTCelsius@ 10086974     xpcruntime:xpcimports.obj
 0002:0000598c       ??_C@_0BO@LHBFKLIH@slrtGetCPUTCelsius?5not?5found?6@ 1008698c     xpcruntime:xpcimports.obj
 0002:000059b0       ??_C@_0M@OONCNCLM@slrtWarning@ 100869b0     xpcruntime:xpcimports.obj
 0002:000059c0       ??_C@_0BH@ICKGIEMB@slrtWarning?5not?5found?6@ 100869c0     xpcruntime:xpcimports.obj
 0002:000059dc       ??_C@_0M@JACEPOPN@registerNIC@ 100869dc     xpcruntime:xpcimports.obj
 0002:000059ec       ??_C@_0BH@JMDHJIAC@registerNIC?5not?5found?6@ 100869ec     xpcruntime:xpcimports.obj
 0002:00005a08       ??_C@_0M@KBKHECFH@NICSetIface@ 10086a08     xpcruntime:xpcimports.obj
 0002:00005a18       ??_C@_0BH@NJAHOBA@NICSetIface?5not?5found?6@ 10086a18     xpcruntime:xpcimports.obj
 0002:00005a34       ??_C@_0M@FAILFBCK@NICGetIface@ 10086a34     xpcruntime:xpcimports.obj
 0002:00005a44       ??_C@_0BH@KDLLDOGM@NICGetIface?5not?5found?6@ 10086a44     xpcruntime:xpcimports.obj
 0002:00005a60       ??_C@_0L@JNFPDPO@releaseNIC@ 10086a60     xpcruntime:xpcimports.obj
 0002:00005a70       ??_C@_0BG@EBGJANLA@releaseNIC?5not?5found?6@ 10086a70     xpcruntime:xpcimports.obj
 0002:00005a8c       ??_C@_0BC@HLDKJAG@SetIPTASKPriority@ 10086a8c     xpcruntime:xpcimports.obj
 0002:00005aa4       ??_C@_0BN@OGKMHHAE@SetIPTASKPriority?5not?5found?6@ 10086aa4     xpcruntime:xpcimports.obj
 0002:00005ac8       ??_C@_0O@LHENMBDD@OpenInterface@ 10086ac8     xpcruntime:xpcimports.obj
 0002:00005ad8       ??_C@_0BJ@PFGDBKHB@OpenInterface?5not?5found?6@ 10086ad8     xpcruntime:xpcimports.obj
 0002:00005af8       ??_C@_0P@IINFELKD@CloseInterface@ 10086af8     xpcruntime:xpcimports.obj
 0002:00005b0c       ??_C@_0BK@PAPDNDBK@CloseInterface?5not?5found?6@ 10086b0c     xpcruntime:xpcimports.obj
 0002:00005b2c       ??_C@_05LEFIAAOI@SetIP@    10086b2c     xpcruntime:xpcimports.obj
 0002:00005b34       ??_C@_0BB@CGLIBAMM@SetIP?5not?5found?6@ 10086b34     xpcruntime:xpcimports.obj
 0002:00005b48       ??_C@_0BA@HIJJHHMD@AddGatewayRoute@ 10086b48     xpcruntime:xpcimports.obj
 0002:00005b5c       ??_C@_0BL@BFCFMDMN@AddGatewayRoute?5not?5found?6@ 10086b5c     xpcruntime:xpcimports.obj
 0002:00005b7c       ??_C@_0BC@OGIEOMEH@AddMulticastRoute@ 10086b7c     xpcruntime:xpcimports.obj
 0002:00005b94       ??_C@_0BN@IMNDPFCL@AddMulticastRoute?5not?5found?6@ 10086b94     xpcruntime:xpcimports.obj
 0002:00005bb8       ??_C@_0M@PHMABFPI@DeleteRoute@ 10086bb8     xpcruntime:xpcimports.obj
 0002:00005bc8       ??_C@_0BH@JPJGLLID@DeleteRoute?5not?5found?6@ 10086bc8     xpcruntime:xpcimports.obj
 0002:00005be4       ??_C@_0BA@FCDIMKIJ@GetHostTarIPAdd@ 10086be4     xpcruntime:xpcimports.obj
 0002:00005bf8       ??_C@_0BL@MBKDGKBO@GetHostTarIPAdd?5not?5found?6@ 10086bf8     xpcruntime:xpcimports.obj
 0002:00005c18       ??_C@_0M@HPMIPIBI@GetDCUUsage@ 10086c18     xpcruntime:xpcimports.obj
 0002:00005c28       ??_C@_0BH@EBLJKCJC@GetDCUUsage?5not?5found?6@ 10086c28     xpcruntime:xpcimports.obj
 0002:00005c44       ??_C@_06MPKMECK@accept@    10086c44     xpcruntime:xpcimports.obj
 0002:00005c4c       ??_C@_0BC@GBGIEMNO@accept?5not?5found?6@ 10086c4c     xpcruntime:xpcimports.obj
 0002:00005c64       ??_C@_04NPNJNMMP@bind@     10086c64     xpcruntime:xpcimports.obj
 0002:00005c6c       ??_C@_0BA@DAJNENLO@bind?5not?5found?6@ 10086c6c     xpcruntime:xpcimports.obj
 0002:00005c80       ??_C@_0L@CKHNIFCM@setsockopt@ 10086c80     xpcruntime:xpcimports.obj
 0002:00005c90       ??_C@_0BG@MFIIOMFE@setsockopt?5not?5found?6@ 10086c90     xpcruntime:xpcimports.obj
 0002:00005cac       ??_C@_0M@ODDJDCDK@closesocket@ 10086cac     xpcruntime:xpcimports.obj
 0002:00005cbc       ??_C@_0BH@JHGHMIL@closesocket?5not?5found?6@ 10086cbc     xpcruntime:xpcimports.obj
 0002:00005cd8       ??_C@_07KAIBNCHO@connect@  10086cd8     xpcruntime:xpcimports.obj
 0002:00005ce4       ??_C@_0BD@MKLLMBM@connect?5not?5found?6@ 10086ce4     xpcruntime:xpcimports.obj
 0002:00005cfc       ??_C@_0M@PBPOCKDG@ioctlsocket@ 10086cfc     xpcruntime:xpcimports.obj
 0002:00005d0c       ??_C@_0BH@NFCNHHIH@ioctlsocket?5not?5found?6@ 10086d0c     xpcruntime:xpcimports.obj
 0002:00005d28       ??_C@_06OODDLKLE@listen@   10086d28     xpcruntime:xpcimports.obj
 0002:00005d30       ??_C@_0BC@NHBILEKI@listen?5not?5found?6@ 10086d30     xpcruntime:xpcimports.obj
 0002:00005d48       ??_C@_08HMBBGFHE@recvfrom@ 10086d48     xpcruntime:xpcimports.obj
 0002:00005d54       ??_C@_0BE@BJAJFFLF@recvfrom?5not?5found?6@ 10086d54     xpcruntime:xpcimports.obj
 0002:00005d6c       ??_C@_06MEPBGKEC@sendto@   10086d6c     xpcruntime:xpcimports.obj
 0002:00005d74       ??_C@_0BC@BHPIMDJO@sendto?5not?5found?6@ 10086d74     xpcruntime:xpcimports.obj
 0002:00005d8c       ??_C@_09JKBDEEOB@inet_addr@ 10086d8c     xpcruntime:xpcimports.obj
 0002:00005d98       ??_C@_0BF@HKJPGECN@inet_addr?5not?5found?6@ 10086d98     xpcruntime:xpcimports.obj
 0002:00005db4       ??_C@_06HBELJPBO@socket@   10086db4     xpcruntime:xpcimports.obj
 0002:00005dbc       ??_C@_0BC@NAGFFJGA@socket?5not?5found?6@ 10086dbc     xpcruntime:xpcimports.obj
 0002:00005dd4       ??_C@_09ICJIFGNC@GetSocket@ 10086dd4     xpcruntime:xpcimports.obj
 0002:00005de0       ??_C@_0BF@KDBCKMOJ@GetSocket?5not?5found?6@ 10086de0     xpcruntime:xpcimports.obj
 0002:00005dfc       ??_C@_0P@KJEGJMJI@GetSocketState@ 10086dfc     xpcruntime:xpcimports.obj
 0002:00005e10       ??_C@_0BK@IALBJHEB@GetSocketState?5not?5found?6@ 10086e10     xpcruntime:xpcimports.obj
 0002:00005e30       ??_C@_0L@MEAJHNHB@SocketSend@ 10086e30     xpcruntime:xpcimports.obj
 0002:00005e40       ??_C@_0BG@EOCMBFJA@SocketSend?5not?5found?6@ 10086e40     xpcruntime:xpcimports.obj
 0002:00005e5c       ??_C@_0O@PFPCLEMF@SocketReceive@ 10086e5c     xpcruntime:xpcimports.obj
 0002:00005e6c       ??_C@_0BJ@HIBADDFO@SocketReceive?5not?5found?6@ 10086e6c     xpcruntime:xpcimports.obj
 0002:00005e8c       ??_C@_0BD@OOGFNAIK@CreateServerSocket@ 10086e8c     xpcruntime:xpcimports.obj
 0002:00005ea4       ??_C@_0BO@GKIJHIPH@CreateServerSocket?5not?5found?6@ 10086ea4     xpcruntime:xpcimports.obj
 0002:00005ec8       ??_C@_0BB@KGHJGFFO@OpenServerListen@ 10086ec8     xpcruntime:xpcimports.obj
 0002:00005edc       ??_C@_0BM@NFMMLIO@OpenServerListen?5not?5found?6@ 10086edc     xpcruntime:xpcimports.obj
 0002:00005f00       ??_C@_0BE@BAJLDJAH@ConnectServerSocket@ 10086f00     xpcruntime:xpcimports.obj
 0002:00005f18       ??_C@_0BP@KJNODIKE@ConnectServerSocket?5not?5found?6@ 10086f18     xpcruntime:xpcimports.obj
 0002:00005f40       ??_C@_0BC@PLKKJDIM@CloseServerSocket@ 10086f40     xpcruntime:xpcimports.obj
 0002:00005f58       ??_C@_0BN@KEJEPNMB@CloseServerSocket?5not?5found?6@ 10086f58     xpcruntime:xpcimports.obj
 0002:00005f7c       ??_C@_0BC@IHMNIGFJ@ResetServerSocket@ 10086f7c     xpcruntime:xpcimports.obj
 0002:00005f94       ??_C@_0BN@NIOGJLCG@ResetServerSocket?5not?5found?6@ 10086f94     xpcruntime:xpcimports.obj
 0002:00005fb8       ??_C@_0BD@MCLPKCPP@CreateClientSocket@ 10086fb8     xpcruntime:xpcimports.obj
 0002:00005fd0       ??_C@_0BO@DILAGPFN@CreateClientSocket?5not?5found?6@ 10086fd0     xpcruntime:xpcimports.obj
 0002:00005ff4       ??_C@_0BB@DAPKNNLG@BindClientSocket@ 10086ff4     xpcruntime:xpcimports.obj
 0002:00006008       ??_C@_0BM@LLLMMDFN@BindClientSocket?5not?5found?6@ 10087008     xpcruntime:xpcimports.obj
 0002:0000602c       ??_C@_0BE@DMEBELHC@ConnectClientSocket@ 1008702c     xpcruntime:xpcimports.obj
 0002:00006044       ??_C@_0BP@PLOHCPAO@ConnectClientSocket?5not?5found?6@ 10087044     xpcruntime:xpcimports.obj
 0002:0000606c       ??_C@_0BC@NHHAOBPJ@CloseClientSocket@ 1008706c     xpcruntime:xpcimports.obj
 0002:00006084       ??_C@_0BN@PGKNOKGL@CloseClientSocket?5not?5found?6@ 10087084     xpcruntime:xpcimports.obj
 0002:000060a8       ??_C@_0BC@KLBHPECM@ResetClientSocket@ 100870a8     xpcruntime:xpcimports.obj
 0002:000060c0       ??_C@_0BN@IKNPIMIM@ResetClientSocket?5not?5found?6@ 100870c0     xpcruntime:xpcimports.obj
 0002:000060e4       ??_C@_0M@IJOPFCCE@UDPOpenSend@ 100870e4     xpcruntime:xpcimports.obj
 0002:000060f4       ??_C@_0BH@CCHBDPG@UDPOpenSend?5not?5found?6@ 100870f4     xpcruntime:xpcimports.obj
 0002:00006110       ??_C@_0P@MEPACHPD@UDPOpenReceive@ 10087110     xpcruntime:xpcimports.obj
 0002:00006124       ??_C@_0BK@PFMCPKIO@UDPOpenReceive?5not?5found?6@ 10087124     xpcruntime:xpcimports.obj
 0002:00006144       ??_C@_0BK@BGNLEHGA@UDPAddMulticastMembership@ 10087144     xpcruntime:xpcimports.obj
 0002:00006164       ??_C@_0CF@CAEMAELE@UDPAddMulticastMembership?5not?5f@ 10087164     xpcruntime:xpcimports.obj
 0002:00006190       ??_C@_0N@NMMOLOEM@UDPCloseSend@ 10087190     xpcruntime:xpcimports.obj
 0002:000061a0       ??_C@_0BI@ENKCOCDG@UDPCloseSend?5not?5found?6@ 100871a0     xpcruntime:xpcimports.obj
 0002:000061bc       ??_C@_0BA@DMJGBBIA@UDPCloseReceive@ 100871bc     xpcruntime:xpcimports.obj
 0002:000061d0       ??_C@_0BL@PEBIMLNC@UDPCloseReceive?5not?5found?6@ 100871d0     xpcruntime:xpcimports.obj
 0002:000061f0       ??_C@_0P@NPOCJKPL@registerDFTask@ 100871f0     xpcruntime:xpcimports.obj
 0002:00006204       ??_C@_0BK@JHOOFMMI@registerDFTask?5not?5found?6@ 10087204     xpcruntime:xpcimports.obj
 0002:00006224       ??_C@_0BB@ICCLEIPB@deregisterDFTask@ 10087224     xpcruntime:xpcimports.obj
 0002:00006238       ??_C@_0BM@PEOCAIDM@deregisterDFTask?5not?5found?6@ 10087238     xpcruntime:xpcimports.obj
 0002:0000625c       ??_C@_0O@PHHDMOJH@triggerDFTask@ 1008725c     xpcruntime:xpcimports.obj
 0002:0000626c       ??_C@_0BJ@IKKCFBJL@triggerDFTask?5not?5found?6@ 1008726c     xpcruntime:xpcimports.obj
 0002:0000628c       ??_C@_0O@IAHKGBOC@waitForDFTask@ 1008728c     xpcruntime:xpcimports.obj
 0002:0000629c       ??_C@_0BJ@FHLCNAKE@waitForDFTask?5not?5found?6@ 1008729c     xpcruntime:xpcimports.obj
 0002:00006368       __pDefaultRawDllMain       10087368     LIBCMT:dll_dllmain.obj
 0002:00006368       __pRawDllMain              10087368     LIBCMT:dll_dllmain.obj
 0002:00006560       ??_C@_08EHJDFFNH@__based?$CI@ 10087560     libvcruntime:undname.obj
 0002:0000656c       ??_C@_07KOLFKCDI@__cdecl@  1008756c     libvcruntime:undname.obj
 0002:00006578       ??_C@_08GHMPAG@__pascal@   10087578     libvcruntime:undname.obj
 0002:00006584       ??_C@_09IFJBGAPI@__stdcall@ 10087584     libvcruntime:undname.obj
 0002:00006590       ??_C@_0L@NPHFGOKO@__thiscall@ 10087590     libvcruntime:undname.obj
 0002:000065a0       ??_C@_0L@JMKHOMEK@__fastcall@ 100875a0     libvcruntime:undname.obj
 0002:000065b0       ??_C@_0N@BCKKPABJ@__vectorcall@ 100875b0     libvcruntime:undname.obj
 0002:000065c0       ??_C@_09HIJEGCPM@__clrcall@ 100875c0     libvcruntime:undname.obj
 0002:000065cc       ??_C@_06GHPCKEAG@__eabi@   100875cc     libvcruntime:undname.obj
 0002:000065d4       ??_C@_09IOPIDJLG@__swift_1@ 100875d4     libvcruntime:undname.obj
 0002:000065e0       ??_C@_09KFNFGKHF@__swift_2@ 100875e0     libvcruntime:undname.obj
 0002:000065ec       ??_C@_07JOMMBBKO@__ptr64@  100875ec     libvcruntime:undname.obj
 0002:000065f8       ??_C@_0L@PILCLIHE@__restrict@ 100875f8     libvcruntime:undname.obj
 0002:00006608       ??_C@_0M@GFIIJFMG@__unaligned@ 10087608     libvcruntime:undname.obj
 0002:00006618       ??_C@_09DHDLOLLB@restrict?$CI@ 10087618     libvcruntime:undname.obj
 0002:00006624       ??_C@_04NIHEBCM@?5new@     10087624     libvcruntime:undname.obj
 0002:0000662c       ??_C@_07FPCDHGMM@?5delete@ 1008762c     libvcruntime:undname.obj
 0002:00006638       ??_C@_01NEMOKFLO@?$DN@     10087638     libvcruntime:undname.obj
 0002:0000663c       ??_C@_02GPIOPFAK@?$DO?$DO@ 1008763c     libvcruntime:undname.obj
 0002:00006640       ??_C@_02FODMEDOG@?$DM?$DM@ 10087640     libvcruntime:undname.obj
 0002:00006644       ??_C@_01DCLJPIOD@?$CB@     10087644     libvcruntime:undname.obj
 0002:00006648       ??_C@_02EGOFBIJA@?$DN?$DN@ 10087648     libvcruntime:undname.obj
 0002:0000664c       ??_C@_02FDNJECIE@?$CB?$DN@ 1008764c     libvcruntime:undname.obj
 0002:00006650       ??_C@_02GPECMEKF@?$FL?$FN@ 10087650     libvcruntime:undname.obj
 0002:00006654       ??_C@_08LHJFAFGD@operator@ 10087654     libvcruntime:undname.obj
 0002:00006660       ??_C@_02HBOOOICD@?9?$DO@   10087660     libvcruntime:undname.obj
 0002:00006664       ??_C@_01NBENCBCI@?$CK@     10087664     libvcruntime:undname.obj
 0002:00006668       ??_C@_02ECNGHCIF@?$CL?$CL@ 10087668     libvcruntime:undname.obj
 0002:0000666c       ??_C@_02BAABKJLB@?9?9@     1008766c     libvcruntime:undname.obj
 0002:00006670       ??_C@_01JOAMLHOP@?9@       10087670     libvcruntime:undname.obj
 0002:00006674       ??_C@_01MIFGBAGJ@?$CL@     10087674     libvcruntime:undname.obj
 0002:00006678       ??_C@_01HNPIGOCE@?$CG@     10087678     libvcruntime:undname.obj
 0002:0000667c       ??_C@_03MNHNFDLC@?9?$DO?$CK@ 1008767c     libvcruntime:undname.obj
 0002:00006680       ??_C@_01KMDKNFGN@?1@       10087680     libvcruntime:undname.obj
 0002:00006684       ??_C@_01FGNFDNOH@?$CF@     10087684     libvcruntime:undname.obj
 0002:00006688       ??_C@_01MNNFJEPP@?$DM@     10087688     libvcruntime:undname.obj
 0002:0000668c       ??_C@_02EHCHHCKH@?$DM?$DN@ 1008768c     libvcruntime:undname.obj
 0002:00006690       ??_C@_01PPODPGHN@?$DO@     10087690     libvcruntime:undname.obj
 0002:00006694       ??_C@_02EEKDKGMJ@?$DO?$DN@ 10087694     libvcruntime:undname.obj
 0002:00006698       ??_C@_01IHBHIGKO@?0@       10087698     libvcruntime:undname.obj
 0002:0000669c       ??_C@_02HCKGKOFO@?$CI?$CJ@ 1008769c     libvcruntime:undname.obj
 0002:000066a0       ??_C@_01PJKLJHI@?$HO@      100876a0     libvcruntime:undname.obj
 0002:000066a4       ??_C@_01JKBOJNNK@?$FO@     100876a4     libvcruntime:undname.obj
 0002:000066a8       ??_C@_02PPKAJPJL@?$CG?$CG@ 100876a8     libvcruntime:undname.obj
 0002:000066ac       ??_C@_02NONPIBCD@?$HM?$HM@ 100876ac     libvcruntime:undname.obj
 0002:000066b0       ??_C@_02FPIMKNGF@?$CK?$DN@ 100876b0     libvcruntime:undname.obj
 0002:000066b4       ??_C@_02FOEOMHFC@?$CL?$DN@ 100876b4     libvcruntime:undname.obj
 0002:000066b8       ??_C@_02FKMDLLOA@?9?$DN@   100876b8     libvcruntime:undname.obj
 0002:000066bc       ??_C@_02FJEHGPIO@?1?$DN@   100876bc     libvcruntime:undname.obj
 0002:000066c0       ??_C@_02FENAOKFI@?$CF?$DN@ 100876c0     libvcruntime:undname.obj
 0002:000066c4       ??_C@_03IKFCCPFF@?$DO?$DO?$DN@ 100876c4     libvcruntime:undname.obj
 0002:000066c8       ??_C@_03CDNPDDLA@?$DM?$DM?$DN@ 100876c8     libvcruntime:undname.obj
 0002:000066cc       ??_C@_02FGJGFEAB@?$CG?$DN@ 100876cc     libvcruntime:undname.obj
 0002:000066d0       ??_C@_02DHLNPPGH@?$HM?$DN@ 100876d0     libvcruntime:undname.obj
 0002:000066d4       ??_C@_02MHEGNOJ@?$FO?$DN@  100876d4     libvcruntime:undname.obj
 0002:000066d8       ??_C@_09IFPLHPGF@?$GAvftable?8@ 100876d8     libvcruntime:undname.obj
 0002:000066e4       ??_C@_09BLBHBJP@?$GAvbtable?8@ 100876e4     libvcruntime:undname.obj
 0002:000066f0       ??_C@_07FEEIOKP@?$GAvcall?8@ 100876f0     libvcruntime:undname.obj
 0002:000066fc       ??_C@_08LLFFHHDJ@?$GAtypeof?8@ 100876fc     libvcruntime:undname.obj
 0002:00006708       ??_C@_0BF@KDPPACIK@?$GAlocal?5static?5guard?8@ 10087708     libvcruntime:undname.obj
 0002:00006724       ??_C@_08OBABFOLI@?$GAstring?8@ 10087724     libvcruntime:undname.obj
 0002:00006730       ??_C@_0BD@JDLKDPAB@?$GAvbase?5destructor?8@ 10087730     libvcruntime:undname.obj
 0002:00006748       ??_C@_0BN@DEGPLNFK@?$GAvector?5deleting?5destructor?8@ 10087748     libvcruntime:undname.obj
 0002:0000676c       ??_C@_0BO@OBMKPJIG@?$GAdefault?5constructor?5closure?8@ 1008776c     libvcruntime:undname.obj
 0002:00006790       ??_C@_0BN@IMDCHIKM@?$GAscalar?5deleting?5destructor?8@ 10087790     libvcruntime:undname.obj
 0002:000067b4       ??_C@_0BO@PFGOCPJJ@?$GAvector?5constructor?5iterator?8@ 100877b4     libvcruntime:undname.obj
 0002:000067d8       ??_C@_0BN@LFPFMEDL@?$GAvector?5destructor?5iterator?8@ 100877d8     libvcruntime:undname.obj
 0002:000067fc       ??_C@_0CE@IKBNEHA@?$GAvector?5vbase?5constructor?5itera@ 100877fc     libvcruntime:undname.obj
 0002:00006828       ??_C@_0BL@NILFHHPC@?$GAvirtual?5displacement?5map?8@ 10087828     libvcruntime:undname.obj
 0002:00006848       ??_C@_0CB@JONCMFFK@?$GAeh?5vector?5constructor?5iterator@ 10087848     libvcruntime:undname.obj
 0002:00006870       ??_C@_0CA@GCEOPDGL@?$GAeh?5vector?5destructor?5iterator?8@ 10087870     libvcruntime:undname.obj
 0002:00006898       ??_C@_0CH@OOJPLCPH@?$GAeh?5vector?5vbase?5constructor?5it@ 10087898     libvcruntime:undname.obj
 0002:000068c8       ??_C@_0BL@LLKPOHJI@?$GAcopy?5constructor?5closure?8@ 100878c8     libvcruntime:undname.obj
 0002:000068e8       ??_C@_0BA@KBCDOMBN@?$GAudt?5returning?8@ 100878e8     libvcruntime:undname.obj
 0002:000068fc       ??_C@_03KLGMFNMG@?$GAEH@   100878fc     libvcruntime:undname.obj
 0002:00006900       ??_C@_05KHLCHHI@?$GARTTI@  10087900     libvcruntime:undname.obj
 0002:00006908       ??_C@_0BA@KKLDJDLB@?$GAlocal?5vftable?8@ 10087908     libvcruntime:undname.obj
 0002:0000691c       ??_C@_0CE@IIHCMGGL@?$GAlocal?5vftable?5constructor?5clos@ 1008791c     libvcruntime:undname.obj
 0002:00006948       ??_C@_06FHBGPFGH@?5new?$FL?$FN@ 10087948     libvcruntime:undname.obj
 0002:00006950       ??_C@_09LBNFPBCA@?5delete?$FL?$FN@ 10087950     libvcruntime:undname.obj
 0002:0000695c       ??_C@_0P@HJKNJFNN@?$GAomni?5callsig?8@ 1008795c     libvcruntime:undname.obj
 0002:00006970       ??_C@_0BL@CNOONJFP@?$GAplacement?5delete?5closure?8@ 10087970     libvcruntime:undname.obj
 0002:00006990       ??_C@_0BN@CKNJLHMB@?$GAplacement?5delete?$FL?$FN?5closure?8@ 10087990     libvcruntime:undname.obj
 0002:000069b4       ??_C@_0CG@CFDHKGGD@?$GAmanaged?5vector?5constructor?5ite@ 100879b4     libvcruntime:undname.obj
 0002:000069e4       ??_C@_0CF@IMGKMJNO@?$GAmanaged?5vector?5destructor?5iter@ 100879e4     libvcruntime:undname.obj
 0002:00006a10       ??_C@_0CG@HLDDJMAG@?$GAeh?5vector?5copy?5constructor?5ite@ 10087a10     libvcruntime:undname.obj
 0002:00006a40       ??_C@_0CM@FCBBDIGB@?$GAeh?5vector?5vbase?5copy?5construct@ 10087a40     libvcruntime:undname.obj
 0002:00006a74       ??_C@_0BL@CLIPGLGB@?$GAdynamic?5initializer?5for?5?8@ 10087a74     libvcruntime:undname.obj
 0002:00006a94       ??_C@_0CB@PDBIFEP@?$GAdynamic?5atexit?5destructor?5for?5@ 10087a94     libvcruntime:undname.obj
 0002:00006abc       ??_C@_0CD@CGAJBKEJ@?$GAvector?5copy?5constructor?5iterat@ 10087abc     libvcruntime:undname.obj
 0002:00006ae8       ??_C@_0CJ@GJELGAMM@?$GAvector?5vbase?5copy?5constructor?5@ 10087ae8     libvcruntime:undname.obj
 0002:00006b1c       ??_C@_0CL@FGIJHLCE@?$GAmanaged?5vector?5copy?5constructo@ 10087b1c     libvcruntime:undname.obj
 0002:00006b50       ??_C@_0BM@PMGGMLDN@?$GAlocal?5static?5thread?5guard?8@ 10087b50     libvcruntime:undname.obj
 0002:00006b74       ??_C@_0N@BDNMDMOL@operator?5?$CC?$CC?5@ 10087b74     libvcruntime:undname.obj
 0002:00006b84       ??_C@_0BC@GGEBGALA@operator?5co_await@ 10087b84     libvcruntime:undname.obj
 0002:00006b9c       ??_C@_0BC@DAFEJGAK@?5Type?5Descriptor?8@ 10087b9c     libvcruntime:undname.obj
 0002:00006bb4       ??_C@_0BM@LDKODKLH@?5Base?5Class?5Descriptor?5at?5?$CI@ 10087bb4     libvcruntime:undname.obj
 0002:00006bd8       ??_C@_0BD@LGICGFMM@?5Base?5Class?5Array?8@ 10087bd8     libvcruntime:undname.obj
 0002:00006bf0       ??_C@_0BN@MECKDCOJ@?5Class?5Hierarchy?5Descriptor?8@ 10087bf0     libvcruntime:undname.obj
 0002:00006c14       ??_C@_0BK@CFCOFLF@?5Complete?5Object?5Locator?8@ 10087c14     libvcruntime:undname.obj
 0002:00006c34       ??_C@_04HEJADOOB@CV?3?5@   10087c34     libvcruntime:undname.obj
 0002:00006c3c       ??_C@_02MOLJINC@?3?3@      10087c3c     libvcruntime:undname.obj
 0002:00006c40       ??_C@_0BE@JAEOCHPE@template?9parameter?9@ 10087c40     libvcruntime:undname.obj
 0002:00006c58       ??_C@_0O@KHGCOMHP@generic?9type?9@ 10087c58     libvcruntime:undname.obj
 0002:00006c68       ??_C@_01NLNLIGKH@?$GA@     10087c68     libvcruntime:undname.obj
 0002:00006c6c       ??_C@_01GEODFPGF@?8@       10087c6c     libvcruntime:undname.obj
 0002:00006c70       ??_C@_0BG@JNJLAMPM@?$GAanonymous?5namespace?8@ 10087c70     libvcruntime:undname.obj
 0002:00006c8c       ??_C@_02OHHJMEON@?8?8@     10087c8c     libvcruntime:undname.obj
 0002:00006c90       ??_C@_0BN@IBLMMFAP@?$GAnon?9type?9template?9parameter@ 10087c90     libvcruntime:undname.obj
 0002:00006cb4       ??_C@_04GKJNKENE@void@     10087cb4     libvcruntime:undname.obj
 0002:00006cbc       ??_C@_0BE@EODMJLIF@?$GAtemplate?9parameter@ 10087cbc     libvcruntime:undname.obj
 0002:00006cd4       ??_C@_03KHICJKCI@?4?4?4@   10087cd4     libvcruntime:undname.obj
 0002:00006cd8       ??_C@_04HIBGFPH@NULL@      10087cd8     libvcruntime:undname.obj
 0002:00006ce0       ??_C@_02DPKJAMEF@?$CFd@    10087ce0     libvcruntime:undname.obj
 0002:00006ce4       ??_C@_0BK@IHCCFNEL@?$GAtemplate?9type?9parameter?9@ 10087ce4     libvcruntime:undname.obj
 0002:00006d04       ??_C@_0BK@OFCNNNKO@?$GAgeneric?9class?9parameter?9@ 10087d04     libvcruntime:undname.obj
 0002:00006d24       ??_C@_0BL@NGJBLFIL@?$GAgeneric?9method?9parameter?9@ 10087d24     libvcruntime:undname.obj
 0002:00006d44       ??_C@_03OPGICMGF@?$HN?8?5@ 10087d44     libvcruntime:undname.obj
 0002:00006d48       ??_C@_02IGFCGPIL@?$HN?8@   10087d48     libvcruntime:undname.obj
 0002:00006d4c       ??_C@_01CLKCMJKC@?5@       10087d4c     libvcruntime:undname.obj
 0002:00006d50       ??_C@_0N@CBHHHENL@?$GAvtordispex?$HL@ 10087d50     libvcruntime:undname.obj
 0002:00006d60       ??_C@_0L@GHPFDFH@?$GAvtordisp?$HL@ 10087d60     libvcruntime:undname.obj
 0002:00006d70       ??_C@_0L@HNGCOGAE@?$GAadjustor?$HL@ 10087d70     libvcruntime:undname.obj
 0002:00006d80       ??_C@_0CB@KJDOOODE@?$GAlocal?5static?5destructor?5helper@ 10087d80     libvcruntime:undname.obj
 0002:00006da8       ??_C@_0DB@ILEFOCIJ@?$GAtemplate?5static?5data?5member?5co@ 10087da8     libvcruntime:undname.obj
 0002:00006de4       ??_C@_0DA@HGFJFBBE@?$GAtemplate?5static?5data?5member?5de@ 10087de4     libvcruntime:undname.obj
 0002:00006e20       ??_C@_07PGOEDBHP@static?5@ 10087e20     libvcruntime:undname.obj
 0002:00006e2c       ??_C@_08NIEOINHE@virtual?5@ 10087e2c     libvcruntime:undname.obj
 0002:00006e38       ??_C@_09LAPHOOG@private?3?5@ 10087e38     libvcruntime:undname.obj
 0002:00006e44       ??_C@_0M@GAIFPFIP@protected?3?5@ 10087e44     libvcruntime:undname.obj
 0002:00006e54       ??_C@_08GPDDCMKI@public?3?5@ 10087e54     libvcruntime:undname.obj
 0002:00006e60       ??_C@_08KJLFOPNE@?$FLthunk?$FN?3@ 10087e60     libvcruntime:undname.obj
 0002:00006e6c       ??_C@_0M@DHNBOJMP@extern?5?$CCC?$CC?5@ 10087e6c     libvcruntime:undname.obj
 0002:00006e7c       ??_C@_02KCKGHPCA@?$CJ?5@   10087e7c     libvcruntime:undname.obj
 0002:00006e80       ??_C@_05CIHEBHNO@char?5@   10087e80     libvcruntime:undname.obj
 0002:00006e88       ??_C@_06EHJMALKF@short?5@  10087e88     libvcruntime:undname.obj
 0002:00006e90       ??_C@_04LAHKHJMA@int?5@    10087e90     libvcruntime:undname.obj
 0002:00006e98       ??_C@_05CJIMAING@long?5@   10087e98     libvcruntime:undname.obj
 0002:00006ea0       ??_C@_09EBBEKKIH@unsigned?5@ 10087ea0     libvcruntime:undname.obj
 0002:00006eac       ??_C@_05BEFAKPML@void?5@   10087eac     libvcruntime:undname.obj
 0002:00006eb4       ??_C@_08PABEKFH@volatile@  10087eb4     libvcruntime:undname.obj
 0002:00006ec0       ??_C@_0BA@LKIJLKPP@std?3?3nullptr_t?5@ 10087ec0     libvcruntime:undname.obj
 0002:00006ed4       ??_C@_0P@GCOCNKDM@std?3?3nullptr_t@ 10087ed4     libvcruntime:undname.obj
 0002:00006ee8       ??_C@_0L@EGPHHEKN@?$DMellipsis?$DO@ 10087ee8     libvcruntime:undname.obj
 0002:00006ef8       ??_C@_04EENFHACM@?0?4?4?4@ 10087ef8     libvcruntime:undname.obj
 0002:00006f00       ??_C@_0M@ELJOJFFH@?0?$DMellipsis?$DO@ 10087f00     libvcruntime:undname.obj
 0002:00006f10       ??_C@_09DNHFEOJI@?5noexcept@ 10087f10     libvcruntime:undname.obj
 0002:00006f1c       ??_C@_03PBJBJNON@cpu@      10087f1c     libvcruntime:undname.obj
 0002:00006f20       ??_C@_03DCBBJBAA@amp@      10087f20     libvcruntime:undname.obj
 0002:00006f24       ??_C@_02KEGNLNML@?0?5@     10087f24     libvcruntime:undname.obj
 0002:00006f28       ??_C@_04ENMBGAPA@char@     10087f28     libvcruntime:undname.obj
 0002:00006f30       ??_C@_05BFKKPKCG@short@    10087f30     libvcruntime:undname.obj
 0002:00006f38       ??_C@_04GOKPGOLB@long@     10087f38     libvcruntime:undname.obj
 0002:00006f40       ??_C@_04DDKJGDCM@bool@     10087f40     libvcruntime:undname.obj
 0002:00006f48       ??_C@_06EBGKOKIG@__int8@   10087f48     libvcruntime:undname.obj
 0002:00006f50       ??_C@_07ICFHOGAF@__int16@  10087f50     libvcruntime:undname.obj
 0002:00006f5c       ??_C@_07OFLPPHGP@__int32@  10087f5c     libvcruntime:undname.obj
 0002:00006f68       ??_C@_07LFCOJCAC@__int64@  10087f68     libvcruntime:undname.obj
 0002:00006f74       ??_C@_08GAHOLHEO@__int128@ 10087f74     libvcruntime:undname.obj
 0002:00006f80       ??_C@_09EEKGDCPH@?$DMunknown?$DO@ 10087f80     libvcruntime:undname.obj
 0002:00006f8c       ??_C@_08HBIPOFJB@char16_t@ 10087f8c     libvcruntime:undname.obj
 0002:00006f98       ??_C@_08IECNCBKG@char32_t@ 10087f98     libvcruntime:undname.obj
 0002:00006fa4       ??_C@_07CLGGIAMF@wchar_t@  10087fa4     libvcruntime:undname.obj
 0002:00006fb0       ??_C@_06GCICPBLB@__w64?5@  10087fb0     libvcruntime:undname.obj
 0002:00006fb8       ??_C@_07NFANNNEC@UNKNOWN@  10087fb8     libvcruntime:undname.obj
 0002:00006fc4       ??_C@_07EDHNAJHC@signed?5@ 10087fc4     libvcruntime:undname.obj
 0002:00006fd0       ??_C@_05BNCCCJPP@const@    10087fd0     libvcruntime:undname.obj
 0002:00006fd8       ??_C@_09EFNPDFFP@?5volatile@ 10087fd8     libvcruntime:undname.obj
 0002:00006fe4       ??_C@_0P@GCIFDJCJ@?$GAunknown?5ecsu?8@ 10087fe4     libvcruntime:undname.obj
 0002:00006ff8       ??_C@_06MOJHIBMG@union?5@  10087ff8     libvcruntime:undname.obj
 0002:00007000       ??_C@_07DIBCDNGL@struct?5@ 10088000     libvcruntime:undname.obj
 0002:0000700c       ??_C@_06LJBABKPM@class?5@  1008800c     libvcruntime:undname.obj
 0002:00007014       ??_C@_08KOFANOFK@coclass?5@ 10088014     libvcruntime:undname.obj
 0002:00007020       ??_C@_0N@DLIEFKNA@cointerface?5@ 10088020     libvcruntime:undname.obj
 0002:00007030       ??_C@_05LJGMCFOG@enum?5@   10088030     libvcruntime:undname.obj
 0002:00007038       ??_C@_09GAIEOBLP@volatile?5@ 10088038     libvcruntime:undname.obj
 0002:00007044       ??_C@_06LIJLOJAG@const?5@  10088044     libvcruntime:undname.obj
 0002:0000704c       ??_C@_02KJPKDIBN@?$CG?5@   1008804c     libvcruntime:undname.obj
 0002:00007050       ??_C@_03PCKGMOPB@?$CG?$CG?5@ 10088050     libvcruntime:undname.obj
 0002:00007054       ??_C@_0M@EALIELKG@cli?3?3array?$DM@ 10088054     libvcruntime:undname.obj
 0002:00007064       ??_C@_0O@GKABPPIF@cli?3?3pin_ptr?$DM@ 10088064     libvcruntime:undname.obj
 0002:00007074       ??_C@_02GOGNNPBN@?$CJ?$FL@ 10088074     libvcruntime:undname.obj
 0002:00007078       ??_C@_06EEGAIFAK@?$HLflat?$HN@ 10088078     libvcruntime:undname.obj
 0002:00007080       ??_C@_05JIBOFOHK@?$HLfor?5@ 10088080     libvcruntime:undname.obj
 0002:00007088       ??_C@_02MDINNEEG@s?5@      10088088     libvcruntime:undname.obj
 0002:00007090       ??_7DNameNode@@6B@         10088090     libvcruntime:undname.obj
 0002:000070a4       ??_7charNode@@6B@          100880a4     libvcruntime:undname.obj
 0002:000070b8       ??_7pcharNode@@6B@         100880b8     libvcruntime:undname.obj
 0002:000070cc       ??_7pDNameNode@@6B@        100880cc     libvcruntime:undname.obj
 0002:000070e0       ??_7DNameStatusNode@@6B@   100880e0     libvcruntime:undname.obj
 0002:000070f4       ??_7pairNode@@6B@          100880f4     libvcruntime:undname.obj
 0002:00007104       ??_C@_04OKOHEJBO@?5?$DP?$DP?5@ 10088104     libvcruntime:undname.obj
 0002:0000710c       ?nodes@?1??make@DNameStatusNode@@SAPBV2@W4DNameStatus@@@Z@4QBV2@B 1008810c     libvcruntime:undname.obj
 0002:00007158       ??_C@_1DM@KHCHBNEB@?$AAa?$AAp?$AAi?$AA?9?$AAm?$AAs?$AA?9?$AAw?$AAi?$AAn?$AA?9?$AAc?$AAo?$AAr?$AAe@ 10088158     libvcruntime:winapi_downlevel.obj
 0002:000071a0       ??_C@_1DK@LPPGFMPP@?$AAa?$AAp?$AAi?$AA?9?$AAm?$AAs?$AA?9?$AAw?$AAi?$AAn?$AA?9?$AAc?$AAo?$AAr?$AAe@ 100881a0     libvcruntime:winapi_downlevel.obj
 0002:000071e8       ??_C@_1BC@GDMECMAK@?$AAk?$AAe?$AAr?$AAn?$AAe?$AAl?$AA3?$AA2@ 100881e8     libvcruntime:winapi_downlevel.obj
 0002:00007200       ??_C@_1BA@PFFKHIOG@?$AAa?$AAp?$AAi?$AA?9?$AAm?$AAs?$AA?9@ 10088200     libvcruntime:winapi_downlevel.obj
 0002:00007214       ??_C@_1BA@IAIFMGEF@?$AAe?$AAx?$AAt?$AA?9?$AAm?$AAs?$AA?9@ 10088214     libvcruntime:winapi_downlevel.obj
 0002:00007234       ??_C@_08KNHFBNJ@FlsAlloc@  10088234     libvcruntime:winapi_downlevel.obj
 0002:0000724c       ??_C@_07PEJMOBNF@FlsFree@  1008824c     libvcruntime:winapi_downlevel.obj
 0002:00007264       ??_C@_0M@GDNOONDI@FlsGetValue@ 10088264     libvcruntime:winapi_downlevel.obj
 0002:00007280       ??_C@_0M@JCPCPOEF@FlsSetValue@ 10088280     libvcruntime:winapi_downlevel.obj
 0002:0000729c       ??_C@_0BM@HCFOFFN@InitializeCriticalSectionEx@ 1008829c     libvcruntime:winapi_downlevel.obj
 0002:000072c4       ??_7exception@std@@6B@     100882c4     libvcruntime:frame.obj
 0002:000072d0       ??_C@_0BC@EOODALEL@Unknown?5exception@ 100882d0     libvcruntime:frame.obj
 0002:000072ec       ??_7bad_exception@std@@6B@ 100882ec     libvcruntime:frame.obj
 0002:000072f8       ??_C@_0O@DPKOEFFH@bad?5exception@ 100882f8     libvcruntime:frame.obj
 0002:00007308       __pDestructExceptionObject 10088308     libvcruntime:ehhelpers.obj
 0002:00007338       _standard_lookup_table     10088338     libucrt:output.obj
 0002:000073a8       _format_validation_lookup_table 100883a8     libucrt:output.obj
 0002:00007418       ??_C@_1O@CEDCILHN@?$AA?$CI?$AAn?$AAu?$AAl?$AAl?$AA?$CJ?$AA?$AA@ 10088418     libucrt:output.obj
 0002:00007428       ??_C@_06OJHGLDPL@?$CInull?$CJ?$AA@ 10088428     libucrt:output.obj
 0002:00007430       _RtlNtPathSeperatorString  10088430     libucrt:exit.obj
 0002:0000743c       ??_C@_13FPGAJAPJ@?$AA?2?$AA?$AA@ 1008843c     libucrt:exit.obj
 0002:00007440       _RtlDosPathSeperatorsString 10088440     libucrt:exit.obj
 0002:0000744c       ??_C@_15MNCACJLI@?$AA?2?$AA?1?$AA?$AA@ 1008844c     libucrt:exit.obj
 0002:00007454       _RtlAlternateDosPathSeperatorString 10088454     libucrt:exit.obj
 0002:00007460       ??_C@_13CGOKJPIL@?$AA?1?$AA?$AA@ 10088460     libucrt:exit.obj
 0002:00007464       ??_C@_1BI@BGOHAHKC@?$AAm?$AAs?$AAc?$AAo?$AAr?$AAe?$AAe?$AA?4?$AAd?$AAl?$AAl?$AA?$AA@ 10088464     libucrt:exit.obj
 0002:00007480       ??_C@_0P@MIGLKIOC@CorExitProcess?$AA@ 10088480     libucrt:exit.obj
 0002:00007498       __real@0000000000000000    10088498     libucrt:ldexp.obj
 0002:000074a4       ??_C@_0CK@CFPGFGGO@Assertion?5failed?3?5?$CFTs?0?5file?5?$CFTs?0@ 100884a4     libucrt:assert.obj
 0002:000074d8       ??_C@_1FE@LHBLIKM@?$AAA?$AAs?$AAs?$AAe?$AAr?$AAt?$AAi?$AAo?$AAn?$AA?5?$AAf?$AAa?$AAi?$AAl?$AAe?$AAd?$AA?3?$AA?5?$AA?$CF?$AAT?$AAs?$AA?0?$AA?5?$AAf?$AAi?$AAl?$AAe?$AA?5?$AA?$CF?$AAT?$AAs?$AA?0@ 100884d8     libucrt:assert.obj
 0002:0000753c       ??_C@_0CF@GOGNBNAK@Microsoft?5Visual?5C?$CL?$CL?5Runtime?5Lib@ 1008853c     libucrt:assert.obj
 0002:00007568       ??_C@_1EK@MBDPDCGA@?$AAM?$AAi?$AAc?$AAr?$AAo?$AAs?$AAo?$AAf?$AAt?$AA?5?$AAV?$AAi?$AAs?$AAu?$AAa?$AAl?$AA?5?$AAC?$AA?$CL?$AA?$CL?$AA?5?$AAR?$AAu?$AAn?$AAt?$AAi?$AAm?$AAe?$AA?5?$AAL?$AAi?$AAb@ 10088568     libucrt:assert.obj
 0002:000075c0       ??_C@_0BC@LAIDCHCH@Assertion?5failed?$CB?$AA@ 100885c0     libucrt:assert.obj
 0002:000075d8       ??_C@_1CE@OJBNHDMO@?$AAA?$AAs?$AAs?$AAe?$AAr?$AAt?$AAi?$AAo?$AAn?$AA?5?$AAf?$AAa?$AAi?$AAl?$AAe?$AAd?$AA?$CB?$AA?$AA@ 100885d8     libucrt:assert.obj
 0002:00007604       ??_C@_09KLGCKDOD@Program?3?5?$AA@ 10088604     libucrt:assert.obj
 0002:00007610       ??_C@_1BE@PHKBBGE@?$AAP?$AAr?$AAo?$AAg?$AAr?$AAa?$AAm?$AA?3?$AA?5?$AA?$AA@ 10088610     libucrt:assert.obj
 0002:00007628       ??_C@_06IGPBOHMJ@File?3?5?$AA@ 10088628     libucrt:assert.obj
 0002:00007630       ??_C@_1O@HEMHKNDC@?$AAF?$AAi?$AAl?$AAe?$AA?3?$AA?5?$AA?$AA@ 10088630     libucrt:assert.obj
 0002:00007640       ??_C@_06FIEBOLOH@Line?3?5?$AA@ 10088640     libucrt:assert.obj
 0002:00007648       ??_C@_1O@KCAFKHJE@?$AAL?$AAi?$AAn?$AAe?$AA?3?$AA?5?$AA?$AA@ 10088648     libucrt:assert.obj
 0002:00007658       ??_C@_0N@MEECIJGN@Expression?3?5?$AA@ 10088658     libucrt:assert.obj
 0002:00007668       ??_C@_1BK@PEDCIPMA@?$AAE?$AAx?$AAp?$AAr?$AAe?$AAs?$AAs?$AAi?$AAo?$AAn?$AA?3?$AA?5?$AA?$AA@ 10088668     libucrt:assert.obj
 0002:00007688       ??_C@_0HA@OJHAGA@For?5information?5on?5how?5your?5prog@ 10088688     libucrt:assert.obj
 0002:00007710       ??_C@_1OA@EGMLFBHJ@?$AAF?$AAo?$AAr?$AA?5?$AAi?$AAn?$AAf?$AAo?$AAr?$AAm?$AAa?$AAt?$AAi?$AAo?$AAn?$AA?5?$AAo?$AAn?$AA?5?$AAh?$AAo?$AAw?$AA?5?$AAy?$AAo?$AAu?$AAr?$AA?5?$AAp?$AAr?$AAo?$AAg@ 10088710     libucrt:assert.obj
 0002:0000781c       ??_C@_0DN@EBBNMLME@?$CIPress?5Retry?5to?5debug?5the?5applic@ 1008881c     libucrt:assert.obj
 0002:00007868       ??_C@_1HK@POCJMFGK@?$AA?$CI?$AAP?$AAr?$AAe?$AAs?$AAs?$AA?5?$AAR?$AAe?$AAt?$AAr?$AAy?$AA?5?$AAt?$AAo?$AA?5?$AAd?$AAe?$AAb?$AAu?$AAg?$AA?5?$AAt?$AAh?$AAe?$AA?5?$AAa?$AAp?$AAp?$AAl?$AAi?$AAc@ 10088868     libucrt:assert.obj
 0002:000078fc       ??_C@_03KHICJKCI@?4?4?4?$AA@ 100888fc     libucrt:assert.obj
 0002:00007900       ??_C@_17LGKOMLJ@?$AA?4?$AA?4?$AA?4?$AA?$AA@ 10088900     libucrt:assert.obj
 0002:0000790c       ??_C@_01EEMJAFIK@?6?$AA@   1008890c     libucrt:assert.obj
 0002:00007910       ??_C@_13LBAGMAIH@?$AA?6?$AA?$AA@ 10088910     libucrt:assert.obj
 0002:00007914       ??_C@_02PHMGELLB@?6?6?$AA@ 10088914     libucrt:assert.obj
 0002:00007918       ??_C@_15IABLJNFO@?$AA?6?$AA?6?$AA?$AA@ 10088918     libucrt:assert.obj
 0002:00007920       ??_C@_0BH@DNAGHKFM@?$DMprogram?5name?5unknown?$DO?$AA@ 10088920     libucrt:assert.obj
 0002:0000793c       ??_C@_1CO@EAEJAADC@?$AA?$DM?$AAp?$AAr?$AAo?$AAg?$AAr?$AAa?$AAm?$AA?5?$AAn?$AAa?$AAm?$AAe?$AA?5?$AAu?$AAn?$AAk?$AAn?$AAo?$AAw?$AAn?$AA?$DO?$AA?$AA@ 1008893c     libucrt:assert.obj
 0002:00007974       __Fenv1                    10088974     libucrt:input.obj
 0002:00007980       ?large_power_data@?1??multiply_by_power_of_ten@__crt_strtox@@YA_NAAUbig_integer@2@I@Z@4QBIB 10088980     libucrt:input.obj
 0002:00008458       ?large_power_indices@?1??multiply_by_power_of_ten@__crt_strtox@@YA_NAAUbig_integer@2@I@Z@4QBUunpack_index@?1??12@YA_N0I@Z@B 10089458     libucrt:input.obj
 0002:00008510       ?small_powers_of_ten@?1??multiply_by_power_of_ten@__crt_strtox@@YA_NAAUbig_integer@2@I@Z@4QBIB 10089510     libucrt:input.obj
 0002:00008540       ??_C@_1GE@DPGDJKLM@?$AAm?$AAi?$AAn?$AAk?$AAe?$AAr?$AAn?$AAe?$AAl?$AA?2?$AAc?$AAr?$AAt?$AAs?$AA?2?$AAu?$AAc?$AAr?$AAt?$AA?2?$AAi?$AAn?$AAc?$AA?2?$AAc?$AAo?$AAr?$AAe?$AAc?$AAr?$AAt?$AA_@ 10089540     libucrt:input.obj
 0002:000085b8       ??_C@_1FM@FELNCOBF@?$AA_?$AA_?$AAc?$AAr?$AAt?$AA_?$AAs?$AAt?$AAr?$AAt?$AAo?$AAx?$AA?3?$AA?3?$AAf?$AAl?$AAo?$AAa?$AAt?$AAi?$AAn?$AAg?$AA_?$AAp?$AAo?$AAi?$AAn?$AAt?$AA_?$AAv?$AAa?$AAl@ 100895b8     libucrt:input.obj
 0002:00008628       ??_C@_1BG@GEMHBGAF@?$AA_?$AAi?$AAs?$AA_?$AAd?$AAo?$AAu?$AAb?$AAl?$AAe?$AA?$AA@ 10089628     libucrt:input.obj
