 udp_comm_test_slrt

 Timestamp is 5c70d66f (Sat Feb 23 10:43:19 2019)

 Preferred load address is 10000000

 Start         Length     Name                   Class
 0001:00000000 0007edc5H .text$mn                CODE
 0001:0007edc5 00001085H .text$x                 CODE
 0002:00000000 00000104H .CRT$XCA                DATA
 0002:00000104 00000104H .CRT$XCZ                DATA
 0002:00000208 00000104H .CRT$XIA                DATA
 0002:0000030c 00000110H .CRT$XIC                DATA
 0002:0000041c 00000104H .CRT$XIZ                DATA
 0002:00000520 00000104H .CRT$XPA                DATA
 0002:00000624 0000010cH .CRT$XPX                DATA
 0002:00000730 00000104H .CRT$XPXA               DATA
 0002:00000834 00000104H .CRT$XPZ                DATA
 0002:00000938 00000104H .CRT$XTA                DATA
 0002:00000a3c 00000104H .CRT$XTZ                DATA
 0002:00000b40 0000ec8cH .rdata                  DATA
 0002:0000f7cc 00000444H .rdata$r                DATA
 0002:0000fc10 00000128H .rdata$sxdata           DATA
 0002:0000fd38 000001d0H .rdata$zzzdbg           DATA
 0002:0000ff08 00000104H .rtc$IAA                DATA
 0002:0001000c 00000104H .rtc$IZZ                DATA
 0002:00010110 00000104H .rtc$TAA                DATA
 0002:00010214 00000104H .rtc$TZZ                DATA
 0002:00010318 00000db8H .xdata$x                DATA
 0002:000110d0 00000206H .edata                  DATA
 0003:00000000 00001830H .data                   DATA
 0003:00001830 00000250H .data$r                 DATA
 0003:00001a80 00015f08H .bss                    DATA
 0004:00000000 000001b4H .idata$5                DATA
 0004:000001b4 00000014H .idata$2                DATA
 0004:000001c8 00000014H .idata$3                DATA
 0004:000001dc 000001b4H .idata$4                DATA
 0004:00000390 000007a2H .idata$6                DATA
 0005:00000000 00000104H .00cfg                  DATA

  Address         Publics by Value              Rva+Base       Lib:Object

 0000:00000000       ___hybrid_code_map_count   00000000     <absolute>
 0000:00000000       ___guard_iat_count         00000000     <absolute>
 0000:00000000       ___guard_iat_table         00000000     <absolute>
 0000:00000000       __except_list              00000000     <absolute>
 0000:00000000       ___guard_fids_count        00000000     <absolute>
 0000:00000000       ___hybrid_auxiliary_iat    00000000     <absolute>
 0000:00000000       ___guard_longjmp_table     00000000     <absolute>
 0000:00000000       ___hybrid_code_map         00000000     <absolute>
 0000:00000000       ___volatile_metadata       00000000     <absolute>
 0000:00000000       ___enclave_config          00000000     <absolute>
 0000:00000000       ___guard_fids_table        00000000     <absolute>
 0000:00000000       ___dynamic_value_reloc_table 00000000     <absolute>
 0000:00000000       ___guard_longjmp_count     00000000     <absolute>
 0000:00000008       ___safe_se_handler_count   00000008     <absolute>
 0000:00000100       ___guard_flags             00000100     <absolute>
 0000:00000000       ___ImageBase               10000000     <linker-defined>
 0001:00007220       _DllMain@12                10008220 f   xpctarget.obj
 0001:00007230       _SLRTSetErrorStatus        10008230 f   xpctarget.obj
 0001:00007250       _changeStepSize            10008250 f   xpctarget.obj
 0001:000072a0       _getDLMVersion             100082a0 f   xpctarget.obj
 0001:000072b0       _getFullPathToRefMdl       100082b0 f   xpctarget.obj
 0001:00007360       _getRefMdlPath             10008360 f   xpctarget.obj
 0001:000073e0       _getRefMdlSignalNumber     100083e0 f   xpctarget.obj
 0001:00007490       _getrlmdlinfo              10008490 f   xpctarget.obj
 0001:000075f0       _slrtRegisterSignalToLoggingService 100085f0 f   xpctarget.obj
 0001:00007750       _udp_comm_test_ChangeStepSize 10008750 f   xpctarget.obj
 0001:000077a0       _updateDiscreteEvents      100087a0 f   xpctarget.obj
 0001:000077b0       _getNumRef                 100087b0 f   appmappingData.obj
 0001:000077c0       ___local_stdio_printf_options 100087c0 f i legacy_stdio.obj
 0001:000077d0       __vfprintf_l               100087d0 f i legacy_stdio.obj
 0001:00007800       _vprintf                   10008800 f i legacy_stdio.obj
 0001:00007840       _rt_mxCreateCharMatrixFromStrings 10008840 f   rt_matrx.obj
 0001:000079a0       _rt_mxCreateDoubleMatrix   100089a0 f   rt_matrx.obj
 0001:00007a00       _rt_mxCreateNumericArray   10008a00 f   rt_matrx.obj
 0001:00007a70       _rt_mxCreateString         10008a70 f   rt_matrx.obj
 0001:00007b00       _rt_mxDuplicateArray       10008b00 f   rt_matrx.obj
 0001:00007b60       _rt_mxGetDimensions        10008b60 f   rt_matrx.obj
 0001:00007ba0       _rt_mxGetEps               10008ba0 f   rt_matrx.obj
 0001:00007bb0       _rt_mxGetString            10008bb0 f   rt_matrx.obj
 0001:00007c30       _rtPrintfNoOp              10008c30 f   rt_printf.obj
 0001:00007c40       __vsnprintf_l              10008c40 f i rt_logging.obj
 0001:00007c80       __vsprintf_l               10008c80 f i rt_logging.obj
 0001:00007cc0       _fprintf                   10008cc0 f i rt_logging.obj
 0001:000081c0       _printf                    100091c0 f i rt_logging.obj
 0001:00008200       _rt_CreateLogVar           10009200 f   rt_logging.obj
 0001:00008290       _rt_CreateLogVarWithConvert 10009290 f   rt_logging.obj
 0001:00008bc0       _rt_CreateStructLogVar     10009bc0 f   rt_logging.obj
 0001:00009940       _rt_GetMxIdFromDTypeId     1000a940 f   rt_logging.obj
 0001:00009970       _rt_GetMxIdFromDTypeIdForRSim 1000a970 f   rt_logging.obj
 0001:0000c510       _rt_StartDataLogging       1000d510 f   rt_logging.obj
 0001:0000c9d0       _rt_StartDataLoggingWithStartTime 1000d9d0 f   rt_logging.obj
 0001:0000ce50       _rt_StopDataLogging        1000de50 f   rt_logging.obj
 0001:0000ce70       _rt_StopDataLoggingImpl    1000de70 f   rt_logging.obj
 0001:0000d2b0       _rt_UpdateLogVar           1000e2b0 f   rt_logging.obj
 0001:0000e4f0       _rt_UpdateStructLogVar     1000f4f0 f   rt_logging.obj
 0001:0000e580       _rt_UpdateTXXFYLogVars     1000f580 f   rt_logging.obj
 0001:0000eb60       _rt_UpdateTXYLogVars       1000fb60 f   rt_logging.obj
 0001:0000eda0       _rt_getTempMemory          1000fda0 f   rt_logging.obj
 0001:0000edf0       _sprintf                   1000fdf0 f i rt_logging.obj
 0001:0000ee30       _rtGetInf                  1000fe30 f   rtGetInf.obj
 0001:0000ee60       _rtGetInfF                 1000fe60 f   rtGetInf.obj
 0001:0000ee80       _rtGetMinusInf             1000fe80 f   rtGetInf.obj
 0001:0000eeb0       _rtGetMinusInfF            1000feb0 f   rtGetInf.obj
 0001:0000eed0       _rtGetNaN                  1000fed0 f   rtGetNaN.obj
 0001:0000ef00       _rtGetNaNF                 1000ff00 f   rtGetNaN.obj
 0001:0000ef20       _rtIsInf                   1000ff20 f   rt_nonfinite.obj
 0001:0000ef60       _rtIsInfF                  1000ff60 f   rt_nonfinite.obj
 0001:0000efa0       _rtIsNaN                   1000ffa0 f   rt_nonfinite.obj
 0001:0000efb0       _rtIsNaNF                  1000ffb0 f   rt_nonfinite.obj
 0001:0000efc0       _rt_InitInfAndNaN          1000ffc0 f   rt_nonfinite.obj
 0001:0000f020       _MdlInitialize             10010020 f   udp_comm_test.obj
 0001:0000f030       _MdlInitializeSampleTimes  10010030 f   udp_comm_test.obj
 0001:0000f040       _MdlInitializeSizes        10010040 f   udp_comm_test.obj
 0001:0000f050       _MdlOutputs                10010050 f   udp_comm_test.obj
 0001:0000f1e0       _MdlStart                  100101e0 f   udp_comm_test.obj
 0001:0000f2d0       _MdlTerminate              100102d0 f   udp_comm_test.obj
 0001:0000f340       _MdlUpdate                 10010340 f   udp_comm_test.obj
 0001:0000f3d0       _udp_comm_test             100103d0 f   udp_comm_test.obj
 0001:00011750       _udp_comm_test_GetCAPIStaticMap 10012750 f   udp_comm_test_capi.obj
 0001:00011760       _udp_comm_test_InitializeDataMapInfo 10012760 f   udp_comm_test_capi.obj
 0001:00011830       _mdlXcp_GetMdlXcpInfo      10012830 f   udp_comm_test_xcp.obj
 0001:00011840       _SLRT_update_TET           10012840 f   udp_comm_test_xcp_TET.obj
 0001:00011910       _rt_CleanUpForStateLogWithMMI 10012910 f   rt_logging_mmi.obj
 0001:00011a20       _rt_FillStateSigInfoFromMMI 10012a20 f   rt_logging_mmi.obj
 0001:00011df0       _rtwCAPI_CountSysRan       10012df0 f   rtw_modelmap_utils.obj
 0001:00011e90       _rtwCAPI_EncodePath        10012e90 f   rtw_modelmap_utils.obj
 0001:00011fa0       _rtwCAPI_FillSysRan        10012fa0 f   rtw_modelmap_utils.obj
 0001:00012090       _rtwCAPI_FreeFullPaths     10013090 f   rtw_modelmap_utils.obj
 0001:00012120       _rtwCAPI_GetFullStateBlockPath 10013120 f   rtw_modelmap_utils.obj
 0001:000122b0       _rtwCAPI_GetNumContStateRecords 100132b0 f   rtw_modelmap_utils.obj
 0001:00012370       _rtwCAPI_GetNumSigLogRecords 10013370 f   rtw_modelmap_utils.obj
 0001:000123c0       _rtwCAPI_GetNumSigLogRecordsForRTWLogging 100133c0 f   rtw_modelmap_utils.obj
 0001:00012460       _rtwCAPI_GetNumStateRecords 10013460 f   rtw_modelmap_utils.obj
 0001:000124b0       _rtwCAPI_GetNumStateRecordsForRTWLogging 100134b0 f   rtw_modelmap_utils.obj
 0001:00012550       _rtwCAPI_GetSigAddrFromMap 10013550 f   rtw_modelmap_utils.obj
 0001:00012610       _rtwCAPI_GetSigLogRecordInfo 10013610 f   rtw_modelmap_utils.obj
 0001:00012a40       _rtwCAPI_GetStateRecordInfo 10013a40 f   rtw_modelmap_utils.obj
 0001:00012f40       _rtwCAPI_GetStateWidth     10013f40 f   rtw_modelmap_utils.obj
 0001:00012fa0       _rtwCAPI_HasStates         10013fa0 f   rtw_modelmap_utils.obj
 0001:00013000       _rtwCAPI_UpdateFullPaths   10014000 f   rtw_modelmap_utils.obj
 0001:000131e0       _timestamp_x86             100141e0 f   host_timer_x86.obj
 0001:000131f0       _taskTimeEnd               100141f0 f   xpc_code_profiling_utility_functions.obj
 0001:00013200       _taskTimeEnd_              10014200 f   xpc_code_profiling_utility_functions.obj
 0001:00013210       _taskTimeStart             10014210 f   xpc_code_profiling_utility_functions.obj
 0001:00013220       _taskTimeStart_            10014220 f   xpc_code_profiling_utility_functions.obj
 0001:00013230       _xilProfilingTimerFreeze   10014230 f   xpc_code_profiling_utility_functions.obj
 0001:00013240       _xilProfilingTimerUnFreeze 10014240 f   xpc_code_profiling_utility_functions.obj
 0001:00013250       _xilUploadProfilingData    10014250 f   xpc_code_profiling_utility_functions.obj
 0001:00013260       ___local_stdio_scanf_options 10014260 f i asciidecode.obj
 0001:00013270       __vsscanf_l                10014270 f i asciidecode.obj
 0001:000132a0       _asciidecode               100142a0 f   asciidecode.obj
 0001:00013d60       _sscanf                    10014d60 f i asciidecode.obj
 0001:00013d90       _asciiencode               10014d90 f   asciiencode.obj
 0001:00015380       _slrtIPConfig              10016380 f   slrtIPConfig.obj
 0001:00015ab0       _slrtUDPReceive            10016ab0 f   slrtUDPReceive.obj
 0001:00016070       _slrtUDPSend               10017070 f   slrtUDPSend.obj
 0001:000160c0       _GetPCIDeviceFull          100170c0 f   xpcruntime:xpcimports.obj
 0001:00016230       _GetPCIDeviceFunction      10017230 f   xpcruntime:xpcimports.obj
 0001:000163a0       _ShowPCIDevice             100173a0 f   xpcruntime:xpcimports.obj
 0001:000169d0       _slrtGetPciConfigAtFunction 100179d0 f   xpcruntime:xpcimports.obj
 0001:00016d40       _xpcGetPciConfigAtSlot     10017d40 f   xpcruntime:xpcimports.obj
 0001:00016d60       _xpcInitProcs              10017d60 f   xpcruntime:xpcimports.obj
 0001:000183e0       _xpceuploadevent           100193e0 f   xpcruntime:xpcimports.obj
 0001:000183f0       __ftoui3                   100193f0 f   LIBCMT:ftol3.obj
 0001:000183ff       __ftoul3                   100193ff f   LIBCMT:ftol3.obj
 0001:0001840e       __ftol3                    1001940e f   LIBCMT:ftol3.obj
 0001:0001841b       __ftol3_NaN                1001941b f   LIBCMT:ftol3.obj
 0001:00018433       __ftol3_work               10019433 f   LIBCMT:ftol3.obj
 0001:000184b9       __ftol3_common             100194b9 f   LIBCMT:ftol3.obj
 0001:0001857b       __ftol3_arg_error          1001957b f   LIBCMT:ftol3.obj
 0001:0001858d       __ftol3_except             1001958d f   LIBCMT:ftol3.obj
 0001:000185d1       __dtoui3                   100195d1 f   LIBCMT:ftol3.obj
 0001:000185e0       __dtoul3                   100195e0 f   LIBCMT:ftol3.obj
 0001:000185ef       __dtol3                    100195ef f   LIBCMT:ftol3.obj
 0001:000185fc       __dtol3_NaN                100195fc f   LIBCMT:ftol3.obj
 0001:00018619       __dtol3_work               10019619 f   LIBCMT:ftol3.obj
 0001:00018700       __ultod3                   10019700 f   LIBCMT:ftol3.obj
 0001:00018740       __ltod3                    10019740 f   LIBCMT:ftol3.obj
 0001:00018844       ___raise_securityfailure   10019844 f   LIBCMT:gs_report.obj
 0001:00018876       ___report_gsfailure        10019876 f   LIBCMT:gs_report.obj
 0001:000189ad       ___report_rangecheckfailure 100199ad f   LIBCMT:gs_report.obj
 0001:000189bc       ___report_securityfailure  100199bc f   LIBCMT:gs_report.obj
 0001:00018abd       ___report_securityfailureEx 10019abd f   LIBCMT:gs_report.obj
 0001:00018c16       @__security_check_cookie@4 10019c16 f   LIBCMT:secchk.obj
 0001:00018c2b       ___isa_available_init      10019c2b f   LIBCMT:cpu_disp.obj
 0001:0001920c       __CRT_INIT@12              1001a20c f   LIBCMT:dll_dllmain.obj
 0001:00019217       __DllMainCRTStartup@12     1001a217 f   LIBCMT:dll_dllmain.obj
 0001:000192a2       ___security_init_cookie    1001a2a2 f   LIBCMT:gs_support.obj
 0001:000192ff       ?__scrt_initialize_type_info@@YAXXZ 1001a2ff f   LIBCMT:tncleanup.obj
 0001:0001930e       ?__scrt_uninitialize_type_info@@YAXXZ 1001a30e f   LIBCMT:tncleanup.obj
 0001:0001931d       ___scrt_initialize_default_local_stdio_options 1001a31d f   LIBCMT:default_local_stdio_options.obj
 0001:00019341       ??$__crt_fast_decode_pointer@PAP6AXXZ@@YAPAP6AXXZQAP6AXXZ@Z 1001a341 f i LIBCMT:utility.obj
 0001:0001935a       ??$__crt_fast_encode_pointer@PAP6AXXZ@@YAPAP6AXXZQAP6AXXZ@Z 1001a35a f i LIBCMT:utility.obj
 0001:0001937e       ?__crt_rotate_pointer_value@@YAIIH@Z 1001a37e f i LIBCMT:utility.obj
 0001:0001938e       ?configure_argv@__scrt_narrow_argv_policy@@SAHXZ 1001a38e f i LIBCMT:utility.obj
 0001:000193f3       ?initialize_environment@__scrt_narrow_environment_policy@@SAHXZ 1001a3f3 f i LIBCMT:utility.obj
 0001:00019439       _NtCurrentTeb              1001a439 f i LIBCMT:utility.obj
 0001:00019440       ___scrt_acquire_startup_lock 1001a440 f   LIBCMT:utility.obj
 0001:0001947e       ___scrt_dllmain_after_initialize_c 1001a47e f   LIBCMT:utility.obj
 0001:000194b3       ___scrt_dllmain_before_initialize_c 1001a4b3 f   LIBCMT:utility.obj
 0001:000194c4       ___scrt_dllmain_crt_thread_attach 1001a4c4 f   LIBCMT:utility.obj
 0001:000194ea       ___scrt_dllmain_crt_thread_detach 1001a4ea f   LIBCMT:utility.obj
 0001:000194fa       ___scrt_dllmain_exception_filter 1001a4fa f   LIBCMT:utility.obj
 0001:0001953b       ___scrt_dllmain_uninitialize_c 1001a53b f   LIBCMT:utility.obj
 0001:00019566       ___scrt_dllmain_uninitialize_critical 1001a566 f   LIBCMT:utility.obj
 0001:00019576       ___scrt_initialize_crt     1001a576 f   LIBCMT:utility.obj
 0001:000195bd       ___scrt_initialize_onexit_tables 1001a5bd f   LIBCMT:utility.obj
 0001:0001968b       ___scrt_is_nonwritable_in_current_image 1001a68b f   LIBCMT:utility.obj
 0001:00019744       ___scrt_release_startup_lock 1001a744 f   LIBCMT:utility.obj
 0001:00019768       ___scrt_uninitialize_crt   1001a768 f   LIBCMT:utility.obj
 0001:0001979a       __onexit                   1001a79a f   LIBCMT:utility.obj
 0001:000197e3       _at_quick_exit             1001a7e3 f   LIBCMT:utility.obj
 0001:00019820       _atexit                    1001a820 f   LIBCMT:utility.obj
 0001:0001983a       ___scrt_get_dyn_tls_init_callback 1001a83a f   LIBCMT:dyn_tls_init.obj
 0001:00019840       ___scrt_fastfail           1001a840 f   LIBCMT:utility_desktop.obj
 0001:000199a0       ___scrt_get_show_window_mode 1001a9a0 f   LIBCMT:utility_desktop.obj
 0001:000199dd       ___scrt_initialize_mta     1001a9dd f   LIBCMT:utility_desktop.obj
 0001:000199e2       ___scrt_initialize_winrt   1001a9e2 f   LIBCMT:utility_desktop.obj
 0001:000199e5       ___scrt_is_managed_app     1001a9e5 f   LIBCMT:utility_desktop.obj
 0001:00019a38       ___scrt_set_unhandled_exception_filter 1001aa38 f   LIBCMT:utility_desktop.obj
 0001:00019a47       ___scrt_stub_for_initialize_mta 1001aa47 f   LIBCMT:utility_desktop.obj
 0001:00019a47       ___scrt_exe_initialize_mta 1001aa47 f   LIBCMT:utility_desktop.obj
 0001:00019a4a       ___scrt_unhandled_exception_filter@4 1001aa4a f   LIBCMT:utility_desktop.obj
 0001:00019a9b       __crt_debugger_hook        1001aa9b f   LIBCMT:utility_desktop.obj
 0001:00019aa5       __RTC_Initialize           1001aaa5 f   LIBCMT:initsect.obj
 0001:00019adc       __RTC_Terminate            1001aadc f   LIBCMT:initsect.obj
 0001:00019b20       __SEH_prolog4              1001ab20 f   LIBCMT:sehprolg4.obj
 0001:00019b66       __SEH_epilog4              1001ab66 f   LIBCMT:sehprolg4.obj
 0001:00019b91       @_guard_check_icall_nop@4  1001ab91 f i LIBCMT:guard_support.obj
 0001:00019b92       _ReadNoFence               1001ab92 f i LIBCMT:guard_support.obj
 0001:00019b9e       _ReadPointerNoFence        1001ab9e f i LIBCMT:guard_support.obj
 0001:00019baa       __guard_icall_checks_enforced 1001abaa f i LIBCMT:guard_support.obj
 0001:00019bc0       __get_startup_argv_mode    1001abc0 f   LIBCMT:argv_mode.obj
 0001:00019bc4       ___scrt_is_ucrt_dll_in_use 1001abc4 f   LIBCMT:ucrt_detection.obj
 0001:00019bd3       _GetModuleHandleA@4        1001abd3 f   kernel32:KERNEL32.dll
 0001:00019bd9       _GetProcAddress@8          1001abd9 f   kernel32:KERNEL32.dll
 0001:00019bdf       _UnhandledExceptionFilter@4 1001abdf f   kernel32:KERNEL32.dll
 0001:00019be5       _SetUnhandledExceptionFilter@4 1001abe5 f   kernel32:KERNEL32.dll
 0001:00019beb       _GetCurrentProcess@0       1001abeb f   kernel32:KERNEL32.dll
 0001:00019bf1       _TerminateProcess@8        1001abf1 f   kernel32:KERNEL32.dll
 0001:00019bf7       _IsProcessorFeaturePresent@4 1001abf7 f   kernel32:KERNEL32.dll
 0001:00019bfd       _QueryPerformanceCounter@4 1001abfd f   kernel32:KERNEL32.dll
 0001:00019c03       _GetCurrentProcessId@0     1001ac03 f   kernel32:KERNEL32.dll
 0001:00019c09       _GetCurrentThreadId@0      1001ac09 f   kernel32:KERNEL32.dll
 0001:00019c0f       _GetSystemTimeAsFileTime@4 1001ac0f f   kernel32:KERNEL32.dll
 0001:00019c15       _InitializeSListHead@4     1001ac15 f   kernel32:KERNEL32.dll
 0001:00019c1b       _IsDebuggerPresent@0       1001ac1b f   kernel32:KERNEL32.dll
 0001:00019c21       _GetStartupInfoW@4         1001ac21 f   kernel32:KERNEL32.dll
 0001:00019c27       _GetModuleHandleW@4        1001ac27 f   kernel32:KERNEL32.dll
 0001:00019c30       _memcpy                    1001ac30 f   libvcruntime:memcpy.obj
 0001:0001a310       _strchr                    1001b310 f   libvcruntime:strchr.obj
 0001:0001a37e       ___from_strstr_to_strchr   1001b37e     libvcruntime:strchr.obj
 0001:0001a490       _memmove                   1001b490 f   libvcruntime:memmove.obj
 0001:0001ab70       _memset                    1001bb70 f   libvcruntime:memset.obj
 0001:0001ad60       __except_handler4          1001bd60 f   libvcruntime:chandler4.obj
 0001:0001af1c       ??$?RD@__crt_internal_free_policy@@QBEXQBD@Z 1001bf1c f i libvcruntime:std_type_info.obj
 0001:0001af30       ??$?RX@__crt_internal_free_policy@@QBEXQBX@Z 1001bf30 f i libvcruntime:std_type_info.obj
 0001:0001af44       ??$__crt_interlocked_compare_exchange_pointer@$$CBDPAD$$T@@YAPBDPDSBDQAD$$T@Z 1001bf44 f i libvcruntime:std_type_info.obj
 0001:0001af5a       ??$__crt_interlocked_read_pointer@$$CBD@@YAPBDPDSBD@Z 1001bf5a f i libvcruntime:std_type_info.obj
 0001:0001af66       ??0?$__crt_unique_heap_ptr@DU__crt_internal_free_policy@@@@QAE@QAD@Z 1001bf66 f i libvcruntime:std_type_info.obj
 0001:0001af77       ??0?$__crt_unique_heap_ptr@XU__crt_internal_free_policy@@@@QAE@QAX@Z 1001bf77 f i libvcruntime:std_type_info.obj
 0001:0001af88       ??1?$__crt_unique_heap_ptr@DU__crt_internal_free_policy@@@@QAE@XZ 1001bf88 f i libvcruntime:std_type_info.obj
 0001:0001af9c       ??1?$__crt_unique_heap_ptr@XU__crt_internal_free_policy@@@@QAE@XZ 1001bf9c f i libvcruntime:std_type_info.obj
 0001:0001afbc       ??B?$__crt_unique_heap_ptr@DU__crt_internal_free_policy@@@@QBE_NXZ 1001bfbc f i libvcruntime:std_type_info.obj
 0001:0001afc3       ??B?$__crt_unique_heap_ptr@XU__crt_internal_free_policy@@@@QBE_NXZ 1001bfc3 f i libvcruntime:std_type_info.obj
 0001:0001aff2       ?__crt_interlocked_read_32@@YAHPDH@Z 1001bff2 f i libvcruntime:std_type_info.obj
 0001:0001affe       ?detach@?$__crt_unique_heap_ptr@XU__crt_internal_free_policy@@@@QAEPAXXZ 1001bffe f i libvcruntime:std_type_info.obj
 0001:0001b004       ?get@?$__crt_unique_heap_ptr@DU__crt_internal_free_policy@@@@QBEPADXZ 1001c004 f i libvcruntime:std_type_info.obj
 0001:0001b007       ?get@?$__crt_unique_heap_ptr@XU__crt_internal_free_policy@@@@QBEPAXXZ 1001c007 f i libvcruntime:std_type_info.obj
 0001:0001b00a       ?is_valid@?$__crt_unique_heap_ptr@DU__crt_internal_free_policy@@@@QBE_NXZ 1001c00a f i libvcruntime:std_type_info.obj
 0001:0001b011       ?is_valid@?$__crt_unique_heap_ptr@XU__crt_internal_free_policy@@@@QBE_NXZ 1001c011 f i libvcruntime:std_type_info.obj
 0001:0001b018       ?release@?$__crt_unique_heap_ptr@DU__crt_internal_free_policy@@@@QAEXXZ 1001c018 f i libvcruntime:std_type_info.obj
 0001:0001b02c       ?release@?$__crt_unique_heap_ptr@XU__crt_internal_free_policy@@@@QAEXXZ 1001c02c f i libvcruntime:std_type_info.obj
 0001:0001b040       ___std_type_info_compare   1001c040 f   libvcruntime:std_type_info.obj
 0001:0001b08b       ___std_type_info_destroy_list 1001c08b f   libvcruntime:std_type_info.obj
 0001:0001b0b6       ___std_type_info_hash      1001c0b6 f   libvcruntime:std_type_info.obj
 0001:0001b0e5       ___std_type_info_name      1001c0e5 f   libvcruntime:std_type_info.obj
 0001:0001b1d8       ___vcrt_initialize         1001c1d8 f   libvcruntime:initialization.obj
 0001:0001b20b       ___vcrt_thread_attach      1001c20b f   libvcruntime:initialization.obj
 0001:0001b218       ___vcrt_thread_detach      1001c218 f   libvcruntime:initialization.obj
 0001:0001b225       ___vcrt_uninitialize       1001c225 f   libvcruntime:initialization.obj
 0001:0001b24b       ___vcrt_uninitialize_critical 1001c24b f   libvcruntime:initialization.obj
 0001:0001b260       __local_unwind4            1001c260 f   libvcruntime:exsup4.obj
 0001:0001b338       __seh_longjmp_unwind4@4    1001c338 f   libvcruntime:exsup4.obj
 0001:0001b360       @_EH4_CallFilterFunc@8     1001c360 f   libvcruntime:exsup4.obj
 0001:0001b378       @_EH4_TransferToHandler@8  1001c378 f   libvcruntime:exsup4.obj
 0001:0001b394       @_EH4_GlobalUnwind2@8      1001c394 f   libvcruntime:exsup4.obj
 0001:0001b3b0       @_EH4_LocalUnwind@16       1001c3b0 f   libvcruntime:exsup4.obj
 0001:0001b42d       ___except_validate_context_record 1001c42d f   libvcruntime:jbcxrval.obj
 0001:0001b469       ___except_validate_jump_buffer 1001c469 f   libvcruntime:jbcxrval.obj
 0001:0001b4a1       ___except_validate_jump_buffer_common 1001c4a1 f i libvcruntime:jbcxrval.obj
 0001:0001b4e8       ??0Block@_HeapManager@@QAE@XZ 1001c4e8 f i libvcruntime:undname.obj
 0001:0001b4ee       ??0DName@@QAE@AAPBDD@Z     1001c4ee f   libvcruntime:undname.obj
 0001:0001b5cc       ??0DName@@QAE@ABV0@@Z      1001c5cc f i libvcruntime:undname.obj
 0001:0001b5e7       ??0DName@@QAE@D@Z          1001c5e7 f   libvcruntime:undname.obj
 0001:0001b615       ??0DName@@QAE@PAV0@@Z      1001c615 f   libvcruntime:undname.obj
 0001:0001b66f       ??0DName@@QAE@PBD@Z        1001c66f f   libvcruntime:undname.obj
 0001:0001b6ae       ??0DName@@QAE@W4DNameStatus@@@Z 1001c6ae f   libvcruntime:undname.obj
 0001:0001b6fe       ??0DName@@QAE@XZ           1001c6fe f i libvcruntime:undname.obj
 0001:0001b70a       ??0DName@@QAE@_J@Z         1001c70a f   libvcruntime:undname.obj
 0001:0001b7b9       ??0DName@@QAE@_K@Z         1001c7b9 f   libvcruntime:undname.obj
 0001:0001b838       ??0DNameNode@@IAE@XZ       1001c838 f i libvcruntime:undname.obj
 0001:0001b843       ??0Replicator@@QAE@XZ      1001c843 f i libvcruntime:undname.obj
 0001:0001b854       ??0UnDecorator@@QAE@PBDP6APADJ@ZK@Z 1001c854 f i libvcruntime:undname.obj
 0001:0001b8b3       ??0charNode@@QAE@D@Z       1001c8b3 f i libvcruntime:undname.obj
 0001:0001b8cd       ??0pDNameNode@@QAE@PAVDName@@@Z 1001c8cd f   libvcruntime:undname.obj
 0001:0001b8ff       ??0pairNode@@QAE@PBVDNameNode@@0@Z 1001c8ff f i libvcruntime:undname.obj
 0001:0001b925       ??0pcharNode@@QAE@PBDH@Z   1001c925 f   libvcruntime:undname.obj
 0001:0001b99b       ??2@YAPAXIAAV_HeapManager@@H@Z 1001c99b f i libvcruntime:undname.obj
 0001:0001b9b5       ??4DName@@QAEAAV0@ABV0@@Z  1001c9b5 f   libvcruntime:undname.obj
 0001:0001b9d0       ??4DName@@QAEAAV0@D@Z      1001c9d0 f i libvcruntime:undname.obj
 0001:0001b9fe       ??4DName@@QAEAAV0@PAV0@@Z  1001c9fe f   libvcruntime:undname.obj
 0001:0001ba50       ??4DName@@QAEAAV0@PBD@Z    1001ca50 f   libvcruntime:undname.obj
 0001:0001ba85       ??4DName@@QAEAAV0@W4DNameStatus@@@Z 1001ca85 f   libvcruntime:undname.obj
 0001:0001bac3       ??AReplicator@@QBE?AVDName@@H@Z 1001cac3 f   libvcruntime:undname.obj
 0001:0001bb1a       ??H@YA?AVDName@@DABV0@@Z   1001cb1a f i libvcruntime:undname.obj
 0001:0001bb44       ??H@YA?AVDName@@PBDABV0@@Z 1001cb44 f i libvcruntime:undname.obj
 0001:0001bb6e       ??H@YA?AVDName@@W4DNameStatus@@ABV0@@Z 1001cb6e f i libvcruntime:undname.obj
 0001:0001bb98       ??HDName@@QBE?AV0@ABV0@@Z  1001cb98 f   libvcruntime:undname.obj
 0001:0001bbc2       ??HDName@@QBE?AV0@D@Z      1001cbc2 f   libvcruntime:undname.obj
 0001:0001bbec       ??HDName@@QBE?AV0@PAV0@@Z  1001cbec f   libvcruntime:undname.obj
 0001:0001bc16       ??HDName@@QBE?AV0@PBD@Z    1001cc16 f   libvcruntime:undname.obj
 0001:0001bc40       ??HDName@@QBE?AV0@W4DNameStatus@@@Z 1001cc40 f   libvcruntime:undname.obj
 0001:0001bc6a       ??YDName@@QAEAAV0@ABV0@@Z  1001cc6a f   libvcruntime:undname.obj
 0001:0001bcbb       ??YDName@@QAEAAV0@D@Z      1001ccbb f   libvcruntime:undname.obj
 0001:0001bd1f       ??YDName@@QAEAAV0@PAV0@@Z  1001cd1f f   libvcruntime:undname.obj
 0001:0001bd9d       ??YDName@@QAEAAV0@PBD@Z    1001cd9d f   libvcruntime:undname.obj
 0001:0001be16       ??YDName@@QAEAAV0@W4DNameStatus@@@Z 1001ce16 f   libvcruntime:undname.obj
 0001:0001be66       ??YReplicator@@QAEAAV0@ABVDName@@@Z 1001ce66 f   libvcruntime:undname.obj
 0001:0001bec2       ??_5DName@@QAEAAV0@ABV0@@Z 1001cec2 f   libvcruntime:undname.obj
 0001:0001bee5       ?Constructor@_HeapManager@@QAEXP6APAXI@ZP6AXPAX@Z@Z 1001cee5 f i libvcruntime:undname.obj
 0001:0001bf09       ?Destructor@_HeapManager@@QAEXXZ 1001cf09 f i libvcruntime:undname.obj
 0001:0001bf4f       ?UScore@UnDecorator@@SAPBDW4Tokens@@@Z 1001cf4f f   libvcruntime:undname.obj
 0001:0001bf75       ?append@DName@@AAEXPBVDNameNode@@@Z 1001cf75 f   libvcruntime:undname.obj
 0001:0001bfcc       ?composeDeclaration@UnDecorator@@CA?AVDName@@ABV2@@Z 1001cfcc f i libvcruntime:undname.obj
 0001:0001cfe0       ?doAccessSpecifiers@UnDecorator@@SAHXZ 1001dfe0 f i libvcruntime:undname.obj
 0001:0001cff1       ?doAllocationLanguage@UnDecorator@@SAHXZ 1001dff1 f i libvcruntime:undname.obj
 0001:0001d002       ?doAllocationModel@UnDecorator@@SAHXZ 1001e002 f i libvcruntime:undname.obj
 0001:0001d013       ?doEcsu@UnDecorator@@SAHXZ 1001e013 f i libvcruntime:undname.obj
 0001:0001d024       ?doEllipsis@UnDecorator@@SAHXZ 1001e024 f i libvcruntime:undname.obj
 0001:0001d035       ?doFunctionReturns@UnDecorator@@SAHXZ 1001e035 f i libvcruntime:undname.obj
 0001:0001d046       ?doMSKeywords@UnDecorator@@SAHXZ 1001e046 f i libvcruntime:undname.obj
 0001:0001d056       ?doMemberTypes@UnDecorator@@SAHXZ 1001e056 f i libvcruntime:undname.obj
 0001:0001d067       ?doNameOnly@UnDecorator@@SAHXZ 1001e067 f i libvcruntime:undname.obj
 0001:0001d074       ?doNoIdentCharCheck@UnDecorator@@SAHXZ 1001e074 f i libvcruntime:undname.obj
 0001:0001d081       ?doPchar@DName@@AAEXPBDH@Z 1001e081 f   libvcruntime:undname.obj
 0001:0001d128       ?doPtr64@UnDecorator@@SAHXZ 1001e128 f i libvcruntime:undname.obj
 0001:0001d139       ?doRestrictionSpec@UnDecorator@@SAHXZ 1001e139 f i libvcruntime:undname.obj
 0001:0001d14a       ?doThisTypes@UnDecorator@@SAHXZ 1001e14a f i libvcruntime:undname.obj
 0001:0001d160       ?doThrowTypes@UnDecorator@@SAHXZ 1001e160 f i libvcruntime:undname.obj
 0001:0001d171       ?doTypeOnly@UnDecorator@@SAHXZ 1001e171 f i libvcruntime:undname.obj
 0001:0001d17e       ?doUnderScore@UnDecorator@@SAHXZ 1001e17e f i libvcruntime:undname.obj
 0001:0001d18b       ?getArgumentList@UnDecorator@@CA?AVDName@@XZ 1001e18b f   libvcruntime:undname.obj
 0001:0001d2be       ?getArgumentTypes@UnDecorator@@CA?AVDName@@XZ 1001e2be f   libvcruntime:undname.obj
 0001:0001d3ba       ?getArrayType@UnDecorator@@CA?AVDName@@ABV2@@Z 1001e3ba f i libvcruntime:undname.obj
 0001:0001d5d7       ?getBasedType@UnDecorator@@CA?AVDName@@XZ 1001e5d7 f   libvcruntime:undname.obj
 0001:0001d695       ?getBasicDataType@UnDecorator@@CA?AVDName@@ABV2@@Z 1001e695 f   libvcruntime:undname.obj
 0001:0001db6b       ?getCHPEName@UnDecorator@@QAEPADPADH@Z 1001eb6b f i libvcruntime:undname.obj
 0001:0001dc81       ?getCallIndex@UnDecorator@@CA?AVDName@@XZ 1001ec81 f i libvcruntime:undname.obj
 0001:0001dc9a       ?getCallingConvention@UnDecorator@@CA?AVDName@@XZ 1001ec9a f   libvcruntime:undname.obj
 0001:0001dda1       ?getDataIndirectType@UnDecorator@@CA?AVDName@@ABV2@PBD0H@Z 1001eda1 f   libvcruntime:undname.obj
 0001:0001e505       ?getDataIndirectType@UnDecorator@@CA?AVDName@@XZ 1001f505 f i libvcruntime:undname.obj
 0001:0001e543       ?getDataType@UnDecorator@@CA?AVDName@@PAV2@@Z 1001f543 f   libvcruntime:undname.obj
 0001:0001e639       ?getDecoratedName@UnDecorator@@CA?AVDName@@XZ 1001f639 f   libvcruntime:undname.obj
 0001:0001e90b       ?getDimension@UnDecorator@@CA?AVDName@@_N@Z 1001f90b f   libvcruntime:undname.obj
 0001:0001ea71       ?getDispatchTarget@UnDecorator@@CA?AVDName@@XZ 1001fa71 f   libvcruntime:undname.obj
 0001:0001eada       ?getDisplacement@UnDecorator@@CA?AVDName@@XZ 1001fada f i libvcruntime:undname.obj
 0001:0001eaf3       ?getECSUDataType@UnDecorator@@CA?AVDName@@XZ 1001faf3 f   libvcruntime:undname.obj
 0001:0001ec51       ?getECSUName@UnDecorator@@CA?AVDName@@XZ 1001fc51 f i libvcruntime:undname.obj
 0001:0001ec66       ?getEnumType@UnDecorator@@CA?AVDName@@XZ 1001fc66 f i libvcruntime:undname.obj
 0001:0001ed92       ?getExtendedDataIndirectType@UnDecorator@@CA?AVDName@@AAPBDAA_NH@Z 1001fd92 f   libvcruntime:undname.obj
 0001:0001efb6       ?getExternalDataType@UnDecorator@@CA?AVDName@@ABV2@@Z 1001ffb6 f i libvcruntime:undname.obj
 0001:0001f036       ?getFunctionIndirectType@UnDecorator@@CA?AVDName@@ABV2@@Z 10020036 f   libvcruntime:undname.obj
 0001:0001f504       ?getGuardNumber@UnDecorator@@CA?AVDName@@XZ 10020504 f i libvcruntime:undname.obj
 0001:0001f51d       ?getLastChar@DName@@QBEDXZ 1002051d f i libvcruntime:undname.obj
 0001:0001f545       ?getLastChar@DNameStatusNode@@UBEDXZ 10020545 f i libvcruntime:undname.obj
 0001:0001f554       ?getLastChar@charNode@@UBEDXZ 10020554 f i libvcruntime:undname.obj
 0001:0001f558       ?getLastChar@pDNameNode@@UBEDXZ 10020558 f i libvcruntime:undname.obj
 0001:0001f569       ?getLastChar@pairNode@@UBEDXZ 10020569 f i libvcruntime:undname.obj
 0001:0001f5ab       ?getLastChar@pcharNode@@UBEDXZ 100205ab f i libvcruntime:undname.obj
 0001:0001f5c1       ?getLexicalFrame@UnDecorator@@CA?AVDName@@XZ 100205c1 f i libvcruntime:undname.obj
 0001:0001f60f       ?getMemory@_HeapManager@@QAEPAXIH@Z 1002060f f   libvcruntime:undname.obj
 0001:0001f6b7       ?getNoexcept@UnDecorator@@CA?AVDName@@XZ 100206b7 f   libvcruntime:undname.obj
 0001:0001f70d       ?getNumberOfDimensions@UnDecorator@@CAHXZ 1002070d f   libvcruntime:undname.obj
 0001:0001f786       ?getOperatorName@UnDecorator@@CA?AVDName@@_NPA_N@Z 10020786 f i libvcruntime:undname.obj
 0001:0001ff74       ?getPointerType@UnDecorator@@CA?AVDName@@ABV2@0@Z 10020f74 f i libvcruntime:undname.obj
 0001:0001ff99       ?getPointerTypeArray@UnDecorator@@CA?AVDName@@ABV2@0@Z 10020f99 f i libvcruntime:undname.obj
 0001:0001ffbe       ?getPrimaryDataType@UnDecorator@@CA?AVDName@@ABV2@@Z 10020fbe f   libvcruntime:undname.obj
 0001:0002021b       ?getPtrRefDataType@UnDecorator@@CA?AVDName@@ABV2@H@Z 1002121b f   libvcruntime:undname.obj
 0001:0002038e       ?getPtrRefType@UnDecorator@@CA?AVDName@@ABV2@0PBD@Z 1002138e f   libvcruntime:undname.obj
 0001:000204c6       ?getReferenceType@UnDecorator@@CA?AVDName@@ABV2@0PBD@Z 100214c6 f i libvcruntime:undname.obj
 0001:000204e9       ?getRestrictionSpec@UnDecorator@@CA?AVDName@@XZ 100214e9 f   libvcruntime:undname.obj
 0001:00020620       ?getReturnType@UnDecorator@@CA?AVDName@@PAV2@@Z 10021620 f   libvcruntime:undname.obj
 0001:0002065a       ?getScope@UnDecorator@@CA?AVDName@@XZ 1002165a f   libvcruntime:undname.obj
 0001:00020ad3       ?getScopedName@UnDecorator@@CA?AVDName@@XZ 10021ad3 f   libvcruntime:undname.obj
 0001:00020bdc       ?getSignedDimension@UnDecorator@@CA?AVDName@@XZ 10021bdc f   libvcruntime:undname.obj
 0001:00020c41       ?getStorageConvention@UnDecorator@@CA?AVDName@@XZ 10021c41 f i libvcruntime:undname.obj
 0001:00020c56       ?getString@DName@@QBEPADPAD0@Z 10021c56 f i libvcruntime:undname.obj
 0001:00020c8e       ?getString@DName@@QBEPADPADH@Z 10021c8e f i libvcruntime:undname.obj
 0001:00020cf9       ?getString@DNameStatusNode@@UBEPADPAD0@Z 10021cf9 f i libvcruntime:undname.obj
 0001:00020d29       ?getString@charNode@@UBEPADPAD0@Z 10021d29 f i libvcruntime:undname.obj
 0001:00020d43       ?getString@pDNameNode@@UBEPADPAD0@Z 10021d43 f i libvcruntime:undname.obj
 0001:00020d5f       ?getString@pairNode@@UBEPADPAD0@Z 10021d5f f i libvcruntime:undname.obj
 0001:00020db6       ?getString@pcharNode@@UBEPADPAD0@Z 10021db6 f i libvcruntime:undname.obj
 0001:00020dd7       ?getStringEncoding@UnDecorator@@CA?AVDName@@PBDH@Z 10021dd7 f   libvcruntime:undname.obj
 0001:00020eb3       ?getStringHelper@@YAPADPADPBD1H@Z 10021eb3 f i libvcruntime:undname.obj
 0001:00020ef7       ?getSymbolName@UnDecorator@@CA?AVDName@@XZ 10021ef7 f i libvcruntime:undname.obj
 0001:00020f51       ?getTemplateArgumentList@UnDecorator@@CA?AVDName@@XZ 10021f51 f   libvcruntime:undname.obj
 0001:00021295       ?getTemplateConstant@UnDecorator@@CA?AVDName@@XZ 10022295 f   libvcruntime:undname.obj
 0001:00021693       ?getTemplateName@UnDecorator@@CA?AVDName@@_N@Z 10022693 f   libvcruntime:undname.obj
 0001:0002184d       ?getThisType@UnDecorator@@CA?AVDName@@XZ 1002284d f i libvcruntime:undname.obj
 0001:0002188c       ?getThrowTypes@UnDecorator@@CA?AVDName@@XZ 1002288c f   libvcruntime:undname.obj
 0001:000218b7       ?getTypeEncoding@UnDecorator@@CAHXZ 100228b7 f i libvcruntime:undname.obj
 0001:00021ca9       ?getUndecoratedName@UnDecorator@@QAEPADPADH@Z 10022ca9 f i libvcruntime:undname.obj
 0001:00021d9e       ?getVCallThunkType@UnDecorator@@CA?AVDName@@XZ 10022d9e f i libvcruntime:undname.obj
 0001:00021df6       ?getVbTableType@UnDecorator@@CA?AVDName@@ABV2@@Z 10022df6 f i libvcruntime:undname.obj
 0001:00021e10       ?getVdispMapType@UnDecorator@@CA?AVDName@@ABV2@@Z 10022e10 f i libvcruntime:undname.obj
 0001:00021e79       ?getVfTableType@UnDecorator@@CA?AVDName@@ABV2@@Z 10022e79 f i libvcruntime:undname.obj
 0001:00022034       ?getZName@UnDecorator@@CA?AVDName@@_N0@Z 10023034 f   libvcruntime:undname.obj
 0001:000222b2       ?haveTemplateParameters@UnDecorator@@SAHXZ 100232b2 f i libvcruntime:undname.obj
 0001:000222bf       ?isArray@DName@@QBEHXZ     100232bf f i libvcruntime:undname.obj
 0001:000222cb       ?isComArray@DName@@QBEHXZ  100232cb f i libvcruntime:undname.obj
 0001:000222d7       ?isEmpty@DName@@QBEHXZ     100232d7 f i libvcruntime:undname.obj
 0001:000222e1       ?isFull@Replicator@@QBEHXZ 100232e1 f i libvcruntime:undname.obj
 0001:000222ec       ?isNoTE@DName@@QBEHXZ      100232ec f i libvcruntime:undname.obj
 0001:000222f8       ?isPinPtr@DName@@QBEHXZ    100232f8 f i libvcruntime:undname.obj
 0001:00022304       ?isPtrRef@DName@@QBEHXZ    10023304 f i libvcruntime:undname.obj
 0001:00022310       ?isUDC@DName@@QBEHXZ       10023310 f i libvcruntime:undname.obj
 0001:00022325       ?isUDTThunk@DName@@QBEHXZ  10023325 f i libvcruntime:undname.obj
 0001:0002233a       ?isVCallThunk@DName@@QBEHXZ 1002333a f i libvcruntime:undname.obj
 0001:00022346       ?isValid@DName@@QBEHXZ     10023346 f i libvcruntime:undname.obj
 0001:00022352       ?length@DName@@QBEHXZ      10023352 f i libvcruntime:undname.obj
 0001:00022378       ?length@DNameStatusNode@@UBEHXZ 10023378 f i libvcruntime:undname.obj
 0001:0002237c       ?length@charNode@@UBEHXZ   1002337c f i libvcruntime:undname.obj
 0001:00022380       ?length@pDNameNode@@UBEHXZ 10023380 f i libvcruntime:undname.obj
 0001:00022391       ?length@pairNode@@UBEHXZ   10023391 f i libvcruntime:undname.obj
 0001:000223e8       ?length@pcharNode@@UBEHXZ  100233e8 f i libvcruntime:undname.obj
 0001:000223ec       ?make@DNameStatusNode@@SAPBV1@W4DNameStatus@@@Z 100233ec f i libvcruntime:undname.obj
 0001:0002240f       ?parseDecoratedName@UnDecorator@@CA?AVDName@@XZ 1002340f f   libvcruntime:undname.obj
 0001:00022538       ?setIsArray@DName@@QAEXXZ  10023538 f i libvcruntime:undname.obj
 0001:00022542       ?setIsComArray@DName@@QAEXXZ 10023542 f i libvcruntime:undname.obj
 0001:0002254c       ?setIsNoTE@DName@@QAEXXZ   1002354c f i libvcruntime:undname.obj
 0001:00022556       ?setIsPinPtr@DName@@QAEXXZ 10023556 f i libvcruntime:undname.obj
 0001:00022560       ?setIsUDC@DName@@QAEXXZ    10023560 f i libvcruntime:undname.obj
 0001:00022570       ?setIsVCallThunk@DName@@QAEXXZ 10023570 f i libvcruntime:undname.obj
 0001:0002257a       ?setPtrRef@DName@@QAEAAV1@XZ 1002357a f i libvcruntime:undname.obj
 0001:00022586       ?status@DName@@QBE?AW4DNameStatus@@XZ 10023586 f i libvcruntime:undname.obj
 0001:0002260b       ___unDName                 1002360b f   libvcruntime:undname.obj
 0001:00022636       ___unDNameEx               10023636 f   libvcruntime:undname.obj
 0001:000226fc       __vsprintf_s_l             100236fc f i libvcruntime:undname.obj
 0001:00022734       _sprintf_s                 10023734 f i libvcruntime:undname.obj
 0001:00022757       _unDNameGenerateCHPE       10023757 f   libvcruntime:undname.obj
 0001:000227ca       ??$?RU__vcrt_ptd@@@__crt_internal_free_policy@@QBEXQBU__vcrt_ptd@@@Z 100237ca f i libvcruntime:per_thread_data.obj
 0001:000227de       ??0?$__crt_unique_heap_ptr@U__vcrt_ptd@@U__crt_internal_free_policy@@@@QAE@QAU__vcrt_ptd@@@Z 100237de f i libvcruntime:per_thread_data.obj
 0001:00022801       ??1?$__crt_unique_heap_ptr@U__vcrt_ptd@@U__crt_internal_free_policy@@@@QAE@XZ 10023801 f i libvcruntime:per_thread_data.obj
 0001:00022820       ??B?$__crt_unique_heap_ptr@U__vcrt_ptd@@U__crt_internal_free_policy@@@@QBE_NXZ 10023820 f i libvcruntime:per_thread_data.obj
 0001:00022827       ?detach@?$__crt_unique_heap_ptr@U__vcrt_ptd@@U__crt_internal_free_policy@@@@QAEPAU__vcrt_ptd@@XZ 10023827 f i libvcruntime:per_thread_data.obj
 0001:0002282d       ?get@?$__crt_unique_heap_ptr@U__vcrt_ptd@@U__crt_internal_free_policy@@@@QBEPAU__vcrt_ptd@@XZ 1002382d f i libvcruntime:per_thread_data.obj
 0001:00022830       ?is_valid@?$__crt_unique_heap_ptr@U__vcrt_ptd@@U__crt_internal_free_policy@@@@QBE_NXZ 10023830 f i libvcruntime:per_thread_data.obj
 0001:00022837       ?release@?$__crt_unique_heap_ptr@U__vcrt_ptd@@U__crt_internal_free_policy@@@@QAEXXZ 10023837 f i libvcruntime:per_thread_data.obj
 0001:0002286b       ___vcrt_freefls@4          1002386b f   libvcruntime:per_thread_data.obj
 0001:0002288e       ___vcrt_freeptd            1002388e f   libvcruntime:per_thread_data.obj
 0001:000228d1       ___vcrt_getptd             100238d1 f   libvcruntime:per_thread_data.obj
 0001:000228e2       ___vcrt_getptd_noexit      100238e2 f   libvcruntime:per_thread_data.obj
 0001:00022998       ___vcrt_getptd_noinit      10023998 f   libvcruntime:per_thread_data.obj
 0001:000229dc       ___vcrt_initialize_ptd     100239dc f   libvcruntime:per_thread_data.obj
 0001:00022a1b       ___vcrt_uninitialize_ptd   10023a1b f   libvcruntime:per_thread_data.obj
 0001:00022a3c       ___vcrt_initialize_locks   10023a3c f   libvcruntime:locks.obj
 0001:00022a87       ___vcrt_lock               10023a87 f   libvcruntime:locks.obj
 0001:00022aa1       ___vcrt_uninitialize_locks 10023aa1 f   libvcruntime:locks.obj
 0001:00022adb       ___vcrt_unlock             10023adb f   libvcruntime:locks.obj
 0001:00022af5       ??$?BX@__crt_fast_encoded_nullptr_t@@QBEPAXXZ 10023af5 f i libvcruntime:winapi_downlevel.obj
 0001:00022afb       ??$__crt_fast_decode_pointer@PAX@@YAPAXQAX@Z 10023afb f i libvcruntime:winapi_downlevel.obj
 0001:00022b14       ??$__crt_fast_encode_pointer@PAX@@YAPAXQAX@Z 10023b14 f i libvcruntime:winapi_downlevel.obj
 0001:00022b38       ??$__crt_interlocked_exchange_pointer@UHINSTANCE__@@PAU1@@@YAPAUHINSTANCE__@@PDSAU0@QAU0@@Z 10023b38 f i libvcruntime:winapi_downlevel.obj
 0001:00022b48       ??$__crt_interlocked_exchange_pointer@UHINSTANCE__@@PAX@@YAPAUHINSTANCE__@@PDSAU0@QAX@Z 10023b48 f i libvcruntime:winapi_downlevel.obj
 0001:00022b58       ??$__crt_interlocked_exchange_pointer@XPAX@@YAPAXPDSAXQAX@Z 10023b58 f i libvcruntime:winapi_downlevel.obj
 0001:00022b68       ??$__crt_interlocked_read_pointer@UHINSTANCE__@@@@YAPAUHINSTANCE__@@PDSAU0@@Z 10023b68 f i libvcruntime:winapi_downlevel.obj
 0001:00022b74       ??$__crt_interlocked_read_pointer@X@@YAPAXPDSAX@Z 10023b74 f i libvcruntime:winapi_downlevel.obj
 0001:00022b80       ?__crt_fast_encode_pointer@@YA?AU__crt_fast_encoded_nullptr_t@@$$T@Z 10023b80 f i libvcruntime:winapi_downlevel.obj
 0001:00022eb3       ___vcrt_FlsAlloc           10023eb3 f   libvcruntime:winapi_downlevel.obj
 0001:00022efc       ___vcrt_FlsFree            10023efc f   libvcruntime:winapi_downlevel.obj
 0001:00022f45       ___vcrt_FlsGetValue        10023f45 f   libvcruntime:winapi_downlevel.obj
 0001:00022f8e       ___vcrt_FlsSetValue        10023f8e f   libvcruntime:winapi_downlevel.obj
 0001:00022fdb       ___vcrt_InitializeCriticalSectionEx 10023fdb f   libvcruntime:winapi_downlevel.obj
 0001:00023033       ___vcrt_initialize_winapi_thunks 10024033 f   libvcruntime:winapi_downlevel.obj
 0001:00023066       ___vcrt_uninitialize_winapi_thunks 10024066 f   libvcruntime:winapi_downlevel.obj
 0001:000230a4       ??$?B$$A6AXXZ@__crt_fast_encoded_nullptr_t@@QBEP6AXXZXZ 100240a4 f i libvcruntime:purevirt_data.obj
 0001:000230aa       ??$__crt_fast_encode_pointer@P6AXXZ@@YAP6AXXZQ6AXXZ@Z 100240aa f i libvcruntime:purevirt_data.obj
 0001:000230ce       ___vcrt_initialize_pure_virtual_call_handler 100240ce f   libvcruntime:purevirt_data.obj
 0001:000230e0       __global_unwind2           100240e0 f   libvcruntime:exsup.obj
 0001:00023146       __local_unwind2            10024146 f   libvcruntime:exsup.obj
 0001:000231ca       __abnormal_termination     100241ca f   libvcruntime:exsup.obj
 0001:000231f0       __NLG_Notify1              100241f0 f   libvcruntime:exsup.obj
 0001:000231fc       __NLG_Notify               100241fc f   libvcruntime:exsup.obj
 0001:00023213       __NLG_Dispatch2            10024213     libvcruntime:exsup.obj
 0001:00023213       __NLG_Dispatch             10024213     libvcruntime:exsup.obj
 0001:0002321b       __NLG_Call                 1002421b f   libvcruntime:exsup.obj
 0001:0002321d       __NLG_Return2              1002421d     libvcruntime:exsup.obj
 0001:0002326d       ??$__crt_fast_decode_pointer@P6AXXZ@@YAP6AXXZQ6AXXZ@Z 1002426d f i libvcruntime:purevirt.obj
 0001:00023286       ??$__crt_interlocked_exchange_pointer@$$A6AXXZP6AXXZ@@YAP6AXXZPDS6AXXZQ6AXXZ@Z 10024286 f i libvcruntime:purevirt.obj
 0001:00023296       ??$__crt_interlocked_read_pointer@$$A6AXXZ@@YAP6AXXZPDS6AXXZ@Z 10024296 f i libvcruntime:purevirt.obj
 0001:000232a2       __get_purecall_handler     100242a2 f   libvcruntime:purevirt.obj
 0001:000232bc       __purecall                 100242bc f   libvcruntime:purevirt.obj
 0001:000232df       __set_purecall_handler     100242df f   libvcruntime:purevirt.obj
 0001:0002330d       ??$?0AAViterator@TryBlockMap@__FrameHandler3@@AAV012@$0A@@?$pair@Viterator@TryBlockMap@__FrameHandler3@@V123@@std@@QAE@AAViterator@TryBlockMap@__FrameHandler3@@0@Z 1002430d f i libvcruntime:trnsctrl.obj
 0001:0002333a       ??$forward@AAViterator@TryBlockMap@__FrameHandler3@@@std@@YAAAViterator@TryBlockMap@__FrameHandler3@@AAV123@@Z 1002433a f i libvcruntime:trnsctrl.obj
 0001:00023344       ??0iterator@TryBlockMap@__FrameHandler3@@QAE@AAV12@I@Z 10024344 f i libvcruntime:trnsctrl.obj
 0001:0002335d       ?GetRangeOfTrysToCheck@__FrameHandler3@@SA?AU?$pair@Viterator@TryBlockMap@__FrameHandler3@@V123@@std@@AAVTryBlockMap@1@HH@Z 1002435d f   libvcruntime:trnsctrl.obj
 0001:000233ff       ?_CallCatchBlock2@@YAPAXPAUEHRegistrationNode@@PBU_s_FuncInfo@@PAXHK@Z 100243ff f   libvcruntime:trnsctrl.obj
 0001:00023474       ?_CallSETranslator@@YAHPAUEHExceptionRecord@@PAUEHRegistrationNode@@PAX2PBU_s_FuncInfo@@H1@Z 10024474 f   libvcruntime:trnsctrl.obj
 0001:00023585       ?_JumpToContinuation@@YGXPAXPAUEHRegistrationNode@@@Z 10024585 f   libvcruntime:trnsctrl.obj
 0001:000235c1       ?_UnwindNestedFrames@@YGXPAUEHRegistrationNode@@PAUEHExceptionRecord@@@Z 100245c1 f   libvcruntime:trnsctrl.obj
 0001:00023628       ?getFuncInfo@TryBlockMap@__FrameHandler3@@QAEPBU_s_FuncInfo@@XZ 10024628 f i libvcruntime:trnsctrl.obj
 0001:0002362b       __CatchGuardHandler        1002462b f   libvcruntime:trnsctrl.obj
 0001:00023668       __CreateFrameInfo          10024668 f   libvcruntime:trnsctrl.obj
 0001:00023695       __FindAndUnlinkFrame       10024695 f   libvcruntime:trnsctrl.obj
 0001:000236eb       __TranslatorGuardHandler   100246eb f   libvcruntime:trnsctrl.obj
 0001:000237af       ___CxxFrameHandler         100247af f   libvcruntime:trnsctrl.obj
 0001:000237f2       ___CxxFrameHandler2        100247f2 f   libvcruntime:trnsctrl.obj
 0001:00023835       ___CxxFrameHandler3        10024835 f   libvcruntime:trnsctrl.obj
 0001:00023878       ___CxxLongjmpUnwind@4      10024878 f   libvcruntime:trnsctrl.obj
 0001:00024159       ??$TypeMatchHelper@V__FrameHandler3@@@@YAHPBU_s_HandlerType@@PBU_s_CatchableType@@PBU_s_ThrowInfo@@@Z 10025159 f i libvcruntime:frame.obj
 0001:0002420a       ??$__InternalCxxFrameHandler@V__FrameHandler3@@@@YA?AW4_EXCEPTION_DISPOSITION@@PAUEHExceptionRecord@@PAUEHRegistrationNode@@PAU_CONTEXT@@PAXPBU_s_FuncInfo@@H1E@Z 1002520a f i libvcruntime:frame.obj
 0001:0002434c       ??0HandlerMap@__FrameHandler3@@QAE@PBU_s_TryBlockMapEntry@@PAX@Z 1002534c f i libvcruntime:frame.obj
 0001:00024368       ??0TryBlockMap@__FrameHandler3@@QAE@PBU_s_FuncInfo@@PAX@Z 10025368 f i libvcruntime:frame.obj
 0001:00024381       ??0bad_exception@std@@QAE@ABV01@@Z 10025381 f i libvcruntime:frame.obj
 0001:000243a2       ??0bad_exception@std@@QAE@XZ 100253a2 f i libvcruntime:frame.obj
 0001:000243c0       ??0exception@std@@QAE@ABV01@@Z 100253c0 f i libvcruntime:frame.obj
 0001:000243f7       ??0exception@std@@QAE@QBDH@Z 100253f7 f i libvcruntime:frame.obj
 0001:0002441b       ??0iterator@HandlerMap@__FrameHandler3@@QAE@AAV12@I@Z 1002541b f i libvcruntime:frame.obj
 0001:00024434       ??1bad_exception@std@@UAE@XZ 10025434 f i libvcruntime:frame.obj
 0001:00024449       ??1exception@std@@UAE@XZ   10025449 f i libvcruntime:frame.obj
 0001:0002445e       ??8iterator@HandlerMap@__FrameHandler3@@QBE_NABV012@@Z 1002545e f i libvcruntime:frame.obj
 0001:00024475       ??8type_info@@QBE_NABV0@@Z 10025475 f i libvcruntime:frame.obj
 0001:0002449b       ??9iterator@HandlerMap@__FrameHandler3@@QBE_NABV012@@Z 1002549b f i libvcruntime:frame.obj
 0001:000244b2       ??Diterator@HandlerMap@__FrameHandler3@@QAEPBU_s_HandlerType@@XZ 100254b2 f i libvcruntime:frame.obj
 0001:000244c1       ??Diterator@TryBlockMap@__FrameHandler3@@QAEPBU_s_TryBlockMapEntry@@XZ 100254c1 f i libvcruntime:frame.obj
 0001:000244d0       ??Eiterator@HandlerMap@__FrameHandler3@@QAEAAV012@XZ 100254d0 f i libvcruntime:frame.obj
 0001:000244d6       ??Eiterator@TryBlockMap@__FrameHandler3@@QAEAAV012@XZ 100254d6 f i libvcruntime:frame.obj
 0001:000244dc       ??Miterator@TryBlockMap@__FrameHandler3@@QBE_NABV012@@Z 100254dc f i libvcruntime:frame.obj
 0001:000244f3       ??_Ebad_exception@std@@UAEPAXI@Z 100254f3 f i libvcruntime:frame.obj
 0001:000244f3       ??_Gbad_exception@std@@UAEPAXI@Z 100254f3 f i libvcruntime:frame.obj
 0001:0002452b       ??_Gexception@std@@UAEPAXI@Z 1002552b f i libvcruntime:frame.obj
 0001:0002452b       ??_Eexception@std@@UAEPAXI@Z 1002552b f i libvcruntime:frame.obj
 0001:00024563       ?BuildCatchObject@__FrameHandler3@@SAXPAUEHExceptionRecord@@PAXPBU_s_HandlerType@@PBU_s_CatchableType@@@Z 10025563 f   libvcruntime:frame.obj
 0001:00024568       ?BuildCatchObjectHelper@__FrameHandler3@@SAHPAUEHExceptionRecord@@PAXPBU_s_HandlerType@@PBU_s_CatchableType@@@Z 10025568 f   libvcruntime:frame.obj
 0001:0002484c       ?FrameUnwindToEmptyState@__FrameHandler3@@SAXPAUEHRegistrationNode@@PAXPBU_s_FuncInfo@@@Z 1002584c f   libvcruntime:frame.obj
 0001:0002486a       ?FrameUnwindToState@__FrameHandler3@@SAXPAUEHRegistrationNode@@PAXPBU_s_FuncInfo@@H@Z 1002586a f   libvcruntime:frame.obj
 0001:0002498c       ?GetMaxState@__FrameHandler3@@SAHPAXPBU_s_FuncInfo@@@Z 1002598c f i libvcruntime:frame.obj
 0001:00024aa0       ?TypeMatch@__FrameHandler3@@SAHPBU_s_HandlerType@@PBU_s_CatchableType@@PBU_s_ThrowInfo@@@Z 10025aa0 f   libvcruntime:frame.obj
 0001:00024aab       ?_CallMemberFunction1@@YGXQAX00@Z 10025aab f i libvcruntime:frame.obj
 0001:00024abf       ?_CallMemberFunction2@@YGXQAX00H@Z 10025abf f i libvcruntime:frame.obj
 0001:00024ad6       ?_ValidateExecute@@YA_NP6GHXZ@Z 10025ad6 f i libvcruntime:frame.obj
 0001:00024ae5       ?_ValidateRead@@YA_NPBXI@Z 10025ae5 f i libvcruntime:frame.obj
 0001:00024af4       ?_ValidateWrite@@YA_NPAXI@Z 10025af4 f i libvcruntime:frame.obj
 0001:00024b03       ?begin@HandlerMap@__FrameHandler3@@QAE?AViterator@12@XZ 10025b03 f i libvcruntime:frame.obj
 0001:00024b17       ?end@HandlerMap@__FrameHandler3@@QAE?AViterator@12@XZ 10025b17 f i libvcruntime:frame.obj
 0001:00024b2c       ?getESTypes@__FrameHandler3@@SAPBU_s_ESTypeList@@PBU_s_FuncInfo@@@Z 10025b2c f i libvcruntime:frame.obj
 0001:00024b39       ?getLastEntry@HandlerMap@__FrameHandler3@@QAEPBU_s_HandlerType@@XZ 10025b39 f i libvcruntime:frame.obj
 0001:00024b4a       ?getMagicNum@__FrameHandler3@@SAIPBU_s_FuncInfo@@@Z 10025b4a f i libvcruntime:frame.obj
 0001:00024b5c       ?getNumTryBlocks@TryBlockMap@__FrameHandler3@@QAEIXZ 10025b5c f i libvcruntime:frame.obj
 0001:00024b62       ?isEHs@__FrameHandler3@@SA_NPBU_s_FuncInfo@@@Z 10025b62 f i libvcruntime:frame.obj
 0001:00024b72       ?isNoExcept@__FrameHandler3@@SA_NPBU_s_FuncInfo@@@Z 10025b72 f i libvcruntime:frame.obj
 0001:00024b86       ?what@exception@std@@UBEPBDXZ 10025b86 f i libvcruntime:frame.obj
 0001:00024b96       ___BuildCatchObject        10025b96 f   libvcruntime:frame.obj
 0001:00024b9b       ___BuildCatchObjectHelper  10025b9b f   libvcruntime:frame.obj
 0001:00024ba6       ___TypeMatch               10025ba6 f   libvcruntime:frame.obj
 0001:00024bb1       ___vcrt_EncodePointer      10025bb1 f i libvcruntime:frame.obj
 0001:00024bd0       __CallSettingFrame@12      10025bd0 f   libvcruntime:lowhelpr.obj
 0001:00024bf7       __NLG_Return               10025bf7     libvcruntime:lowhelpr.obj
 0001:00024c48       __get_unexpected           10025c48 f   libvcruntime:unexpected.obj
 0001:00024c5e       _set_unexpected            10025c5e f   libvcruntime:unexpected.obj
 0001:00024c83       _unexpected                10025c83 f   libvcruntime:unexpected.obj
 0001:00024ca7       ?GetCurrentState@__FrameHandler3@@SAHPAUEHRegistrationNode@@PAXPBU_s_FuncInfo@@@Z 10025ca7 f   libvcruntime:ehstate.obj
 0001:00024ccb       ?SetState@__FrameHandler3@@SAXPAUEHRegistrationNode@@PBU_s_FuncInfo@@H@Z 10025ccb f   libvcruntime:ehstate.obj
 0001:00024cdc       ___DestructExceptionObject 10025cdc f   libvcruntime:ehhelpers.obj
 0001:00024da4       ?_CallMemberFunction0@@YGXQAX0@Z 10025da4 f i libvcruntime:ehhelpers.obj
 0001:00024db4       ?raw_name@type_info@@QBEPBDXZ 10025db4 f i libvcruntime:ehhelpers.obj
 0001:00024db8       __IsExceptionObjectToBeDestroyed 10025db8 f   libvcruntime:ehhelpers.obj
 0001:00024de7       __SetWinRTOutOfMemoryExceptionCallback 10025de7 f   libvcruntime:ehhelpers.obj
 0001:00024df7       ___AdjustPointer           10025df7 f   libvcruntime:ehhelpers.obj
 0001:00024e25       ___FrameUnwindFilter       10025e25 f   libvcruntime:ehhelpers.obj
 0001:00024e7b       ___GetPlatformExceptionInfo 10025e7b f   libvcruntime:ehhelpers.obj
 0001:00024eda       ___current_exception       10025eda f   libvcruntime:ehhelpers.obj
 0001:00024ee5       ___current_exception_context 10025ee5 f   libvcruntime:ehhelpers.obj
 0001:00024ef0       ___processing_throw        10025ef0 f   libvcruntime:ehhelpers.obj
 0001:00024efb       ___std_terminate           10025efb f   libvcruntime:ehhelpers.obj
 0001:00024f00       __is_exception_typeof      10025f00 f   libvcruntime:ehhelpers.obj
 0001:00024fcd       ??$?RD@__crt_public_free_policy@@QBEXQBD@Z 10025fcd f i libvcruntime:std_exception.obj
 0001:00024fe1       ??0?$__crt_unique_heap_ptr@DU__crt_public_free_policy@@@@QAE@QAD@Z 10025fe1 f i libvcruntime:std_exception.obj
 0001:00024ff2       ??1?$__crt_unique_heap_ptr@DU__crt_public_free_policy@@@@QAE@XZ 10025ff2 f i libvcruntime:std_exception.obj
 0001:00025006       ??B?$__crt_unique_heap_ptr@DU__crt_public_free_policy@@@@QBE_NXZ 10026006 f i libvcruntime:std_exception.obj
 0001:0002500d       ?detach@?$__crt_unique_heap_ptr@DU__crt_public_free_policy@@@@QAEPADXZ 1002600d f i libvcruntime:std_exception.obj
 0001:00025013       ?get@?$__crt_unique_heap_ptr@DU__crt_public_free_policy@@@@QBEPADXZ 10026013 f i libvcruntime:std_exception.obj
 0001:00025016       ?is_valid@?$__crt_unique_heap_ptr@DU__crt_public_free_policy@@@@QBE_NXZ 10026016 f i libvcruntime:std_exception.obj
 0001:0002501d       ?release@?$__crt_unique_heap_ptr@DU__crt_public_free_policy@@@@QAEXXZ 1002601d f i libvcruntime:std_exception.obj
 0001:00025031       ___std_exception_copy      10026031 f   libvcruntime:std_exception.obj
 0001:000250ac       ___std_exception_destroy   100260ac f   libvcruntime:std_exception.obj
 0001:000250d2       __CxxThrowException@8      100260d2 f   libvcruntime:throw.obj
 0001:0002515a       _malloc                    1002615a f   libucrt:malloc.obj
 0001:00025167       _free                      10026167 f   libucrt:free.obj
 0001:0002518b       ??$?RPAU__crt_stdio_stream_data@@@__crt_internal_free_policy@@QBEXQBQAU__crt_stdio_stream_data@@@Z 1002618b f i libucrt:_file.obj
 0001:000251a1       ??0?$__crt_unique_heap_ptr@PAU__crt_stdio_stream_data@@U__crt_internal_free_policy@@@@QAE@QAPAU__crt_stdio_stream_data@@@Z 100261a1 f i libucrt:_file.obj
 0001:000251b5       ??0__crt_stdio_stream@@QAE@QAU_iobuf@@@Z 100261b5 f i libucrt:_file.obj
 0001:000251c9       ??1?$__crt_unique_heap_ptr@PAU__crt_stdio_stream_data@@U__crt_internal_free_policy@@@@QAE@XZ 100261c9 f i libucrt:_file.obj
 0001:000251df       ??C__crt_stdio_stream@@QBEPAU__crt_stdio_stream_data@@XZ 100261df f i libucrt:_file.obj
 0001:000251e2       ?detach@?$__crt_unique_heap_ptr@PAU__crt_stdio_stream_data@@U__crt_internal_free_policy@@@@QAEPAPAU__crt_stdio_stream_data@@XZ 100261e2 f i libucrt:_file.obj
 0001:000251e8       ?release@?$__crt_unique_heap_ptr@PAU__crt_stdio_stream_data@@U__crt_internal_free_policy@@@@QAEXXZ 100261e8 f i libucrt:_file.obj
 0001:000251fe       ___acrt_initialize_stdio   100261fe f   libucrt:_file.obj
 0001:000252f8       ___acrt_iob_func           100262f8 f   libucrt:_file.obj
 0001:0002530c       ___acrt_uninitialize_stdio 1002630c f   libucrt:_file.obj
 0001:0002536b       __get_stream_buffer_pointers 1002636b f   libucrt:_file.obj
 0001:000253c2       __lock_file                100263c2 f   libucrt:_file.obj
 0001:000253db       __unlock_file              100263db f   libucrt:_file.obj
 0001:000253f4       ??$?0ABV?$stream_output_adapter@D@__crt_stdio_output@@AB_KABQBDABQAU__crt_locale_pointers@@ABQAD@?$format_validation_base@DV?$stream_output_adapter@D@__crt_stdio_output@@@__crt_stdio_output@@IAE@ABV?$stream_output_adapter@D@1@AB_KABQBDABQAU__crt_locale_pointers@@ABQAD@Z 100263f4 f i libucrt:output.obj
 0001:0002541f       ??$?0ABV?$stream_output_adapter@D@__crt_stdio_output@@AB_KABQBDABQAU__crt_locale_pointers@@ABQAD@?$positional_parameter_base@DV?$stream_output_adapter@D@__crt_stdio_output@@@__crt_stdio_output@@IAE@ABV?$stream_output_adapter@D@1@AB_KABQBDABQAU__crt_locale_pointers@@ABQAD@Z 1002641f f i libucrt:output.obj
 0001:00025479       ??$?0ABV?$stream_output_adapter@D@__crt_stdio_output@@AB_KABQBDABQAU__crt_locale_pointers@@ABQAD@?$standard_base@DV?$stream_output_adapter@D@__crt_stdio_output@@@__crt_stdio_output@@IAE@ABV?$stream_output_adapter@D@1@AB_KABQBDABQAU__crt_locale_pointers@@ABQAD@Z 10026479 f i libucrt:output.obj
 0001:000254bb       ??$?0ABV?$stream_output_adapter@_W@__crt_stdio_output@@AB_KABQB_WABQAU__crt_locale_pointers@@ABQAD@?$format_validation_base@_WV?$stream_output_adapter@_W@__crt_stdio_output@@@__crt_stdio_output@@IAE@ABV?$stream_output_adapter@_W@1@AB_KABQB_WABQAU__crt_locale_pointers@@ABQAD@Z 100264bb f i libucrt:output.obj
 0001:000254e6       ??$?0ABV?$stream_output_adapter@_W@__crt_stdio_output@@AB_KABQB_WABQAU__crt_locale_pointers@@ABQAD@?$positional_parameter_base@_WV?$stream_output_adapter@_W@__crt_stdio_output@@@__crt_stdio_output@@IAE@ABV?$stream_output_adapter@_W@1@AB_KABQB_WABQAU__crt_locale_pointers@@ABQAD@Z 100264e6 f i libucrt:output.obj
 0001:00025540       ??$?0ABV?$stream_output_adapter@_W@__crt_stdio_output@@AB_KABQB_WABQAU__crt_locale_pointers@@ABQAD@?$standard_base@_WV?$stream_output_adapter@_W@__crt_stdio_output@@@__crt_stdio_output@@IAE@ABV?$stream_output_adapter@_W@1@AB_KABQB_WABQAU__crt_locale_pointers@@ABQAD@Z 10026540 f i libucrt:output.obj
 0001:00025582       ??$?0ABV?$string_output_adapter@D@__crt_stdio_output@@AB_KABQBDABQAU__crt_locale_pointers@@ABQAD@?$format_validation_base@DV?$string_output_adapter@D@__crt_stdio_output@@@__crt_stdio_output@@IAE@ABV?$string_output_adapter@D@1@AB_KABQBDABQAU__crt_locale_pointers@@ABQAD@Z 10026582 f i libucrt:output.obj
 0001:000255ad       ??$?0ABV?$string_output_adapter@D@__crt_stdio_output@@AB_KABQBDABQAU__crt_locale_pointers@@ABQAD@?$positional_parameter_base@DV?$string_output_adapter@D@__crt_stdio_output@@@__crt_stdio_output@@IAE@ABV?$string_output_adapter@D@1@AB_KABQBDABQAU__crt_locale_pointers@@ABQAD@Z 100265ad f i libucrt:output.obj
 0001:00025607       ??$?0ABV?$string_output_adapter@D@__crt_stdio_output@@AB_KABQBDABQAU__crt_locale_pointers@@ABQAD@?$standard_base@DV?$string_output_adapter@D@__crt_stdio_output@@@__crt_stdio_output@@IAE@ABV?$string_output_adapter@D@1@AB_KABQBDABQAU__crt_locale_pointers@@ABQAD@Z 10026607 f i libucrt:output.obj
 0001:00025649       ??$?0ABV?$string_output_adapter@_W@__crt_stdio_output@@AB_KABQB_WABQAU__crt_locale_pointers@@ABQAD@?$format_validation_base@_WV?$string_output_adapter@_W@__crt_stdio_output@@@__crt_stdio_output@@IAE@ABV?$string_output_adapter@_W@1@AB_KABQB_WABQAU__crt_locale_pointers@@ABQAD@Z 10026649 f i libucrt:output.obj
 0001:00025674       ??$?0ABV?$string_output_adapter@_W@__crt_stdio_output@@AB_KABQB_WABQAU__crt_locale_pointers@@ABQAD@?$positional_parameter_base@_WV?$string_output_adapter@_W@__crt_stdio_output@@@__crt_stdio_output@@IAE@ABV?$string_output_adapter@_W@1@AB_KABQB_WABQAU__crt_locale_pointers@@ABQAD@Z 10026674 f i libucrt:output.obj
 0001:000256ce       ??$?0ABV?$string_output_adapter@_W@__crt_stdio_output@@AB_KABQB_WABQAU__crt_locale_pointers@@ABQAD@?$standard_base@_WV?$string_output_adapter@_W@__crt_stdio_output@@@__crt_stdio_output@@IAE@ABV?$string_output_adapter@_W@1@AB_KABQB_WABQAU__crt_locale_pointers@@ABQAD@Z 100266ce f i libucrt:output.obj
 0001:00025a9a       ??$__crt_interlocked_read@J@@YAJPDJ@Z 10026a9a f i libucrt:output.obj
 0001:00026d03       ??$count@D@formatting_buffer@__crt_stdio_output@@QBEIXZ 10027d03 f i libucrt:output.obj
 0001:00026d21       ??$count@_W@formatting_buffer@__crt_stdio_output@@QBEIXZ 10027d21 f i libucrt:output.obj
 0001:00026d40       ??$data@D@formatting_buffer@__crt_stdio_output@@QAEPADXZ 10027d40 f i libucrt:output.obj
 0001:00026d50       ??$data@_W@formatting_buffer@__crt_stdio_output@@QAEPA_WXZ 10027d50 f i libucrt:output.obj
 0001:00026d60       ??$ensure_buffer_is_big_enough@D@formatting_buffer@__crt_stdio_output@@QAE_NI@Z 10027d60 f i libucrt:output.obj
 0001:00026dfe       ??$ensure_buffer_is_big_enough@_W@formatting_buffer@__crt_stdio_output@@QAE_NI@Z 10027dfe f i libucrt:output.obj
 0001:00026e9e       ??$extract_argument_from_va_list@C_J@?$positional_parameter_base@DV?$stream_output_adapter@D@__crt_stdio_output@@@__crt_stdio_output@@IAE_NAA_J@Z 10027e9e f i libucrt:output.obj
 0001:00026f35       ??$extract_argument_from_va_list@C_J@?$positional_parameter_base@DV?$string_output_adapter@D@__crt_stdio_output@@@__crt_stdio_output@@IAE_NAA_J@Z 10027f35 f i libucrt:output.obj
 0001:00026fcc       ??$extract_argument_from_va_list@C_J@?$positional_parameter_base@_WV?$stream_output_adapter@_W@__crt_stdio_output@@@__crt_stdio_output@@IAE_NAA_J@Z 10027fcc f i libucrt:output.obj
 0001:00027063       ??$extract_argument_from_va_list@C_J@?$positional_parameter_base@_WV?$string_output_adapter@_W@__crt_stdio_output@@@__crt_stdio_output@@IAE_NAA_J@Z 10028063 f i libucrt:output.obj
 0001:000270fa       ??$extract_argument_from_va_list@C_J@?$standard_base@DV?$stream_output_adapter@D@__crt_stdio_output@@@__crt_stdio_output@@IAE_NAA_J@Z 100280fa f i libucrt:output.obj
 0001:00027120       ??$extract_argument_from_va_list@C_J@?$standard_base@DV?$string_output_adapter@D@__crt_stdio_output@@@__crt_stdio_output@@IAE_NAA_J@Z 10028120 f i libucrt:output.obj
 0001:00027146       ??$extract_argument_from_va_list@C_J@?$standard_base@_WV?$stream_output_adapter@_W@__crt_stdio_output@@@__crt_stdio_output@@IAE_NAA_J@Z 10028146 f i libucrt:output.obj
 0001:0002716c       ??$extract_argument_from_va_list@C_J@?$standard_base@_WV?$string_output_adapter@_W@__crt_stdio_output@@@__crt_stdio_output@@IAE_NAA_J@Z 1002816c f i libucrt:output.obj
 0001:00027192       ??$extract_argument_from_va_list@E_J@?$positional_parameter_base@DV?$stream_output_adapter@D@__crt_stdio_output@@@__crt_stdio_output@@IAE_NAA_J@Z 10028192 f i libucrt:output.obj
 0001:00027229       ??$extract_argument_from_va_list@E_J@?$positional_parameter_base@DV?$string_output_adapter@D@__crt_stdio_output@@@__crt_stdio_output@@IAE_NAA_J@Z 10028229 f i libucrt:output.obj
 0001:000272c0       ??$extract_argument_from_va_list@E_J@?$positional_parameter_base@_WV?$stream_output_adapter@_W@__crt_stdio_output@@@__crt_stdio_output@@IAE_NAA_J@Z 100282c0 f i libucrt:output.obj
 0001:00027357       ??$extract_argument_from_va_list@E_J@?$positional_parameter_base@_WV?$string_output_adapter@_W@__crt_stdio_output@@@__crt_stdio_output@@IAE_NAA_J@Z 10028357 f i libucrt:output.obj
 0001:000273ee       ??$extract_argument_from_va_list@E_J@?$standard_base@DV?$stream_output_adapter@D@__crt_stdio_output@@@__crt_stdio_output@@IAE_NAA_J@Z 100283ee f i libucrt:output.obj
 0001:00027414       ??$extract_argument_from_va_list@E_J@?$standard_base@DV?$string_output_adapter@D@__crt_stdio_output@@@__crt_stdio_output@@IAE_NAA_J@Z 10028414 f i libucrt:output.obj
 0001:0002743a       ??$extract_argument_from_va_list@E_J@?$standard_base@_WV?$stream_output_adapter@_W@__crt_stdio_output@@@__crt_stdio_output@@IAE_NAA_J@Z 1002843a f i libucrt:output.obj
 0001:00027460       ??$extract_argument_from_va_list@E_J@?$standard_base@_WV?$string_output_adapter@_W@__crt_stdio_output@@@__crt_stdio_output@@IAE_NAA_J@Z 10028460 f i libucrt:output.obj
 0001:00027486       ??$extract_argument_from_va_list@F_J@?$positional_parameter_base@DV?$stream_output_adapter@D@__crt_stdio_output@@@__crt_stdio_output@@IAE_NAA_J@Z 10028486 f i libucrt:output.obj
 0001:0002751d       ??$extract_argument_from_va_list@F_J@?$positional_parameter_base@DV?$string_output_adapter@D@__crt_stdio_output@@@__crt_stdio_output@@IAE_NAA_J@Z 1002851d f i libucrt:output.obj
 0001:000275b4       ??$extract_argument_from_va_list@F_J@?$positional_parameter_base@_WV?$stream_output_adapter@_W@__crt_stdio_output@@@__crt_stdio_output@@IAE_NAA_J@Z 100285b4 f i libucrt:output.obj
 0001:0002764b       ??$extract_argument_from_va_list@F_J@?$positional_parameter_base@_WV?$string_output_adapter@_W@__crt_stdio_output@@@__crt_stdio_output@@IAE_NAA_J@Z 1002864b f i libucrt:output.obj
 0001:000276e2       ??$extract_argument_from_va_list@F_J@?$standard_base@DV?$stream_output_adapter@D@__crt_stdio_output@@@__crt_stdio_output@@IAE_NAA_J@Z 100286e2 f i libucrt:output.obj
 0001:00027708       ??$extract_argument_from_va_list@F_J@?$standard_base@DV?$string_output_adapter@D@__crt_stdio_output@@@__crt_stdio_output@@IAE_NAA_J@Z 10028708 f i libucrt:output.obj
 0001:0002772e       ??$extract_argument_from_va_list@F_J@?$standard_base@_WV?$stream_output_adapter@_W@__crt_stdio_output@@@__crt_stdio_output@@IAE_NAA_J@Z 1002872e f i libucrt:output.obj
 0001:00027754       ??$extract_argument_from_va_list@F_J@?$standard_base@_WV?$string_output_adapter@_W@__crt_stdio_output@@@__crt_stdio_output@@IAE_NAA_J@Z 10028754 f i libucrt:output.obj
 0001:0002777a       ??$extract_argument_from_va_list@GD@?$positional_parameter_base@DV?$stream_output_adapter@D@__crt_stdio_output@@@__crt_stdio_output@@IAE_NAAD@Z 1002877a f i libucrt:output.obj
 0001:00027810       ??$extract_argument_from_va_list@GD@?$positional_parameter_base@DV?$string_output_adapter@D@__crt_stdio_output@@@__crt_stdio_output@@IAE_NAAD@Z 10028810 f i libucrt:output.obj
 0001:000278a6       ??$extract_argument_from_va_list@GD@?$standard_base@DV?$stream_output_adapter@D@__crt_stdio_output@@@__crt_stdio_output@@IAE_NAAD@Z 100288a6 f i libucrt:output.obj
 0001:000278c6       ??$extract_argument_from_va_list@GD@?$standard_base@DV?$string_output_adapter@D@__crt_stdio_output@@@__crt_stdio_output@@IAE_NAAD@Z 100288c6 f i libucrt:output.obj
 0001:000278e6       ??$extract_argument_from_va_list@G_J@?$positional_parameter_base@DV?$stream_output_adapter@D@__crt_stdio_output@@@__crt_stdio_output@@IAE_NAA_J@Z 100288e6 f i libucrt:output.obj
 0001:0002797d       ??$extract_argument_from_va_list@G_J@?$positional_parameter_base@DV?$string_output_adapter@D@__crt_stdio_output@@@__crt_stdio_output@@IAE_NAA_J@Z 1002897d f i libucrt:output.obj
 0001:00027a14       ??$extract_argument_from_va_list@G_J@?$positional_parameter_base@_WV?$stream_output_adapter@_W@__crt_stdio_output@@@__crt_stdio_output@@IAE_NAA_J@Z 10028a14 f i libucrt:output.obj
 0001:00027aab       ??$extract_argument_from_va_list@G_J@?$positional_parameter_base@_WV?$string_output_adapter@_W@__crt_stdio_output@@@__crt_stdio_output@@IAE_NAA_J@Z 10028aab f i libucrt:output.obj
 0001:00027b42       ??$extract_argument_from_va_list@G_J@?$standard_base@DV?$stream_output_adapter@D@__crt_stdio_output@@@__crt_stdio_output@@IAE_NAA_J@Z 10028b42 f i libucrt:output.obj
 0001:00027b68       ??$extract_argument_from_va_list@G_J@?$standard_base@DV?$string_output_adapter@D@__crt_stdio_output@@@__crt_stdio_output@@IAE_NAA_J@Z 10028b68 f i libucrt:output.obj
 0001:00027b8e       ??$extract_argument_from_va_list@G_J@?$standard_base@_WV?$stream_output_adapter@_W@__crt_stdio_output@@@__crt_stdio_output@@IAE_NAA_J@Z 10028b8e f i libucrt:output.obj
 0001:00027bb4       ??$extract_argument_from_va_list@G_J@?$standard_base@_WV?$string_output_adapter@_W@__crt_stdio_output@@@__crt_stdio_output@@IAE_NAA_J@Z 10028bb4 f i libucrt:output.obj
 0001:00027bda       ??$extract_argument_from_va_list@H_J@?$positional_parameter_base@DV?$stream_output_adapter@D@__crt_stdio_output@@@__crt_stdio_output@@IAE_NAA_J@Z 10028bda f i libucrt:output.obj
 0001:00027c6e       ??$extract_argument_from_va_list@H_J@?$positional_parameter_base@DV?$string_output_adapter@D@__crt_stdio_output@@@__crt_stdio_output@@IAE_NAA_J@Z 10028c6e f i libucrt:output.obj
 0001:00027d02       ??$extract_argument_from_va_list@H_J@?$positional_parameter_base@_WV?$stream_output_adapter@_W@__crt_stdio_output@@@__crt_stdio_output@@IAE_NAA_J@Z 10028d02 f i libucrt:output.obj
 0001:00027d96       ??$extract_argument_from_va_list@H_J@?$positional_parameter_base@_WV?$string_output_adapter@_W@__crt_stdio_output@@@__crt_stdio_output@@IAE_NAA_J@Z 10028d96 f i libucrt:output.obj
 0001:00027e2a       ??$extract_argument_from_va_list@H_J@?$standard_base@DV?$stream_output_adapter@D@__crt_stdio_output@@@__crt_stdio_output@@IAE_NAA_J@Z 10028e2a f i libucrt:output.obj
 0001:00027e4f       ??$extract_argument_from_va_list@H_J@?$standard_base@DV?$string_output_adapter@D@__crt_stdio_output@@@__crt_stdio_output@@IAE_NAA_J@Z 10028e4f f i libucrt:output.obj
 0001:00027e74       ??$extract_argument_from_va_list@H_J@?$standard_base@_WV?$stream_output_adapter@_W@__crt_stdio_output@@@__crt_stdio_output@@IAE_NAA_J@Z 10028e74 f i libucrt:output.obj
 0001:00027e99       ??$extract_argument_from_va_list@H_J@?$standard_base@_WV?$string_output_adapter@_W@__crt_stdio_output@@@__crt_stdio_output@@IAE_NAA_J@Z 10028e99 f i libucrt:output.obj
 0001:00027ebe       ??$extract_argument_from_va_list@I_J@?$positional_parameter_base@DV?$stream_output_adapter@D@__crt_stdio_output@@@__crt_stdio_output@@IAE_NAA_J@Z 10028ebe f i libucrt:output.obj
 0001:00027f5e       ??$extract_argument_from_va_list@I_J@?$positional_parameter_base@DV?$string_output_adapter@D@__crt_stdio_output@@@__crt_stdio_output@@IAE_NAA_J@Z 10028f5e f i libucrt:output.obj
 0001:00027ffe       ??$extract_argument_from_va_list@I_J@?$positional_parameter_base@_WV?$stream_output_adapter@_W@__crt_stdio_output@@@__crt_stdio_output@@IAE_NAA_J@Z 10028ffe f i libucrt:output.obj
 0001:0002809e       ??$extract_argument_from_va_list@I_J@?$positional_parameter_base@_WV?$string_output_adapter@_W@__crt_stdio_output@@@__crt_stdio_output@@IAE_NAA_J@Z 1002909e f i libucrt:output.obj
 0001:0002813e       ??$extract_argument_from_va_list@I_J@?$standard_base@DV?$stream_output_adapter@D@__crt_stdio_output@@@__crt_stdio_output@@IAE_NAA_J@Z 1002913e f i libucrt:output.obj
 0001:00028163       ??$extract_argument_from_va_list@I_J@?$standard_base@DV?$string_output_adapter@D@__crt_stdio_output@@@__crt_stdio_output@@IAE_NAA_J@Z 10029163 f i libucrt:output.obj
 0001:00028188       ??$extract_argument_from_va_list@I_J@?$standard_base@_WV?$stream_output_adapter@_W@__crt_stdio_output@@@__crt_stdio_output@@IAE_NAA_J@Z 10029188 f i libucrt:output.obj
 0001:000281ad       ??$extract_argument_from_va_list@I_J@?$standard_base@_WV?$string_output_adapter@_W@__crt_stdio_output@@@__crt_stdio_output@@IAE_NAA_J@Z 100291ad f i libucrt:output.obj
 0001:000281d2       ??$extract_argument_from_va_list@PADPAD@?$positional_parameter_base@DV?$stream_output_adapter@D@__crt_stdio_output@@@__crt_stdio_output@@IAE_NAAPAD@Z 100291d2 f i libucrt:output.obj
 0001:00028268       ??$extract_argument_from_va_list@PADPAD@?$positional_parameter_base@DV?$string_output_adapter@D@__crt_stdio_output@@@__crt_stdio_output@@IAE_NAAPAD@Z 10029268 f i libucrt:output.obj
 0001:000282fe       ??$extract_argument_from_va_list@PADPAD@?$positional_parameter_base@_WV?$stream_output_adapter@_W@__crt_stdio_output@@@__crt_stdio_output@@IAE_NAAPAD@Z 100292fe f i libucrt:output.obj
 0001:00028394       ??$extract_argument_from_va_list@PADPAD@?$positional_parameter_base@_WV?$string_output_adapter@_W@__crt_stdio_output@@@__crt_stdio_output@@IAE_NAAPAD@Z 10029394 f i libucrt:output.obj
 0001:0002842a       ??$extract_argument_from_va_list@PADPAD@?$standard_base@DV?$stream_output_adapter@D@__crt_stdio_output@@@__crt_stdio_output@@IAE_NAAPAD@Z 1002942a f i libucrt:output.obj
 0001:0002844a       ??$extract_argument_from_va_list@PADPAD@?$standard_base@DV?$string_output_adapter@D@__crt_stdio_output@@@__crt_stdio_output@@IAE_NAAPAD@Z 1002944a f i libucrt:output.obj
 0001:0002846a       ??$extract_argument_from_va_list@PADPAD@?$standard_base@_WV?$stream_output_adapter@_W@__crt_stdio_output@@@__crt_stdio_output@@IAE_NAAPAD@Z 1002946a f i libucrt:output.obj
 0001:0002848a       ??$extract_argument_from_va_list@PADPAD@?$standard_base@_WV?$string_output_adapter@_W@__crt_stdio_output@@@__crt_stdio_output@@IAE_NAAPAD@Z 1002948a f i libucrt:output.obj
 0001:00028882       ??$extract_argument_from_va_list@PAXPAX@?$positional_parameter_base@DV?$stream_output_adapter@D@__crt_stdio_output@@@__crt_stdio_output@@IAE_NAAPAX@Z 10029882 f i libucrt:output.obj
 0001:00028918       ??$extract_argument_from_va_list@PAXPAX@?$positional_parameter_base@DV?$string_output_adapter@D@__crt_stdio_output@@@__crt_stdio_output@@IAE_NAAPAX@Z 10029918 f i libucrt:output.obj
 0001:000289ae       ??$extract_argument_from_va_list@PAXPAX@?$positional_parameter_base@_WV?$stream_output_adapter@_W@__crt_stdio_output@@@__crt_stdio_output@@IAE_NAAPAX@Z 100299ae f i libucrt:output.obj
 0001:00028a44       ??$extract_argument_from_va_list@PAXPAX@?$positional_parameter_base@_WV?$string_output_adapter@_W@__crt_stdio_output@@@__crt_stdio_output@@IAE_NAAPAX@Z 10029a44 f i libucrt:output.obj
 0001:00028ada       ??$extract_argument_from_va_list@PAXPAX@?$standard_base@DV?$stream_output_adapter@D@__crt_stdio_output@@@__crt_stdio_output@@IAE_NAAPAX@Z 10029ada f i libucrt:output.obj
 0001:00028afa       ??$extract_argument_from_va_list@PAXPAX@?$standard_base@DV?$string_output_adapter@D@__crt_stdio_output@@@__crt_stdio_output@@IAE_NAAPAX@Z 10029afa f i libucrt:output.obj
 0001:00028b1a       ??$extract_argument_from_va_list@PAXPAX@?$standard_base@_WV?$stream_output_adapter@_W@__crt_stdio_output@@@__crt_stdio_output@@IAE_NAAPAX@Z 10029b1a f i libucrt:output.obj
 0001:00028b3a       ??$extract_argument_from_va_list@PAXPAX@?$standard_base@_WV?$string_output_adapter@_W@__crt_stdio_output@@@__crt_stdio_output@@IAE_NAAPAX@Z 10029b3a f i libucrt:output.obj
 0001:00028b5a       ??$extract_argument_from_va_list@U_CRT_DOUBLE@@U1@@?$positional_parameter_base@DV?$stream_output_adapter@D@__crt_stdio_output@@@__crt_stdio_output@@IAE_NAAU_CRT_DOUBLE@@@Z 10029b5a f i libucrt:output.obj
 0001:00028c01       ??$extract_argument_from_va_list@U_CRT_DOUBLE@@U1@@?$positional_parameter_base@DV?$string_output_adapter@D@__crt_stdio_output@@@__crt_stdio_output@@IAE_NAAU_CRT_DOUBLE@@@Z 10029c01 f i libucrt:output.obj
 0001:00028ca8       ??$extract_argument_from_va_list@U_CRT_DOUBLE@@U1@@?$positional_parameter_base@_WV?$stream_output_adapter@_W@__crt_stdio_output@@@__crt_stdio_output@@IAE_NAAU_CRT_DOUBLE@@@Z 10029ca8 f i libucrt:output.obj
 0001:00028d4f       ??$extract_argument_from_va_list@U_CRT_DOUBLE@@U1@@?$positional_parameter_base@_WV?$string_output_adapter@_W@__crt_stdio_output@@@__crt_stdio_output@@IAE_NAAU_CRT_DOUBLE@@@Z 10029d4f f i libucrt:output.obj
 0001:00028df6       ??$extract_argument_from_va_list@U_CRT_DOUBLE@@U1@@?$standard_base@DV?$stream_output_adapter@D@__crt_stdio_output@@@__crt_stdio_output@@IAE_NAAU_CRT_DOUBLE@@@Z 10029df6 f i libucrt:output.obj
 0001:00028e1e       ??$extract_argument_from_va_list@U_CRT_DOUBLE@@U1@@?$standard_base@DV?$string_output_adapter@D@__crt_stdio_output@@@__crt_stdio_output@@IAE_NAAU_CRT_DOUBLE@@@Z 10029e1e f i libucrt:output.obj
 0001:00028e46       ??$extract_argument_from_va_list@U_CRT_DOUBLE@@U1@@?$standard_base@_WV?$stream_output_adapter@_W@__crt_stdio_output@@@__crt_stdio_output@@IAE_NAAU_CRT_DOUBLE@@@Z 10029e46 f i libucrt:output.obj
 0001:00028e6e       ??$extract_argument_from_va_list@U_CRT_DOUBLE@@U1@@?$standard_base@_WV?$string_output_adapter@_W@__crt_stdio_output@@@__crt_stdio_output@@IAE_NAAU_CRT_DOUBLE@@@Z 10029e6e f i libucrt:output.obj
 0001:00028e96       ??$extract_argument_from_va_list@_J_J@?$positional_parameter_base@DV?$stream_output_adapter@D@__crt_stdio_output@@@__crt_stdio_output@@IAE_NAA_J@Z 10029e96 f i libucrt:output.obj
 0001:00028f3d       ??$extract_argument_from_va_list@_J_J@?$positional_parameter_base@DV?$string_output_adapter@D@__crt_stdio_output@@@__crt_stdio_output@@IAE_NAA_J@Z 10029f3d f i libucrt:output.obj
 0001:00028fe4       ??$extract_argument_from_va_list@_J_J@?$positional_parameter_base@_WV?$stream_output_adapter@_W@__crt_stdio_output@@@__crt_stdio_output@@IAE_NAA_J@Z 10029fe4 f i libucrt:output.obj
 0001:0002908b       ??$extract_argument_from_va_list@_J_J@?$positional_parameter_base@_WV?$string_output_adapter@_W@__crt_stdio_output@@@__crt_stdio_output@@IAE_NAA_J@Z 1002a08b f i libucrt:output.obj
 0001:00029132       ??$extract_argument_from_va_list@_J_J@?$standard_base@DV?$stream_output_adapter@D@__crt_stdio_output@@@__crt_stdio_output@@IAE_NAA_J@Z 1002a132 f i libucrt:output.obj
 0001:0002915a       ??$extract_argument_from_va_list@_J_J@?$standard_base@DV?$string_output_adapter@D@__crt_stdio_output@@@__crt_stdio_output@@IAE_NAA_J@Z 1002a15a f i libucrt:output.obj
 0001:00029182       ??$extract_argument_from_va_list@_J_J@?$standard_base@_WV?$stream_output_adapter@_W@__crt_stdio_output@@@__crt_stdio_output@@IAE_NAA_J@Z 1002a182 f i libucrt:output.obj
 0001:000291aa       ??$extract_argument_from_va_list@_J_J@?$standard_base@_WV?$string_output_adapter@_W@__crt_stdio_output@@@__crt_stdio_output@@IAE_NAA_J@Z 1002a1aa f i libucrt:output.obj
 0001:000291d2       ??$extract_argument_from_va_list@_K_J@?$positional_parameter_base@DV?$stream_output_adapter@D@__crt_stdio_output@@@__crt_stdio_output@@IAE_NAA_J@Z 1002a1d2 f i libucrt:output.obj
 0001:00029279       ??$extract_argument_from_va_list@_K_J@?$positional_parameter_base@DV?$string_output_adapter@D@__crt_stdio_output@@@__crt_stdio_output@@IAE_NAA_J@Z 1002a279 f i libucrt:output.obj
 0001:00029320       ??$extract_argument_from_va_list@_K_J@?$positional_parameter_base@_WV?$stream_output_adapter@_W@__crt_stdio_output@@@__crt_stdio_output@@IAE_NAA_J@Z 1002a320 f i libucrt:output.obj
 0001:000293c7       ??$extract_argument_from_va_list@_K_J@?$positional_parameter_base@_WV?$string_output_adapter@_W@__crt_stdio_output@@@__crt_stdio_output@@IAE_NAA_J@Z 1002a3c7 f i libucrt:output.obj
 0001:0002946e       ??$extract_argument_from_va_list@_K_J@?$standard_base@DV?$stream_output_adapter@D@__crt_stdio_output@@@__crt_stdio_output@@IAE_NAA_J@Z 1002a46e f i libucrt:output.obj
 0001:00029496       ??$extract_argument_from_va_list@_K_J@?$standard_base@DV?$string_output_adapter@D@__crt_stdio_output@@@__crt_stdio_output@@IAE_NAA_J@Z 1002a496 f i libucrt:output.obj
 0001:000294be       ??$extract_argument_from_va_list@_K_J@?$standard_base@_WV?$stream_output_adapter@_W@__crt_stdio_output@@@__crt_stdio_output@@IAE_NAA_J@Z 1002a4be f i libucrt:output.obj
 0001:000294e6       ??$extract_argument_from_va_list@_K_J@?$standard_base@_WV?$string_output_adapter@_W@__crt_stdio_output@@@__crt_stdio_output@@IAE_NAA_J@Z 1002a4e6 f i libucrt:output.obj
 0001:0002950e       ??$extract_argument_from_va_list@_W_W@?$positional_parameter_base@DV?$stream_output_adapter@D@__crt_stdio_output@@@__crt_stdio_output@@IAE_NAA_W@Z 1002a50e f i libucrt:output.obj
 0001:000295a9       ??$extract_argument_from_va_list@_W_W@?$positional_parameter_base@DV?$string_output_adapter@D@__crt_stdio_output@@@__crt_stdio_output@@IAE_NAA_W@Z 1002a5a9 f i libucrt:output.obj
 0001:00029644       ??$extract_argument_from_va_list@_W_W@?$positional_parameter_base@_WV?$stream_output_adapter@_W@__crt_stdio_output@@@__crt_stdio_output@@IAE_NAA_W@Z 1002a644 f i libucrt:output.obj
 0001:000296df       ??$extract_argument_from_va_list@_W_W@?$positional_parameter_base@_WV?$string_output_adapter@_W@__crt_stdio_output@@@__crt_stdio_output@@IAE_NAA_W@Z 1002a6df f i libucrt:output.obj
 0001:0002977a       ??$extract_argument_from_va_list@_W_W@?$standard_base@DV?$stream_output_adapter@D@__crt_stdio_output@@@__crt_stdio_output@@IAE_NAA_W@Z 1002a77a f i libucrt:output.obj
 0001:0002979d       ??$extract_argument_from_va_list@_W_W@?$standard_base@DV?$string_output_adapter@D@__crt_stdio_output@@@__crt_stdio_output@@IAE_NAA_W@Z 1002a79d f i libucrt:output.obj
 0001:000297c0       ??$extract_argument_from_va_list@_W_W@?$standard_base@_WV?$stream_output_adapter@_W@__crt_stdio_output@@@__crt_stdio_output@@IAE_NAA_W@Z 1002a7c0 f i libucrt:output.obj
 0001:000297e3       ??$extract_argument_from_va_list@_W_W@?$standard_base@_WV?$string_output_adapter@_W@__crt_stdio_output@@@__crt_stdio_output@@IAE_NAA_W@Z 1002a7e3 f i libucrt:output.obj
 0001:00029806       ??$get_parameter_type@D@?$positional_parameter_base@DV?$stream_output_adapter@D@__crt_stdio_output@@@__crt_stdio_output@@CA?AW4parameter_type@01@PAD@Z 1002a806 f i libucrt:output.obj
 0001:0002980a       ??$get_parameter_type@D@?$positional_parameter_base@DV?$string_output_adapter@D@__crt_stdio_output@@@__crt_stdio_output@@CA?AW4parameter_type@01@PAD@Z 1002a80a f i libucrt:output.obj
 0001:0002980e       ??$get_parameter_type@D@?$positional_parameter_base@_WV?$stream_output_adapter@_W@__crt_stdio_output@@@__crt_stdio_output@@CA?AW4parameter_type@01@PAD@Z 1002a80e f i libucrt:output.obj
 0001:00029812       ??$get_parameter_type@D@?$positional_parameter_base@_WV?$string_output_adapter@_W@__crt_stdio_output@@@__crt_stdio_output@@CA?AW4parameter_type@01@PAD@Z 1002a812 f i libucrt:output.obj
 0001:00029826       ??$get_parameter_type@X@?$positional_parameter_base@DV?$stream_output_adapter@D@__crt_stdio_output@@@__crt_stdio_output@@CA?AW4parameter_type@01@PAX@Z 1002a826 f i libucrt:output.obj
 0001:0002982a       ??$get_parameter_type@X@?$positional_parameter_base@DV?$string_output_adapter@D@__crt_stdio_output@@@__crt_stdio_output@@CA?AW4parameter_type@01@PAX@Z 1002a82a f i libucrt:output.obj
 0001:0002982e       ??$get_parameter_type@X@?$positional_parameter_base@_WV?$stream_output_adapter@_W@__crt_stdio_output@@@__crt_stdio_output@@CA?AW4parameter_type@01@PAX@Z 1002a82e f i libucrt:output.obj
 0001:00029832       ??$get_parameter_type@X@?$positional_parameter_base@_WV?$string_output_adapter@_W@__crt_stdio_output@@@__crt_stdio_output@@CA?AW4parameter_type@01@PAX@Z 1002a832 f i libucrt:output.obj
 0001:00029836       ??$is_character_specifier@D@?$positional_parameter_base@DV?$stream_output_adapter@D@__crt_stdio_output@@@__crt_stdio_output@@CA_ND@Z 1002a836 f i libucrt:output.obj
 0001:00029854       ??$is_character_specifier@D@?$positional_parameter_base@DV?$string_output_adapter@D@__crt_stdio_output@@@__crt_stdio_output@@CA_ND@Z 1002a854 f i libucrt:output.obj
 0001:00029872       ??$is_character_specifier@_W@?$positional_parameter_base@_WV?$stream_output_adapter@_W@__crt_stdio_output@@@__crt_stdio_output@@CA_N_W@Z 1002a872 f i libucrt:output.obj
 0001:00029893       ??$is_character_specifier@_W@?$positional_parameter_base@_WV?$string_output_adapter@_W@__crt_stdio_output@@@__crt_stdio_output@@CA_N_W@Z 1002a893 f i libucrt:output.obj
 0001:000298b4       ??$is_integral_specifier@D@?$positional_parameter_base@DV?$stream_output_adapter@D@__crt_stdio_output@@@__crt_stdio_output@@CA_ND@Z 1002a8b4 f i libucrt:output.obj
 0001:000298eb       ??$is_integral_specifier@D@?$positional_parameter_base@DV?$string_output_adapter@D@__crt_stdio_output@@@__crt_stdio_output@@CA_ND@Z 1002a8eb f i libucrt:output.obj
 0001:00029922       ??$is_integral_specifier@_W@?$positional_parameter_base@_WV?$stream_output_adapter@_W@__crt_stdio_output@@@__crt_stdio_output@@CA_N_W@Z 1002a922 f i libucrt:output.obj
 0001:0002996b       ??$is_integral_specifier@_W@?$positional_parameter_base@_WV?$string_output_adapter@_W@__crt_stdio_output@@@__crt_stdio_output@@CA_N_W@Z 1002a96b f i libucrt:output.obj
 0001:000299b4       ??$is_pointer_specifier@D@?$positional_parameter_base@DV?$stream_output_adapter@D@__crt_stdio_output@@@__crt_stdio_output@@CA_ND@Z 1002a9b4 f i libucrt:output.obj
 0001:000299c5       ??$is_pointer_specifier@D@?$positional_parameter_base@DV?$string_output_adapter@D@__crt_stdio_output@@@__crt_stdio_output@@CA_ND@Z 1002a9c5 f i libucrt:output.obj
 0001:000299d6       ??$is_pointer_specifier@_W@?$positional_parameter_base@_WV?$stream_output_adapter@_W@__crt_stdio_output@@@__crt_stdio_output@@CA_N_W@Z 1002a9d6 f i libucrt:output.obj
 0001:000299e8       ??$is_pointer_specifier@_W@?$positional_parameter_base@_WV?$string_output_adapter@_W@__crt_stdio_output@@@__crt_stdio_output@@CA_N_W@Z 1002a9e8 f i libucrt:output.obj
 0001:000299fa       ??$is_string_specifier@D@?$positional_parameter_base@DV?$stream_output_adapter@D@__crt_stdio_output@@@__crt_stdio_output@@CA_ND@Z 1002a9fa f i libucrt:output.obj
 0001:00029a18       ??$is_string_specifier@D@?$positional_parameter_base@DV?$string_output_adapter@D@__crt_stdio_output@@@__crt_stdio_output@@CA_ND@Z 1002aa18 f i libucrt:output.obj
 0001:00029a36       ??$is_string_specifier@_W@?$positional_parameter_base@_WV?$stream_output_adapter@_W@__crt_stdio_output@@@__crt_stdio_output@@CA_N_W@Z 1002aa36 f i libucrt:output.obj
 0001:00029a57       ??$is_string_specifier@_W@?$positional_parameter_base@_WV?$string_output_adapter@_W@__crt_stdio_output@@@__crt_stdio_output@@CA_N_W@Z 1002aa57 f i libucrt:output.obj
 0001:00029a78       ??$is_wide_character_specifier@D@__crt_stdio_output@@YA_N_KDW4length_modifier@0@@Z 1002aa78 f i libucrt:output.obj
 0001:00029ab5       ??$is_wide_character_specifier@_W@__crt_stdio_output@@YA_N_K_WW4length_modifier@0@@Z 1002aab5 f i libucrt:output.obj
 0001:00029b16       ??$peek_va_arg@C@__crt_stdio_output@@YACPAD@Z 1002ab16 f i libucrt:output.obj
 0001:00029b25       ??$peek_va_arg@E@__crt_stdio_output@@YAEPAD@Z 1002ab25 f i libucrt:output.obj
 0001:00029b34       ??$peek_va_arg@F@__crt_stdio_output@@YAFPAD@Z 1002ab34 f i libucrt:output.obj
 0001:00029b44       ??$peek_va_arg@G@__crt_stdio_output@@YAGPAD@Z 1002ab44 f i libucrt:output.obj
 0001:00029b54       ??$peek_va_arg@H@__crt_stdio_output@@YAHPAD@Z 1002ab54 f i libucrt:output.obj
 0001:00029b63       ??$peek_va_arg@I@__crt_stdio_output@@YAIPAD@Z 1002ab63 f i libucrt:output.obj
 0001:00029b72       ??$peek_va_arg@PAD@__crt_stdio_output@@YAPADPAD@Z 1002ab72 f i libucrt:output.obj
 0001:00029bbd       ??$peek_va_arg@PAX@__crt_stdio_output@@YAPAXPAD@Z 1002abbd f i libucrt:output.obj
 0001:00029bcc       ??$peek_va_arg@U_CRT_DOUBLE@@@__crt_stdio_output@@YA?AU_CRT_DOUBLE@@PAD@Z 1002abcc f i libucrt:output.obj
 0001:00029bde       ??$peek_va_arg@_J@__crt_stdio_output@@YA_JPAD@Z 1002abde f i libucrt:output.obj
 0001:00029bf0       ??$peek_va_arg@_K@__crt_stdio_output@@YA_KPAD@Z 1002abf0 f i libucrt:output.obj
 0001:00029c02       ??$peek_va_arg@_W@__crt_stdio_output@@YA_WPAD@Z 1002ac02 f i libucrt:output.obj
 0001:00029c12       ??$puttc_nolock@ABDPAU_iobuf@@@?$__crt_char_traits@D@@SAHABD$$QAPAU_iobuf@@@Z 1002ac12 f i libucrt:output.obj
 0001:00029c32       ??$puttc_nolock@AB_WPAU_iobuf@@@?$__crt_char_traits@_W@@SAGAB_W$$QAPAU_iobuf@@@Z 1002ac32 f i libucrt:output.obj
 0001:00029c52       ??$read_va_arg@C@__crt_stdio_output@@YACAAPAD@Z 1002ac52 f i libucrt:output.obj
 0001:00029c68       ??$read_va_arg@E@__crt_stdio_output@@YAEAAPAD@Z 1002ac68 f i libucrt:output.obj
 0001:00029c7e       ??$read_va_arg@F@__crt_stdio_output@@YAFAAPAD@Z 1002ac7e f i libucrt:output.obj
 0001:00029c95       ??$read_va_arg@G@__crt_stdio_output@@YAGAAPAD@Z 1002ac95 f i libucrt:output.obj
 0001:00029cac       ??$read_va_arg@H@__crt_stdio_output@@YAHAAPAD@Z 1002acac f i libucrt:output.obj
 0001:00029cc2       ??$read_va_arg@I@__crt_stdio_output@@YAIAAPAD@Z 1002acc2 f i libucrt:output.obj
 0001:00029cd8       ??$read_va_arg@PAD@__crt_stdio_output@@YAPADAAPAD@Z 1002acd8 f i libucrt:output.obj
 0001:00029df6       ??$read_va_arg@PAX@__crt_stdio_output@@YAPAXAAPAD@Z 1002adf6 f i libucrt:output.obj
 0001:00029e0c       ??$read_va_arg@U_CRT_DOUBLE@@@__crt_stdio_output@@YA?AU_CRT_DOUBLE@@AAPAD@Z 1002ae0c f i libucrt:output.obj
 0001:00029e27       ??$read_va_arg@_J@__crt_stdio_output@@YA_JAAPAD@Z 1002ae27 f i libucrt:output.obj
 0001:00029e41       ??$read_va_arg@_K@__crt_stdio_output@@YA_KAAPAD@Z 1002ae41 f i libucrt:output.obj
 0001:00029e5b       ??$read_va_arg@_W@__crt_stdio_output@@YA_WAAPAD@Z 1002ae5b f i libucrt:output.obj
 0001:00029e72       ??$scratch_count@D@formatting_buffer@__crt_stdio_output@@QBEIXZ 1002ae72 f i libucrt:output.obj
 0001:00029e77       ??$scratch_data@D@formatting_buffer@__crt_stdio_output@@QAEPADXZ 1002ae77 f i libucrt:output.obj
 0001:00029e9c       ??$tcstol@AAPBDPAPADH@?$__crt_char_traits@D@@SAJAAPBD$$QAPAPAD$$QAH@Z 1002ae9c f i libucrt:output.obj
 0001:00029ec1       ??$tcstol@AAPB_WPAPA_WH@?$__crt_char_traits@_W@@SAJAAPB_W$$QAPAPA_W$$QAH@Z 1002aec1 f i libucrt:output.obj
 0001:00029ee6       ??$tcstol@PBDPAPADH@?$__crt_char_traits@D@@SAJ$$QAPBD$$QAPAPAD$$QAH@Z 1002aee6 f i libucrt:output.obj
 0001:00029f0b       ??$tcstol@PB_WPAPA_WH@?$__crt_char_traits@_W@@SAJ$$QAPB_W$$QAPAPA_W$$QAH@Z 1002af0b f i libucrt:output.obj
 0001:00029f30       ??$type_case_integer_parse_into_buffer@I@?$output_processor@DV?$stream_output_adapter@D@__crt_stdio_output@@V?$format_validation_base@DV?$stream_output_adapter@D@__crt_stdio_output@@@2@@__crt_stdio_output@@AAEXII_N@Z 1002af30 f i libucrt:output.obj
 0001:00029fbf       ??$type_case_integer_parse_into_buffer@I@?$output_processor@DV?$stream_output_adapter@D@__crt_stdio_output@@V?$positional_parameter_base@DV?$stream_output_adapter@D@__crt_stdio_output@@@2@@__crt_stdio_output@@AAEXII_N@Z 1002afbf f i libucrt:output.obj
 0001:0002a04e       ??$type_case_integer_parse_into_buffer@I@?$output_processor@DV?$stream_output_adapter@D@__crt_stdio_output@@V?$standard_base@DV?$stream_output_adapter@D@__crt_stdio_output@@@2@@__crt_stdio_output@@AAEXII_N@Z 1002b04e f i libucrt:output.obj
 0001:0002a0dd       ??$type_case_integer_parse_into_buffer@I@?$output_processor@DV?$string_output_adapter@D@__crt_stdio_output@@V?$format_validation_base@DV?$string_output_adapter@D@__crt_stdio_output@@@2@@__crt_stdio_output@@AAEXII_N@Z 1002b0dd f i libucrt:output.obj
 0001:0002a16c       ??$type_case_integer_parse_into_buffer@I@?$output_processor@DV?$string_output_adapter@D@__crt_stdio_output@@V?$positional_parameter_base@DV?$string_output_adapter@D@__crt_stdio_output@@@2@@__crt_stdio_output@@AAEXII_N@Z 1002b16c f i libucrt:output.obj
 0001:0002a1fb       ??$type_case_integer_parse_into_buffer@I@?$output_processor@DV?$string_output_adapter@D@__crt_stdio_output@@V?$standard_base@DV?$string_output_adapter@D@__crt_stdio_output@@@2@@__crt_stdio_output@@AAEXII_N@Z 1002b1fb f i libucrt:output.obj
 0001:0002a28a       ??$type_case_integer_parse_into_buffer@I@?$output_processor@_WV?$stream_output_adapter@_W@__crt_stdio_output@@V?$format_validation_base@_WV?$stream_output_adapter@_W@__crt_stdio_output@@@2@@__crt_stdio_output@@AAEXII_N@Z 1002b28a f i libucrt:output.obj
 0001:0002a32a       ??$type_case_integer_parse_into_buffer@I@?$output_processor@_WV?$stream_output_adapter@_W@__crt_stdio_output@@V?$positional_parameter_base@_WV?$stream_output_adapter@_W@__crt_stdio_output@@@2@@__crt_stdio_output@@AAEXII_N@Z 1002b32a f i libucrt:output.obj
 0001:0002a3ca       ??$type_case_integer_parse_into_buffer@I@?$output_processor@_WV?$stream_output_adapter@_W@__crt_stdio_output@@V?$standard_base@_WV?$stream_output_adapter@_W@__crt_stdio_output@@@2@@__crt_stdio_output@@AAEXII_N@Z 1002b3ca f i libucrt:output.obj
 0001:0002a46a       ??$type_case_integer_parse_into_buffer@I@?$output_processor@_WV?$string_output_adapter@_W@__crt_stdio_output@@V?$format_validation_base@_WV?$string_output_adapter@_W@__crt_stdio_output@@@2@@__crt_stdio_output@@AAEXII_N@Z 1002b46a f i libucrt:output.obj
 0001:0002a50a       ??$type_case_integer_parse_into_buffer@I@?$output_processor@_WV?$string_output_adapter@_W@__crt_stdio_output@@V?$positional_parameter_base@_WV?$string_output_adapter@_W@__crt_stdio_output@@@2@@__crt_stdio_output@@AAEXII_N@Z 1002b50a f i libucrt:output.obj
 0001:0002a5aa       ??$type_case_integer_parse_into_buffer@I@?$output_processor@_WV?$string_output_adapter@_W@__crt_stdio_output@@V?$standard_base@_WV?$string_output_adapter@_W@__crt_stdio_output@@@2@@__crt_stdio_output@@AAEXII_N@Z 1002b5aa f i libucrt:output.obj
 0001:0002a64a       ??$type_case_integer_parse_into_buffer@_K@?$output_processor@DV?$stream_output_adapter@D@__crt_stdio_output@@V?$format_validation_base@DV?$stream_output_adapter@D@__crt_stdio_output@@@2@@__crt_stdio_output@@AAEX_KI_N@Z 1002b64a f i libucrt:output.obj
 0001:0002a6fc       ??$type_case_integer_parse_into_buffer@_K@?$output_processor@DV?$stream_output_adapter@D@__crt_stdio_output@@V?$positional_parameter_base@DV?$stream_output_adapter@D@__crt_stdio_output@@@2@@__crt_stdio_output@@AAEX_KI_N@Z 1002b6fc f i libucrt:output.obj
 0001:0002a7ae       ??$type_case_integer_parse_into_buffer@_K@?$output_processor@DV?$stream_output_adapter@D@__crt_stdio_output@@V?$standard_base@DV?$stream_output_adapter@D@__crt_stdio_output@@@2@@__crt_stdio_output@@AAEX_KI_N@Z 1002b7ae f i libucrt:output.obj
 0001:0002a860       ??$type_case_integer_parse_into_buffer@_K@?$output_processor@DV?$string_output_adapter@D@__crt_stdio_output@@V?$format_validation_base@DV?$string_output_adapter@D@__crt_stdio_output@@@2@@__crt_stdio_output@@AAEX_KI_N@Z 1002b860 f i libucrt:output.obj
 0001:0002a912       ??$type_case_integer_parse_into_buffer@_K@?$output_processor@DV?$string_output_adapter@D@__crt_stdio_output@@V?$positional_parameter_base@DV?$string_output_adapter@D@__crt_stdio_output@@@2@@__crt_stdio_output@@AAEX_KI_N@Z 1002b912 f i libucrt:output.obj
 0001:0002a9c4       ??$type_case_integer_parse_into_buffer@_K@?$output_processor@DV?$string_output_adapter@D@__crt_stdio_output@@V?$standard_base@DV?$string_output_adapter@D@__crt_stdio_output@@@2@@__crt_stdio_output@@AAEX_KI_N@Z 1002b9c4 f i libucrt:output.obj
 0001:0002aa76       ??$type_case_integer_parse_into_buffer@_K@?$output_processor@_WV?$stream_output_adapter@_W@__crt_stdio_output@@V?$format_validation_base@_WV?$stream_output_adapter@_W@__crt_stdio_output@@@2@@__crt_stdio_output@@AAEX_KI_N@Z 1002ba76 f i libucrt:output.obj
 0001:0002ab39       ??$type_case_integer_parse_into_buffer@_K@?$output_processor@_WV?$stream_output_adapter@_W@__crt_stdio_output@@V?$positional_parameter_base@_WV?$stream_output_adapter@_W@__crt_stdio_output@@@2@@__crt_stdio_output@@AAEX_KI_N@Z 1002bb39 f i libucrt:output.obj
 0001:0002abfc       ??$type_case_integer_parse_into_buffer@_K@?$output_processor@_WV?$stream_output_adapter@_W@__crt_stdio_output@@V?$standard_base@_WV?$stream_output_adapter@_W@__crt_stdio_output@@@2@@__crt_stdio_output@@AAEX_KI_N@Z 1002bbfc f i libucrt:output.obj
 0001:0002acbf       ??$type_case_integer_parse_into_buffer@_K@?$output_processor@_WV?$string_output_adapter@_W@__crt_stdio_output@@V?$format_validation_base@_WV?$string_output_adapter@_W@__crt_stdio_output@@@2@@__crt_stdio_output@@AAEX_KI_N@Z 1002bcbf f i libucrt:output.obj
 0001:0002ad82       ??$type_case_integer_parse_into_buffer@_K@?$output_processor@_WV?$string_output_adapter@_W@__crt_stdio_output@@V?$positional_parameter_base@_WV?$string_output_adapter@_W@__crt_stdio_output@@@2@@__crt_stdio_output@@AAEX_KI_N@Z 1002bd82 f i libucrt:output.obj
 0001:0002ae45       ??$type_case_integer_parse_into_buffer@_K@?$output_processor@_WV?$string_output_adapter@_W@__crt_stdio_output@@V?$standard_base@_WV?$string_output_adapter@_W@__crt_stdio_output@@@2@@__crt_stdio_output@@AAEX_KI_N@Z 1002be45 f i libucrt:output.obj
 0001:0002af08       ??$write_multiple_characters@V?$stream_output_adapter@D@__crt_stdio_output@@D@__crt_stdio_output@@YAXABV?$stream_output_adapter@D@0@DHQAH@Z 1002bf08 f i libucrt:output.obj
 0001:0002af51       ??$write_multiple_characters@V?$stream_output_adapter@_W@__crt_stdio_output@@D@__crt_stdio_output@@YAXABV?$stream_output_adapter@_W@0@DHQAH@Z 1002bf51 f i libucrt:output.obj
 0001:0002afa1       ??$write_multiple_characters@V?$string_output_adapter@D@__crt_stdio_output@@D@__crt_stdio_output@@YAXABV?$string_output_adapter@D@0@DHQAH@Z 1002bfa1 f i libucrt:output.obj
 0001:0002afd8       ??$write_multiple_characters@V?$string_output_adapter@_W@__crt_stdio_output@@D@__crt_stdio_output@@YAXABV?$string_output_adapter@_W@0@DHQAH@Z 1002bfd8 f i libucrt:output.obj
 0001:0002b249       ??0?$common_data@D@__crt_stdio_output@@IAE@XZ 1002c249 f i libucrt:output.obj
 0001:0002b2a1       ??0?$common_data@_W@__crt_stdio_output@@IAE@XZ 1002c2a1 f i libucrt:output.obj
 0001:0002b300       ??0?$output_adapter_data@DV?$stream_output_adapter@D@__crt_stdio_output@@@__crt_stdio_output@@IAE@ABV?$stream_output_adapter@D@1@_KQBDQAU__crt_locale_pointers@@QAD@Z 1002c300 f i libucrt:output.obj
 0001:0002b34b       ??0?$output_adapter_data@DV?$string_output_adapter@D@__crt_stdio_output@@@__crt_stdio_output@@IAE@ABV?$string_output_adapter@D@1@_KQBDQAU__crt_locale_pointers@@QAD@Z 1002c34b f i libucrt:output.obj
 0001:0002b396       ??0?$output_adapter_data@_WV?$stream_output_adapter@_W@__crt_stdio_output@@@__crt_stdio_output@@IAE@ABV?$stream_output_adapter@_W@1@_KQB_WQAU__crt_locale_pointers@@QAD@Z 1002c396 f i libucrt:output.obj
 0001:0002b3e1       ??0?$output_adapter_data@_WV?$string_output_adapter@_W@__crt_stdio_output@@@__crt_stdio_output@@IAE@ABV?$string_output_adapter@_W@1@_KQB_WQAU__crt_locale_pointers@@QAD@Z 1002c3e1 f i libucrt:output.obj
 0001:0002b42c       ??0?$output_processor@DV?$stream_output_adapter@D@__crt_stdio_output@@V?$format_validation_base@DV?$stream_output_adapter@D@__crt_stdio_output@@@2@@__crt_stdio_output@@QAE@ABV?$stream_output_adapter@D@1@_KQBDQAU__crt_locale_pointers@@QAD@Z 1002c42c f i libucrt:output.obj
 0001:0002b464       ??0?$output_processor@DV?$stream_output_adapter@D@__crt_stdio_output@@V?$positional_parameter_base@DV?$stream_output_adapter@D@__crt_stdio_output@@@2@@__crt_stdio_output@@QAE@ABV?$stream_output_adapter@D@1@_KQBDQAU__crt_locale_pointers@@QAD@Z 1002c464 f i libucrt:output.obj
 0001:0002b494       ??0?$output_processor@DV?$stream_output_adapter@D@__crt_stdio_output@@V?$standard_base@DV?$stream_output_adapter@D@__crt_stdio_output@@@2@@__crt_stdio_output@@QAE@ABV?$stream_output_adapter@D@1@_KQBDQAU__crt_locale_pointers@@QAD@Z 1002c494 f i libucrt:output.obj
 0001:0002b4cc       ??0?$output_processor@DV?$string_output_adapter@D@__crt_stdio_output@@V?$format_validation_base@DV?$string_output_adapter@D@__crt_stdio_output@@@2@@__crt_stdio_output@@QAE@ABV?$string_output_adapter@D@1@_KQBDQAU__crt_locale_pointers@@QAD@Z 1002c4cc f i libucrt:output.obj
 0001:0002b504       ??0?$output_processor@DV?$string_output_adapter@D@__crt_stdio_output@@V?$positional_parameter_base@DV?$string_output_adapter@D@__crt_stdio_output@@@2@@__crt_stdio_output@@QAE@ABV?$string_output_adapter@D@1@_KQBDQAU__crt_locale_pointers@@QAD@Z 1002c504 f i libucrt:output.obj
 0001:0002b534       ??0?$output_processor@DV?$string_output_adapter@D@__crt_stdio_output@@V?$standard_base@DV?$string_output_adapter@D@__crt_stdio_output@@@2@@__crt_stdio_output@@QAE@ABV?$string_output_adapter@D@1@_KQBDQAU__crt_locale_pointers@@QAD@Z 1002c534 f i libucrt:output.obj
 0001:0002b56c       ??0?$output_processor@_WV?$stream_output_adapter@_W@__crt_stdio_output@@V?$format_validation_base@_WV?$stream_output_adapter@_W@__crt_stdio_output@@@2@@__crt_stdio_output@@QAE@ABV?$stream_output_adapter@_W@1@_KQB_WQAU__crt_locale_pointers@@QAD@Z 1002c56c f i libucrt:output.obj
 0001:0002b5a4       ??0?$output_processor@_WV?$stream_output_adapter@_W@__crt_stdio_output@@V?$positional_parameter_base@_WV?$stream_output_adapter@_W@__crt_stdio_output@@@2@@__crt_stdio_output@@QAE@ABV?$stream_output_adapter@_W@1@_KQB_WQAU__crt_locale_pointers@@QAD@Z 1002c5a4 f i libucrt:output.obj
 0001:0002b5d4       ??0?$output_processor@_WV?$stream_output_adapter@_W@__crt_stdio_output@@V?$standard_base@_WV?$stream_output_adapter@_W@__crt_stdio_output@@@2@@__crt_stdio_output@@QAE@ABV?$stream_output_adapter@_W@1@_KQB_WQAU__crt_locale_pointers@@QAD@Z 1002c5d4 f i libucrt:output.obj
 0001:0002b60c       ??0?$output_processor@_WV?$string_output_adapter@_W@__crt_stdio_output@@V?$format_validation_base@_WV?$string_output_adapter@_W@__crt_stdio_output@@@2@@__crt_stdio_output@@QAE@ABV?$string_output_adapter@_W@1@_KQB_WQAU__crt_locale_pointers@@QAD@Z 1002c60c f i libucrt:output.obj
 0001:0002b644       ??0?$output_processor@_WV?$string_output_adapter@_W@__crt_stdio_output@@V?$positional_parameter_base@_WV?$string_output_adapter@_W@__crt_stdio_output@@@2@@__crt_stdio_output@@QAE@ABV?$string_output_adapter@_W@1@_KQB_WQAU__crt_locale_pointers@@QAD@Z 1002c644 f i libucrt:output.obj
 0001:0002b674       ??0?$output_processor@_WV?$string_output_adapter@_W@__crt_stdio_output@@V?$standard_base@_WV?$string_output_adapter@_W@__crt_stdio_output@@@2@@__crt_stdio_output@@QAE@ABV?$string_output_adapter@_W@1@_KQB_WQAU__crt_locale_pointers@@QAD@Z 1002c674 f i libucrt:output.obj
 0001:0002b6ac       ??0?$stream_output_adapter@D@__crt_stdio_output@@QAE@QAU_iobuf@@@Z 1002c6ac f i libucrt:output.obj
 0001:0002b6c0       ??0?$stream_output_adapter@_W@__crt_stdio_output@@QAE@QAU_iobuf@@@Z 1002c6c0 f i libucrt:output.obj
 0001:0002b6d4       ??0?$string_output_adapter@D@__crt_stdio_output@@QAE@QAU?$string_output_adapter_context@D@1@@Z 1002c6d4 f i libucrt:output.obj
 0001:0002b6e8       ??0?$string_output_adapter@_W@__crt_stdio_output@@QAE@QAU?$string_output_adapter_context@_W@1@@Z 1002c6e8 f i libucrt:output.obj
 0001:0002b6fc       ??0_LocaleUpdate@@QAE@QAU__crt_locale_pointers@@@Z 1002c6fc f i libucrt:output.obj
 0001:0002b79f       ??0__acrt_stdio_temporary_buffering_guard@@QAE@QAU_iobuf@@@Z 1002c79f f i libucrt:output.obj
 0001:0002b7c4       ??0__crt_deferred_errno_cache@@QAE@XZ 1002c7c4 f i libucrt:output.obj
 0001:0002b7ca       ??0__crt_errno_guard@@QAE@QAH@Z 1002c7ca f i libucrt:output.obj
 0001:0002b7e8       ??0formatting_buffer@__crt_stdio_output@@QAE@XZ 1002c7e8 f i libucrt:output.obj
 0001:0002b7fd       ??1?$common_data@D@__crt_stdio_output@@QAE@XZ 1002c7fd f i libucrt:output.obj
 0001:0002b807       ??1?$common_data@_W@__crt_stdio_output@@QAE@XZ 1002c807 f i libucrt:output.obj
 0001:0002b811       ??1?$format_validation_base@DV?$stream_output_adapter@D@__crt_stdio_output@@@__crt_stdio_output@@QAE@XZ 1002c811 f i libucrt:output.obj
 0001:0002b81b       ??1?$format_validation_base@DV?$string_output_adapter@D@__crt_stdio_output@@@__crt_stdio_output@@QAE@XZ 1002c81b f i libucrt:output.obj
 0001:0002b825       ??1?$format_validation_base@_WV?$stream_output_adapter@_W@__crt_stdio_output@@@__crt_stdio_output@@QAE@XZ 1002c825 f i libucrt:output.obj
 0001:0002b82f       ??1?$format_validation_base@_WV?$string_output_adapter@_W@__crt_stdio_output@@@__crt_stdio_output@@QAE@XZ 1002c82f f i libucrt:output.obj
 0001:0002b839       ??1?$output_adapter_data@DV?$stream_output_adapter@D@__crt_stdio_output@@@__crt_stdio_output@@QAE@XZ 1002c839 f i libucrt:output.obj
 0001:0002b843       ??1?$output_adapter_data@DV?$string_output_adapter@D@__crt_stdio_output@@@__crt_stdio_output@@QAE@XZ 1002c843 f i libucrt:output.obj
 0001:0002b84d       ??1?$output_adapter_data@_WV?$stream_output_adapter@_W@__crt_stdio_output@@@__crt_stdio_output@@QAE@XZ 1002c84d f i libucrt:output.obj
 0001:0002b857       ??1?$output_adapter_data@_WV?$string_output_adapter@_W@__crt_stdio_output@@@__crt_stdio_output@@QAE@XZ 1002c857 f i libucrt:output.obj
 0001:0002b861       ??1?$output_processor@DV?$stream_output_adapter@D@__crt_stdio_output@@V?$format_validation_base@DV?$stream_output_adapter@D@__crt_stdio_output@@@2@@__crt_stdio_output@@QAE@XZ 1002c861 f i libucrt:output.obj
 0001:0002b86b       ??1?$output_processor@DV?$stream_output_adapter@D@__crt_stdio_output@@V?$positional_parameter_base@DV?$stream_output_adapter@D@__crt_stdio_output@@@2@@__crt_stdio_output@@QAE@XZ 1002c86b f i libucrt:output.obj
 0001:0002b875       ??1?$output_processor@DV?$stream_output_adapter@D@__crt_stdio_output@@V?$standard_base@DV?$stream_output_adapter@D@__crt_stdio_output@@@2@@__crt_stdio_output@@QAE@XZ 1002c875 f i libucrt:output.obj
 0001:0002b87f       ??1?$output_processor@DV?$string_output_adapter@D@__crt_stdio_output@@V?$format_validation_base@DV?$string_output_adapter@D@__crt_stdio_output@@@2@@__crt_stdio_output@@QAE@XZ 1002c87f f i libucrt:output.obj
 0001:0002b889       ??1?$output_processor@DV?$string_output_adapter@D@__crt_stdio_output@@V?$positional_parameter_base@DV?$string_output_adapter@D@__crt_stdio_output@@@2@@__crt_stdio_output@@QAE@XZ 1002c889 f i libucrt:output.obj
 0001:0002b893       ??1?$output_processor@DV?$string_output_adapter@D@__crt_stdio_output@@V?$standard_base@DV?$string_output_adapter@D@__crt_stdio_output@@@2@@__crt_stdio_output@@QAE@XZ 1002c893 f i libucrt:output.obj
 0001:0002b89d       ??1?$output_processor@_WV?$stream_output_adapter@_W@__crt_stdio_output@@V?$format_validation_base@_WV?$stream_output_adapter@_W@__crt_stdio_output@@@2@@__crt_stdio_output@@QAE@XZ 1002c89d f i libucrt:output.obj
 0001:0002b8a7       ??1?$output_processor@_WV?$stream_output_adapter@_W@__crt_stdio_output@@V?$positional_parameter_base@_WV?$stream_output_adapter@_W@__crt_stdio_output@@@2@@__crt_stdio_output@@QAE@XZ 1002c8a7 f i libucrt:output.obj
 0001:0002b8b1       ??1?$output_processor@_WV?$stream_output_adapter@_W@__crt_stdio_output@@V?$standard_base@_WV?$stream_output_adapter@_W@__crt_stdio_output@@@2@@__crt_stdio_output@@QAE@XZ 1002c8b1 f i libucrt:output.obj
 0001:0002b8bb       ??1?$output_processor@_WV?$string_output_adapter@_W@__crt_stdio_output@@V?$format_validation_base@_WV?$string_output_adapter@_W@__crt_stdio_output@@@2@@__crt_stdio_output@@QAE@XZ 1002c8bb f i libucrt:output.obj
 0001:0002b8c5       ??1?$output_processor@_WV?$string_output_adapter@_W@__crt_stdio_output@@V?$positional_parameter_base@_WV?$string_output_adapter@_W@__crt_stdio_output@@@2@@__crt_stdio_output@@QAE@XZ 1002c8c5 f i libucrt:output.obj
 0001:0002b8cf       ??1?$output_processor@_WV?$string_output_adapter@_W@__crt_stdio_output@@V?$standard_base@_WV?$string_output_adapter@_W@__crt_stdio_output@@@2@@__crt_stdio_output@@QAE@XZ 1002c8cf f i libucrt:output.obj
 0001:0002b8d9       ??1?$positional_parameter_base@DV?$stream_output_adapter@D@__crt_stdio_output@@@__crt_stdio_output@@QAE@XZ 1002c8d9 f i libucrt:output.obj
 0001:0002b8e3       ??1?$positional_parameter_base@DV?$string_output_adapter@D@__crt_stdio_output@@@__crt_stdio_output@@QAE@XZ 1002c8e3 f i libucrt:output.obj
 0001:0002b8ed       ??1?$positional_parameter_base@_WV?$stream_output_adapter@_W@__crt_stdio_output@@@__crt_stdio_output@@QAE@XZ 1002c8ed f i libucrt:output.obj
 0001:0002b8f7       ??1?$positional_parameter_base@_WV?$string_output_adapter@_W@__crt_stdio_output@@@__crt_stdio_output@@QAE@XZ 1002c8f7 f i libucrt:output.obj
 0001:0002b901       ??1?$standard_base@DV?$stream_output_adapter@D@__crt_stdio_output@@@__crt_stdio_output@@QAE@XZ 1002c901 f i libucrt:output.obj
 0001:0002b90b       ??1?$standard_base@DV?$string_output_adapter@D@__crt_stdio_output@@@__crt_stdio_output@@QAE@XZ 1002c90b f i libucrt:output.obj
 0001:0002b915       ??1?$standard_base@_WV?$stream_output_adapter@_W@__crt_stdio_output@@@__crt_stdio_output@@QAE@XZ 1002c915 f i libucrt:output.obj
 0001:0002b91f       ??1?$standard_base@_WV?$string_output_adapter@_W@__crt_stdio_output@@@__crt_stdio_output@@QAE@XZ 1002c91f f i libucrt:output.obj
 0001:0002b929       ??1_LocaleUpdate@@QAE@XZ   1002c929 f i libucrt:output.obj
 0001:0002b93d       ??1__acrt_stdio_temporary_buffering_guard@@QAE@XZ 1002c93d f i libucrt:output.obj
 0001:0002b94f       ??1__crt_errno_guard@@QAE@XZ 1002c94f f i libucrt:output.obj
 0001:0002b964       ??1formatting_buffer@__crt_stdio_output@@QAE@XZ 1002c964 f i libucrt:output.obj
 0001:0002b984       ??4?$__crt_unique_heap_ptr@DU__crt_internal_free_policy@@@@QAEAAV0@$$QAV0@@Z 1002c984 f i libucrt:output.obj
 0001:0002c05f       ?GetLocaleT@_LocaleUpdate@@QAEPAU__crt_locale_pointers@@XZ 1002d05f f i libucrt:output.obj
 0001:0002c063       ?adjust_hexit@?$output_processor@DV?$stream_output_adapter@D@__crt_stdio_output@@V?$format_validation_base@DV?$stream_output_adapter@D@__crt_stdio_output@@@2@@__crt_stdio_output@@CADH_N@Z 1002d063 f i libucrt:output.obj
 0001:0002c07c       ?adjust_hexit@?$output_processor@DV?$stream_output_adapter@D@__crt_stdio_output@@V?$positional_parameter_base@DV?$stream_output_adapter@D@__crt_stdio_output@@@2@@__crt_stdio_output@@CADH_N@Z 1002d07c f i libucrt:output.obj
 0001:0002c095       ?adjust_hexit@?$output_processor@DV?$stream_output_adapter@D@__crt_stdio_output@@V?$standard_base@DV?$stream_output_adapter@D@__crt_stdio_output@@@2@@__crt_stdio_output@@CADH_N@Z 1002d095 f i libucrt:output.obj
 0001:0002c0ae       ?adjust_hexit@?$output_processor@DV?$string_output_adapter@D@__crt_stdio_output@@V?$format_validation_base@DV?$string_output_adapter@D@__crt_stdio_output@@@2@@__crt_stdio_output@@CADH_N@Z 1002d0ae f i libucrt:output.obj
 0001:0002c0c7       ?adjust_hexit@?$output_processor@DV?$string_output_adapter@D@__crt_stdio_output@@V?$positional_parameter_base@DV?$string_output_adapter@D@__crt_stdio_output@@@2@@__crt_stdio_output@@CADH_N@Z 1002d0c7 f i libucrt:output.obj
 0001:0002c0e0       ?adjust_hexit@?$output_processor@DV?$string_output_adapter@D@__crt_stdio_output@@V?$standard_base@DV?$string_output_adapter@D@__crt_stdio_output@@@2@@__crt_stdio_output@@CADH_N@Z 1002d0e0 f i libucrt:output.obj
 0001:0002c0f9       ?adjust_hexit@?$output_processor@_WV?$stream_output_adapter@_W@__crt_stdio_output@@V?$format_validation_base@_WV?$stream_output_adapter@_W@__crt_stdio_output@@@2@@__crt_stdio_output@@CADH_N@Z 1002d0f9 f i libucrt:output.obj
 0001:0002c112       ?adjust_hexit@?$output_processor@_WV?$stream_output_adapter@_W@__crt_stdio_output@@V?$positional_parameter_base@_WV?$stream_output_adapter@_W@__crt_stdio_output@@@2@@__crt_stdio_output@@CADH_N@Z 1002d112 f i libucrt:output.obj
 0001:0002c12b       ?adjust_hexit@?$output_processor@_WV?$stream_output_adapter@_W@__crt_stdio_output@@V?$standard_base@_WV?$stream_output_adapter@_W@__crt_stdio_output@@@2@@__crt_stdio_output@@CADH_N@Z 1002d12b f i libucrt:output.obj
 0001:0002c144       ?adjust_hexit@?$output_processor@_WV?$string_output_adapter@_W@__crt_stdio_output@@V?$format_validation_base@_WV?$string_output_adapter@_W@__crt_stdio_output@@@2@@__crt_stdio_output@@CADH_N@Z 1002d144 f i libucrt:output.obj
 0001:0002c15d       ?adjust_hexit@?$output_processor@_WV?$string_output_adapter@_W@__crt_stdio_output@@V?$positional_parameter_base@_WV?$string_output_adapter@_W@__crt_stdio_output@@@2@@__crt_stdio_output@@CADH_N@Z 1002d15d f i libucrt:output.obj
 0001:0002c176       ?adjust_hexit@?$output_processor@_WV?$string_output_adapter@_W@__crt_stdio_output@@V?$standard_base@_WV?$string_output_adapter@_W@__crt_stdio_output@@@2@@__crt_stdio_output@@CADH_N@Z 1002d176 f i libucrt:output.obj
 0001:0002c18f       ?advance_to_next_pass@?$positional_parameter_base@DV?$stream_output_adapter@D@__crt_stdio_output@@@__crt_stdio_output@@IAE_NXZ 1002d18f f i libucrt:output.obj
 0001:0002c1ee       ?advance_to_next_pass@?$positional_parameter_base@DV?$string_output_adapter@D@__crt_stdio_output@@@__crt_stdio_output@@IAE_NXZ 1002d1ee f i libucrt:output.obj
 0001:0002c24d       ?advance_to_next_pass@?$positional_parameter_base@_WV?$stream_output_adapter@_W@__crt_stdio_output@@@__crt_stdio_output@@IAE_NXZ 1002d24d f i libucrt:output.obj
 0001:0002c2ac       ?advance_to_next_pass@?$positional_parameter_base@_WV?$string_output_adapter@_W@__crt_stdio_output@@@__crt_stdio_output@@IAE_NXZ 1002d2ac f i libucrt:output.obj
 0001:0002c30b       ?advance_to_next_pass@?$standard_base@DV?$stream_output_adapter@D@__crt_stdio_output@@@__crt_stdio_output@@IAE_NXZ 1002d30b f i libucrt:output.obj
 0001:0002c320       ?advance_to_next_pass@?$standard_base@DV?$string_output_adapter@D@__crt_stdio_output@@@__crt_stdio_output@@IAE_NXZ 1002d320 f i libucrt:output.obj
 0001:0002c335       ?advance_to_next_pass@?$standard_base@_WV?$stream_output_adapter@_W@__crt_stdio_output@@@__crt_stdio_output@@IAE_NXZ 1002d335 f i libucrt:output.obj
 0001:0002c34a       ?advance_to_next_pass@?$standard_base@_WV?$string_output_adapter@_W@__crt_stdio_output@@@__crt_stdio_output@@IAE_NXZ 1002d34a f i libucrt:output.obj
 0001:0002c35f       ?crop_zeroes@__crt_stdio_output@@YAXPADQAU__crt_locale_pointers@@@Z 1002d35f f i libucrt:output.obj
 0001:0002c3d7       ?find_next_state@?$output_processor@DV?$stream_output_adapter@D@__crt_stdio_output@@V?$format_validation_base@DV?$stream_output_adapter@D@__crt_stdio_output@@@2@@__crt_stdio_output@@ABE?AW4state@2@DW432@@Z 1002d3d7 f i libucrt:output.obj
 0001:0002c429       ?find_next_state@?$output_processor@DV?$stream_output_adapter@D@__crt_stdio_output@@V?$positional_parameter_base@DV?$stream_output_adapter@D@__crt_stdio_output@@@2@@__crt_stdio_output@@ABE?AW4state@2@DW432@@Z 1002d429 f i libucrt:output.obj
 0001:0002c47b       ?find_next_state@?$output_processor@DV?$stream_output_adapter@D@__crt_stdio_output@@V?$standard_base@DV?$stream_output_adapter@D@__crt_stdio_output@@@2@@__crt_stdio_output@@ABE?AW4state@2@DW432@@Z 1002d47b f i libucrt:output.obj
 0001:0002c4c9       ?find_next_state@?$output_processor@DV?$string_output_adapter@D@__crt_stdio_output@@V?$format_validation_base@DV?$string_output_adapter@D@__crt_stdio_output@@@2@@__crt_stdio_output@@ABE?AW4state@2@DW432@@Z 1002d4c9 f i libucrt:output.obj
 0001:0002c51b       ?find_next_state@?$output_processor@DV?$string_output_adapter@D@__crt_stdio_output@@V?$positional_parameter_base@DV?$string_output_adapter@D@__crt_stdio_output@@@2@@__crt_stdio_output@@ABE?AW4state@2@DW432@@Z 1002d51b f i libucrt:output.obj
 0001:0002c56d       ?find_next_state@?$output_processor@DV?$string_output_adapter@D@__crt_stdio_output@@V?$standard_base@DV?$string_output_adapter@D@__crt_stdio_output@@@2@@__crt_stdio_output@@ABE?AW4state@2@DW432@@Z 1002d56d f i libucrt:output.obj
 0001:0002c5bb       ?find_next_state@?$output_processor@_WV?$stream_output_adapter@_W@__crt_stdio_output@@V?$format_validation_base@_WV?$stream_output_adapter@_W@__crt_stdio_output@@@2@@__crt_stdio_output@@ABE?AW4state@2@_WW432@@Z 1002d5bb f i libucrt:output.obj
 0001:0002c610       ?find_next_state@?$output_processor@_WV?$stream_output_adapter@_W@__crt_stdio_output@@V?$positional_parameter_base@_WV?$stream_output_adapter@_W@__crt_stdio_output@@@2@@__crt_stdio_output@@ABE?AW4state@2@_WW432@@Z 1002d610 f i libucrt:output.obj
 0001:0002c665       ?find_next_state@?$output_processor@_WV?$stream_output_adapter@_W@__crt_stdio_output@@V?$standard_base@_WV?$stream_output_adapter@_W@__crt_stdio_output@@@2@@__crt_stdio_output@@ABE?AW4state@2@_WW432@@Z 1002d665 f i libucrt:output.obj
 0001:0002c6b6       ?find_next_state@?$output_processor@_WV?$string_output_adapter@_W@__crt_stdio_output@@V?$format_validation_base@_WV?$string_output_adapter@_W@__crt_stdio_output@@@2@@__crt_stdio_output@@ABE?AW4state@2@_WW432@@Z 1002d6b6 f i libucrt:output.obj
 0001:0002c70b       ?find_next_state@?$output_processor@_WV?$string_output_adapter@_W@__crt_stdio_output@@V?$positional_parameter_base@_WV?$string_output_adapter@_W@__crt_stdio_output@@@2@@__crt_stdio_output@@ABE?AW4state@2@_WW432@@Z 1002d70b f i libucrt:output.obj
 0001:0002c760       ?find_next_state@?$output_processor@_WV?$string_output_adapter@_W@__crt_stdio_output@@V?$standard_base@_WV?$string_output_adapter@_W@__crt_stdio_output@@@2@@__crt_stdio_output@@ABE?AW4state@2@_WW432@@Z 1002d760 f i libucrt:output.obj
 0001:0002c7b1       ?force_decimal_point@__crt_stdio_output@@YAXPADQAU__crt_locale_pointers@@@Z 1002d7b1 f i libucrt:output.obj
 0001:0002c824       ?get@__crt_deferred_errno_cache@@QAEAAHXZ 1002d824 f i libucrt:output.obj
 0001:0002c83d       ?get_flags@__crt_stdio_stream@@QBEJXZ 1002d83d f i libucrt:output.obj
 0001:0002c843       ?get_parameter_type@?$positional_parameter_base@DV?$stream_output_adapter@D@__crt_stdio_output@@@__crt_stdio_output@@CA?AW4parameter_type@12@F@Z 1002d843 f i libucrt:output.obj
 0001:0002c847       ?get_parameter_type@?$positional_parameter_base@DV?$stream_output_adapter@D@__crt_stdio_output@@@__crt_stdio_output@@CA?AW4parameter_type@12@G@Z 1002d847 f i libucrt:output.obj
 0001:0002c84b       ?get_parameter_type@?$positional_parameter_base@DV?$stream_output_adapter@D@__crt_stdio_output@@@__crt_stdio_output@@CA?AW4parameter_type@12@H@Z 1002d84b f i libucrt:output.obj
 0001:0002c84f       ?get_parameter_type@?$positional_parameter_base@DV?$stream_output_adapter@D@__crt_stdio_output@@@__crt_stdio_output@@CA?AW4parameter_type@12@I@Z 1002d84f f i libucrt:output.obj
 0001:0002c853       ?get_parameter_type@?$positional_parameter_base@DV?$stream_output_adapter@D@__crt_stdio_output@@@__crt_stdio_output@@CA?AW4parameter_type@12@U_CRT_DOUBLE@@@Z 1002d853 f i libucrt:output.obj
 0001:0002c857       ?get_parameter_type@?$positional_parameter_base@DV?$stream_output_adapter@D@__crt_stdio_output@@@__crt_stdio_output@@CA?AW4parameter_type@12@_J@Z 1002d857 f i libucrt:output.obj
 0001:0002c85b       ?get_parameter_type@?$positional_parameter_base@DV?$stream_output_adapter@D@__crt_stdio_output@@@__crt_stdio_output@@CA?AW4parameter_type@12@_K@Z 1002d85b f i libucrt:output.obj
 0001:0002c85f       ?get_parameter_type@?$positional_parameter_base@DV?$stream_output_adapter@D@__crt_stdio_output@@@__crt_stdio_output@@CA?AW4parameter_type@12@_W@Z 1002d85f f i libucrt:output.obj
 0001:0002c863       ?get_parameter_type@?$positional_parameter_base@DV?$string_output_adapter@D@__crt_stdio_output@@@__crt_stdio_output@@CA?AW4parameter_type@12@F@Z 1002d863 f i libucrt:output.obj
 0001:0002c867       ?get_parameter_type@?$positional_parameter_base@DV?$string_output_adapter@D@__crt_stdio_output@@@__crt_stdio_output@@CA?AW4parameter_type@12@G@Z 1002d867 f i libucrt:output.obj
 0001:0002c86b       ?get_parameter_type@?$positional_parameter_base@DV?$string_output_adapter@D@__crt_stdio_output@@@__crt_stdio_output@@CA?AW4parameter_type@12@H@Z 1002d86b f i libucrt:output.obj
 0001:0002c86f       ?get_parameter_type@?$positional_parameter_base@DV?$string_output_adapter@D@__crt_stdio_output@@@__crt_stdio_output@@CA?AW4parameter_type@12@I@Z 1002d86f f i libucrt:output.obj
 0001:0002c873       ?get_parameter_type@?$positional_parameter_base@DV?$string_output_adapter@D@__crt_stdio_output@@@__crt_stdio_output@@CA?AW4parameter_type@12@U_CRT_DOUBLE@@@Z 1002d873 f i libucrt:output.obj
 0001:0002c877       ?get_parameter_type@?$positional_parameter_base@DV?$string_output_adapter@D@__crt_stdio_output@@@__crt_stdio_output@@CA?AW4parameter_type@12@_J@Z 1002d877 f i libucrt:output.obj
 0001:0002c87b       ?get_parameter_type@?$positional_parameter_base@DV?$string_output_adapter@D@__crt_stdio_output@@@__crt_stdio_output@@CA?AW4parameter_type@12@_K@Z 1002d87b f i libucrt:output.obj
 0001:0002c87f       ?get_parameter_type@?$positional_parameter_base@DV?$string_output_adapter@D@__crt_stdio_output@@@__crt_stdio_output@@CA?AW4parameter_type@12@_W@Z 1002d87f f i libucrt:output.obj
 0001:0002c883       ?get_parameter_type@?$positional_parameter_base@_WV?$stream_output_adapter@_W@__crt_stdio_output@@@__crt_stdio_output@@CA?AW4parameter_type@12@F@Z 1002d883 f i libucrt:output.obj
 0001:0002c887       ?get_parameter_type@?$positional_parameter_base@_WV?$stream_output_adapter@_W@__crt_stdio_output@@@__crt_stdio_output@@CA?AW4parameter_type@12@G@Z 1002d887 f i libucrt:output.obj
 0001:0002c88b       ?get_parameter_type@?$positional_parameter_base@_WV?$stream_output_adapter@_W@__crt_stdio_output@@@__crt_stdio_output@@CA?AW4parameter_type@12@H@Z 1002d88b f i libucrt:output.obj
 0001:0002c88f       ?get_parameter_type@?$positional_parameter_base@_WV?$stream_output_adapter@_W@__crt_stdio_output@@@__crt_stdio_output@@CA?AW4parameter_type@12@I@Z 1002d88f f i libucrt:output.obj
 0001:0002c893       ?get_parameter_type@?$positional_parameter_base@_WV?$stream_output_adapter@_W@__crt_stdio_output@@@__crt_stdio_output@@CA?AW4parameter_type@12@U_CRT_DOUBLE@@@Z 1002d893 f i libucrt:output.obj
 0001:0002c897       ?get_parameter_type@?$positional_parameter_base@_WV?$stream_output_adapter@_W@__crt_stdio_output@@@__crt_stdio_output@@CA?AW4parameter_type@12@_J@Z 1002d897 f i libucrt:output.obj
 0001:0002c89b       ?get_parameter_type@?$positional_parameter_base@_WV?$stream_output_adapter@_W@__crt_stdio_output@@@__crt_stdio_output@@CA?AW4parameter_type@12@_K@Z 1002d89b f i libucrt:output.obj
 0001:0002c89f       ?get_parameter_type@?$positional_parameter_base@_WV?$stream_output_adapter@_W@__crt_stdio_output@@@__crt_stdio_output@@CA?AW4parameter_type@12@_W@Z 1002d89f f i libucrt:output.obj
 0001:0002c8a3       ?get_parameter_type@?$positional_parameter_base@_WV?$string_output_adapter@_W@__crt_stdio_output@@@__crt_stdio_output@@CA?AW4parameter_type@12@F@Z 1002d8a3 f i libucrt:output.obj
 0001:0002c8a7       ?get_parameter_type@?$positional_parameter_base@_WV?$string_output_adapter@_W@__crt_stdio_output@@@__crt_stdio_output@@CA?AW4parameter_type@12@G@Z 1002d8a7 f i libucrt:output.obj
 0001:0002c8ab       ?get_parameter_type@?$positional_parameter_base@_WV?$string_output_adapter@_W@__crt_stdio_output@@@__crt_stdio_output@@CA?AW4parameter_type@12@H@Z 1002d8ab f i libucrt:output.obj
 0001:0002c8af       ?get_parameter_type@?$positional_parameter_base@_WV?$string_output_adapter@_W@__crt_stdio_output@@@__crt_stdio_output@@CA?AW4parameter_type@12@I@Z 1002d8af f i libucrt:output.obj
 0001:0002c8b3       ?get_parameter_type@?$positional_parameter_base@_WV?$string_output_adapter@_W@__crt_stdio_output@@@__crt_stdio_output@@CA?AW4parameter_type@12@U_CRT_DOUBLE@@@Z 1002d8b3 f i libucrt:output.obj
 0001:0002c8b7       ?get_parameter_type@?$positional_parameter_base@_WV?$string_output_adapter@_W@__crt_stdio_output@@@__crt_stdio_output@@CA?AW4parameter_type@12@_J@Z 1002d8b7 f i libucrt:output.obj
 0001:0002c8bb       ?get_parameter_type@?$positional_parameter_base@_WV?$string_output_adapter@_W@__crt_stdio_output@@@__crt_stdio_output@@CA?AW4parameter_type@12@_K@Z 1002d8bb f i libucrt:output.obj
 0001:0002c8bf       ?get_parameter_type@?$positional_parameter_base@_WV?$string_output_adapter@_W@__crt_stdio_output@@@__crt_stdio_output@@CA?AW4parameter_type@12@_W@Z 1002d8bf f i libucrt:output.obj
 0001:0002c8c3       ?has_flag@?$output_processor@DV?$stream_output_adapter@D@__crt_stdio_output@@V?$format_validation_base@DV?$stream_output_adapter@D@__crt_stdio_output@@@2@@__crt_stdio_output@@ABE_NI@Z 1002d8c3 f i libucrt:output.obj
 0001:0002c8d9       ?has_flag@?$output_processor@DV?$stream_output_adapter@D@__crt_stdio_output@@V?$positional_parameter_base@DV?$stream_output_adapter@D@__crt_stdio_output@@@2@@__crt_stdio_output@@ABE_NI@Z 1002d8d9 f i libucrt:output.obj
 0001:0002c8ef       ?has_flag@?$output_processor@DV?$stream_output_adapter@D@__crt_stdio_output@@V?$standard_base@DV?$stream_output_adapter@D@__crt_stdio_output@@@2@@__crt_stdio_output@@ABE_NI@Z 1002d8ef f i libucrt:output.obj
 0001:0002c905       ?has_flag@?$output_processor@DV?$string_output_adapter@D@__crt_stdio_output@@V?$format_validation_base@DV?$string_output_adapter@D@__crt_stdio_output@@@2@@__crt_stdio_output@@ABE_NI@Z 1002d905 f i libucrt:output.obj
 0001:0002c91b       ?has_flag@?$output_processor@DV?$string_output_adapter@D@__crt_stdio_output@@V?$positional_parameter_base@DV?$string_output_adapter@D@__crt_stdio_output@@@2@@__crt_stdio_output@@ABE_NI@Z 1002d91b f i libucrt:output.obj
 0001:0002c931       ?has_flag@?$output_processor@DV?$string_output_adapter@D@__crt_stdio_output@@V?$standard_base@DV?$string_output_adapter@D@__crt_stdio_output@@@2@@__crt_stdio_output@@ABE_NI@Z 1002d931 f i libucrt:output.obj
 0001:0002c947       ?has_flag@?$output_processor@_WV?$stream_output_adapter@_W@__crt_stdio_output@@V?$format_validation_base@_WV?$stream_output_adapter@_W@__crt_stdio_output@@@2@@__crt_stdio_output@@ABE_NI@Z 1002d947 f i libucrt:output.obj
 0001:0002c95d       ?has_flag@?$output_processor@_WV?$stream_output_adapter@_W@__crt_stdio_output@@V?$positional_parameter_base@_WV?$stream_output_adapter@_W@__crt_stdio_output@@@2@@__crt_stdio_output@@ABE_NI@Z 1002d95d f i libucrt:output.obj
 0001:0002c973       ?has_flag@?$output_processor@_WV?$stream_output_adapter@_W@__crt_stdio_output@@V?$standard_base@_WV?$stream_output_adapter@_W@__crt_stdio_output@@@2@@__crt_stdio_output@@ABE_NI@Z 1002d973 f i libucrt:output.obj
 0001:0002c989       ?has_flag@?$output_processor@_WV?$string_output_adapter@_W@__crt_stdio_output@@V?$format_validation_base@_WV?$string_output_adapter@_W@__crt_stdio_output@@@2@@__crt_stdio_output@@ABE_NI@Z 1002d989 f i libucrt:output.obj
 0001:0002c99f       ?has_flag@?$output_processor@_WV?$string_output_adapter@_W@__crt_stdio_output@@V?$positional_parameter_base@_WV?$string_output_adapter@_W@__crt_stdio_output@@@2@@__crt_stdio_output@@ABE_NI@Z 1002d99f f i libucrt:output.obj
 0001:0002c9b5       ?has_flag@?$output_processor@_WV?$string_output_adapter@_W@__crt_stdio_output@@V?$standard_base@_WV?$string_output_adapter@_W@__crt_stdio_output@@@2@@__crt_stdio_output@@ABE_NI@Z 1002d9b5 f i libucrt:output.obj
 0001:0002c9cb       ?is_positional_parameter_reappearance_consistent@?$positional_parameter_base@DV?$stream_output_adapter@D@__crt_stdio_output@@@__crt_stdio_output@@AAE_NABUparameter_data@12@W4parameter_type@12@DW4length_modifier@2@@Z 1002d9cb f i libucrt:output.obj
 0001:0002cb2b       ?is_positional_parameter_reappearance_consistent@?$positional_parameter_base@DV?$string_output_adapter@D@__crt_stdio_output@@@__crt_stdio_output@@AAE_NABUparameter_data@12@W4parameter_type@12@DW4length_modifier@2@@Z 1002db2b f i libucrt:output.obj
 0001:0002cc8b       ?is_positional_parameter_reappearance_consistent@?$positional_parameter_base@_WV?$stream_output_adapter@_W@__crt_stdio_output@@@__crt_stdio_output@@AAE_NABUparameter_data@12@W4parameter_type@12@_WW4length_modifier@2@@Z 1002dc8b f i libucrt:output.obj
 0001:0002cdea       ?is_positional_parameter_reappearance_consistent@?$positional_parameter_base@_WV?$string_output_adapter@_W@__crt_stdio_output@@@__crt_stdio_output@@AAE_NABUparameter_data@12@W4parameter_type@12@_WW4length_modifier@2@@Z 1002ddea f i libucrt:output.obj
 0001:0002cf49       ?is_string_backed@__crt_stdio_stream@@QBE_NXZ 1002df49 f i libucrt:output.obj
 0001:0002cf56       ?narrow_null_string@?$output_processor@DV?$stream_output_adapter@D@__crt_stdio_output@@V?$format_validation_base@DV?$stream_output_adapter@D@__crt_stdio_output@@@2@@__crt_stdio_output@@CAPADXZ 1002df56 f i libucrt:output.obj
 0001:0002cf5c       ?narrow_null_string@?$output_processor@DV?$stream_output_adapter@D@__crt_stdio_output@@V?$positional_parameter_base@DV?$stream_output_adapter@D@__crt_stdio_output@@@2@@__crt_stdio_output@@CAPADXZ 1002df5c f i libucrt:output.obj
 0001:0002cf62       ?narrow_null_string@?$output_processor@DV?$stream_output_adapter@D@__crt_stdio_output@@V?$standard_base@DV?$stream_output_adapter@D@__crt_stdio_output@@@2@@__crt_stdio_output@@CAPADXZ 1002df62 f i libucrt:output.obj
 0001:0002cf68       ?narrow_null_string@?$output_processor@DV?$string_output_adapter@D@__crt_stdio_output@@V?$format_validation_base@DV?$string_output_adapter@D@__crt_stdio_output@@@2@@__crt_stdio_output@@CAPADXZ 1002df68 f i libucrt:output.obj
 0001:0002cf6e       ?narrow_null_string@?$output_processor@DV?$string_output_adapter@D@__crt_stdio_output@@V?$positional_parameter_base@DV?$string_output_adapter@D@__crt_stdio_output@@@2@@__crt_stdio_output@@CAPADXZ 1002df6e f i libucrt:output.obj
 0001:0002cf74       ?narrow_null_string@?$output_processor@DV?$string_output_adapter@D@__crt_stdio_output@@V?$standard_base@DV?$string_output_adapter@D@__crt_stdio_output@@@2@@__crt_stdio_output@@CAPADXZ 1002df74 f i libucrt:output.obj
 0001:0002cf7a       ?narrow_null_string@?$output_processor@_WV?$stream_output_adapter@_W@__crt_stdio_output@@V?$format_validation_base@_WV?$stream_output_adapter@_W@__crt_stdio_output@@@2@@__crt_stdio_output@@CAPADXZ 1002df7a f i libucrt:output.obj
 0001:0002cf80       ?narrow_null_string@?$output_processor@_WV?$stream_output_adapter@_W@__crt_stdio_output@@V?$positional_parameter_base@_WV?$stream_output_adapter@_W@__crt_stdio_output@@@2@@__crt_stdio_output@@CAPADXZ 1002df80 f i libucrt:output.obj
 0001:0002cf86       ?narrow_null_string@?$output_processor@_WV?$stream_output_adapter@_W@__crt_stdio_output@@V?$standard_base@_WV?$stream_output_adapter@_W@__crt_stdio_output@@@2@@__crt_stdio_output@@CAPADXZ 1002df86 f i libucrt:output.obj
 0001:0002cf8c       ?narrow_null_string@?$output_processor@_WV?$string_output_adapter@_W@__crt_stdio_output@@V?$format_validation_base@_WV?$string_output_adapter@_W@__crt_stdio_output@@@2@@__crt_stdio_output@@CAPADXZ 1002df8c f i libucrt:output.obj
 0001:0002cf92       ?narrow_null_string@?$output_processor@_WV?$string_output_adapter@_W@__crt_stdio_output@@V?$positional_parameter_base@_WV?$string_output_adapter@_W@__crt_stdio_output@@@2@@__crt_stdio_output@@CAPADXZ 1002df92 f i libucrt:output.obj
 0001:0002cf98       ?narrow_null_string@?$output_processor@_WV?$string_output_adapter@_W@__crt_stdio_output@@V?$standard_base@_WV?$string_output_adapter@_W@__crt_stdio_output@@@2@@__crt_stdio_output@@CAPADXZ 1002df98 f i libucrt:output.obj
 0001:0002cf9e       ?parse_int_from_format_string@?$output_processor@DV?$stream_output_adapter@D@__crt_stdio_output@@V?$format_validation_base@DV?$stream_output_adapter@D@__crt_stdio_output@@@2@@__crt_stdio_output@@AAE_NQAH@Z 1002df9e f i libucrt:output.obj
 0001:0002d031       ?parse_int_from_format_string@?$output_processor@DV?$stream_output_adapter@D@__crt_stdio_output@@V?$positional_parameter_base@DV?$stream_output_adapter@D@__crt_stdio_output@@@2@@__crt_stdio_output@@AAE_NQAH@Z 1002e031 f i libucrt:output.obj
 0001:0002d0c4       ?parse_int_from_format_string@?$output_processor@DV?$stream_output_adapter@D@__crt_stdio_output@@V?$standard_base@DV?$stream_output_adapter@D@__crt_stdio_output@@@2@@__crt_stdio_output@@AAE_NQAH@Z 1002e0c4 f i libucrt:output.obj
 0001:0002d157       ?parse_int_from_format_string@?$output_processor@DV?$string_output_adapter@D@__crt_stdio_output@@V?$format_validation_base@DV?$string_output_adapter@D@__crt_stdio_output@@@2@@__crt_stdio_output@@AAE_NQAH@Z 1002e157 f i libucrt:output.obj
 0001:0002d1ea       ?parse_int_from_format_string@?$output_processor@DV?$string_output_adapter@D@__crt_stdio_output@@V?$positional_parameter_base@DV?$string_output_adapter@D@__crt_stdio_output@@@2@@__crt_stdio_output@@AAE_NQAH@Z 1002e1ea f i libucrt:output.obj
 0001:0002d27d       ?parse_int_from_format_string@?$output_processor@DV?$string_output_adapter@D@__crt_stdio_output@@V?$standard_base@DV?$string_output_adapter@D@__crt_stdio_output@@@2@@__crt_stdio_output@@AAE_NQAH@Z 1002e27d f i libucrt:output.obj
 0001:0002d310       ?parse_int_from_format_string@?$output_processor@_WV?$stream_output_adapter@_W@__crt_stdio_output@@V?$format_validation_base@_WV?$stream_output_adapter@_W@__crt_stdio_output@@@2@@__crt_stdio_output@@AAE_NQAH@Z 1002e310 f i libucrt:output.obj
 0001:0002d3a6       ?parse_int_from_format_string@?$output_processor@_WV?$stream_output_adapter@_W@__crt_stdio_output@@V?$positional_parameter_base@_WV?$stream_output_adapter@_W@__crt_stdio_output@@@2@@__crt_stdio_output@@AAE_NQAH@Z 1002e3a6 f i libucrt:output.obj
 0001:0002d43c       ?parse_int_from_format_string@?$output_processor@_WV?$stream_output_adapter@_W@__crt_stdio_output@@V?$standard_base@_WV?$stream_output_adapter@_W@__crt_stdio_output@@@2@@__crt_stdio_output@@AAE_NQAH@Z 1002e43c f i libucrt:output.obj
 0001:0002d4d2       ?parse_int_from_format_string@?$output_processor@_WV?$string_output_adapter@_W@__crt_stdio_output@@V?$format_validation_base@_WV?$string_output_adapter@_W@__crt_stdio_output@@@2@@__crt_stdio_output@@AAE_NQAH@Z 1002e4d2 f i libucrt:output.obj
 0001:0002d568       ?parse_int_from_format_string@?$output_processor@_WV?$string_output_adapter@_W@__crt_stdio_output@@V?$positional_parameter_base@_WV?$string_output_adapter@_W@__crt_stdio_output@@@2@@__crt_stdio_output@@AAE_NQAH@Z 1002e568 f i libucrt:output.obj
 0001:0002d5fe       ?parse_int_from_format_string@?$output_processor@_WV?$string_output_adapter@_W@__crt_stdio_output@@V?$standard_base@_WV?$string_output_adapter@_W@__crt_stdio_output@@@2@@__crt_stdio_output@@AAE_NQAH@Z 1002e5fe f i libucrt:output.obj
 0001:0002d694       ?process@?$output_processor@DV?$stream_output_adapter@D@__crt_stdio_output@@V?$format_validation_base@DV?$stream_output_adapter@D@__crt_stdio_output@@@2@@__crt_stdio_output@@QAEHXZ 1002e694 f i libucrt:output.obj
 0001:0002d806       ?process@?$output_processor@DV?$stream_output_adapter@D@__crt_stdio_output@@V?$positional_parameter_base@DV?$stream_output_adapter@D@__crt_stdio_output@@@2@@__crt_stdio_output@@QAEHXZ 1002e806 f i libucrt:output.obj
 0001:0002d9b9       ?process@?$output_processor@DV?$stream_output_adapter@D@__crt_stdio_output@@V?$standard_base@DV?$stream_output_adapter@D@__crt_stdio_output@@@2@@__crt_stdio_output@@QAEHXZ 1002e9b9 f i libucrt:output.obj
 0001:0002db1c       ?process@?$output_processor@DV?$string_output_adapter@D@__crt_stdio_output@@V?$format_validation_base@DV?$string_output_adapter@D@__crt_stdio_output@@@2@@__crt_stdio_output@@QAEHXZ 1002eb1c f i libucrt:output.obj
 0001:0002dc8e       ?process@?$output_processor@DV?$string_output_adapter@D@__crt_stdio_output@@V?$positional_parameter_base@DV?$string_output_adapter@D@__crt_stdio_output@@@2@@__crt_stdio_output@@QAEHXZ 1002ec8e f i libucrt:output.obj
 0001:0002de41       ?process@?$output_processor@DV?$string_output_adapter@D@__crt_stdio_output@@V?$standard_base@DV?$string_output_adapter@D@__crt_stdio_output@@@2@@__crt_stdio_output@@QAEHXZ 1002ee41 f i libucrt:output.obj
 0001:0002dfa4       ?process@?$output_processor@_WV?$stream_output_adapter@_W@__crt_stdio_output@@V?$format_validation_base@_WV?$stream_output_adapter@_W@__crt_stdio_output@@@2@@__crt_stdio_output@@QAEHXZ 1002efa4 f i libucrt:output.obj
 0001:0002e120       ?process@?$output_processor@_WV?$stream_output_adapter@_W@__crt_stdio_output@@V?$positional_parameter_base@_WV?$stream_output_adapter@_W@__crt_stdio_output@@@2@@__crt_stdio_output@@QAEHXZ 1002f120 f i libucrt:output.obj
 0001:0002e2d8       ?process@?$output_processor@_WV?$stream_output_adapter@_W@__crt_stdio_output@@V?$standard_base@_WV?$stream_output_adapter@_W@__crt_stdio_output@@@2@@__crt_stdio_output@@QAEHXZ 1002f2d8 f i libucrt:output.obj
 0001:0002e440       ?process@?$output_processor@_WV?$string_output_adapter@_W@__crt_stdio_output@@V?$format_validation_base@_WV?$string_output_adapter@_W@__crt_stdio_output@@@2@@__crt_stdio_output@@QAEHXZ 1002f440 f i libucrt:output.obj
 0001:0002e5bc       ?process@?$output_processor@_WV?$string_output_adapter@_W@__crt_stdio_output@@V?$positional_parameter_base@_WV?$string_output_adapter@_W@__crt_stdio_output@@@2@@__crt_stdio_output@@QAEHXZ 1002f5bc f i libucrt:output.obj
 0001:0002e774       ?process@?$output_processor@_WV?$string_output_adapter@_W@__crt_stdio_output@@V?$standard_base@_WV?$string_output_adapter@_W@__crt_stdio_output@@@2@@__crt_stdio_output@@QAEHXZ 1002f774 f i libucrt:output.obj
 0001:0002e8dc       ?public_stream@__crt_stdio_stream@@QBEPAU_iobuf@@XZ 1002f8dc f i libucrt:output.obj
 0001:0002e8df       ?set_flag@?$output_processor@DV?$stream_output_adapter@D@__crt_stdio_output@@V?$format_validation_base@DV?$stream_output_adapter@D@__crt_stdio_output@@@2@@__crt_stdio_output@@AAEXI@Z 1002f8df f i libucrt:output.obj
 0001:0002e8f1       ?set_flag@?$output_processor@DV?$stream_output_adapter@D@__crt_stdio_output@@V?$positional_parameter_base@DV?$stream_output_adapter@D@__crt_stdio_output@@@2@@__crt_stdio_output@@AAEXI@Z 1002f8f1 f i libucrt:output.obj
 0001:0002e903       ?set_flag@?$output_processor@DV?$stream_output_adapter@D@__crt_stdio_output@@V?$standard_base@DV?$stream_output_adapter@D@__crt_stdio_output@@@2@@__crt_stdio_output@@AAEXI@Z 1002f903 f i libucrt:output.obj
 0001:0002e915       ?set_flag@?$output_processor@DV?$string_output_adapter@D@__crt_stdio_output@@V?$format_validation_base@DV?$string_output_adapter@D@__crt_stdio_output@@@2@@__crt_stdio_output@@AAEXI@Z 1002f915 f i libucrt:output.obj
 0001:0002e927       ?set_flag@?$output_processor@DV?$string_output_adapter@D@__crt_stdio_output@@V?$positional_parameter_base@DV?$string_output_adapter@D@__crt_stdio_output@@@2@@__crt_stdio_output@@AAEXI@Z 1002f927 f i libucrt:output.obj
 0001:0002e939       ?set_flag@?$output_processor@DV?$string_output_adapter@D@__crt_stdio_output@@V?$standard_base@DV?$string_output_adapter@D@__crt_stdio_output@@@2@@__crt_stdio_output@@AAEXI@Z 1002f939 f i libucrt:output.obj
 0001:0002e94b       ?set_flag@?$output_processor@_WV?$stream_output_adapter@_W@__crt_stdio_output@@V?$format_validation_base@_WV?$stream_output_adapter@_W@__crt_stdio_output@@@2@@__crt_stdio_output@@AAEXI@Z 1002f94b f i libucrt:output.obj
 0001:0002e95d       ?set_flag@?$output_processor@_WV?$stream_output_adapter@_W@__crt_stdio_output@@V?$positional_parameter_base@_WV?$stream_output_adapter@_W@__crt_stdio_output@@@2@@__crt_stdio_output@@AAEXI@Z 1002f95d f i libucrt:output.obj
 0001:0002e96f       ?set_flag@?$output_processor@_WV?$stream_output_adapter@_W@__crt_stdio_output@@V?$standard_base@_WV?$stream_output_adapter@_W@__crt_stdio_output@@@2@@__crt_stdio_output@@AAEXI@Z 1002f96f f i libucrt:output.obj
 0001:0002e981       ?set_flag@?$output_processor@_WV?$string_output_adapter@_W@__crt_stdio_output@@V?$format_validation_base@_WV?$string_output_adapter@_W@__crt_stdio_output@@@2@@__crt_stdio_output@@AAEXI@Z 1002f981 f i libucrt:output.obj
 0001:0002e993       ?set_flag@?$output_processor@_WV?$string_output_adapter@_W@__crt_stdio_output@@V?$positional_parameter_base@_WV?$string_output_adapter@_W@__crt_stdio_output@@@2@@__crt_stdio_output@@AAEXI@Z 1002f993 f i libucrt:output.obj
 0001:0002e9a5       ?set_flag@?$output_processor@_WV?$string_output_adapter@_W@__crt_stdio_output@@V?$standard_base@_WV?$string_output_adapter@_W@__crt_stdio_output@@@2@@__crt_stdio_output@@AAEXI@Z 1002f9a5 f i libucrt:output.obj
 0001:0002e9b7       ?should_format@?$positional_parameter_base@DV?$stream_output_adapter@D@__crt_stdio_output@@@__crt_stdio_output@@IAE_NXZ 1002f9b7 f i libucrt:output.obj
 0001:0002e9d2       ?should_format@?$positional_parameter_base@DV?$string_output_adapter@D@__crt_stdio_output@@@__crt_stdio_output@@IAE_NXZ 1002f9d2 f i libucrt:output.obj
 0001:0002e9ed       ?should_format@?$positional_parameter_base@_WV?$stream_output_adapter@_W@__crt_stdio_output@@@__crt_stdio_output@@IAE_NXZ 1002f9ed f i libucrt:output.obj
 0001:0002ea08       ?should_format@?$positional_parameter_base@_WV?$string_output_adapter@_W@__crt_stdio_output@@@__crt_stdio_output@@IAE_NXZ 1002fa08 f i libucrt:output.obj
 0001:0002ea23       ?should_format@?$standard_base@DV?$stream_output_adapter@D@__crt_stdio_output@@@__crt_stdio_output@@IAE_NXZ 1002fa23 f i libucrt:output.obj
 0001:0002ea26       ?should_format@?$standard_base@DV?$string_output_adapter@D@__crt_stdio_output@@@__crt_stdio_output@@IAE_NXZ 1002fa26 f i libucrt:output.obj
 0001:0002ea29       ?should_format@?$standard_base@_WV?$stream_output_adapter@_W@__crt_stdio_output@@@__crt_stdio_output@@IAE_NXZ 1002fa29 f i libucrt:output.obj
 0001:0002ea2c       ?should_format@?$standard_base@_WV?$string_output_adapter@_W@__crt_stdio_output@@@__crt_stdio_output@@IAE_NXZ 1002fa2c f i libucrt:output.obj
 0001:0002ea2f       ?should_skip_normal_state_processing@?$positional_parameter_base@DV?$stream_output_adapter@D@__crt_stdio_output@@@__crt_stdio_output@@IAE_NXZ 1002fa2f f i libucrt:output.obj
 0001:0002ea61       ?should_skip_normal_state_processing@?$positional_parameter_base@DV?$string_output_adapter@D@__crt_stdio_output@@@__crt_stdio_output@@IAE_NXZ 1002fa61 f i libucrt:output.obj
 0001:0002ea93       ?should_skip_normal_state_processing@?$positional_parameter_base@_WV?$stream_output_adapter@_W@__crt_stdio_output@@@__crt_stdio_output@@IAE_NXZ 1002fa93 f i libucrt:output.obj
 0001:0002eac5       ?should_skip_normal_state_processing@?$positional_parameter_base@_WV?$string_output_adapter@_W@__crt_stdio_output@@@__crt_stdio_output@@IAE_NXZ 1002fac5 f i libucrt:output.obj
 0001:0002eaf7       ?should_skip_normal_state_processing@?$standard_base@DV?$stream_output_adapter@D@__crt_stdio_output@@@__crt_stdio_output@@IAE_NXZ 1002faf7 f i libucrt:output.obj
 0001:0002eafa       ?should_skip_normal_state_processing@?$standard_base@DV?$string_output_adapter@D@__crt_stdio_output@@@__crt_stdio_output@@IAE_NXZ 1002fafa f i libucrt:output.obj
 0001:0002eafd       ?should_skip_normal_state_processing@?$standard_base@_WV?$stream_output_adapter@_W@__crt_stdio_output@@@__crt_stdio_output@@IAE_NXZ 1002fafd f i libucrt:output.obj
 0001:0002eb00       ?should_skip_normal_state_processing@?$standard_base@_WV?$string_output_adapter@_W@__crt_stdio_output@@@__crt_stdio_output@@IAE_NXZ 1002fb00 f i libucrt:output.obj
 0001:0002eb03       ?should_skip_type_state_output@?$positional_parameter_base@DV?$stream_output_adapter@D@__crt_stdio_output@@@__crt_stdio_output@@IBE_NXZ 1002fb03 f i libucrt:output.obj
 0001:0002eb1f       ?should_skip_type_state_output@?$positional_parameter_base@DV?$string_output_adapter@D@__crt_stdio_output@@@__crt_stdio_output@@IBE_NXZ 1002fb1f f i libucrt:output.obj
 0001:0002eb3b       ?should_skip_type_state_output@?$positional_parameter_base@_WV?$stream_output_adapter@_W@__crt_stdio_output@@@__crt_stdio_output@@IBE_NXZ 1002fb3b f i libucrt:output.obj
 0001:0002eb57       ?should_skip_type_state_output@?$positional_parameter_base@_WV?$string_output_adapter@_W@__crt_stdio_output@@@__crt_stdio_output@@IBE_NXZ 1002fb57 f i libucrt:output.obj
 0001:0002eb73       ?should_skip_type_state_output@?$standard_base@DV?$stream_output_adapter@D@__crt_stdio_output@@@__crt_stdio_output@@IBE_NXZ 1002fb73 f i libucrt:output.obj
 0001:0002eb76       ?should_skip_type_state_output@?$standard_base@DV?$string_output_adapter@D@__crt_stdio_output@@@__crt_stdio_output@@IBE_NXZ 1002fb76 f i libucrt:output.obj
 0001:0002eb79       ?should_skip_type_state_output@?$standard_base@_WV?$stream_output_adapter@_W@__crt_stdio_output@@@__crt_stdio_output@@IBE_NXZ 1002fb79 f i libucrt:output.obj
 0001:0002eb7c       ?should_skip_type_state_output@?$standard_base@_WV?$string_output_adapter@_W@__crt_stdio_output@@@__crt_stdio_output@@IBE_NXZ 1002fb7c f i libucrt:output.obj
 0001:0002eb7f       ?state_case_dot@?$output_processor@DV?$stream_output_adapter@D@__crt_stdio_output@@V?$format_validation_base@DV?$stream_output_adapter@D@__crt_stdio_output@@@2@@__crt_stdio_output@@AAE_NXZ 1002fb7f f i libucrt:output.obj
 0001:0002eb86       ?state_case_dot@?$output_processor@DV?$stream_output_adapter@D@__crt_stdio_output@@V?$positional_parameter_base@DV?$stream_output_adapter@D@__crt_stdio_output@@@2@@__crt_stdio_output@@AAE_NXZ 1002fb86 f i libucrt:output.obj
 0001:0002eb8d       ?state_case_dot@?$output_processor@DV?$stream_output_adapter@D@__crt_stdio_output@@V?$standard_base@DV?$stream_output_adapter@D@__crt_stdio_output@@@2@@__crt_stdio_output@@AAE_NXZ 1002fb8d f i libucrt:output.obj
 0001:0002eb94       ?state_case_dot@?$output_processor@DV?$string_output_adapter@D@__crt_stdio_output@@V?$format_validation_base@DV?$string_output_adapter@D@__crt_stdio_output@@@2@@__crt_stdio_output@@AAE_NXZ 1002fb94 f i libucrt:output.obj
 0001:0002eb9b       ?state_case_dot@?$output_processor@DV?$string_output_adapter@D@__crt_stdio_output@@V?$positional_parameter_base@DV?$string_output_adapter@D@__crt_stdio_output@@@2@@__crt_stdio_output@@AAE_NXZ 1002fb9b f i libucrt:output.obj
 0001:0002eba2       ?state_case_dot@?$output_processor@DV?$string_output_adapter@D@__crt_stdio_output@@V?$standard_base@DV?$string_output_adapter@D@__crt_stdio_output@@@2@@__crt_stdio_output@@AAE_NXZ 1002fba2 f i libucrt:output.obj
 0001:0002eba9       ?state_case_dot@?$output_processor@_WV?$stream_output_adapter@_W@__crt_stdio_output@@V?$format_validation_base@_WV?$stream_output_adapter@_W@__crt_stdio_output@@@2@@__crt_stdio_output@@AAE_NXZ 1002fba9 f i libucrt:output.obj
 0001:0002ebb0       ?state_case_dot@?$output_processor@_WV?$stream_output_adapter@_W@__crt_stdio_output@@V?$positional_parameter_base@_WV?$stream_output_adapter@_W@__crt_stdio_output@@@2@@__crt_stdio_output@@AAE_NXZ 1002fbb0 f i libucrt:output.obj
 0001:0002ebb7       ?state_case_dot@?$output_processor@_WV?$stream_output_adapter@_W@__crt_stdio_output@@V?$standard_base@_WV?$stream_output_adapter@_W@__crt_stdio_output@@@2@@__crt_stdio_output@@AAE_NXZ 1002fbb7 f i libucrt:output.obj
 0001:0002ebbe       ?state_case_dot@?$output_processor@_WV?$string_output_adapter@_W@__crt_stdio_output@@V?$format_validation_base@_WV?$string_output_adapter@_W@__crt_stdio_output@@@2@@__crt_stdio_output@@AAE_NXZ 1002fbbe f i libucrt:output.obj
 0001:0002ebc5       ?state_case_dot@?$output_processor@_WV?$string_output_adapter@_W@__crt_stdio_output@@V?$positional_parameter_base@_WV?$string_output_adapter@_W@__crt_stdio_output@@@2@@__crt_stdio_output@@AAE_NXZ 1002fbc5 f i libucrt:output.obj
 0001:0002ebcc       ?state_case_dot@?$output_processor@_WV?$string_output_adapter@_W@__crt_stdio_output@@V?$standard_base@_WV?$string_output_adapter@_W@__crt_stdio_output@@@2@@__crt_stdio_output@@AAE_NXZ 1002fbcc f i libucrt:output.obj
 0001:0002ebd3       ?state_case_flag@?$output_processor@DV?$stream_output_adapter@D@__crt_stdio_output@@V?$format_validation_base@DV?$stream_output_adapter@D@__crt_stdio_output@@@2@@__crt_stdio_output@@AAE_NXZ 1002fbd3 f i libucrt:output.obj
 0001:0002ec1f       ?state_case_flag@?$output_processor@DV?$stream_output_adapter@D@__crt_stdio_output@@V?$positional_parameter_base@DV?$stream_output_adapter@D@__crt_stdio_output@@@2@@__crt_stdio_output@@AAE_NXZ 1002fc1f f i libucrt:output.obj
 0001:0002ec6b       ?state_case_flag@?$output_processor@DV?$stream_output_adapter@D@__crt_stdio_output@@V?$standard_base@DV?$stream_output_adapter@D@__crt_stdio_output@@@2@@__crt_stdio_output@@AAE_NXZ 1002fc6b f i libucrt:output.obj
 0001:0002ecb7       ?state_case_flag@?$output_processor@DV?$string_output_adapter@D@__crt_stdio_output@@V?$format_validation_base@DV?$string_output_adapter@D@__crt_stdio_output@@@2@@__crt_stdio_output@@AAE_NXZ 1002fcb7 f i libucrt:output.obj
 0001:0002ed03       ?state_case_flag@?$output_processor@DV?$string_output_adapter@D@__crt_stdio_output@@V?$positional_parameter_base@DV?$string_output_adapter@D@__crt_stdio_output@@@2@@__crt_stdio_output@@AAE_NXZ 1002fd03 f i libucrt:output.obj
 0001:0002ed4f       ?state_case_flag@?$output_processor@DV?$string_output_adapter@D@__crt_stdio_output@@V?$standard_base@DV?$string_output_adapter@D@__crt_stdio_output@@@2@@__crt_stdio_output@@AAE_NXZ 1002fd4f f i libucrt:output.obj
 0001:0002ed9b       ?state_case_flag@?$output_processor@_WV?$stream_output_adapter@_W@__crt_stdio_output@@V?$format_validation_base@_WV?$stream_output_adapter@_W@__crt_stdio_output@@@2@@__crt_stdio_output@@AAE_NXZ 1002fd9b f i libucrt:output.obj
 0001:0002ede7       ?state_case_flag@?$output_processor@_WV?$stream_output_adapter@_W@__crt_stdio_output@@V?$positional_parameter_base@_WV?$stream_output_adapter@_W@__crt_stdio_output@@@2@@__crt_stdio_output@@AAE_NXZ 1002fde7 f i libucrt:output.obj
 0001:0002ee33       ?state_case_flag@?$output_processor@_WV?$stream_output_adapter@_W@__crt_stdio_output@@V?$standard_base@_WV?$stream_output_adapter@_W@__crt_stdio_output@@@2@@__crt_stdio_output@@AAE_NXZ 1002fe33 f i libucrt:output.obj
 0001:0002ee7f       ?state_case_flag@?$output_processor@_WV?$string_output_adapter@_W@__crt_stdio_output@@V?$format_validation_base@_WV?$string_output_adapter@_W@__crt_stdio_output@@@2@@__crt_stdio_output@@AAE_NXZ 1002fe7f f i libucrt:output.obj
 0001:0002eecb       ?state_case_flag@?$output_processor@_WV?$string_output_adapter@_W@__crt_stdio_output@@V?$positional_parameter_base@_WV?$string_output_adapter@_W@__crt_stdio_output@@@2@@__crt_stdio_output@@AAE_NXZ 1002fecb f i libucrt:output.obj
 0001:0002ef17       ?state_case_flag@?$output_processor@_WV?$string_output_adapter@_W@__crt_stdio_output@@V?$standard_base@_WV?$string_output_adapter@_W@__crt_stdio_output@@@2@@__crt_stdio_output@@AAE_NXZ 1002ff17 f i libucrt:output.obj
 0001:0002ef63       ?state_case_normal@?$output_processor@DV?$stream_output_adapter@D@__crt_stdio_output@@V?$format_validation_base@DV?$stream_output_adapter@D@__crt_stdio_output@@@2@@__crt_stdio_output@@AAE_NXZ 1002ff63 f i libucrt:output.obj
 0001:0002ef89       ?state_case_normal@?$output_processor@DV?$stream_output_adapter@D@__crt_stdio_output@@V?$positional_parameter_base@DV?$stream_output_adapter@D@__crt_stdio_output@@@2@@__crt_stdio_output@@AAE_NXZ 1002ff89 f i libucrt:output.obj
 0001:0002efc6       ?state_case_normal@?$output_processor@DV?$stream_output_adapter@D@__crt_stdio_output@@V?$standard_base@DV?$stream_output_adapter@D@__crt_stdio_output@@@2@@__crt_stdio_output@@AAE_NXZ 1002ffc6 f i libucrt:output.obj
 0001:0002efec       ?state_case_normal@?$output_processor@DV?$string_output_adapter@D@__crt_stdio_output@@V?$format_validation_base@DV?$string_output_adapter@D@__crt_stdio_output@@@2@@__crt_stdio_output@@AAE_NXZ 1002ffec f i libucrt:output.obj
 0001:0002f012       ?state_case_normal@?$output_processor@DV?$string_output_adapter@D@__crt_stdio_output@@V?$positional_parameter_base@DV?$string_output_adapter@D@__crt_stdio_output@@@2@@__crt_stdio_output@@AAE_NXZ 10030012 f i libucrt:output.obj
 0001:0002f04f       ?state_case_normal@?$output_processor@DV?$string_output_adapter@D@__crt_stdio_output@@V?$standard_base@DV?$string_output_adapter@D@__crt_stdio_output@@@2@@__crt_stdio_output@@AAE_NXZ 1003004f f i libucrt:output.obj
 0001:0002f075       ?state_case_normal@?$output_processor@_WV?$stream_output_adapter@_W@__crt_stdio_output@@V?$format_validation_base@_WV?$stream_output_adapter@_W@__crt_stdio_output@@@2@@__crt_stdio_output@@AAE_NXZ 10030075 f i libucrt:output.obj
 0001:0002f09b       ?state_case_normal@?$output_processor@_WV?$stream_output_adapter@_W@__crt_stdio_output@@V?$positional_parameter_base@_WV?$stream_output_adapter@_W@__crt_stdio_output@@@2@@__crt_stdio_output@@AAE_NXZ 1003009b f i libucrt:output.obj
 0001:0002f0d8       ?state_case_normal@?$output_processor@_WV?$stream_output_adapter@_W@__crt_stdio_output@@V?$standard_base@_WV?$stream_output_adapter@_W@__crt_stdio_output@@@2@@__crt_stdio_output@@AAE_NXZ 100300d8 f i libucrt:output.obj
 0001:0002f0fe       ?state_case_normal@?$output_processor@_WV?$string_output_adapter@_W@__crt_stdio_output@@V?$format_validation_base@_WV?$string_output_adapter@_W@__crt_stdio_output@@@2@@__crt_stdio_output@@AAE_NXZ 100300fe f i libucrt:output.obj
 0001:0002f124       ?state_case_normal@?$output_processor@_WV?$string_output_adapter@_W@__crt_stdio_output@@V?$positional_parameter_base@_WV?$string_output_adapter@_W@__crt_stdio_output@@@2@@__crt_stdio_output@@AAE_NXZ 10030124 f i libucrt:output.obj
 0001:0002f161       ?state_case_normal@?$output_processor@_WV?$string_output_adapter@_W@__crt_stdio_output@@V?$standard_base@_WV?$string_output_adapter@_W@__crt_stdio_output@@@2@@__crt_stdio_output@@AAE_NXZ 10030161 f i libucrt:output.obj
 0001:0002f187       ?state_case_normal_common@?$output_processor@DV?$stream_output_adapter@D@__crt_stdio_output@@V?$format_validation_base@DV?$stream_output_adapter@D@__crt_stdio_output@@@2@@__crt_stdio_output@@AAE_NXZ 10030187 f i libucrt:output.obj
 0001:0002f1d2       ?state_case_normal_common@?$output_processor@DV?$stream_output_adapter@D@__crt_stdio_output@@V?$positional_parameter_base@DV?$stream_output_adapter@D@__crt_stdio_output@@@2@@__crt_stdio_output@@AAE_NXZ 100301d2 f i libucrt:output.obj
 0001:0002f21d       ?state_case_normal_common@?$output_processor@DV?$stream_output_adapter@D@__crt_stdio_output@@V?$standard_base@DV?$stream_output_adapter@D@__crt_stdio_output@@@2@@__crt_stdio_output@@AAE_NXZ 1003021d f i libucrt:output.obj
 0001:0002f268       ?state_case_normal_common@?$output_processor@DV?$string_output_adapter@D@__crt_stdio_output@@V?$format_validation_base@DV?$string_output_adapter@D@__crt_stdio_output@@@2@@__crt_stdio_output@@AAE_NXZ 10030268 f i libucrt:output.obj
 0001:0002f29c       ?state_case_normal_common@?$output_processor@DV?$string_output_adapter@D@__crt_stdio_output@@V?$positional_parameter_base@DV?$string_output_adapter@D@__crt_stdio_output@@@2@@__crt_stdio_output@@AAE_NXZ 1003029c f i libucrt:output.obj
 0001:0002f2d0       ?state_case_normal_common@?$output_processor@DV?$string_output_adapter@D@__crt_stdio_output@@V?$standard_base@DV?$string_output_adapter@D@__crt_stdio_output@@@2@@__crt_stdio_output@@AAE_NXZ 100302d0 f i libucrt:output.obj
 0001:0002f304       ?state_case_normal_common@?$output_processor@_WV?$stream_output_adapter@_W@__crt_stdio_output@@V?$format_validation_base@_WV?$stream_output_adapter@_W@__crt_stdio_output@@@2@@__crt_stdio_output@@AAE_NXZ 10030304 f i libucrt:output.obj
 0001:0002f338       ?state_case_normal_common@?$output_processor@_WV?$stream_output_adapter@_W@__crt_stdio_output@@V?$positional_parameter_base@_WV?$stream_output_adapter@_W@__crt_stdio_output@@@2@@__crt_stdio_output@@AAE_NXZ 10030338 f i libucrt:output.obj
 0001:0002f36c       ?state_case_normal_common@?$output_processor@_WV?$stream_output_adapter@_W@__crt_stdio_output@@V?$standard_base@_WV?$stream_output_adapter@_W@__crt_stdio_output@@@2@@__crt_stdio_output@@AAE_NXZ 1003036c f i libucrt:output.obj
 0001:0002f3a0       ?state_case_normal_common@?$output_processor@_WV?$string_output_adapter@_W@__crt_stdio_output@@V?$format_validation_base@_WV?$string_output_adapter@_W@__crt_stdio_output@@@2@@__crt_stdio_output@@AAE_NXZ 100303a0 f i libucrt:output.obj
 0001:0002f3c1       ?state_case_normal_common@?$output_processor@_WV?$string_output_adapter@_W@__crt_stdio_output@@V?$positional_parameter_base@_WV?$string_output_adapter@_W@__crt_stdio_output@@@2@@__crt_stdio_output@@AAE_NXZ 100303c1 f i libucrt:output.obj
 0001:0002f3e2       ?state_case_normal_common@?$output_processor@_WV?$string_output_adapter@_W@__crt_stdio_output@@V?$standard_base@_WV?$string_output_adapter@_W@__crt_stdio_output@@@2@@__crt_stdio_output@@AAE_NXZ 100303e2 f i libucrt:output.obj
 0001:0002f403       ?state_case_normal_tchar@?$output_processor@DV?$stream_output_adapter@D@__crt_stdio_output@@V?$format_validation_base@DV?$stream_output_adapter@D@__crt_stdio_output@@@2@@__crt_stdio_output@@AAE_ND@Z 10030403 f i libucrt:output.obj
 0001:0002f47d       ?state_case_normal_tchar@?$output_processor@DV?$stream_output_adapter@D@__crt_stdio_output@@V?$positional_parameter_base@DV?$stream_output_adapter@D@__crt_stdio_output@@@2@@__crt_stdio_output@@AAE_ND@Z 1003047d f i libucrt:output.obj
 0001:0002f4f7       ?state_case_normal_tchar@?$output_processor@DV?$stream_output_adapter@D@__crt_stdio_output@@V?$standard_base@DV?$stream_output_adapter@D@__crt_stdio_output@@@2@@__crt_stdio_output@@AAE_ND@Z 100304f7 f i libucrt:output.obj
 0001:0002f571       ?state_case_normal_tchar@?$output_processor@DV?$string_output_adapter@D@__crt_stdio_output@@V?$format_validation_base@DV?$string_output_adapter@D@__crt_stdio_output@@@2@@__crt_stdio_output@@AAE_ND@Z 10030571 f i libucrt:output.obj
 0001:0002f5e0       ?state_case_normal_tchar@?$output_processor@DV?$string_output_adapter@D@__crt_stdio_output@@V?$positional_parameter_base@DV?$string_output_adapter@D@__crt_stdio_output@@@2@@__crt_stdio_output@@AAE_ND@Z 100305e0 f i libucrt:output.obj
 0001:0002f64f       ?state_case_normal_tchar@?$output_processor@DV?$string_output_adapter@D@__crt_stdio_output@@V?$standard_base@DV?$string_output_adapter@D@__crt_stdio_output@@@2@@__crt_stdio_output@@AAE_ND@Z 1003064f f i libucrt:output.obj
 0001:0002f6be       ?state_case_normal_tchar@?$output_processor@_WV?$stream_output_adapter@_W@__crt_stdio_output@@V?$format_validation_base@_WV?$stream_output_adapter@_W@__crt_stdio_output@@@2@@__crt_stdio_output@@AAE_N_W@Z 100306be f i libucrt:output.obj
 0001:0002f6c9       ?state_case_normal_tchar@?$output_processor@_WV?$stream_output_adapter@_W@__crt_stdio_output@@V?$positional_parameter_base@_WV?$stream_output_adapter@_W@__crt_stdio_output@@@2@@__crt_stdio_output@@AAE_N_W@Z 100306c9 f i libucrt:output.obj
 0001:0002f6d4       ?state_case_normal_tchar@?$output_processor@_WV?$stream_output_adapter@_W@__crt_stdio_output@@V?$standard_base@_WV?$stream_output_adapter@_W@__crt_stdio_output@@@2@@__crt_stdio_output@@AAE_N_W@Z 100306d4 f i libucrt:output.obj
 0001:0002f6df       ?state_case_normal_tchar@?$output_processor@_WV?$string_output_adapter@_W@__crt_stdio_output@@V?$format_validation_base@_WV?$string_output_adapter@_W@__crt_stdio_output@@@2@@__crt_stdio_output@@AAE_N_W@Z 100306df f i libucrt:output.obj
 0001:0002f6ea       ?state_case_normal_tchar@?$output_processor@_WV?$string_output_adapter@_W@__crt_stdio_output@@V?$positional_parameter_base@_WV?$string_output_adapter@_W@__crt_stdio_output@@@2@@__crt_stdio_output@@AAE_N_W@Z 100306ea f i libucrt:output.obj
 0001:0002f6f5       ?state_case_normal_tchar@?$output_processor@_WV?$string_output_adapter@_W@__crt_stdio_output@@V?$standard_base@_WV?$string_output_adapter@_W@__crt_stdio_output@@@2@@__crt_stdio_output@@AAE_N_W@Z 100306f5 f i libucrt:output.obj
 0001:0002f700       ?state_case_percent@?$output_processor@DV?$stream_output_adapter@D@__crt_stdio_output@@V?$format_validation_base@DV?$stream_output_adapter@D@__crt_stdio_output@@@2@@__crt_stdio_output@@AAE_NXZ 10030700 f i libucrt:output.obj
 0001:0002f71e       ?state_case_percent@?$output_processor@DV?$stream_output_adapter@D@__crt_stdio_output@@V?$positional_parameter_base@DV?$stream_output_adapter@D@__crt_stdio_output@@@2@@__crt_stdio_output@@AAE_NXZ 1003071e f i libucrt:output.obj
 0001:0002f73c       ?state_case_percent@?$output_processor@DV?$stream_output_adapter@D@__crt_stdio_output@@V?$standard_base@DV?$stream_output_adapter@D@__crt_stdio_output@@@2@@__crt_stdio_output@@AAE_NXZ 1003073c f i libucrt:output.obj
 0001:0002f75a       ?state_case_percent@?$output_processor@DV?$string_output_adapter@D@__crt_stdio_output@@V?$format_validation_base@DV?$string_output_adapter@D@__crt_stdio_output@@@2@@__crt_stdio_output@@AAE_NXZ 1003075a f i libucrt:output.obj
 0001:0002f778       ?state_case_percent@?$output_processor@DV?$string_output_adapter@D@__crt_stdio_output@@V?$positional_parameter_base@DV?$string_output_adapter@D@__crt_stdio_output@@@2@@__crt_stdio_output@@AAE_NXZ 10030778 f i libucrt:output.obj
 0001:0002f796       ?state_case_percent@?$output_processor@DV?$string_output_adapter@D@__crt_stdio_output@@V?$standard_base@DV?$string_output_adapter@D@__crt_stdio_output@@@2@@__crt_stdio_output@@AAE_NXZ 10030796 f i libucrt:output.obj
 0001:0002f7b4       ?state_case_percent@?$output_processor@_WV?$stream_output_adapter@_W@__crt_stdio_output@@V?$format_validation_base@_WV?$stream_output_adapter@_W@__crt_stdio_output@@@2@@__crt_stdio_output@@AAE_NXZ 100307b4 f i libucrt:output.obj
 0001:0002f7d2       ?state_case_percent@?$output_processor@_WV?$stream_output_adapter@_W@__crt_stdio_output@@V?$positional_parameter_base@_WV?$stream_output_adapter@_W@__crt_stdio_output@@@2@@__crt_stdio_output@@AAE_NXZ 100307d2 f i libucrt:output.obj
 0001:0002f7f0       ?state_case_percent@?$output_processor@_WV?$stream_output_adapter@_W@__crt_stdio_output@@V?$standard_base@_WV?$stream_output_adapter@_W@__crt_stdio_output@@@2@@__crt_stdio_output@@AAE_NXZ 100307f0 f i libucrt:output.obj
 0001:0002f80e       ?state_case_percent@?$output_processor@_WV?$string_output_adapter@_W@__crt_stdio_output@@V?$format_validation_base@_WV?$string_output_adapter@_W@__crt_stdio_output@@@2@@__crt_stdio_output@@AAE_NXZ 1003080e f i libucrt:output.obj
 0001:0002f82c       ?state_case_percent@?$output_processor@_WV?$string_output_adapter@_W@__crt_stdio_output@@V?$positional_parameter_base@_WV?$string_output_adapter@_W@__crt_stdio_output@@@2@@__crt_stdio_output@@AAE_NXZ 1003082c f i libucrt:output.obj
 0001:0002f84a       ?state_case_percent@?$output_processor@_WV?$string_output_adapter@_W@__crt_stdio_output@@V?$standard_base@_WV?$string_output_adapter@_W@__crt_stdio_output@@@2@@__crt_stdio_output@@AAE_NXZ 1003084a f i libucrt:output.obj
 0001:0002f868       ?state_case_precision@?$output_processor@DV?$stream_output_adapter@D@__crt_stdio_output@@V?$format_validation_base@DV?$stream_output_adapter@D@__crt_stdio_output@@@2@@__crt_stdio_output@@AAE_NXZ 10030868 f i libucrt:output.obj
 0001:0002f897       ?state_case_precision@?$output_processor@DV?$stream_output_adapter@D@__crt_stdio_output@@V?$positional_parameter_base@DV?$stream_output_adapter@D@__crt_stdio_output@@@2@@__crt_stdio_output@@AAE_NXZ 10030897 f i libucrt:output.obj
 0001:0002f8df       ?state_case_precision@?$output_processor@DV?$stream_output_adapter@D@__crt_stdio_output@@V?$standard_base@DV?$stream_output_adapter@D@__crt_stdio_output@@@2@@__crt_stdio_output@@AAE_NXZ 100308df f i libucrt:output.obj
 0001:0002f90e       ?state_case_precision@?$output_processor@DV?$string_output_adapter@D@__crt_stdio_output@@V?$format_validation_base@DV?$string_output_adapter@D@__crt_stdio_output@@@2@@__crt_stdio_output@@AAE_NXZ 1003090e f i libucrt:output.obj
 0001:0002f93d       ?state_case_precision@?$output_processor@DV?$string_output_adapter@D@__crt_stdio_output@@V?$positional_parameter_base@DV?$string_output_adapter@D@__crt_stdio_output@@@2@@__crt_stdio_output@@AAE_NXZ 1003093d f i libucrt:output.obj
 0001:0002f985       ?state_case_precision@?$output_processor@DV?$string_output_adapter@D@__crt_stdio_output@@V?$standard_base@DV?$string_output_adapter@D@__crt_stdio_output@@@2@@__crt_stdio_output@@AAE_NXZ 10030985 f i libucrt:output.obj
 0001:0002f9b4       ?state_case_precision@?$output_processor@_WV?$stream_output_adapter@_W@__crt_stdio_output@@V?$format_validation_base@_WV?$stream_output_adapter@_W@__crt_stdio_output@@@2@@__crt_stdio_output@@AAE_NXZ 100309b4 f i libucrt:output.obj
 0001:0002f9e4       ?state_case_precision@?$output_processor@_WV?$stream_output_adapter@_W@__crt_stdio_output@@V?$positional_parameter_base@_WV?$stream_output_adapter@_W@__crt_stdio_output@@@2@@__crt_stdio_output@@AAE_NXZ 100309e4 f i libucrt:output.obj
 0001:0002fa2d       ?state_case_precision@?$output_processor@_WV?$stream_output_adapter@_W@__crt_stdio_output@@V?$standard_base@_WV?$stream_output_adapter@_W@__crt_stdio_output@@@2@@__crt_stdio_output@@AAE_NXZ 10030a2d f i libucrt:output.obj
 0001:0002fa5d       ?state_case_precision@?$output_processor@_WV?$string_output_adapter@_W@__crt_stdio_output@@V?$format_validation_base@_WV?$string_output_adapter@_W@__crt_stdio_output@@@2@@__crt_stdio_output@@AAE_NXZ 10030a5d f i libucrt:output.obj
 0001:0002fa8d       ?state_case_precision@?$output_processor@_WV?$string_output_adapter@_W@__crt_stdio_output@@V?$positional_parameter_base@_WV?$string_output_adapter@_W@__crt_stdio_output@@@2@@__crt_stdio_output@@AAE_NXZ 10030a8d f i libucrt:output.obj
 0001:0002fad6       ?state_case_precision@?$output_processor@_WV?$string_output_adapter@_W@__crt_stdio_output@@V?$standard_base@_WV?$string_output_adapter@_W@__crt_stdio_output@@@2@@__crt_stdio_output@@AAE_NXZ 10030ad6 f i libucrt:output.obj
 0001:0002fb06       ?state_case_size@?$output_processor@DV?$stream_output_adapter@D@__crt_stdio_output@@V?$format_validation_base@DV?$stream_output_adapter@D@__crt_stdio_output@@@2@@__crt_stdio_output@@AAE_NXZ 10030b06 f i libucrt:output.obj
 0001:0002fcb6       ?state_case_size@?$output_processor@DV?$stream_output_adapter@D@__crt_stdio_output@@V?$positional_parameter_base@DV?$stream_output_adapter@D@__crt_stdio_output@@@2@@__crt_stdio_output@@AAE_NXZ 10030cb6 f i libucrt:output.obj
 0001:0002fe66       ?state_case_size@?$output_processor@DV?$stream_output_adapter@D@__crt_stdio_output@@V?$standard_base@DV?$stream_output_adapter@D@__crt_stdio_output@@@2@@__crt_stdio_output@@AAE_NXZ 10030e66 f i libucrt:output.obj
 0001:00030016       ?state_case_size@?$output_processor@DV?$string_output_adapter@D@__crt_stdio_output@@V?$format_validation_base@DV?$string_output_adapter@D@__crt_stdio_output@@@2@@__crt_stdio_output@@AAE_NXZ 10031016 f i libucrt:output.obj
 0001:000301c6       ?state_case_size@?$output_processor@DV?$string_output_adapter@D@__crt_stdio_output@@V?$positional_parameter_base@DV?$string_output_adapter@D@__crt_stdio_output@@@2@@__crt_stdio_output@@AAE_NXZ 100311c6 f i libucrt:output.obj
 0001:00030376       ?state_case_size@?$output_processor@DV?$string_output_adapter@D@__crt_stdio_output@@V?$standard_base@DV?$string_output_adapter@D@__crt_stdio_output@@@2@@__crt_stdio_output@@AAE_NXZ 10031376 f i libucrt:output.obj
 0001:00030526       ?state_case_size@?$output_processor@_WV?$stream_output_adapter@_W@__crt_stdio_output@@V?$format_validation_base@_WV?$stream_output_adapter@_W@__crt_stdio_output@@@2@@__crt_stdio_output@@AAE_NXZ 10031526 f i libucrt:output.obj
 0001:000306ee       ?state_case_size@?$output_processor@_WV?$stream_output_adapter@_W@__crt_stdio_output@@V?$positional_parameter_base@_WV?$stream_output_adapter@_W@__crt_stdio_output@@@2@@__crt_stdio_output@@AAE_NXZ 100316ee f i libucrt:output.obj
 0001:000308b6       ?state_case_size@?$output_processor@_WV?$stream_output_adapter@_W@__crt_stdio_output@@V?$standard_base@_WV?$stream_output_adapter@_W@__crt_stdio_output@@@2@@__crt_stdio_output@@AAE_NXZ 100318b6 f i libucrt:output.obj
 0001:00030a7e       ?state_case_size@?$output_processor@_WV?$string_output_adapter@_W@__crt_stdio_output@@V?$format_validation_base@_WV?$string_output_adapter@_W@__crt_stdio_output@@@2@@__crt_stdio_output@@AAE_NXZ 10031a7e f i libucrt:output.obj
 0001:00030c46       ?state_case_size@?$output_processor@_WV?$string_output_adapter@_W@__crt_stdio_output@@V?$positional_parameter_base@_WV?$string_output_adapter@_W@__crt_stdio_output@@@2@@__crt_stdio_output@@AAE_NXZ 10031c46 f i libucrt:output.obj
 0001:00030e0e       ?state_case_size@?$output_processor@_WV?$string_output_adapter@_W@__crt_stdio_output@@V?$standard_base@_WV?$string_output_adapter@_W@__crt_stdio_output@@@2@@__crt_stdio_output@@AAE_NXZ 10031e0e f i libucrt:output.obj
 0001:00030fd6       ?state_case_type@?$output_processor@DV?$stream_output_adapter@D@__crt_stdio_output@@V?$format_validation_base@DV?$stream_output_adapter@D@__crt_stdio_output@@@2@@__crt_stdio_output@@AAE_NXZ 10031fd6 f i libucrt:output.obj
 0001:00031289       ?state_case_type@?$output_processor@DV?$stream_output_adapter@D@__crt_stdio_output@@V?$positional_parameter_base@DV?$stream_output_adapter@D@__crt_stdio_output@@@2@@__crt_stdio_output@@AAE_NXZ 10032289 f i libucrt:output.obj
 0001:0003154a       ?state_case_type@?$output_processor@DV?$stream_output_adapter@D@__crt_stdio_output@@V?$standard_base@DV?$stream_output_adapter@D@__crt_stdio_output@@@2@@__crt_stdio_output@@AAE_NXZ 1003254a f i libucrt:output.obj
 0001:000317fd       ?state_case_type@?$output_processor@DV?$string_output_adapter@D@__crt_stdio_output@@V?$format_validation_base@DV?$string_output_adapter@D@__crt_stdio_output@@@2@@__crt_stdio_output@@AAE_NXZ 100327fd f i libucrt:output.obj
 0001:00031ab0       ?state_case_type@?$output_processor@DV?$string_output_adapter@D@__crt_stdio_output@@V?$positional_parameter_base@DV?$string_output_adapter@D@__crt_stdio_output@@@2@@__crt_stdio_output@@AAE_NXZ 10032ab0 f i libucrt:output.obj
 0001:00031d71       ?state_case_type@?$output_processor@DV?$string_output_adapter@D@__crt_stdio_output@@V?$standard_base@DV?$string_output_adapter@D@__crt_stdio_output@@@2@@__crt_stdio_output@@AAE_NXZ 10032d71 f i libucrt:output.obj
 0001:00032024       ?state_case_type@?$output_processor@_WV?$stream_output_adapter@_W@__crt_stdio_output@@V?$format_validation_base@_WV?$stream_output_adapter@_W@__crt_stdio_output@@@2@@__crt_stdio_output@@AAE_NXZ 10033024 f i libucrt:output.obj
 0001:00032324       ?state_case_type@?$output_processor@_WV?$stream_output_adapter@_W@__crt_stdio_output@@V?$positional_parameter_base@_WV?$stream_output_adapter@_W@__crt_stdio_output@@@2@@__crt_stdio_output@@AAE_NXZ 10033324 f i libucrt:output.obj
 0001:00032637       ?state_case_type@?$output_processor@_WV?$stream_output_adapter@_W@__crt_stdio_output@@V?$standard_base@_WV?$stream_output_adapter@_W@__crt_stdio_output@@@2@@__crt_stdio_output@@AAE_NXZ 10033637 f i libucrt:output.obj
 0001:00032937       ?state_case_type@?$output_processor@_WV?$string_output_adapter@_W@__crt_stdio_output@@V?$format_validation_base@_WV?$string_output_adapter@_W@__crt_stdio_output@@@2@@__crt_stdio_output@@AAE_NXZ 10033937 f i libucrt:output.obj
 0001:00032c37       ?state_case_type@?$output_processor@_WV?$string_output_adapter@_W@__crt_stdio_output@@V?$positional_parameter_base@_WV?$string_output_adapter@_W@__crt_stdio_output@@@2@@__crt_stdio_output@@AAE_NXZ 10033c37 f i libucrt:output.obj
 0001:00032f4a       ?state_case_type@?$output_processor@_WV?$string_output_adapter@_W@__crt_stdio_output@@V?$standard_base@_WV?$string_output_adapter@_W@__crt_stdio_output@@@2@@__crt_stdio_output@@AAE_NXZ 10033f4a f i libucrt:output.obj
 0001:0003324a       ?state_case_width@?$output_processor@DV?$stream_output_adapter@D@__crt_stdio_output@@V?$format_validation_base@DV?$stream_output_adapter@D@__crt_stdio_output@@@2@@__crt_stdio_output@@AAE_NXZ 1003424a f i libucrt:output.obj
 0001:0003327f       ?state_case_width@?$output_processor@DV?$stream_output_adapter@D@__crt_stdio_output@@V?$positional_parameter_base@DV?$stream_output_adapter@D@__crt_stdio_output@@@2@@__crt_stdio_output@@AAE_NXZ 1003427f f i libucrt:output.obj
 0001:000332cf       ?state_case_width@?$output_processor@DV?$stream_output_adapter@D@__crt_stdio_output@@V?$standard_base@DV?$stream_output_adapter@D@__crt_stdio_output@@@2@@__crt_stdio_output@@AAE_NXZ 100342cf f i libucrt:output.obj
 0001:00033304       ?state_case_width@?$output_processor@DV?$string_output_adapter@D@__crt_stdio_output@@V?$format_validation_base@DV?$string_output_adapter@D@__crt_stdio_output@@@2@@__crt_stdio_output@@AAE_NXZ 10034304 f i libucrt:output.obj
 0001:00033339       ?state_case_width@?$output_processor@DV?$string_output_adapter@D@__crt_stdio_output@@V?$positional_parameter_base@DV?$string_output_adapter@D@__crt_stdio_output@@@2@@__crt_stdio_output@@AAE_NXZ 10034339 f i libucrt:output.obj
 0001:00033389       ?state_case_width@?$output_processor@DV?$string_output_adapter@D@__crt_stdio_output@@V?$standard_base@DV?$string_output_adapter@D@__crt_stdio_output@@@2@@__crt_stdio_output@@AAE_NXZ 10034389 f i libucrt:output.obj
 0001:000333be       ?state_case_width@?$output_processor@_WV?$stream_output_adapter@_W@__crt_stdio_output@@V?$format_validation_base@_WV?$stream_output_adapter@_W@__crt_stdio_output@@@2@@__crt_stdio_output@@AAE_NXZ 100343be f i libucrt:output.obj
 0001:000333f5       ?state_case_width@?$output_processor@_WV?$stream_output_adapter@_W@__crt_stdio_output@@V?$positional_parameter_base@_WV?$stream_output_adapter@_W@__crt_stdio_output@@@2@@__crt_stdio_output@@AAE_NXZ 100343f5 f i libucrt:output.obj
 0001:00033446       ?state_case_width@?$output_processor@_WV?$stream_output_adapter@_W@__crt_stdio_output@@V?$standard_base@_WV?$stream_output_adapter@_W@__crt_stdio_output@@@2@@__crt_stdio_output@@AAE_NXZ 10034446 f i libucrt:output.obj
 0001:0003347d       ?state_case_width@?$output_processor@_WV?$string_output_adapter@_W@__crt_stdio_output@@V?$format_validation_base@_WV?$string_output_adapter@_W@__crt_stdio_output@@@2@@__crt_stdio_output@@AAE_NXZ 1003447d f i libucrt:output.obj
 0001:000334b4       ?state_case_width@?$output_processor@_WV?$string_output_adapter@_W@__crt_stdio_output@@V?$positional_parameter_base@_WV?$string_output_adapter@_W@__crt_stdio_output@@@2@@__crt_stdio_output@@AAE_NXZ 100344b4 f i libucrt:output.obj
 0001:00033505       ?state_case_width@?$output_processor@_WV?$string_output_adapter@_W@__crt_stdio_output@@V?$standard_base@_WV?$string_output_adapter@_W@__crt_stdio_output@@@2@@__crt_stdio_output@@AAE_NXZ 10034505 f i libucrt:output.obj
 0001:0003353c       ?state_count@?$format_validation_base@DV?$stream_output_adapter@D@__crt_stdio_output@@@__crt_stdio_output@@KAIXZ 1003453c f i libucrt:output.obj
 0001:00033540       ?state_count@?$format_validation_base@DV?$string_output_adapter@D@__crt_stdio_output@@@__crt_stdio_output@@KAIXZ 10034540 f i libucrt:output.obj
 0001:00033544       ?state_count@?$format_validation_base@_WV?$stream_output_adapter@_W@__crt_stdio_output@@@__crt_stdio_output@@KAIXZ 10034544 f i libucrt:output.obj
 0001:00033548       ?state_count@?$format_validation_base@_WV?$string_output_adapter@_W@__crt_stdio_output@@@__crt_stdio_output@@KAIXZ 10034548 f i libucrt:output.obj
 0001:0003354c       ?state_count@?$standard_base@DV?$stream_output_adapter@D@__crt_stdio_output@@@__crt_stdio_output@@KAIXZ 1003454c f i libucrt:output.obj
 0001:00033550       ?state_count@?$standard_base@DV?$string_output_adapter@D@__crt_stdio_output@@@__crt_stdio_output@@KAIXZ 10034550 f i libucrt:output.obj
 0001:00033554       ?state_count@?$standard_base@_WV?$stream_output_adapter@_W@__crt_stdio_output@@@__crt_stdio_output@@KAIXZ 10034554 f i libucrt:output.obj
 0001:00033558       ?state_count@?$standard_base@_WV?$string_output_adapter@_W@__crt_stdio_output@@@__crt_stdio_output@@KAIXZ 10034558 f i libucrt:output.obj
 0001:0003355c       ?state_transition_table@?$format_validation_base@DV?$stream_output_adapter@D@__crt_stdio_output@@@__crt_stdio_output@@KAPBEXZ 1003455c f i libucrt:output.obj
 0001:00033562       ?state_transition_table@?$format_validation_base@DV?$string_output_adapter@D@__crt_stdio_output@@@__crt_stdio_output@@KAPBEXZ 10034562 f i libucrt:output.obj
 0001:00033568       ?state_transition_table@?$format_validation_base@_WV?$stream_output_adapter@_W@__crt_stdio_output@@@__crt_stdio_output@@KAPBEXZ 10034568 f i libucrt:output.obj
 0001:0003356e       ?state_transition_table@?$format_validation_base@_WV?$string_output_adapter@_W@__crt_stdio_output@@@__crt_stdio_output@@KAPBEXZ 1003456e f i libucrt:output.obj
 0001:00033574       ?state_transition_table@?$standard_base@DV?$stream_output_adapter@D@__crt_stdio_output@@@__crt_stdio_output@@KAPBEXZ 10034574 f i libucrt:output.obj
 0001:0003357a       ?state_transition_table@?$standard_base@DV?$string_output_adapter@D@__crt_stdio_output@@@__crt_stdio_output@@KAPBEXZ 1003457a f i libucrt:output.obj
 0001:00033580       ?state_transition_table@?$standard_base@_WV?$stream_output_adapter@_W@__crt_stdio_output@@@__crt_stdio_output@@KAPBEXZ 10034580 f i libucrt:output.obj
 0001:00033586       ?state_transition_table@?$standard_base@_WV?$string_output_adapter@_W@__crt_stdio_output@@@__crt_stdio_output@@KAPBEXZ 10034586 f i libucrt:output.obj
 0001:0003358c       ?tchar_string@?$common_data@D@__crt_stdio_output@@IAEAAPADD@Z 1003458c f i libucrt:output.obj
 0001:00033592       ?tchar_string@?$common_data@D@__crt_stdio_output@@IAEAAPADXZ 10034592 f i libucrt:output.obj
 0001:00033596       ?tchar_string@?$common_data@_W@__crt_stdio_output@@IAEAAPA_WXZ 10034596 f i libucrt:output.obj
 0001:0003359a       ?tchar_string@?$common_data@_W@__crt_stdio_output@@IAEAAPA_W_W@Z 1003459a f i libucrt:output.obj
 0001:000335a0       ?to_integer_size@__crt_stdio_output@@YAIW4length_modifier@1@@Z 100345a0 f i libucrt:output.obj
 0001:00033613       ?type_case_X@?$output_processor@DV?$stream_output_adapter@D@__crt_stdio_output@@V?$format_validation_base@DV?$stream_output_adapter@D@__crt_stdio_output@@@2@@__crt_stdio_output@@AAE_NXZ 10034613 f i libucrt:output.obj
 0001:0003361f       ?type_case_X@?$output_processor@DV?$stream_output_adapter@D@__crt_stdio_output@@V?$positional_parameter_base@DV?$stream_output_adapter@D@__crt_stdio_output@@@2@@__crt_stdio_output@@AAE_NXZ 1003461f f i libucrt:output.obj
 0001:0003362b       ?type_case_X@?$output_processor@DV?$stream_output_adapter@D@__crt_stdio_output@@V?$standard_base@DV?$stream_output_adapter@D@__crt_stdio_output@@@2@@__crt_stdio_output@@AAE_NXZ 1003462b f i libucrt:output.obj
 0001:00033637       ?type_case_X@?$output_processor@DV?$string_output_adapter@D@__crt_stdio_output@@V?$format_validation_base@DV?$string_output_adapter@D@__crt_stdio_output@@@2@@__crt_stdio_output@@AAE_NXZ 10034637 f i libucrt:output.obj
 0001:00033643       ?type_case_X@?$output_processor@DV?$string_output_adapter@D@__crt_stdio_output@@V?$positional_parameter_base@DV?$string_output_adapter@D@__crt_stdio_output@@@2@@__crt_stdio_output@@AAE_NXZ 10034643 f i libucrt:output.obj
 0001:0003364f       ?type_case_X@?$output_processor@DV?$string_output_adapter@D@__crt_stdio_output@@V?$standard_base@DV?$string_output_adapter@D@__crt_stdio_output@@@2@@__crt_stdio_output@@AAE_NXZ 1003464f f i libucrt:output.obj
 0001:0003365b       ?type_case_X@?$output_processor@_WV?$stream_output_adapter@_W@__crt_stdio_output@@V?$format_validation_base@_WV?$stream_output_adapter@_W@__crt_stdio_output@@@2@@__crt_stdio_output@@AAE_NXZ 1003465b f i libucrt:output.obj
 0001:00033667       ?type_case_X@?$output_processor@_WV?$stream_output_adapter@_W@__crt_stdio_output@@V?$positional_parameter_base@_WV?$stream_output_adapter@_W@__crt_stdio_output@@@2@@__crt_stdio_output@@AAE_NXZ 10034667 f i libucrt:output.obj
 0001:00033673       ?type_case_X@?$output_processor@_WV?$stream_output_adapter@_W@__crt_stdio_output@@V?$standard_base@_WV?$stream_output_adapter@_W@__crt_stdio_output@@@2@@__crt_stdio_output@@AAE_NXZ 10034673 f i libucrt:output.obj
 0001:0003367f       ?type_case_X@?$output_processor@_WV?$string_output_adapter@_W@__crt_stdio_output@@V?$format_validation_base@_WV?$string_output_adapter@_W@__crt_stdio_output@@@2@@__crt_stdio_output@@AAE_NXZ 1003467f f i libucrt:output.obj
 0001:0003368b       ?type_case_X@?$output_processor@_WV?$string_output_adapter@_W@__crt_stdio_output@@V?$positional_parameter_base@_WV?$string_output_adapter@_W@__crt_stdio_output@@@2@@__crt_stdio_output@@AAE_NXZ 1003468b f i libucrt:output.obj
 0001:00033697       ?type_case_X@?$output_processor@_WV?$string_output_adapter@_W@__crt_stdio_output@@V?$standard_base@_WV?$string_output_adapter@_W@__crt_stdio_output@@@2@@__crt_stdio_output@@AAE_NXZ 10034697 f i libucrt:output.obj
 0001:000336a3       ?type_case_Z@?$output_processor@DV?$stream_output_adapter@D@__crt_stdio_output@@V?$format_validation_base@DV?$stream_output_adapter@D@__crt_stdio_output@@@2@@__crt_stdio_output@@AAE_NXZ 100346a3 f i libucrt:output.obj
 0001:0003371c       ?type_case_Z@?$output_processor@DV?$stream_output_adapter@D@__crt_stdio_output@@V?$positional_parameter_base@DV?$stream_output_adapter@D@__crt_stdio_output@@@2@@__crt_stdio_output@@AAE_NXZ 1003471c f i libucrt:output.obj
 0001:00033832       ?type_case_Z@?$output_processor@DV?$stream_output_adapter@D@__crt_stdio_output@@V?$standard_base@DV?$stream_output_adapter@D@__crt_stdio_output@@@2@@__crt_stdio_output@@AAE_NXZ 10034832 f i libucrt:output.obj
 0001:000338ab       ?type_case_Z@?$output_processor@DV?$string_output_adapter@D@__crt_stdio_output@@V?$format_validation_base@DV?$string_output_adapter@D@__crt_stdio_output@@@2@@__crt_stdio_output@@AAE_NXZ 100348ab f i libucrt:output.obj
 0001:00033924       ?type_case_Z@?$output_processor@DV?$string_output_adapter@D@__crt_stdio_output@@V?$positional_parameter_base@DV?$string_output_adapter@D@__crt_stdio_output@@@2@@__crt_stdio_output@@AAE_NXZ 10034924 f i libucrt:output.obj
 0001:00033a3a       ?type_case_Z@?$output_processor@DV?$string_output_adapter@D@__crt_stdio_output@@V?$standard_base@DV?$string_output_adapter@D@__crt_stdio_output@@@2@@__crt_stdio_output@@AAE_NXZ 10034a3a f i libucrt:output.obj
 0001:00033ab3       ?type_case_Z@?$output_processor@_WV?$stream_output_adapter@_W@__crt_stdio_output@@V?$format_validation_base@_WV?$stream_output_adapter@_W@__crt_stdio_output@@@2@@__crt_stdio_output@@AAE_NXZ 10034ab3 f i libucrt:output.obj
 0001:00033b2c       ?type_case_Z@?$output_processor@_WV?$stream_output_adapter@_W@__crt_stdio_output@@V?$positional_parameter_base@_WV?$stream_output_adapter@_W@__crt_stdio_output@@@2@@__crt_stdio_output@@AAE_NXZ 10034b2c f i libucrt:output.obj
 0001:00033c42       ?type_case_Z@?$output_processor@_WV?$stream_output_adapter@_W@__crt_stdio_output@@V?$standard_base@_WV?$stream_output_adapter@_W@__crt_stdio_output@@@2@@__crt_stdio_output@@AAE_NXZ 10034c42 f i libucrt:output.obj
 0001:00033cbb       ?type_case_Z@?$output_processor@_WV?$string_output_adapter@_W@__crt_stdio_output@@V?$format_validation_base@_WV?$string_output_adapter@_W@__crt_stdio_output@@@2@@__crt_stdio_output@@AAE_NXZ 10034cbb f i libucrt:output.obj
 0001:00033d34       ?type_case_Z@?$output_processor@_WV?$string_output_adapter@_W@__crt_stdio_output@@V?$positional_parameter_base@_WV?$string_output_adapter@_W@__crt_stdio_output@@@2@@__crt_stdio_output@@AAE_NXZ 10034d34 f i libucrt:output.obj
 0001:00033e4a       ?type_case_Z@?$output_processor@_WV?$string_output_adapter@_W@__crt_stdio_output@@V?$standard_base@_WV?$string_output_adapter@_W@__crt_stdio_output@@@2@@__crt_stdio_output@@AAE_NXZ 10034e4a f i libucrt:output.obj
 0001:00033ec3       ?type_case_a@?$output_processor@DV?$stream_output_adapter@D@__crt_stdio_output@@V?$format_validation_base@DV?$stream_output_adapter@D@__crt_stdio_output@@@2@@__crt_stdio_output@@AAE_NXZ 10034ec3 f i libucrt:output.obj
 0001:00034072       ?type_case_a@?$output_processor@DV?$stream_output_adapter@D@__crt_stdio_output@@V?$positional_parameter_base@DV?$stream_output_adapter@D@__crt_stdio_output@@@2@@__crt_stdio_output@@AAE_NXZ 10035072 f i libucrt:output.obj
 0001:00034248       ?type_case_a@?$output_processor@DV?$stream_output_adapter@D@__crt_stdio_output@@V?$standard_base@DV?$stream_output_adapter@D@__crt_stdio_output@@@2@@__crt_stdio_output@@AAE_NXZ 10035248 f i libucrt:output.obj
 0001:000343f7       ?type_case_a@?$output_processor@DV?$string_output_adapter@D@__crt_stdio_output@@V?$format_validation_base@DV?$string_output_adapter@D@__crt_stdio_output@@@2@@__crt_stdio_output@@AAE_NXZ 100353f7 f i libucrt:output.obj
 0001:000345a6       ?type_case_a@?$output_processor@DV?$string_output_adapter@D@__crt_stdio_output@@V?$positional_parameter_base@DV?$string_output_adapter@D@__crt_stdio_output@@@2@@__crt_stdio_output@@AAE_NXZ 100355a6 f i libucrt:output.obj
 0001:0003477c       ?type_case_a@?$output_processor@DV?$string_output_adapter@D@__crt_stdio_output@@V?$standard_base@DV?$string_output_adapter@D@__crt_stdio_output@@@2@@__crt_stdio_output@@AAE_NXZ 1003577c f i libucrt:output.obj
 0001:0003492b       ?type_case_a@?$output_processor@_WV?$stream_output_adapter@_W@__crt_stdio_output@@V?$format_validation_base@_WV?$stream_output_adapter@_W@__crt_stdio_output@@@2@@__crt_stdio_output@@AAE_NXZ 1003592b f i libucrt:output.obj
 0001:00034af5       ?type_case_a@?$output_processor@_WV?$stream_output_adapter@_W@__crt_stdio_output@@V?$positional_parameter_base@_WV?$stream_output_adapter@_W@__crt_stdio_output@@@2@@__crt_stdio_output@@AAE_NXZ 10035af5 f i libucrt:output.obj
 0001:00034ce6       ?type_case_a@?$output_processor@_WV?$stream_output_adapter@_W@__crt_stdio_output@@V?$standard_base@_WV?$stream_output_adapter@_W@__crt_stdio_output@@@2@@__crt_stdio_output@@AAE_NXZ 10035ce6 f i libucrt:output.obj
 0001:00034eb0       ?type_case_a@?$output_processor@_WV?$string_output_adapter@_W@__crt_stdio_output@@V?$format_validation_base@_WV?$string_output_adapter@_W@__crt_stdio_output@@@2@@__crt_stdio_output@@AAE_NXZ 10035eb0 f i libucrt:output.obj
 0001:0003507a       ?type_case_a@?$output_processor@_WV?$string_output_adapter@_W@__crt_stdio_output@@V?$positional_parameter_base@_WV?$string_output_adapter@_W@__crt_stdio_output@@@2@@__crt_stdio_output@@AAE_NXZ 1003607a f i libucrt:output.obj
 0001:0003526b       ?type_case_a@?$output_processor@_WV?$string_output_adapter@_W@__crt_stdio_output@@V?$standard_base@_WV?$string_output_adapter@_W@__crt_stdio_output@@@2@@__crt_stdio_output@@AAE_NXZ 1003626b f i libucrt:output.obj
 0001:00035435       ?type_case_c@?$output_processor@DV?$stream_output_adapter@D@__crt_stdio_output@@V?$format_validation_base@DV?$stream_output_adapter@D@__crt_stdio_output@@@2@@__crt_stdio_output@@AAE_NXZ 10036435 f i libucrt:output.obj
 0001:0003543f       ?type_case_c@?$output_processor@DV?$stream_output_adapter@D@__crt_stdio_output@@V?$positional_parameter_base@DV?$stream_output_adapter@D@__crt_stdio_output@@@2@@__crt_stdio_output@@AAE_NXZ 1003643f f i libucrt:output.obj
 0001:00035449       ?type_case_c@?$output_processor@DV?$stream_output_adapter@D@__crt_stdio_output@@V?$standard_base@DV?$stream_output_adapter@D@__crt_stdio_output@@@2@@__crt_stdio_output@@AAE_NXZ 10036449 f i libucrt:output.obj
 0001:00035453       ?type_case_c@?$output_processor@DV?$string_output_adapter@D@__crt_stdio_output@@V?$format_validation_base@DV?$string_output_adapter@D@__crt_stdio_output@@@2@@__crt_stdio_output@@AAE_NXZ 10036453 f i libucrt:output.obj
 0001:0003545d       ?type_case_c@?$output_processor@DV?$string_output_adapter@D@__crt_stdio_output@@V?$positional_parameter_base@DV?$string_output_adapter@D@__crt_stdio_output@@@2@@__crt_stdio_output@@AAE_NXZ 1003645d f i libucrt:output.obj
 0001:00035467       ?type_case_c@?$output_processor@DV?$string_output_adapter@D@__crt_stdio_output@@V?$standard_base@DV?$string_output_adapter@D@__crt_stdio_output@@@2@@__crt_stdio_output@@AAE_NXZ 10036467 f i libucrt:output.obj
 0001:00035471       ?type_case_c@?$output_processor@_WV?$stream_output_adapter@_W@__crt_stdio_output@@V?$format_validation_base@_WV?$stream_output_adapter@_W@__crt_stdio_output@@@2@@__crt_stdio_output@@AAE_NXZ 10036471 f i libucrt:output.obj
 0001:0003547b       ?type_case_c@?$output_processor@_WV?$stream_output_adapter@_W@__crt_stdio_output@@V?$positional_parameter_base@_WV?$stream_output_adapter@_W@__crt_stdio_output@@@2@@__crt_stdio_output@@AAE_NXZ 1003647b f i libucrt:output.obj
 0001:00035485       ?type_case_c@?$output_processor@_WV?$stream_output_adapter@_W@__crt_stdio_output@@V?$standard_base@_WV?$stream_output_adapter@_W@__crt_stdio_output@@@2@@__crt_stdio_output@@AAE_NXZ 10036485 f i libucrt:output.obj
 0001:0003548f       ?type_case_c@?$output_processor@_WV?$string_output_adapter@_W@__crt_stdio_output@@V?$format_validation_base@_WV?$string_output_adapter@_W@__crt_stdio_output@@@2@@__crt_stdio_output@@AAE_NXZ 1003648f f i libucrt:output.obj
 0001:00035499       ?type_case_c@?$output_processor@_WV?$string_output_adapter@_W@__crt_stdio_output@@V?$positional_parameter_base@_WV?$string_output_adapter@_W@__crt_stdio_output@@@2@@__crt_stdio_output@@AAE_NXZ 10036499 f i libucrt:output.obj
 0001:000354a3       ?type_case_c@?$output_processor@_WV?$string_output_adapter@_W@__crt_stdio_output@@V?$standard_base@_WV?$string_output_adapter@_W@__crt_stdio_output@@@2@@__crt_stdio_output@@AAE_NXZ 100364a3 f i libucrt:output.obj
 0001:000354ad       ?type_case_c_tchar@?$output_processor@DV?$stream_output_adapter@D@__crt_stdio_output@@V?$format_validation_base@DV?$stream_output_adapter@D@__crt_stdio_output@@@2@@__crt_stdio_output@@AAE_ND@Z 100364ad f i libucrt:output.obj
 0001:00035561       ?type_case_c_tchar@?$output_processor@DV?$stream_output_adapter@D@__crt_stdio_output@@V?$positional_parameter_base@DV?$stream_output_adapter@D@__crt_stdio_output@@@2@@__crt_stdio_output@@AAE_ND@Z 10036561 f i libucrt:output.obj
 0001:00035651       ?type_case_c_tchar@?$output_processor@DV?$stream_output_adapter@D@__crt_stdio_output@@V?$standard_base@DV?$stream_output_adapter@D@__crt_stdio_output@@@2@@__crt_stdio_output@@AAE_ND@Z 10036651 f i libucrt:output.obj
 0001:00035705       ?type_case_c_tchar@?$output_processor@DV?$string_output_adapter@D@__crt_stdio_output@@V?$format_validation_base@DV?$string_output_adapter@D@__crt_stdio_output@@@2@@__crt_stdio_output@@AAE_ND@Z 10036705 f i libucrt:output.obj
 0001:000357b9       ?type_case_c_tchar@?$output_processor@DV?$string_output_adapter@D@__crt_stdio_output@@V?$positional_parameter_base@DV?$string_output_adapter@D@__crt_stdio_output@@@2@@__crt_stdio_output@@AAE_ND@Z 100367b9 f i libucrt:output.obj
 0001:000358a9       ?type_case_c_tchar@?$output_processor@DV?$string_output_adapter@D@__crt_stdio_output@@V?$standard_base@DV?$string_output_adapter@D@__crt_stdio_output@@@2@@__crt_stdio_output@@AAE_ND@Z 100368a9 f i libucrt:output.obj
 0001:0003595d       ?type_case_c_tchar@?$output_processor@_WV?$stream_output_adapter@_W@__crt_stdio_output@@V?$format_validation_base@_WV?$stream_output_adapter@_W@__crt_stdio_output@@@2@@__crt_stdio_output@@AAE_N_W@Z 1003695d f i libucrt:output.obj
 0001:00035a1b       ?type_case_c_tchar@?$output_processor@_WV?$stream_output_adapter@_W@__crt_stdio_output@@V?$positional_parameter_base@_WV?$stream_output_adapter@_W@__crt_stdio_output@@@2@@__crt_stdio_output@@AAE_N_W@Z 10036a1b f i libucrt:output.obj
 0001:00035af5       ?type_case_c_tchar@?$output_processor@_WV?$stream_output_adapter@_W@__crt_stdio_output@@V?$standard_base@_WV?$stream_output_adapter@_W@__crt_stdio_output@@@2@@__crt_stdio_output@@AAE_N_W@Z 10036af5 f i libucrt:output.obj
 0001:00035bb3       ?type_case_c_tchar@?$output_processor@_WV?$string_output_adapter@_W@__crt_stdio_output@@V?$format_validation_base@_WV?$string_output_adapter@_W@__crt_stdio_output@@@2@@__crt_stdio_output@@AAE_N_W@Z 10036bb3 f i libucrt:output.obj
 0001:00035c71       ?type_case_c_tchar@?$output_processor@_WV?$string_output_adapter@_W@__crt_stdio_output@@V?$positional_parameter_base@_WV?$string_output_adapter@_W@__crt_stdio_output@@@2@@__crt_stdio_output@@AAE_N_W@Z 10036c71 f i libucrt:output.obj
 0001:00035d4b       ?type_case_c_tchar@?$output_processor@_WV?$string_output_adapter@_W@__crt_stdio_output@@V?$standard_base@_WV?$string_output_adapter@_W@__crt_stdio_output@@@2@@__crt_stdio_output@@AAE_N_W@Z 10036d4b f i libucrt:output.obj
 0001:00035e09       ?type_case_d@?$output_processor@DV?$stream_output_adapter@D@__crt_stdio_output@@V?$format_validation_base@DV?$stream_output_adapter@D@__crt_stdio_output@@@2@@__crt_stdio_output@@AAE_NXZ 10036e09 f i libucrt:output.obj
 0001:00035e1a       ?type_case_d@?$output_processor@DV?$stream_output_adapter@D@__crt_stdio_output@@V?$positional_parameter_base@DV?$stream_output_adapter@D@__crt_stdio_output@@@2@@__crt_stdio_output@@AAE_NXZ 10036e1a f i libucrt:output.obj
 0001:00035e2b       ?type_case_d@?$output_processor@DV?$stream_output_adapter@D@__crt_stdio_output@@V?$standard_base@DV?$stream_output_adapter@D@__crt_stdio_output@@@2@@__crt_stdio_output@@AAE_NXZ 10036e2b f i libucrt:output.obj
 0001:00035e3c       ?type_case_d@?$output_processor@DV?$string_output_adapter@D@__crt_stdio_output@@V?$format_validation_base@DV?$string_output_adapter@D@__crt_stdio_output@@@2@@__crt_stdio_output@@AAE_NXZ 10036e3c f i libucrt:output.obj
 0001:00035e4d       ?type_case_d@?$output_processor@DV?$string_output_adapter@D@__crt_stdio_output@@V?$positional_parameter_base@DV?$string_output_adapter@D@__crt_stdio_output@@@2@@__crt_stdio_output@@AAE_NXZ 10036e4d f i libucrt:output.obj
 0001:00035e5e       ?type_case_d@?$output_processor@DV?$string_output_adapter@D@__crt_stdio_output@@V?$standard_base@DV?$string_output_adapter@D@__crt_stdio_output@@@2@@__crt_stdio_output@@AAE_NXZ 10036e5e f i libucrt:output.obj
 0001:00035e6f       ?type_case_d@?$output_processor@_WV?$stream_output_adapter@_W@__crt_stdio_output@@V?$format_validation_base@_WV?$stream_output_adapter@_W@__crt_stdio_output@@@2@@__crt_stdio_output@@AAE_NXZ 10036e6f f i libucrt:output.obj
 0001:00035e80       ?type_case_d@?$output_processor@_WV?$stream_output_adapter@_W@__crt_stdio_output@@V?$positional_parameter_base@_WV?$stream_output_adapter@_W@__crt_stdio_output@@@2@@__crt_stdio_output@@AAE_NXZ 10036e80 f i libucrt:output.obj
 0001:00035e91       ?type_case_d@?$output_processor@_WV?$stream_output_adapter@_W@__crt_stdio_output@@V?$standard_base@_WV?$stream_output_adapter@_W@__crt_stdio_output@@@2@@__crt_stdio_output@@AAE_NXZ 10036e91 f i libucrt:output.obj
 0001:00035ea2       ?type_case_d@?$output_processor@_WV?$string_output_adapter@_W@__crt_stdio_output@@V?$format_validation_base@_WV?$string_output_adapter@_W@__crt_stdio_output@@@2@@__crt_stdio_output@@AAE_NXZ 10036ea2 f i libucrt:output.obj
 0001:00035eb3       ?type_case_d@?$output_processor@_WV?$string_output_adapter@_W@__crt_stdio_output@@V?$positional_parameter_base@_WV?$string_output_adapter@_W@__crt_stdio_output@@@2@@__crt_stdio_output@@AAE_NXZ 10036eb3 f i libucrt:output.obj
 0001:00035ec4       ?type_case_d@?$output_processor@_WV?$string_output_adapter@_W@__crt_stdio_output@@V?$standard_base@_WV?$string_output_adapter@_W@__crt_stdio_output@@@2@@__crt_stdio_output@@AAE_NXZ 10036ec4 f i libucrt:output.obj
 0001:00035ed5       ?type_case_integer@?$output_processor@DV?$stream_output_adapter@D@__crt_stdio_output@@V?$format_validation_base@DV?$stream_output_adapter@D@__crt_stdio_output@@@2@@__crt_stdio_output@@AAE_NI_N@Z 10036ed5 f i libucrt:output.obj
 0001:0003607c       ?type_case_integer@?$output_processor@DV?$stream_output_adapter@D@__crt_stdio_output@@V?$positional_parameter_base@DV?$stream_output_adapter@D@__crt_stdio_output@@@2@@__crt_stdio_output@@AAE_NI_N@Z 1003707c f i libucrt:output.obj
 0001:0003625f       ?type_case_integer@?$output_processor@DV?$stream_output_adapter@D@__crt_stdio_output@@V?$standard_base@DV?$stream_output_adapter@D@__crt_stdio_output@@@2@@__crt_stdio_output@@AAE_NI_N@Z 1003725f f i libucrt:output.obj
 0001:00036406       ?type_case_integer@?$output_processor@DV?$string_output_adapter@D@__crt_stdio_output@@V?$format_validation_base@DV?$string_output_adapter@D@__crt_stdio_output@@@2@@__crt_stdio_output@@AAE_NI_N@Z 10037406 f i libucrt:output.obj
 0001:000365ad       ?type_case_integer@?$output_processor@DV?$string_output_adapter@D@__crt_stdio_output@@V?$positional_parameter_base@DV?$string_output_adapter@D@__crt_stdio_output@@@2@@__crt_stdio_output@@AAE_NI_N@Z 100375ad f i libucrt:output.obj
 0001:00036790       ?type_case_integer@?$output_processor@DV?$string_output_adapter@D@__crt_stdio_output@@V?$standard_base@DV?$string_output_adapter@D@__crt_stdio_output@@@2@@__crt_stdio_output@@AAE_NI_N@Z 10037790 f i libucrt:output.obj
 0001:00036937       ?type_case_integer@?$output_processor@_WV?$stream_output_adapter@_W@__crt_stdio_output@@V?$format_validation_base@_WV?$stream_output_adapter@_W@__crt_stdio_output@@@2@@__crt_stdio_output@@AAE_NI_N@Z 10037937 f i libucrt:output.obj
 0001:00036ae3       ?type_case_integer@?$output_processor@_WV?$stream_output_adapter@_W@__crt_stdio_output@@V?$positional_parameter_base@_WV?$stream_output_adapter@_W@__crt_stdio_output@@@2@@__crt_stdio_output@@AAE_NI_N@Z 10037ae3 f i libucrt:output.obj
 0001:00036ccb       ?type_case_integer@?$output_processor@_WV?$stream_output_adapter@_W@__crt_stdio_output@@V?$standard_base@_WV?$stream_output_adapter@_W@__crt_stdio_output@@@2@@__crt_stdio_output@@AAE_NI_N@Z 10037ccb f i libucrt:output.obj
 0001:00036e77       ?type_case_integer@?$output_processor@_WV?$string_output_adapter@_W@__crt_stdio_output@@V?$format_validation_base@_WV?$string_output_adapter@_W@__crt_stdio_output@@@2@@__crt_stdio_output@@AAE_NI_N@Z 10037e77 f i libucrt:output.obj
 0001:00037023       ?type_case_integer@?$output_processor@_WV?$string_output_adapter@_W@__crt_stdio_output@@V?$positional_parameter_base@_WV?$string_output_adapter@_W@__crt_stdio_output@@@2@@__crt_stdio_output@@AAE_NI_N@Z 10038023 f i libucrt:output.obj
 0001:0003720b       ?type_case_integer@?$output_processor@_WV?$string_output_adapter@_W@__crt_stdio_output@@V?$standard_base@_WV?$string_output_adapter@_W@__crt_stdio_output@@@2@@__crt_stdio_output@@AAE_NI_N@Z 1003820b f i libucrt:output.obj
 0001:000373b7       ?type_case_n@?$output_processor@DV?$stream_output_adapter@D@__crt_stdio_output@@V?$format_validation_base@DV?$stream_output_adapter@D@__crt_stdio_output@@@2@@__crt_stdio_output@@AAE_NXZ 100383b7 f i libucrt:output.obj
 0001:00037448       ?type_case_n@?$output_processor@DV?$stream_output_adapter@D@__crt_stdio_output@@V?$positional_parameter_base@DV?$stream_output_adapter@D@__crt_stdio_output@@@2@@__crt_stdio_output@@AAE_NXZ 10038448 f i libucrt:output.obj
 0001:00037507       ?type_case_n@?$output_processor@DV?$stream_output_adapter@D@__crt_stdio_output@@V?$standard_base@DV?$stream_output_adapter@D@__crt_stdio_output@@@2@@__crt_stdio_output@@AAE_NXZ 10038507 f i libucrt:output.obj
 0001:00037598       ?type_case_n@?$output_processor@DV?$string_output_adapter@D@__crt_stdio_output@@V?$format_validation_base@DV?$string_output_adapter@D@__crt_stdio_output@@@2@@__crt_stdio_output@@AAE_NXZ 10038598 f i libucrt:output.obj
 0001:00037629       ?type_case_n@?$output_processor@DV?$string_output_adapter@D@__crt_stdio_output@@V?$positional_parameter_base@DV?$string_output_adapter@D@__crt_stdio_output@@@2@@__crt_stdio_output@@AAE_NXZ 10038629 f i libucrt:output.obj
 0001:000376e8       ?type_case_n@?$output_processor@DV?$string_output_adapter@D@__crt_stdio_output@@V?$standard_base@DV?$string_output_adapter@D@__crt_stdio_output@@@2@@__crt_stdio_output@@AAE_NXZ 100386e8 f i libucrt:output.obj
 0001:00037779       ?type_case_n@?$output_processor@_WV?$stream_output_adapter@_W@__crt_stdio_output@@V?$format_validation_base@_WV?$stream_output_adapter@_W@__crt_stdio_output@@@2@@__crt_stdio_output@@AAE_NXZ 10038779 f i libucrt:output.obj
 0001:0003780a       ?type_case_n@?$output_processor@_WV?$stream_output_adapter@_W@__crt_stdio_output@@V?$positional_parameter_base@_WV?$stream_output_adapter@_W@__crt_stdio_output@@@2@@__crt_stdio_output@@AAE_NXZ 1003880a f i libucrt:output.obj
 0001:000378c9       ?type_case_n@?$output_processor@_WV?$stream_output_adapter@_W@__crt_stdio_output@@V?$standard_base@_WV?$stream_output_adapter@_W@__crt_stdio_output@@@2@@__crt_stdio_output@@AAE_NXZ 100388c9 f i libucrt:output.obj
 0001:0003795a       ?type_case_n@?$output_processor@_WV?$string_output_adapter@_W@__crt_stdio_output@@V?$format_validation_base@_WV?$string_output_adapter@_W@__crt_stdio_output@@@2@@__crt_stdio_output@@AAE_NXZ 1003895a f i libucrt:output.obj
 0001:000379eb       ?type_case_n@?$output_processor@_WV?$string_output_adapter@_W@__crt_stdio_output@@V?$positional_parameter_base@_WV?$string_output_adapter@_W@__crt_stdio_output@@@2@@__crt_stdio_output@@AAE_NXZ 100389eb f i libucrt:output.obj
 0001:00037aaa       ?type_case_n@?$output_processor@_WV?$string_output_adapter@_W@__crt_stdio_output@@V?$standard_base@_WV?$string_output_adapter@_W@__crt_stdio_output@@@2@@__crt_stdio_output@@AAE_NXZ 10038aaa f i libucrt:output.obj
 0001:00037b3b       ?type_case_o@?$output_processor@DV?$stream_output_adapter@D@__crt_stdio_output@@V?$format_validation_base@DV?$stream_output_adapter@D@__crt_stdio_output@@@2@@__crt_stdio_output@@AAE_NXZ 10038b3b f i libucrt:output.obj
 0001:00037b61       ?type_case_o@?$output_processor@DV?$stream_output_adapter@D@__crt_stdio_output@@V?$positional_parameter_base@DV?$stream_output_adapter@D@__crt_stdio_output@@@2@@__crt_stdio_output@@AAE_NXZ 10038b61 f i libucrt:output.obj
 0001:00037b87       ?type_case_o@?$output_processor@DV?$stream_output_adapter@D@__crt_stdio_output@@V?$standard_base@DV?$stream_output_adapter@D@__crt_stdio_output@@@2@@__crt_stdio_output@@AAE_NXZ 10038b87 f i libucrt:output.obj
 0001:00037bad       ?type_case_o@?$output_processor@DV?$string_output_adapter@D@__crt_stdio_output@@V?$format_validation_base@DV?$string_output_adapter@D@__crt_stdio_output@@@2@@__crt_stdio_output@@AAE_NXZ 10038bad f i libucrt:output.obj
 0001:00037bd3       ?type_case_o@?$output_processor@DV?$string_output_adapter@D@__crt_stdio_output@@V?$positional_parameter_base@DV?$string_output_adapter@D@__crt_stdio_output@@@2@@__crt_stdio_output@@AAE_NXZ 10038bd3 f i libucrt:output.obj
 0001:00037bf9       ?type_case_o@?$output_processor@DV?$string_output_adapter@D@__crt_stdio_output@@V?$standard_base@DV?$string_output_adapter@D@__crt_stdio_output@@@2@@__crt_stdio_output@@AAE_NXZ 10038bf9 f i libucrt:output.obj
 0001:00037c1f       ?type_case_o@?$output_processor@_WV?$stream_output_adapter@_W@__crt_stdio_output@@V?$format_validation_base@_WV?$stream_output_adapter@_W@__crt_stdio_output@@@2@@__crt_stdio_output@@AAE_NXZ 10038c1f f i libucrt:output.obj
 0001:00037c45       ?type_case_o@?$output_processor@_WV?$stream_output_adapter@_W@__crt_stdio_output@@V?$positional_parameter_base@_WV?$stream_output_adapter@_W@__crt_stdio_output@@@2@@__crt_stdio_output@@AAE_NXZ 10038c45 f i libucrt:output.obj
 0001:00037c6b       ?type_case_o@?$output_processor@_WV?$stream_output_adapter@_W@__crt_stdio_output@@V?$standard_base@_WV?$stream_output_adapter@_W@__crt_stdio_output@@@2@@__crt_stdio_output@@AAE_NXZ 10038c6b f i libucrt:output.obj
 0001:00037c91       ?type_case_o@?$output_processor@_WV?$string_output_adapter@_W@__crt_stdio_output@@V?$format_validation_base@_WV?$string_output_adapter@_W@__crt_stdio_output@@@2@@__crt_stdio_output@@AAE_NXZ 10038c91 f i libucrt:output.obj
 0001:00037cb7       ?type_case_o@?$output_processor@_WV?$string_output_adapter@_W@__crt_stdio_output@@V?$positional_parameter_base@_WV?$string_output_adapter@_W@__crt_stdio_output@@@2@@__crt_stdio_output@@AAE_NXZ 10038cb7 f i libucrt:output.obj
 0001:00037cdd       ?type_case_o@?$output_processor@_WV?$string_output_adapter@_W@__crt_stdio_output@@V?$standard_base@_WV?$string_output_adapter@_W@__crt_stdio_output@@@2@@__crt_stdio_output@@AAE_NXZ 10038cdd f i libucrt:output.obj
 0001:00037d03       ?type_case_p@?$output_processor@DV?$stream_output_adapter@D@__crt_stdio_output@@V?$format_validation_base@DV?$stream_output_adapter@D@__crt_stdio_output@@@2@@__crt_stdio_output@@AAE_NXZ 10038d03 f i libucrt:output.obj
 0001:00037d21       ?type_case_p@?$output_processor@DV?$stream_output_adapter@D@__crt_stdio_output@@V?$positional_parameter_base@DV?$stream_output_adapter@D@__crt_stdio_output@@@2@@__crt_stdio_output@@AAE_NXZ 10038d21 f i libucrt:output.obj
 0001:00037d3f       ?type_case_p@?$output_processor@DV?$stream_output_adapter@D@__crt_stdio_output@@V?$standard_base@DV?$stream_output_adapter@D@__crt_stdio_output@@@2@@__crt_stdio_output@@AAE_NXZ 10038d3f f i libucrt:output.obj
 0001:00037d5d       ?type_case_p@?$output_processor@DV?$string_output_adapter@D@__crt_stdio_output@@V?$format_validation_base@DV?$string_output_adapter@D@__crt_stdio_output@@@2@@__crt_stdio_output@@AAE_NXZ 10038d5d f i libucrt:output.obj
 0001:00037d7b       ?type_case_p@?$output_processor@DV?$string_output_adapter@D@__crt_stdio_output@@V?$positional_parameter_base@DV?$string_output_adapter@D@__crt_stdio_output@@@2@@__crt_stdio_output@@AAE_NXZ 10038d7b f i libucrt:output.obj
 0001:00037d99       ?type_case_p@?$output_processor@DV?$string_output_adapter@D@__crt_stdio_output@@V?$standard_base@DV?$string_output_adapter@D@__crt_stdio_output@@@2@@__crt_stdio_output@@AAE_NXZ 10038d99 f i libucrt:output.obj
 0001:00037db7       ?type_case_p@?$output_processor@_WV?$stream_output_adapter@_W@__crt_stdio_output@@V?$format_validation_base@_WV?$stream_output_adapter@_W@__crt_stdio_output@@@2@@__crt_stdio_output@@AAE_NXZ 10038db7 f i libucrt:output.obj
 0001:00037dd5       ?type_case_p@?$output_processor@_WV?$stream_output_adapter@_W@__crt_stdio_output@@V?$positional_parameter_base@_WV?$stream_output_adapter@_W@__crt_stdio_output@@@2@@__crt_stdio_output@@AAE_NXZ 10038dd5 f i libucrt:output.obj
 0001:00037df3       ?type_case_p@?$output_processor@_WV?$stream_output_adapter@_W@__crt_stdio_output@@V?$standard_base@_WV?$stream_output_adapter@_W@__crt_stdio_output@@@2@@__crt_stdio_output@@AAE_NXZ 10038df3 f i libucrt:output.obj
 0001:00037e11       ?type_case_p@?$output_processor@_WV?$string_output_adapter@_W@__crt_stdio_output@@V?$format_validation_base@_WV?$string_output_adapter@_W@__crt_stdio_output@@@2@@__crt_stdio_output@@AAE_NXZ 10038e11 f i libucrt:output.obj
 0001:00037e2f       ?type_case_p@?$output_processor@_WV?$string_output_adapter@_W@__crt_stdio_output@@V?$positional_parameter_base@_WV?$string_output_adapter@_W@__crt_stdio_output@@@2@@__crt_stdio_output@@AAE_NXZ 10038e2f f i libucrt:output.obj
 0001:00037e4d       ?type_case_p@?$output_processor@_WV?$string_output_adapter@_W@__crt_stdio_output@@V?$standard_base@_WV?$string_output_adapter@_W@__crt_stdio_output@@@2@@__crt_stdio_output@@AAE_NXZ 10038e4d f i libucrt:output.obj
 0001:00037e6b       ?type_case_s@?$output_processor@DV?$stream_output_adapter@D@__crt_stdio_output@@V?$format_validation_base@DV?$stream_output_adapter@D@__crt_stdio_output@@@2@@__crt_stdio_output@@AAE_NXZ 10038e6b f i libucrt:output.obj
 0001:00037ef8       ?type_case_s@?$output_processor@DV?$stream_output_adapter@D@__crt_stdio_output@@V?$positional_parameter_base@DV?$stream_output_adapter@D@__crt_stdio_output@@@2@@__crt_stdio_output@@AAE_NXZ 10038ef8 f i libucrt:output.obj
 0001:00037f95       ?type_case_s@?$output_processor@DV?$stream_output_adapter@D@__crt_stdio_output@@V?$standard_base@DV?$stream_output_adapter@D@__crt_stdio_output@@@2@@__crt_stdio_output@@AAE_NXZ 10038f95 f i libucrt:output.obj
 0001:00038022       ?type_case_s@?$output_processor@DV?$string_output_adapter@D@__crt_stdio_output@@V?$format_validation_base@DV?$string_output_adapter@D@__crt_stdio_output@@@2@@__crt_stdio_output@@AAE_NXZ 10039022 f i libucrt:output.obj
 0001:000380af       ?type_case_s@?$output_processor@DV?$string_output_adapter@D@__crt_stdio_output@@V?$positional_parameter_base@DV?$string_output_adapter@D@__crt_stdio_output@@@2@@__crt_stdio_output@@AAE_NXZ 100390af f i libucrt:output.obj
 0001:0003814c       ?type_case_s@?$output_processor@DV?$string_output_adapter@D@__crt_stdio_output@@V?$standard_base@DV?$string_output_adapter@D@__crt_stdio_output@@@2@@__crt_stdio_output@@AAE_NXZ 1003914c f i libucrt:output.obj
 0001:000381d9       ?type_case_s@?$output_processor@_WV?$stream_output_adapter@_W@__crt_stdio_output@@V?$format_validation_base@_WV?$stream_output_adapter@_W@__crt_stdio_output@@@2@@__crt_stdio_output@@AAE_NXZ 100391d9 f i libucrt:output.obj
 0001:00038268       ?type_case_s@?$output_processor@_WV?$stream_output_adapter@_W@__crt_stdio_output@@V?$positional_parameter_base@_WV?$stream_output_adapter@_W@__crt_stdio_output@@@2@@__crt_stdio_output@@AAE_NXZ 10039268 f i libucrt:output.obj
 0001:00038308       ?type_case_s@?$output_processor@_WV?$stream_output_adapter@_W@__crt_stdio_output@@V?$standard_base@_WV?$stream_output_adapter@_W@__crt_stdio_output@@@2@@__crt_stdio_output@@AAE_NXZ 10039308 f i libucrt:output.obj
 0001:00038397       ?type_case_s@?$output_processor@_WV?$string_output_adapter@_W@__crt_stdio_output@@V?$format_validation_base@_WV?$string_output_adapter@_W@__crt_stdio_output@@@2@@__crt_stdio_output@@AAE_NXZ 10039397 f i libucrt:output.obj
 0001:00038426       ?type_case_s@?$output_processor@_WV?$string_output_adapter@_W@__crt_stdio_output@@V?$positional_parameter_base@_WV?$string_output_adapter@_W@__crt_stdio_output@@@2@@__crt_stdio_output@@AAE_NXZ 10039426 f i libucrt:output.obj
 0001:000384c6       ?type_case_s@?$output_processor@_WV?$string_output_adapter@_W@__crt_stdio_output@@V?$standard_base@_WV?$string_output_adapter@_W@__crt_stdio_output@@@2@@__crt_stdio_output@@AAE_NXZ 100394c6 f i libucrt:output.obj
 0001:00038555       ?type_case_s_compute_narrow_string_length@?$output_processor@DV?$stream_output_adapter@D@__crt_stdio_output@@V?$format_validation_base@DV?$stream_output_adapter@D@__crt_stdio_output@@@2@@__crt_stdio_output@@ABEHHD@Z 10039555 f i libucrt:output.obj
 0001:00038570       ?type_case_s_compute_narrow_string_length@?$output_processor@DV?$stream_output_adapter@D@__crt_stdio_output@@V?$positional_parameter_base@DV?$stream_output_adapter@D@__crt_stdio_output@@@2@@__crt_stdio_output@@ABEHHD@Z 10039570 f i libucrt:output.obj
 0001:0003858b       ?type_case_s_compute_narrow_string_length@?$output_processor@DV?$stream_output_adapter@D@__crt_stdio_output@@V?$standard_base@DV?$stream_output_adapter@D@__crt_stdio_output@@@2@@__crt_stdio_output@@ABEHHD@Z 1003958b f i libucrt:output.obj
 0001:000385a6       ?type_case_s_compute_narrow_string_length@?$output_processor@DV?$string_output_adapter@D@__crt_stdio_output@@V?$format_validation_base@DV?$string_output_adapter@D@__crt_stdio_output@@@2@@__crt_stdio_output@@ABEHHD@Z 100395a6 f i libucrt:output.obj
 0001:000385c1       ?type_case_s_compute_narrow_string_length@?$output_processor@DV?$string_output_adapter@D@__crt_stdio_output@@V?$positional_parameter_base@DV?$string_output_adapter@D@__crt_stdio_output@@@2@@__crt_stdio_output@@ABEHHD@Z 100395c1 f i libucrt:output.obj
 0001:000385dc       ?type_case_s_compute_narrow_string_length@?$output_processor@DV?$string_output_adapter@D@__crt_stdio_output@@V?$standard_base@DV?$string_output_adapter@D@__crt_stdio_output@@@2@@__crt_stdio_output@@ABEHHD@Z 100395dc f i libucrt:output.obj
 0001:000385f7       ?type_case_s_compute_narrow_string_length@?$output_processor@_WV?$stream_output_adapter@_W@__crt_stdio_output@@V?$format_validation_base@_WV?$stream_output_adapter@_W@__crt_stdio_output@@@2@@__crt_stdio_output@@ABEHH_W@Z 100395f7 f i libucrt:output.obj
 0001:00038643       ?type_case_s_compute_narrow_string_length@?$output_processor@_WV?$stream_output_adapter@_W@__crt_stdio_output@@V?$positional_parameter_base@_WV?$stream_output_adapter@_W@__crt_stdio_output@@@2@@__crt_stdio_output@@ABEHH_W@Z 10039643 f i libucrt:output.obj
 0001:0003868f       ?type_case_s_compute_narrow_string_length@?$output_processor@_WV?$stream_output_adapter@_W@__crt_stdio_output@@V?$standard_base@_WV?$stream_output_adapter@_W@__crt_stdio_output@@@2@@__crt_stdio_output@@ABEHH_W@Z 1003968f f i libucrt:output.obj
 0001:000386db       ?type_case_s_compute_narrow_string_length@?$output_processor@_WV?$string_output_adapter@_W@__crt_stdio_output@@V?$format_validation_base@_WV?$string_output_adapter@_W@__crt_stdio_output@@@2@@__crt_stdio_output@@ABEHH_W@Z 100396db f i libucrt:output.obj
 0001:00038727       ?type_case_s_compute_narrow_string_length@?$output_processor@_WV?$string_output_adapter@_W@__crt_stdio_output@@V?$positional_parameter_base@_WV?$string_output_adapter@_W@__crt_stdio_output@@@2@@__crt_stdio_output@@ABEHH_W@Z 10039727 f i libucrt:output.obj
 0001:00038773       ?type_case_s_compute_narrow_string_length@?$output_processor@_WV?$string_output_adapter@_W@__crt_stdio_output@@V?$standard_base@_WV?$string_output_adapter@_W@__crt_stdio_output@@@2@@__crt_stdio_output@@ABEHH_W@Z 10039773 f i libucrt:output.obj
 0001:000387bf       ?type_case_u@?$output_processor@DV?$stream_output_adapter@D@__crt_stdio_output@@V?$format_validation_base@DV?$stream_output_adapter@D@__crt_stdio_output@@@2@@__crt_stdio_output@@AAE_NXZ 100397bf f i libucrt:output.obj
 0001:000387cb       ?type_case_u@?$output_processor@DV?$stream_output_adapter@D@__crt_stdio_output@@V?$positional_parameter_base@DV?$stream_output_adapter@D@__crt_stdio_output@@@2@@__crt_stdio_output@@AAE_NXZ 100397cb f i libucrt:output.obj
 0001:000387d7       ?type_case_u@?$output_processor@DV?$stream_output_adapter@D@__crt_stdio_output@@V?$standard_base@DV?$stream_output_adapter@D@__crt_stdio_output@@@2@@__crt_stdio_output@@AAE_NXZ 100397d7 f i libucrt:output.obj
 0001:000387e3       ?type_case_u@?$output_processor@DV?$string_output_adapter@D@__crt_stdio_output@@V?$format_validation_base@DV?$string_output_adapter@D@__crt_stdio_output@@@2@@__crt_stdio_output@@AAE_NXZ 100397e3 f i libucrt:output.obj
 0001:000387ef       ?type_case_u@?$output_processor@DV?$string_output_adapter@D@__crt_stdio_output@@V?$positional_parameter_base@DV?$string_output_adapter@D@__crt_stdio_output@@@2@@__crt_stdio_output@@AAE_NXZ 100397ef f i libucrt:output.obj
 0001:000387fb       ?type_case_u@?$output_processor@DV?$string_output_adapter@D@__crt_stdio_output@@V?$standard_base@DV?$string_output_adapter@D@__crt_stdio_output@@@2@@__crt_stdio_output@@AAE_NXZ 100397fb f i libucrt:output.obj
 0001:00038807       ?type_case_u@?$output_processor@_WV?$stream_output_adapter@_W@__crt_stdio_output@@V?$format_validation_base@_WV?$stream_output_adapter@_W@__crt_stdio_output@@@2@@__crt_stdio_output@@AAE_NXZ 10039807 f i libucrt:output.obj
 0001:00038813       ?type_case_u@?$output_processor@_WV?$stream_output_adapter@_W@__crt_stdio_output@@V?$positional_parameter_base@_WV?$stream_output_adapter@_W@__crt_stdio_output@@@2@@__crt_stdio_output@@AAE_NXZ 10039813 f i libucrt:output.obj
 0001:0003881f       ?type_case_u@?$output_processor@_WV?$stream_output_adapter@_W@__crt_stdio_output@@V?$standard_base@_WV?$stream_output_adapter@_W@__crt_stdio_output@@@2@@__crt_stdio_output@@AAE_NXZ 1003981f f i libucrt:output.obj
 0001:0003882b       ?type_case_u@?$output_processor@_WV?$string_output_adapter@_W@__crt_stdio_output@@V?$format_validation_base@_WV?$string_output_adapter@_W@__crt_stdio_output@@@2@@__crt_stdio_output@@AAE_NXZ 1003982b f i libucrt:output.obj
 0001:00038837       ?type_case_u@?$output_processor@_WV?$string_output_adapter@_W@__crt_stdio_output@@V?$positional_parameter_base@_WV?$string_output_adapter@_W@__crt_stdio_output@@@2@@__crt_stdio_output@@AAE_NXZ 10039837 f i libucrt:output.obj
 0001:00038843       ?type_case_u@?$output_processor@_WV?$string_output_adapter@_W@__crt_stdio_output@@V?$standard_base@_WV?$string_output_adapter@_W@__crt_stdio_output@@@2@@__crt_stdio_output@@AAE_NXZ 10039843 f i libucrt:output.obj
 0001:0003884f       ?type_case_x@?$output_processor@DV?$stream_output_adapter@D@__crt_stdio_output@@V?$format_validation_base@DV?$stream_output_adapter@D@__crt_stdio_output@@@2@@__crt_stdio_output@@AAE_NXZ 1003984f f i libucrt:output.obj
 0001:0003885b       ?type_case_x@?$output_processor@DV?$stream_output_adapter@D@__crt_stdio_output@@V?$positional_parameter_base@DV?$stream_output_adapter@D@__crt_stdio_output@@@2@@__crt_stdio_output@@AAE_NXZ 1003985b f i libucrt:output.obj
 0001:00038867       ?type_case_x@?$output_processor@DV?$stream_output_adapter@D@__crt_stdio_output@@V?$standard_base@DV?$stream_output_adapter@D@__crt_stdio_output@@@2@@__crt_stdio_output@@AAE_NXZ 10039867 f i libucrt:output.obj
 0001:00038873       ?type_case_x@?$output_processor@DV?$string_output_adapter@D@__crt_stdio_output@@V?$format_validation_base@DV?$string_output_adapter@D@__crt_stdio_output@@@2@@__crt_stdio_output@@AAE_NXZ 10039873 f i libucrt:output.obj
 0001:0003887f       ?type_case_x@?$output_processor@DV?$string_output_adapter@D@__crt_stdio_output@@V?$positional_parameter_base@DV?$string_output_adapter@D@__crt_stdio_output@@@2@@__crt_stdio_output@@AAE_NXZ 1003987f f i libucrt:output.obj
 0001:0003888b       ?type_case_x@?$output_processor@DV?$string_output_adapter@D@__crt_stdio_output@@V?$standard_base@DV?$string_output_adapter@D@__crt_stdio_output@@@2@@__crt_stdio_output@@AAE_NXZ 1003988b f i libucrt:output.obj
 0001:00038897       ?type_case_x@?$output_processor@_WV?$stream_output_adapter@_W@__crt_stdio_output@@V?$format_validation_base@_WV?$stream_output_adapter@_W@__crt_stdio_output@@@2@@__crt_stdio_output@@AAE_NXZ 10039897 f i libucrt:output.obj
 0001:000388a3       ?type_case_x@?$output_processor@_WV?$stream_output_adapter@_W@__crt_stdio_output@@V?$positional_parameter_base@_WV?$stream_output_adapter@_W@__crt_stdio_output@@@2@@__crt_stdio_output@@AAE_NXZ 100398a3 f i libucrt:output.obj
 0001:000388af       ?type_case_x@?$output_processor@_WV?$stream_output_adapter@_W@__crt_stdio_output@@V?$standard_base@_WV?$stream_output_adapter@_W@__crt_stdio_output@@@2@@__crt_stdio_output@@AAE_NXZ 100398af f i libucrt:output.obj
 0001:000388bb       ?type_case_x@?$output_processor@_WV?$string_output_adapter@_W@__crt_stdio_output@@V?$format_validation_base@_WV?$string_output_adapter@_W@__crt_stdio_output@@@2@@__crt_stdio_output@@AAE_NXZ 100398bb f i libucrt:output.obj
 0001:000388c7       ?type_case_x@?$output_processor@_WV?$string_output_adapter@_W@__crt_stdio_output@@V?$positional_parameter_base@_WV?$string_output_adapter@_W@__crt_stdio_output@@@2@@__crt_stdio_output@@AAE_NXZ 100398c7 f i libucrt:output.obj
 0001:000388d3       ?type_case_x@?$output_processor@_WV?$string_output_adapter@_W@__crt_stdio_output@@V?$standard_base@_WV?$string_output_adapter@_W@__crt_stdio_output@@@2@@__crt_stdio_output@@AAE_NXZ 100398d3 f i libucrt:output.obj
 0001:000388df       ?unset_flag@?$output_processor@DV?$stream_output_adapter@D@__crt_stdio_output@@V?$format_validation_base@DV?$stream_output_adapter@D@__crt_stdio_output@@@2@@__crt_stdio_output@@AAEXI@Z 100398df f i libucrt:output.obj
 0001:000388f4       ?unset_flag@?$output_processor@DV?$stream_output_adapter@D@__crt_stdio_output@@V?$positional_parameter_base@DV?$stream_output_adapter@D@__crt_stdio_output@@@2@@__crt_stdio_output@@AAEXI@Z 100398f4 f i libucrt:output.obj
 0001:00038909       ?unset_flag@?$output_processor@DV?$stream_output_adapter@D@__crt_stdio_output@@V?$standard_base@DV?$stream_output_adapter@D@__crt_stdio_output@@@2@@__crt_stdio_output@@AAEXI@Z 10039909 f i libucrt:output.obj
 0001:0003891e       ?unset_flag@?$output_processor@DV?$string_output_adapter@D@__crt_stdio_output@@V?$format_validation_base@DV?$string_output_adapter@D@__crt_stdio_output@@@2@@__crt_stdio_output@@AAEXI@Z 1003991e f i libucrt:output.obj
 0001:00038933       ?unset_flag@?$output_processor@DV?$string_output_adapter@D@__crt_stdio_output@@V?$positional_parameter_base@DV?$string_output_adapter@D@__crt_stdio_output@@@2@@__crt_stdio_output@@AAEXI@Z 10039933 f i libucrt:output.obj
 0001:00038948       ?unset_flag@?$output_processor@DV?$string_output_adapter@D@__crt_stdio_output@@V?$standard_base@DV?$string_output_adapter@D@__crt_stdio_output@@@2@@__crt_stdio_output@@AAEXI@Z 10039948 f i libucrt:output.obj
 0001:0003895d       ?unset_flag@?$output_processor@_WV?$stream_output_adapter@_W@__crt_stdio_output@@V?$format_validation_base@_WV?$stream_output_adapter@_W@__crt_stdio_output@@@2@@__crt_stdio_output@@AAEXI@Z 1003995d f i libucrt:output.obj
 0001:00038972       ?unset_flag@?$output_processor@_WV?$stream_output_adapter@_W@__crt_stdio_output@@V?$positional_parameter_base@_WV?$stream_output_adapter@_W@__crt_stdio_output@@@2@@__crt_stdio_output@@AAEXI@Z 10039972 f i libucrt:output.obj
 0001:00038987       ?unset_flag@?$output_processor@_WV?$stream_output_adapter@_W@__crt_stdio_output@@V?$standard_base@_WV?$stream_output_adapter@_W@__crt_stdio_output@@@2@@__crt_stdio_output@@AAEXI@Z 10039987 f i libucrt:output.obj
 0001:0003899c       ?unset_flag@?$output_processor@_WV?$string_output_adapter@_W@__crt_stdio_output@@V?$format_validation_base@_WV?$string_output_adapter@_W@__crt_stdio_output@@@2@@__crt_stdio_output@@AAEXI@Z 1003999c f i libucrt:output.obj
 0001:000389b1       ?unset_flag@?$output_processor@_WV?$string_output_adapter@_W@__crt_stdio_output@@V?$positional_parameter_base@_WV?$string_output_adapter@_W@__crt_stdio_output@@@2@@__crt_stdio_output@@AAEXI@Z 100399b1 f i libucrt:output.obj
 0001:000389c6       ?unset_flag@?$output_processor@_WV?$string_output_adapter@_W@__crt_stdio_output@@V?$standard_base@_WV?$string_output_adapter@_W@__crt_stdio_output@@@2@@__crt_stdio_output@@AAEXI@Z 100399c6 f i libucrt:output.obj
 0001:000389db       ?update_field_width@?$positional_parameter_base@DV?$stream_output_adapter@D@__crt_stdio_output@@@__crt_stdio_output@@IAE_NXZ 100399db f i libucrt:output.obj
 0001:00038abe       ?update_field_width@?$positional_parameter_base@DV?$string_output_adapter@D@__crt_stdio_output@@@__crt_stdio_output@@IAE_NXZ 10039abe f i libucrt:output.obj
 0001:00038ba1       ?update_field_width@?$positional_parameter_base@_WV?$stream_output_adapter@_W@__crt_stdio_output@@@__crt_stdio_output@@IAE_NXZ 10039ba1 f i libucrt:output.obj
 0001:00038c85       ?update_field_width@?$positional_parameter_base@_WV?$string_output_adapter@_W@__crt_stdio_output@@@__crt_stdio_output@@IAE_NXZ 10039c85 f i libucrt:output.obj
 0001:00038d69       ?update_field_width@?$standard_base@DV?$stream_output_adapter@D@__crt_stdio_output@@@__crt_stdio_output@@IAE_NXZ 10039d69 f i libucrt:output.obj
 0001:00038d7d       ?update_field_width@?$standard_base@DV?$string_output_adapter@D@__crt_stdio_output@@@__crt_stdio_output@@IAE_NXZ 10039d7d f i libucrt:output.obj
 0001:00038d91       ?update_field_width@?$standard_base@_WV?$stream_output_adapter@_W@__crt_stdio_output@@@__crt_stdio_output@@IAE_NXZ 10039d91 f i libucrt:output.obj
 0001:00038da5       ?update_field_width@?$standard_base@_WV?$string_output_adapter@_W@__crt_stdio_output@@@__crt_stdio_output@@IAE_NXZ 10039da5 f i libucrt:output.obj
 0001:00038db9       ?update_precision@?$positional_parameter_base@DV?$stream_output_adapter@D@__crt_stdio_output@@@__crt_stdio_output@@IAE_NXZ 10039db9 f i libucrt:output.obj
 0001:00038e9c       ?update_precision@?$positional_parameter_base@DV?$string_output_adapter@D@__crt_stdio_output@@@__crt_stdio_output@@IAE_NXZ 10039e9c f i libucrt:output.obj
 0001:00038f7f       ?update_precision@?$positional_parameter_base@_WV?$stream_output_adapter@_W@__crt_stdio_output@@@__crt_stdio_output@@IAE_NXZ 10039f7f f i libucrt:output.obj
 0001:00039063       ?update_precision@?$positional_parameter_base@_WV?$string_output_adapter@_W@__crt_stdio_output@@@__crt_stdio_output@@IAE_NXZ 1003a063 f i libucrt:output.obj
 0001:00039147       ?update_precision@?$standard_base@DV?$stream_output_adapter@D@__crt_stdio_output@@@__crt_stdio_output@@IAE_NXZ 1003a147 f i libucrt:output.obj
 0001:0003915b       ?update_precision@?$standard_base@DV?$string_output_adapter@D@__crt_stdio_output@@@__crt_stdio_output@@IAE_NXZ 1003a15b f i libucrt:output.obj
 0001:0003916f       ?update_precision@?$standard_base@_WV?$stream_output_adapter@_W@__crt_stdio_output@@@__crt_stdio_output@@IAE_NXZ 1003a16f f i libucrt:output.obj
 0001:00039183       ?update_precision@?$standard_base@_WV?$string_output_adapter@_W@__crt_stdio_output@@@__crt_stdio_output@@IAE_NXZ 1003a183 f i libucrt:output.obj
 0001:00039197       ?valid@__crt_stdio_stream@@QBE_NXZ 1003a197 f i libucrt:output.obj
 0001:0003919e       ?validate@?$stream_output_adapter@D@__crt_stdio_output@@QBE_NXZ 1003a19e f i libucrt:output.obj
 0001:000391c7       ?validate@?$stream_output_adapter@_W@__crt_stdio_output@@QBE_NXZ 1003a1c7 f i libucrt:output.obj
 0001:000391e8       ?validate@?$string_output_adapter@D@__crt_stdio_output@@QBE_NXZ 1003a1e8 f i libucrt:output.obj
 0001:00039209       ?validate@?$string_output_adapter@_W@__crt_stdio_output@@QBE_NXZ 1003a209 f i libucrt:output.obj
 0001:0003922a       ?validate_and_store_parameter_data@?$positional_parameter_base@DV?$stream_output_adapter@D@__crt_stdio_output@@@__crt_stdio_output@@AAE_NAAUparameter_data@12@W4parameter_type@12@DW4length_modifier@2@@Z 1003a22a f i libucrt:output.obj
 0001:00039287       ?validate_and_store_parameter_data@?$positional_parameter_base@DV?$string_output_adapter@D@__crt_stdio_output@@@__crt_stdio_output@@AAE_NAAUparameter_data@12@W4parameter_type@12@DW4length_modifier@2@@Z 1003a287 f i libucrt:output.obj
 0001:000392e4       ?validate_and_store_parameter_data@?$positional_parameter_base@_WV?$stream_output_adapter@_W@__crt_stdio_output@@@__crt_stdio_output@@AAE_NAAUparameter_data@12@W4parameter_type@12@_WW4length_modifier@2@@Z 1003a2e4 f i libucrt:output.obj
 0001:00039344       ?validate_and_store_parameter_data@?$positional_parameter_base@_WV?$string_output_adapter@_W@__crt_stdio_output@@@__crt_stdio_output@@AAE_NAAUparameter_data@12@W4parameter_type@12@_WW4length_modifier@2@@Z 1003a344 f i libucrt:output.obj
 0001:000393a4       ?validate_and_update_state_at_beginning_of_format_character@?$positional_parameter_base@DV?$stream_output_adapter@D@__crt_stdio_output@@@__crt_stdio_output@@IAE_NXZ 1003a3a4 f i libucrt:output.obj
 0001:000394dc       ?validate_and_update_state_at_beginning_of_format_character@?$positional_parameter_base@DV?$string_output_adapter@D@__crt_stdio_output@@@__crt_stdio_output@@IAE_NXZ 1003a4dc f i libucrt:output.obj
 0001:00039614       ?validate_and_update_state_at_beginning_of_format_character@?$positional_parameter_base@_WV?$stream_output_adapter@_W@__crt_stdio_output@@@__crt_stdio_output@@IAE_NXZ 1003a614 f i libucrt:output.obj
 0001:00039757       ?validate_and_update_state_at_beginning_of_format_character@?$positional_parameter_base@_WV?$string_output_adapter@_W@__crt_stdio_output@@@__crt_stdio_output@@IAE_NXZ 1003a757 f i libucrt:output.obj
 0001:0003989a       ?validate_and_update_state_at_beginning_of_format_character@?$standard_base@DV?$stream_output_adapter@D@__crt_stdio_output@@@__crt_stdio_output@@IAE_NXZ 1003a89a f i libucrt:output.obj
 0001:0003989d       ?validate_and_update_state_at_beginning_of_format_character@?$standard_base@DV?$string_output_adapter@D@__crt_stdio_output@@@__crt_stdio_output@@IAE_NXZ 1003a89d f i libucrt:output.obj
 0001:000398a0       ?validate_and_update_state_at_beginning_of_format_character@?$standard_base@_WV?$stream_output_adapter@_W@__crt_stdio_output@@@__crt_stdio_output@@IAE_NXZ 1003a8a0 f i libucrt:output.obj
 0001:000398a3       ?validate_and_update_state_at_beginning_of_format_character@?$standard_base@_WV?$string_output_adapter@_W@__crt_stdio_output@@@__crt_stdio_output@@IAE_NXZ 1003a8a3 f i libucrt:output.obj
 0001:000398a6       ?validate_and_update_state_at_end_of_format_string@?$format_validation_base@DV?$stream_output_adapter@D@__crt_stdio_output@@@__crt_stdio_output@@IBE_NXZ 1003a8a6 f i libucrt:output.obj
 0001:000398d0       ?validate_and_update_state_at_end_of_format_string@?$format_validation_base@DV?$string_output_adapter@D@__crt_stdio_output@@@__crt_stdio_output@@IBE_NXZ 1003a8d0 f i libucrt:output.obj
 0001:000398fa       ?validate_and_update_state_at_end_of_format_string@?$format_validation_base@_WV?$stream_output_adapter@_W@__crt_stdio_output@@@__crt_stdio_output@@IBE_NXZ 1003a8fa f i libucrt:output.obj
 0001:00039924       ?validate_and_update_state_at_end_of_format_string@?$format_validation_base@_WV?$string_output_adapter@_W@__crt_stdio_output@@@__crt_stdio_output@@IBE_NXZ 1003a924 f i libucrt:output.obj
 0001:0003994e       ?validate_and_update_state_at_end_of_format_string@?$positional_parameter_base@DV?$stream_output_adapter@D@__crt_stdio_output@@@__crt_stdio_output@@IAE_NXZ 1003a94e f i libucrt:output.obj
 0001:000399f4       ?validate_and_update_state_at_end_of_format_string@?$positional_parameter_base@DV?$string_output_adapter@D@__crt_stdio_output@@@__crt_stdio_output@@IAE_NXZ 1003a9f4 f i libucrt:output.obj
 0001:00039a9a       ?validate_and_update_state_at_end_of_format_string@?$positional_parameter_base@_WV?$stream_output_adapter@_W@__crt_stdio_output@@@__crt_stdio_output@@IAE_NXZ 1003aa9a f i libucrt:output.obj
 0001:00039b40       ?validate_and_update_state_at_end_of_format_string@?$positional_parameter_base@_WV?$string_output_adapter@_W@__crt_stdio_output@@@__crt_stdio_output@@IAE_NXZ 1003ab40 f i libucrt:output.obj
 0001:00039be6       ?validate_and_update_state_at_end_of_format_string@?$standard_base@DV?$stream_output_adapter@D@__crt_stdio_output@@@__crt_stdio_output@@IBE_NXZ 1003abe6 f i libucrt:output.obj
 0001:00039be9       ?validate_and_update_state_at_end_of_format_string@?$standard_base@DV?$string_output_adapter@D@__crt_stdio_output@@@__crt_stdio_output@@IBE_NXZ 1003abe9 f i libucrt:output.obj
 0001:00039bec       ?validate_and_update_state_at_end_of_format_string@?$standard_base@_WV?$stream_output_adapter@_W@__crt_stdio_output@@@__crt_stdio_output@@IBE_NXZ 1003abec f i libucrt:output.obj
 0001:00039bef       ?validate_and_update_state_at_end_of_format_string@?$standard_base@_WV?$string_output_adapter@_W@__crt_stdio_output@@@__crt_stdio_output@@IBE_NXZ 1003abef f i libucrt:output.obj
 0001:00039bf2       ?validate_state_for_type_case_a@?$positional_parameter_base@DV?$stream_output_adapter@D@__crt_stdio_output@@@__crt_stdio_output@@IAE_NXZ 1003abf2 f i libucrt:output.obj
 0001:00039c54       ?validate_state_for_type_case_a@?$positional_parameter_base@DV?$string_output_adapter@D@__crt_stdio_output@@@__crt_stdio_output@@IAE_NXZ 1003ac54 f i libucrt:output.obj
 0001:00039cb6       ?validate_state_for_type_case_a@?$positional_parameter_base@_WV?$stream_output_adapter@_W@__crt_stdio_output@@@__crt_stdio_output@@IAE_NXZ 1003acb6 f i libucrt:output.obj
 0001:00039d18       ?validate_state_for_type_case_a@?$positional_parameter_base@_WV?$string_output_adapter@_W@__crt_stdio_output@@@__crt_stdio_output@@IAE_NXZ 1003ad18 f i libucrt:output.obj
 0001:00039d7a       ?validate_state_for_type_case_a@?$standard_base@DV?$stream_output_adapter@D@__crt_stdio_output@@@__crt_stdio_output@@IBE_NXZ 1003ad7a f i libucrt:output.obj
 0001:00039d7d       ?validate_state_for_type_case_a@?$standard_base@DV?$string_output_adapter@D@__crt_stdio_output@@@__crt_stdio_output@@IBE_NXZ 1003ad7d f i libucrt:output.obj
 0001:00039d80       ?validate_state_for_type_case_a@?$standard_base@_WV?$stream_output_adapter@_W@__crt_stdio_output@@@__crt_stdio_output@@IBE_NXZ 1003ad80 f i libucrt:output.obj
 0001:00039d83       ?validate_state_for_type_case_a@?$standard_base@_WV?$string_output_adapter@_W@__crt_stdio_output@@@__crt_stdio_output@@IBE_NXZ 1003ad83 f i libucrt:output.obj
 0001:00039d86       ?validate_stream_is_ansi_if_required@?$__acrt_stdio_char_traits@D@@SA_NQAU_iobuf@@@Z 1003ad86 f i libucrt:output.obj
 0001:00039e2d       ?validate_stream_is_ansi_if_required@?$__acrt_stdio_char_traits@_W@@SA_NQAU_iobuf@@@Z 1003ae2d f i libucrt:output.obj
 0001:00039e30       ?wide_null_string@?$output_processor@DV?$stream_output_adapter@D@__crt_stdio_output@@V?$format_validation_base@DV?$stream_output_adapter@D@__crt_stdio_output@@@2@@__crt_stdio_output@@CAPA_WXZ 1003ae30 f i libucrt:output.obj
 0001:00039e36       ?wide_null_string@?$output_processor@DV?$stream_output_adapter@D@__crt_stdio_output@@V?$positional_parameter_base@DV?$stream_output_adapter@D@__crt_stdio_output@@@2@@__crt_stdio_output@@CAPA_WXZ 1003ae36 f i libucrt:output.obj
 0001:00039e3c       ?wide_null_string@?$output_processor@DV?$stream_output_adapter@D@__crt_stdio_output@@V?$standard_base@DV?$stream_output_adapter@D@__crt_stdio_output@@@2@@__crt_stdio_output@@CAPA_WXZ 1003ae3c f i libucrt:output.obj
 0001:00039e42       ?wide_null_string@?$output_processor@DV?$string_output_adapter@D@__crt_stdio_output@@V?$format_validation_base@DV?$string_output_adapter@D@__crt_stdio_output@@@2@@__crt_stdio_output@@CAPA_WXZ 1003ae42 f i libucrt:output.obj
 0001:00039e48       ?wide_null_string@?$output_processor@DV?$string_output_adapter@D@__crt_stdio_output@@V?$positional_parameter_base@DV?$string_output_adapter@D@__crt_stdio_output@@@2@@__crt_stdio_output@@CAPA_WXZ 1003ae48 f i libucrt:output.obj
 0001:00039e4e       ?wide_null_string@?$output_processor@DV?$string_output_adapter@D@__crt_stdio_output@@V?$standard_base@DV?$string_output_adapter@D@__crt_stdio_output@@@2@@__crt_stdio_output@@CAPA_WXZ 1003ae4e f i libucrt:output.obj
 0001:00039e54       ?wide_null_string@?$output_processor@_WV?$stream_output_adapter@_W@__crt_stdio_output@@V?$format_validation_base@_WV?$stream_output_adapter@_W@__crt_stdio_output@@@2@@__crt_stdio_output@@CAPA_WXZ 1003ae54 f i libucrt:output.obj
 0001:00039e5a       ?wide_null_string@?$output_processor@_WV?$stream_output_adapter@_W@__crt_stdio_output@@V?$positional_parameter_base@_WV?$stream_output_adapter@_W@__crt_stdio_output@@@2@@__crt_stdio_output@@CAPA_WXZ 1003ae5a f i libucrt:output.obj
 0001:00039e60       ?wide_null_string@?$output_processor@_WV?$stream_output_adapter@_W@__crt_stdio_output@@V?$standard_base@_WV?$stream_output_adapter@_W@__crt_stdio_output@@@2@@__crt_stdio_output@@CAPA_WXZ 1003ae60 f i libucrt:output.obj
 0001:00039e66       ?wide_null_string@?$output_processor@_WV?$string_output_adapter@_W@__crt_stdio_output@@V?$format_validation_base@_WV?$string_output_adapter@_W@__crt_stdio_output@@@2@@__crt_stdio_output@@CAPA_WXZ 1003ae66 f i libucrt:output.obj
 0001:00039e6c       ?wide_null_string@?$output_processor@_WV?$string_output_adapter@_W@__crt_stdio_output@@V?$positional_parameter_base@_WV?$string_output_adapter@_W@__crt_stdio_output@@@2@@__crt_stdio_output@@CAPA_WXZ 1003ae6c f i libucrt:output.obj
 0001:00039e72       ?wide_null_string@?$output_processor@_WV?$string_output_adapter@_W@__crt_stdio_output@@V?$standard_base@_WV?$string_output_adapter@_W@__crt_stdio_output@@@2@@__crt_stdio_output@@CAPA_WXZ 1003ae72 f i libucrt:output.obj
 0001:00039e78       ?write_character@?$output_adapter_common@DV?$stream_output_adapter@D@__crt_stdio_output@@@__crt_stdio_output@@QBEXDQAH@Z 1003ae78 f i libucrt:output.obj
 0001:00039e9e       ?write_character@?$output_adapter_common@_WV?$stream_output_adapter@_W@__crt_stdio_output@@@__crt_stdio_output@@QBEX_WQAH@Z 1003ae9e f i libucrt:output.obj
 0001:00039ec4       ?write_character@?$string_output_adapter@D@__crt_stdio_output@@QBE_NDQAH@Z 1003aec4 f i libucrt:output.obj
 0001:00039f16       ?write_character@?$string_output_adapter@_W@__crt_stdio_output@@QBE_N_WQAH@Z 1003af16 f i libucrt:output.obj
 0001:00039f6c       ?write_character_without_count_update@?$stream_output_adapter@D@__crt_stdio_output@@QBE_ND@Z 1003af6c f i libucrt:output.obj
 0001:00039fae       ?write_character_without_count_update@?$stream_output_adapter@_W@__crt_stdio_output@@QBE_N_W@Z 1003afae f i libucrt:output.obj
 0001:00039ff4       ?write_stored_string_tchar@?$output_processor@DV?$stream_output_adapter@D@__crt_stdio_output@@V?$format_validation_base@DV?$stream_output_adapter@D@__crt_stdio_output@@@2@@__crt_stdio_output@@AAE_ND@Z 1003aff4 f i libucrt:output.obj
 0001:0003a0c7       ?write_stored_string_tchar@?$output_processor@DV?$stream_output_adapter@D@__crt_stdio_output@@V?$positional_parameter_base@DV?$stream_output_adapter@D@__crt_stdio_output@@@2@@__crt_stdio_output@@AAE_ND@Z 1003b0c7 f i libucrt:output.obj
 0001:0003a19a       ?write_stored_string_tchar@?$output_processor@DV?$stream_output_adapter@D@__crt_stdio_output@@V?$standard_base@DV?$stream_output_adapter@D@__crt_stdio_output@@@2@@__crt_stdio_output@@AAE_ND@Z 1003b19a f i libucrt:output.obj
 0001:0003a26d       ?write_stored_string_tchar@?$output_processor@DV?$string_output_adapter@D@__crt_stdio_output@@V?$format_validation_base@DV?$string_output_adapter@D@__crt_stdio_output@@@2@@__crt_stdio_output@@AAE_ND@Z 1003b26d f i libucrt:output.obj
 0001:0003a340       ?write_stored_string_tchar@?$output_processor@DV?$string_output_adapter@D@__crt_stdio_output@@V?$positional_parameter_base@DV?$string_output_adapter@D@__crt_stdio_output@@@2@@__crt_stdio_output@@AAE_ND@Z 1003b340 f i libucrt:output.obj
 0001:0003a413       ?write_stored_string_tchar@?$output_processor@DV?$string_output_adapter@D@__crt_stdio_output@@V?$standard_base@DV?$string_output_adapter@D@__crt_stdio_output@@@2@@__crt_stdio_output@@AAE_ND@Z 1003b413 f i libucrt:output.obj
 0001:0003a4e6       ?write_stored_string_tchar@?$output_processor@_WV?$stream_output_adapter@_W@__crt_stdio_output@@V?$format_validation_base@_WV?$stream_output_adapter@_W@__crt_stdio_output@@@2@@__crt_stdio_output@@AAE_N_W@Z 1003b4e6 f i libucrt:output.obj
 0001:0003a5a0       ?write_stored_string_tchar@?$output_processor@_WV?$stream_output_adapter@_W@__crt_stdio_output@@V?$positional_parameter_base@_WV?$stream_output_adapter@_W@__crt_stdio_output@@@2@@__crt_stdio_output@@AAE_N_W@Z 1003b5a0 f i libucrt:output.obj
 0001:0003a65a       ?write_stored_string_tchar@?$output_processor@_WV?$stream_output_adapter@_W@__crt_stdio_output@@V?$standard_base@_WV?$stream_output_adapter@_W@__crt_stdio_output@@@2@@__crt_stdio_output@@AAE_N_W@Z 1003b65a f i libucrt:output.obj
 0001:0003a714       ?write_stored_string_tchar@?$output_processor@_WV?$string_output_adapter@_W@__crt_stdio_output@@V?$format_validation_base@_WV?$string_output_adapter@_W@__crt_stdio_output@@@2@@__crt_stdio_output@@AAE_N_W@Z 1003b714 f i libucrt:output.obj
 0001:0003a7ce       ?write_stored_string_tchar@?$output_processor@_WV?$string_output_adapter@_W@__crt_stdio_output@@V?$positional_parameter_base@_WV?$string_output_adapter@_W@__crt_stdio_output@@@2@@__crt_stdio_output@@AAE_N_W@Z 1003b7ce f i libucrt:output.obj
 0001:0003a888       ?write_stored_string_tchar@?$output_processor@_WV?$string_output_adapter@_W@__crt_stdio_output@@V?$standard_base@_WV?$string_output_adapter@_W@__crt_stdio_output@@@2@@__crt_stdio_output@@AAE_N_W@Z 1003b888 f i libucrt:output.obj
 0001:0003a942       ?write_string@?$stream_output_adapter@D@__crt_stdio_output@@QBEXQBDHQAHAAV__crt_deferred_errno_cache@@@Z 1003b942 f i libucrt:output.obj
 0001:0003a977       ?write_string@?$stream_output_adapter@_W@__crt_stdio_output@@QBEXQB_WHQAHAAV__crt_deferred_errno_cache@@@Z 1003b977 f i libucrt:output.obj
 0001:0003a9ac       ?write_string@?$string_output_adapter@D@__crt_stdio_output@@QBEXQBDHQAHAAV__crt_deferred_errno_cache@@@Z 1003b9ac f i libucrt:output.obj
 0001:0003aa2c       ?write_string@?$string_output_adapter@_W@__crt_stdio_output@@QBEXQB_WHQAHAAV__crt_deferred_errno_cache@@@Z 1003ba2c f i libucrt:output.obj
 0001:0003aabb       ?write_string_impl@?$output_adapter_common@DV?$stream_output_adapter@D@__crt_stdio_output@@@__crt_stdio_output@@IBEXQBDHQAHAAV__crt_deferred_errno_cache@@@Z 1003babb f i libucrt:output.obj
 0001:0003ab83       ?write_string_impl@?$output_adapter_common@_WV?$stream_output_adapter@_W@__crt_stdio_output@@@__crt_stdio_output@@IBEXQB_WHQAHAAV__crt_deferred_errno_cache@@@Z 1003bb83 f i libucrt:output.obj
 0001:0003ac4e       ___acrt_isleadbyte_l_noupdate 1003bc4e f i libucrt:output.obj
 0001:0003ac6f       ___acrt_locale_changed     1003bc6f f i libucrt:output.obj
 0001:0003ac7c       ___stdio_common_vfprintf   1003bc7c f   libucrt:output.obj
 0001:0003ad22       ___stdio_common_vfprintf_p 1003bd22 f   libucrt:output.obj
 0001:0003adc8       ___stdio_common_vfprintf_s 1003bdc8 f   libucrt:output.obj
 0001:0003ae6e       ___stdio_common_vfwprintf  1003be6e f   libucrt:output.obj
 0001:0003af14       ___stdio_common_vfwprintf_p 1003bf14 f   libucrt:output.obj
 0001:0003afba       ___stdio_common_vfwprintf_s 1003bfba f   libucrt:output.obj
 0001:0003b060       ___stdio_common_vsnprintf_s 1003c060 f   libucrt:output.obj
 0001:0003b090       ___stdio_common_vsnwprintf_s 1003c090 f   libucrt:output.obj
 0001:0003b0c0       ___stdio_common_vsprintf   1003c0c0 f   libucrt:output.obj
 0001:0003b0ed       ___stdio_common_vsprintf_p 1003c0ed f   libucrt:output.obj
 0001:0003b11a       ___stdio_common_vsprintf_s 1003c11a f   libucrt:output.obj
 0001:0003b147       ___stdio_common_vswprintf  1003c147 f   libucrt:output.obj
 0001:0003b174       ___stdio_common_vswprintf_p 1003c174 f   libucrt:output.obj
 0001:0003b1a1       ___stdio_common_vswprintf_s 1003c1a1 f   libucrt:output.obj
 0001:0003b1ce       _calloc                    1003c1ce f   libucrt:calloc.obj
 0001:0003b1db       _realloc                   1003c1db f   libucrt:realloc.obj
 0001:0003b1e8       ??$?B$$A6GXPAXK0@Z@__crt_fast_encoded_nullptr_t@@QBEP6GXPAXK0@ZXZ 1003c1e8 f i libucrt:exit.obj
 0001:0003b28b       ??$__crt_fast_decode_pointer@P6GXPAXK0@Z@@YAP6GXPAXK0@ZQ6GX0K0@Z@Z 1003c28b f i libucrt:exit.obj
 0001:0003b2a6       ??$__crt_fast_encode_pointer@P6GXPAXK0@Z@@YAP6GXPAXK0@ZQ6GX0K0@Z@Z 1003c2a6 f i libucrt:exit.obj
 0001:0003b2cc       ??$__crt_get_proc_address@P6GXI@Z@@YAP6GXI@ZQAUHINSTANCE__@@QBD@Z 1003c2cc f i libucrt:exit.obj
 0001:0003b332       ??0?$__crt_unique_handle_t@U__crt_hmodule_traits@@@@QAE@QAUHINSTANCE__@@@Z 1003c332 f i libucrt:exit.obj
 0001:0003b346       ??1?$__crt_unique_handle_t@U__crt_hmodule_traits@@@@QAE@XZ 1003c346 f i libucrt:exit.obj
 0001:0003b48b       ?__acrt_select_exit_lock@@YA?AW4__acrt_lock_id@@XZ 1003c48b f i libucrt:exit.obj
 0001:0003b4a6       ?close@?$__crt_unique_handle_t@U__crt_hmodule_traits@@@@QAEXXZ 1003c4a6 f i libucrt:exit.obj
 0001:0003b4c2       ?close@__crt_hmodule_traits@@SA_NPAUHINSTANCE__@@@Z 1003c4c2 f i libucrt:exit.obj
 0001:0003b5ad       ?get@?$__crt_unique_handle_t@U__crt_hmodule_traits@@@@QBEPAUHINSTANCE__@@XZ 1003c5ad f i libucrt:exit.obj
 0001:0003b5b0       ?get_address_of@?$__crt_unique_handle_t@U__crt_hmodule_traits@@@@QAEPAPAUHINSTANCE__@@XZ 1003c5b0 f i libucrt:exit.obj
 0001:0003b5b3       ?get_invalid_value@__crt_hmodule_traits@@SAPAUHINSTANCE__@@XZ 1003c5b3 f i libucrt:exit.obj
 0001:0003b6b4       __Exit                     1003c6b4 f   libucrt:exit.obj
 0001:0003b6cf       ___acrt_initialize_thread_local_exit_callback 1003c6cf f   libucrt:exit.obj
 0001:0003b6e1       __c_exit                   1003c6e1 f   libucrt:exit.obj
 0001:0003b6f3       __cexit                    1003c6f3 f   libucrt:exit.obj
 0001:0003b705       __exit                     1003c705 f   libucrt:exit.obj
 0001:0003b720       __is_c_termination_complete 1003c720 f   libucrt:exit.obj
 0001:0003b726       __register_thread_local_exe_atexit_callback 1003c726 f   libucrt:exit.obj
 0001:0003b76c       _exit                      1003c76c f   libucrt:exit.obj
 0001:0003b787       _quick_exit                1003c787 f   libucrt:exit.obj
 0001:0003b7b0       _strncat                   1003c7b0 f   libucrt:strncat.obj
 0001:0003b940       _strncpy                   1003c940 f   libucrt:strncpy.obj
 0001:0003baad       ?is_in_use@__crt_stdio_stream@@QBE_NXZ 1003caad f i libucrt:fclose.obj
 0001:0003baba       __fclose_nolock            1003caba f   libucrt:fclose.obj
 0001:0003bb4d       _fclose                    1003cb4d f   libucrt:fclose.obj
 0001:0003be43       ??$open_file@ABQBDABQBDABHPAU_iobuf@@@?$__crt_char_traits@D@@SAPAU_iobuf@@ABQBD0ABH$$QAPAU1@@Z 1003ce43 f i libucrt:fopen.obj
 0001:0003be6e       ??$open_file@ABQB_WABQB_WABHPAU_iobuf@@@?$__crt_char_traits@_W@@SAPAU_iobuf@@ABQB_W0ABH$$QAPAU1@@Z 1003ce6e f i libucrt:fopen.obj
 0001:0003be99       ?unlock@__crt_stdio_stream@@QBEXXZ 1003ce99 f i libucrt:fopen.obj
 0001:0003bea4       __fsopen                   1003cea4 f   libucrt:fopen.obj
 0001:0003beb1       __wfopen                   1003ceb1 f   libucrt:fopen.obj
 0001:0003becd       __wfopen_s                 1003cecd f   libucrt:fopen.obj
 0001:0003bf25       __wfsopen                  1003cf25 f   libucrt:fopen.obj
 0001:0003bf32       _fopen                     1003cf32 f   libucrt:fopen.obj
 0001:0003bf4e       _fopen_s                   1003cf4e f   libucrt:fopen.obj
 0001:0003bfa6       ?__acrt_stdio_reset_buffer@@YAXV__crt_stdio_stream@@@Z 1003cfa6 f i libucrt:fread.obj
 0001:0003bfc1       ?has_any_buffer@__crt_stdio_stream@@QBE_NXZ 1003cfc1 f i libucrt:fread.obj
 0001:0003bfd2       ?has_any_of@__crt_stdio_stream@@QBE_NJ@Z 1003cfd2 f i libucrt:fread.obj
 0001:0003bfeb       ?set_flags@__crt_stdio_stream@@QBE_NJ@Z 1003cfeb f i libucrt:fread.obj
 0001:0003c018       __fread_nolock             1003d018 f   libucrt:fread.obj
 0001:0003c03c       __fread_nolock_s           1003d03c f   libucrt:fread.obj
 0001:0003c28b       _fread                     1003d28b f   libucrt:fread.obj
 0001:0003c2af       _fread_s                   1003d2af f   libucrt:fread.obj
 0001:0003c560       ?has_big_buffer@__crt_stdio_stream@@QBE_NXZ 1003d560 f i libucrt:fwrite.obj
 0001:0003c56d       __fwrite_nolock            1003d56d f   libucrt:fwrite.obj
 0001:0003c746       _fwrite                    1003d746 f   libucrt:fwrite.obj
 0001:0003c869       ??$__acrt_mbs_to_wcs_cp@U__crt_win32_buffer_internal_dynamic_resizing@@@@YAHQBDAAV?$__crt_win32_buffer@_WU__crt_win32_buffer_internal_dynamic_resizing@@@@I@Z 1003d869 f i libucrt:unlink.obj
 0001:0003c88f       ??0?$__crt_win32_buffer@_WU__crt_win32_buffer_internal_dynamic_resizing@@@@QAE@XZ 1003d88f f i libucrt:unlink.obj
 0001:0003c8aa       ??1?$__crt_win32_buffer@_WU__crt_win32_buffer_internal_dynamic_resizing@@@@QAE@XZ 1003d8aa f i libucrt:unlink.obj
 0001:0003c8d8       ?__acrt_get_utf8_acp_compatibility_codepage@@YAIXZ 1003d8d8 f i libucrt:unlink.obj
 0001:0003c929       ?_deallocate@?$__crt_win32_buffer@_WU__crt_win32_buffer_internal_dynamic_resizing@@@@AAEXXZ 1003d929 f i libucrt:unlink.obj
 0001:0003c949       ?allocate@?$__crt_win32_buffer@_WU__crt_win32_buffer_internal_dynamic_resizing@@@@QAEHI@Z 1003d949 f i libucrt:unlink.obj
 0001:0003c997       ?allocate@__crt_win32_buffer_internal_dynamic_resizing@@SAHQAPAXIABV__crt_win32_buffer_empty_debug_info@@@Z 1003d997 f i libucrt:unlink.obj
 0001:0003c9bd       ?capacity@?$__crt_win32_buffer@_WU__crt_win32_buffer_internal_dynamic_resizing@@@@QBEIXZ 1003d9bd f i libucrt:unlink.obj
 0001:0003c9c1       ?data@?$__crt_win32_buffer@_WU__crt_win32_buffer_internal_dynamic_resizing@@@@QAEPA_WXZ 1003d9c1 f i libucrt:unlink.obj
 0001:0003c9c5       ?deallocate@__crt_win32_buffer_internal_dynamic_resizing@@SAXQAXABV__crt_win32_buffer_empty_debug_info@@@Z 1003d9c5 f i libucrt:unlink.obj
 0001:0003c9d9       ?debug_info@?$__crt_win32_buffer@_WU__crt_win32_buffer_internal_dynamic_resizing@@@@QBEABV__crt_win32_buffer_empty_debug_info@@XZ 1003d9d9 f i libucrt:unlink.obj
 0001:0003c9dc       ?size@?$__crt_win32_buffer@_WU__crt_win32_buffer_internal_dynamic_resizing@@@@QAEXI@Z 1003d9dc f i libucrt:unlink.obj
 0001:0003c9ee       __unlink                   1003d9ee f   libucrt:unlink.obj
 0001:0003c9fb       _remove                    1003d9fb f   libucrt:unlink.obj
 0001:0003ca82       ?has_all_of@__crt_stdio_stream@@QBE_NJ@Z 1003da82 f i libucrt:rewind.obj
 0001:0003ca9e       ?unset_flags@__crt_stdio_stream@@QBE_NJ@Z 1003da9e f i libucrt:rewind.obj
 0001:0003cad1       _rewind                    1003dad1 f   libucrt:rewind.obj
 0001:0003cbc3       _ldexp                     1003dbc3 f   libucrt:ldexp.obj
 0001:0003ce3c       ??$__vcrt_va_start_verify_argument_type@QBD@@YAXXZ 1003de3c f i libucrt:assert.obj
 0001:0003ce3d       ??$__vcrt_va_start_verify_argument_type@QB_W@@YAXXZ 1003de3d f i libucrt:assert.obj
 0001:0003dddf       ??$ftprintf@PAU_iobuf@@PBDABQBDABQBDABI@?$__crt_char_traits@D@@SAH$$QAPAU_iobuf@@$$QAPBDABQBD2ABI@Z 1003eddf f i libucrt:assert.obj
 0001:0003de11       ??$ftprintf@PAU_iobuf@@PB_WABQB_WABQB_WABI@?$__crt_char_traits@_W@@SAH$$QAPAU_iobuf@@$$QAPB_WABQB_W2ABI@Z 1003ee11 f i libucrt:assert.obj
 0001:0003de43       ??$get_module_file_name@AAPAUHINSTANCE__@@AAY0BAF@DK@?$__crt_char_traits@D@@SAKAAPAUHINSTANCE__@@AAY0BAF@D$$QAK@Z 1003ee43 f i libucrt:assert.obj
 0001:0003de66       ??$get_module_file_name@AAPAUHINSTANCE__@@AAY0BAF@_WK@?$__crt_char_traits@_W@@SAKAAPAUHINSTANCE__@@AAY0BAF@_W$$QAK@Z 1003ee66 f i libucrt:assert.obj
 0001:0003de86       ??$itot_s@ABIPADIH@?$__crt_char_traits@D@@SAHABI$$QAPAD$$QAI$$QAH@Z 1003ee86 f i libucrt:assert.obj
 0001:0003deb1       ??$itot_s@ABIPA_WIH@?$__crt_char_traits@_W@@SAHABI$$QAPA_W$$QAI$$QAH@Z 1003eeb1 f i libucrt:assert.obj
 0001:0003dedc       ??$show_message_box@AAY0CEA@DPBDJ@?$__crt_char_traits@D@@SAHAAY0CEA@D$$QAPBD$$QAJ@Z 1003eedc f i libucrt:assert.obj
 0001:0003deff       ??$show_message_box@AAY0CEA@_WPB_WJ@?$__crt_char_traits@_W@@SAHAAY0CEA@_W$$QAPB_W$$QAJ@Z 1003eeff f i libucrt:assert.obj
 0001:0003df22       ??$tcscat_s@ABQADABIAAPAD@?$__crt_char_traits@D@@SAHABQADABIAAPAD@Z 1003ef22 f i libucrt:assert.obj
 0001:0003df47       ??$tcscat_s@ABQADABIABQBD@?$__crt_char_traits@D@@SAHABQADABIABQBD@Z 1003ef47 f i libucrt:assert.obj
 0001:0003df6c       ??$tcscat_s@ABQADABIPBD@?$__crt_char_traits@D@@SAHABQADABI$$QAPBD@Z 1003ef6c f i libucrt:assert.obj
 0001:0003df91       ??$tcscat_s@ABQA_WABIAAPA_W@?$__crt_char_traits@_W@@SAHABQA_WABIAAPA_W@Z 1003ef91 f i libucrt:assert.obj
 0001:0003dfb6       ??$tcscat_s@ABQA_WABIABQB_W@?$__crt_char_traits@_W@@SAHABQA_WABIABQB_W@Z 1003efb6 f i libucrt:assert.obj
 0001:0003dfdb       ??$tcscat_s@ABQA_WABIPB_W@?$__crt_char_traits@_W@@SAHABQA_WABI$$QAPB_W@Z 1003efdb f i libucrt:assert.obj
 0001:0003e000       ??$tcscpy_s@AAY0BAF@DIPBD@?$__crt_char_traits@D@@SAHAAY0BAF@D$$QAI$$QAPBD@Z 1003f000 f i libucrt:assert.obj
 0001:0003e023       ??$tcscpy_s@AAY0BAF@_WIPB_W@?$__crt_char_traits@_W@@SAHAAY0BAF@_W$$QAI$$QAPB_W@Z 1003f023 f i libucrt:assert.obj
 0001:0003e046       ??$tcscpy_s@ABQADABIPBD@?$__crt_char_traits@D@@SAHABQADABI$$QAPBD@Z 1003f046 f i libucrt:assert.obj
 0001:0003e06b       ??$tcscpy_s@ABQA_WABIPB_W@?$__crt_char_traits@_W@@SAHABQA_WABI$$QAPB_W@Z 1003f06b f i libucrt:assert.obj
 0001:0003e090       ??$tcslen@AAY0BAF@D@?$__crt_char_traits@D@@SAIAAY0BAF@D@Z 1003f090 f i libucrt:assert.obj
 0001:0003e0ab       ??$tcslen@AAY0BAF@_W@?$__crt_char_traits@_W@@SAIAAY0BAF@_W@Z 1003f0ab f i libucrt:assert.obj
 0001:0003e0ce       ??$tcslen@ABQAD@?$__crt_char_traits@D@@SAIABQAD@Z 1003f0ce f i libucrt:assert.obj
 0001:0003e0ec       ??$tcslen@ABQA_W@?$__crt_char_traits@_W@@SAIABQA_W@Z 1003f0ec f i libucrt:assert.obj
 0001:0003e111       ??$tcslen@ABQBD@?$__crt_char_traits@D@@SAIABQBD@Z 1003f111 f i libucrt:assert.obj
 0001:0003e12f       ??$tcslen@ABQB_W@?$__crt_char_traits@_W@@SAIABQB_W@Z 1003f12f f i libucrt:assert.obj
 0001:0003e154       ??$tcsncat_s@ABQADABIAAPBDI@?$__crt_char_traits@D@@SAHABQADABIAAPBD$$QAI@Z 1003f154 f i libucrt:assert.obj
 0001:0003e17f       ??$tcsncat_s@ABQADABIABQBDABI@?$__crt_char_traits@D@@SAHABQADABIABQBD1@Z 1003f17f f i libucrt:assert.obj
 0001:0003e1aa       ??$tcsncat_s@ABQADABIPBDI@?$__crt_char_traits@D@@SAHABQADABI$$QAPBD$$QAI@Z 1003f1aa f i libucrt:assert.obj
 0001:0003e1d5       ??$tcsncat_s@ABQA_WABIAAPB_WI@?$__crt_char_traits@_W@@SAHABQA_WABIAAPB_W$$QAI@Z 1003f1d5 f i libucrt:assert.obj
 0001:0003e200       ??$tcsncat_s@ABQA_WABIABQB_WABI@?$__crt_char_traits@_W@@SAHABQA_WABIABQB_W1@Z 1003f200 f i libucrt:assert.obj
 0001:0003e22b       ??$tcsncat_s@ABQA_WABIPB_WI@?$__crt_char_traits@_W@@SAHABQA_WABI$$QAPB_W$$QAI@Z 1003f22b f i libucrt:assert.obj
 0001:0003e3d0       __assert                   1003f3d0 f   libucrt:assert.obj
 0001:0003e42a       __invoke_watson_if_error   1003f42a f i libucrt:assert.obj
 0001:0003e454       __vfwprintf_l              1003f454 f i libucrt:assert.obj
 0001:0003e482       __vswprintf_c_l            1003f482 f i libucrt:assert.obj
 0001:0003e4bc       __wassert                  1003f4bc f   libucrt:assert.obj
 0001:0003e516       _fwprintf                  1003f516 f i libucrt:assert.obj
 0001:0003e5d8       _swprintf                  1003f5d8 f i libucrt:assert.obj
 0001:0003e5fd       ??$?RE@__crt_internal_free_policy@@QBEXQBE@Z 1003f5fd f i libucrt:input.obj
 0001:0003e741       ??$assemble_floating_point_ind@M@__crt_strtox@@YAXAAM@Z 1003f741 f i libucrt:input.obj
 0001:0003e755       ??$assemble_floating_point_ind@N@__crt_strtox@@YAXAAN@Z 1003f755 f i libucrt:input.obj
 0001:0003e76e       ??$assemble_floating_point_infinity@M@__crt_strtox@@YAX_NAAM@Z 1003f76e f i libucrt:input.obj
 0001:0003e78d       ??$assemble_floating_point_infinity@N@__crt_strtox@@YAX_NAAN@Z 1003f78d f i libucrt:input.obj
 0001:0003e7b1       ??$assemble_floating_point_qnan@M@__crt_strtox@@YAX_NAAM@Z 1003f7b1 f i libucrt:input.obj
 0001:0003e7d0       ??$assemble_floating_point_qnan@N@__crt_strtox@@YAX_NAAN@Z 1003f7d0 f i libucrt:input.obj
 0001:0003e7f4       ??$assemble_floating_point_snan@M@__crt_strtox@@YAX_NAAM@Z 1003f7f4 f i libucrt:input.obj
 0001:0003e813       ??$assemble_floating_point_snan@N@__crt_strtox@@YAX_NAAN@Z 1003f813 f i libucrt:input.obj
 0001:0003e83c       ??$assemble_floating_point_value_t@M@__crt_strtox@@YA?AW4SLD_STATUS@@_NH_KAAM@Z 1003f83c f i libucrt:input.obj
 0001:0003e878       ??$assemble_floating_point_value_t@N@__crt_strtox@@YA?AW4SLD_STATUS@@_NH_KAAN@Z 1003f878 f i libucrt:input.obj
 0001:0003e8ca       ??$assemble_floating_point_zero@M@__crt_strtox@@YAX_NAAM@Z 1003f8ca f i libucrt:input.obj
 0001:0003e8e1       ??$assemble_floating_point_zero@N@__crt_strtox@@YAX_NAAN@Z 1003f8e1 f i libucrt:input.obj
 0001:0003eba1       ??$convert_decimal_string_to_floating_type@M@__crt_strtox@@YA?AW4SLD_STATUS@@ABUfloating_point_string@0@AAM@Z 1003fba1 f i libucrt:input.obj
 0001:0003ebcc       ??$convert_decimal_string_to_floating_type@N@__crt_strtox@@YA?AW4SLD_STATUS@@ABUfloating_point_string@0@AAN@Z 1003fbcc f i libucrt:input.obj
 0001:0003ebf7       ??$convert_hexadecimal_string_to_floating_type@M@__crt_strtox@@YA?AW4SLD_STATUS@@ABUfloating_point_string@0@AAM@Z 1003fbf7 f i libucrt:input.obj
 0001:0003ec22       ??$convert_hexadecimal_string_to_floating_type@N@__crt_strtox@@YA?AW4SLD_STATUS@@ABUfloating_point_string@0@AAN@Z 1003fc22 f i libucrt:input.obj
 0001:0003ec4d       ??$fill_buffer@D@?$input_processor@DV?$stream_input_adapter@D@__crt_stdio_input@@@__crt_stdio_input@@CAXQADII@Z 1003fc4d f i libucrt:input.obj
 0001:0003ec4e       ??$fill_buffer@D@?$input_processor@DV?$string_input_adapter@D@__crt_stdio_input@@@__crt_stdio_input@@CAXQADII@Z 1003fc4e f i libucrt:input.obj
 0001:0003ec4f       ??$fill_buffer@D@?$input_processor@_WV?$stream_input_adapter@_W@__crt_stdio_input@@@__crt_stdio_input@@CAXQADII@Z 1003fc4f f i libucrt:input.obj
 0001:0003ec50       ??$fill_buffer@D@?$input_processor@_WV?$string_input_adapter@_W@__crt_stdio_input@@@__crt_stdio_input@@CAXQADII@Z 1003fc50 f i libucrt:input.obj
 0001:0003ec51       ??$fill_buffer@_W@?$input_processor@DV?$stream_input_adapter@D@__crt_stdio_input@@@__crt_stdio_input@@CAXQA_WII@Z 1003fc51 f i libucrt:input.obj
 0001:0003ec52       ??$fill_buffer@_W@?$input_processor@DV?$string_input_adapter@D@__crt_stdio_input@@@__crt_stdio_input@@CAXQA_WII@Z 1003fc52 f i libucrt:input.obj
 0001:0003ec53       ??$fill_buffer@_W@?$input_processor@_WV?$stream_input_adapter@_W@__crt_stdio_input@@@__crt_stdio_input@@CAXQA_WII@Z 1003fc53 f i libucrt:input.obj
 0001:0003ec54       ??$fill_buffer@_W@?$input_processor@_WV?$string_input_adapter@_W@__crt_stdio_input@@@__crt_stdio_input@@CAXQA_WII@Z 1003fc54 f i libucrt:input.obj
 0001:0003ec55       ??$getc_nolock@PAU_iobuf@@@?$__crt_char_traits@D@@SAH$$QAPAU_iobuf@@@Z 1003fc55 f i libucrt:input.obj
 0001:0003ec6b       ??$getc_nolock@PAU_iobuf@@@?$__crt_char_traits@_W@@SAG$$QAPAU_iobuf@@@Z 1003fc6b f i libucrt:input.obj
 0001:0003ec81       ??$is_overflow_condition@_K@__crt_strtox@@YA_NI_K@Z 1003fc81 f i libucrt:input.obj
 0001:0003ecd2       ??$istspace@ABE@?$__crt_char_traits@D@@SAHABE@Z 1003fcd2 f i libucrt:input.obj
 0001:0003eceb       ??$istspace@AB_W@?$__crt_char_traits@_W@@SAHAB_W@Z 1003fceb f i libucrt:input.obj
 0001:0003ed07       ??$make_input_adapter_character_source@V?$stream_input_adapter@D@__crt_stdio_input@@@__crt_strtox@@YA?AV?$input_adapter_character_source@V?$stream_input_adapter@D@__crt_stdio_input@@@0@QAV?$stream_input_adapter@D@__crt_stdio_input@@_KQA_N@Z 1003fd07 f i libucrt:input.obj
 0001:0003ed2c       ??$make_input_adapter_character_source@V?$stream_input_adapter@_W@__crt_stdio_input@@@__crt_strtox@@YA?AV?$input_adapter_character_source@V?$stream_input_adapter@_W@__crt_stdio_input@@@0@QAV?$stream_input_adapter@_W@__crt_stdio_input@@_KQA_N@Z 1003fd2c f i libucrt:input.obj
 0001:0003ed51       ??$make_input_adapter_character_source@V?$string_input_adapter@D@__crt_stdio_input@@@__crt_strtox@@YA?AV?$input_adapter_character_source@V?$string_input_adapter@D@__crt_stdio_input@@@0@QAV?$string_input_adapter@D@__crt_stdio_input@@_KQA_N@Z 1003fd51 f i libucrt:input.obj
 0001:0003ed76       ??$make_input_adapter_character_source@V?$string_input_adapter@_W@__crt_stdio_input@@@__crt_strtox@@YA?AV?$input_adapter_character_source@V?$string_input_adapter@_W@__crt_stdio_input@@@0@QAV?$string_input_adapter@_W@__crt_stdio_input@@_KQA_N@Z 1003fd76 f i libucrt:input.obj
 0001:0003ed9b       ??$parse_floating_point@V?$input_adapter_character_source@V?$stream_input_adapter@D@__crt_stdio_input@@@__crt_strtox@@M@__crt_strtox@@YA?AW4SLD_STATUS@@QAU__crt_locale_pointers@@V?$input_adapter_character_source@V?$stream_input_adapter@D@__crt_stdio_input@@@0@QAM@Z 1003fd9b f i libucrt:input.obj
 0001:0003ee34       ??$parse_floating_point@V?$input_adapter_character_source@V?$stream_input_adapter@D@__crt_stdio_input@@@__crt_strtox@@N@__crt_strtox@@YA?AW4SLD_STATUS@@QAU__crt_locale_pointers@@V?$input_adapter_character_source@V?$stream_input_adapter@D@__crt_stdio_input@@@0@QAN@Z 1003fe34 f i libucrt:input.obj
 0001:0003eecd       ??$parse_floating_point@V?$input_adapter_character_source@V?$stream_input_adapter@_W@__crt_stdio_input@@@__crt_strtox@@M@__crt_strtox@@YA?AW4SLD_STATUS@@QAU__crt_locale_pointers@@V?$input_adapter_character_source@V?$stream_input_adapter@_W@__crt_stdio_input@@@0@QAM@Z 1003fecd f i libucrt:input.obj
 0001:0003ef66       ??$parse_floating_point@V?$input_adapter_character_source@V?$stream_input_adapter@_W@__crt_stdio_input@@@__crt_strtox@@N@__crt_strtox@@YA?AW4SLD_STATUS@@QAU__crt_locale_pointers@@V?$input_adapter_character_source@V?$stream_input_adapter@_W@__crt_stdio_input@@@0@QAN@Z 1003ff66 f i libucrt:input.obj
 0001:0003efff       ??$parse_floating_point@V?$input_adapter_character_source@V?$string_input_adapter@D@__crt_stdio_input@@@__crt_strtox@@M@__crt_strtox@@YA?AW4SLD_STATUS@@QAU__crt_locale_pointers@@V?$input_adapter_character_source@V?$string_input_adapter@D@__crt_stdio_input@@@0@QAM@Z 1003ffff f i libucrt:input.obj
 0001:0003f098       ??$parse_floating_point@V?$input_adapter_character_source@V?$string_input_adapter@D@__crt_stdio_input@@@__crt_strtox@@N@__crt_strtox@@YA?AW4SLD_STATUS@@QAU__crt_locale_pointers@@V?$input_adapter_character_source@V?$string_input_adapter@D@__crt_stdio_input@@@0@QAN@Z 10040098 f i libucrt:input.obj
 0001:0003f131       ??$parse_floating_point@V?$input_adapter_character_source@V?$string_input_adapter@_W@__crt_stdio_input@@@__crt_strtox@@M@__crt_strtox@@YA?AW4SLD_STATUS@@QAU__crt_locale_pointers@@V?$input_adapter_character_source@V?$string_input_adapter@_W@__crt_stdio_input@@@0@QAM@Z 10040131 f i libucrt:input.obj
 0001:0003f1ca       ??$parse_floating_point@V?$input_adapter_character_source@V?$string_input_adapter@_W@__crt_stdio_input@@@__crt_strtox@@N@__crt_strtox@@YA?AW4SLD_STATUS@@QAU__crt_locale_pointers@@V?$input_adapter_character_source@V?$string_input_adapter@_W@__crt_stdio_input@@@0@QAN@Z 100401ca f i libucrt:input.obj
 0001:0003f263       ??$parse_floating_point_from_source@V?$input_adapter_character_source@V?$stream_input_adapter@D@__crt_stdio_input@@@__crt_strtox@@@__crt_strtox@@YA?AW4floating_point_parse_result@0@QAU__crt_locale_pointers@@AAV?$input_adapter_character_source@V?$stream_input_adapter@D@__crt_stdio_input@@@0@AAUfloating_point_string@0@@Z 10040263 f i libucrt:input.obj
 0001:0003f7d8       ??$parse_floating_point_from_source@V?$input_adapter_character_source@V?$stream_input_adapter@_W@__crt_stdio_input@@@__crt_strtox@@@__crt_strtox@@YA?AW4floating_point_parse_result@0@QAU__crt_locale_pointers@@AAV?$input_adapter_character_source@V?$stream_input_adapter@_W@__crt_stdio_input@@@0@AAUfloating_point_string@0@@Z 100407d8 f i libucrt:input.obj
 0001:000409a8       ??$parse_floating_point_from_source@V?$input_adapter_character_source@V?$string_input_adapter@D@__crt_stdio_input@@@__crt_strtox@@@__crt_strtox@@YA?AW4floating_point_parse_result@0@QAU__crt_locale_pointers@@AAV?$input_adapter_character_source@V?$string_input_adapter@D@__crt_stdio_input@@@0@AAUfloating_point_string@0@@Z 100419a8 f i libucrt:input.obj
 0001:00040f1d       ??$parse_floating_point_from_source@V?$input_adapter_character_source@V?$string_input_adapter@_W@__crt_stdio_input@@@__crt_strtox@@@__crt_strtox@@YA?AW4floating_point_parse_result@0@QAU__crt_locale_pointers@@AAV?$input_adapter_character_source@V?$string_input_adapter@_W@__crt_stdio_input@@@0@AAUfloating_point_string@0@@Z 10041f1d f i libucrt:input.obj
 0001:000420ed       ??$parse_floating_point_possible_infinity@DV?$input_adapter_character_source@V?$stream_input_adapter@D@__crt_stdio_input@@@__crt_strtox@@_K@__crt_strtox@@YA?AW4floating_point_parse_result@0@AADAAV?$input_adapter_character_source@V?$stream_input_adapter@D@__crt_stdio_input@@@0@_K@Z 100430ed f i libucrt:input.obj
 0001:000421de       ??$parse_floating_point_possible_infinity@DV?$input_adapter_character_source@V?$string_input_adapter@D@__crt_stdio_input@@@__crt_strtox@@_K@__crt_strtox@@YA?AW4floating_point_parse_result@0@AADAAV?$input_adapter_character_source@V?$string_input_adapter@D@__crt_stdio_input@@@0@_K@Z 100431de f i libucrt:input.obj
 0001:000422cf       ??$parse_floating_point_possible_infinity@_WV?$input_adapter_character_source@V?$stream_input_adapter@_W@__crt_stdio_input@@@__crt_strtox@@_K@__crt_strtox@@YA?AW4floating_point_parse_result@0@AA_WAAV?$input_adapter_character_source@V?$stream_input_adapter@_W@__crt_stdio_input@@@0@_K@Z 100432cf f i libucrt:input.obj
 0001:000423d1       ??$parse_floating_point_possible_infinity@_WV?$input_adapter_character_source@V?$string_input_adapter@_W@__crt_stdio_input@@@__crt_strtox@@_K@__crt_strtox@@YA?AW4floating_point_parse_result@0@AA_WAAV?$input_adapter_character_source@V?$string_input_adapter@_W@__crt_stdio_input@@@0@_K@Z 100433d1 f i libucrt:input.obj
 0001:000424d3       ??$parse_floating_point_possible_nan@DV?$input_adapter_character_source@V?$stream_input_adapter@D@__crt_stdio_input@@@__crt_strtox@@_K@__crt_strtox@@YA?AW4floating_point_parse_result@0@AADAAV?$input_adapter_character_source@V?$stream_input_adapter@D@__crt_stdio_input@@@0@_K@Z 100434d3 f i libucrt:input.obj
 0001:00042637       ??$parse_floating_point_possible_nan@DV?$input_adapter_character_source@V?$string_input_adapter@D@__crt_stdio_input@@@__crt_strtox@@_K@__crt_strtox@@YA?AW4floating_point_parse_result@0@AADAAV?$input_adapter_character_source@V?$string_input_adapter@D@__crt_stdio_input@@@0@_K@Z 10043637 f i libucrt:input.obj
 0001:0004279b       ??$parse_floating_point_possible_nan@_WV?$input_adapter_character_source@V?$stream_input_adapter@_W@__crt_stdio_input@@@__crt_strtox@@_K@__crt_strtox@@YA?AW4floating_point_parse_result@0@AA_WAAV?$input_adapter_character_source@V?$stream_input_adapter@_W@__crt_stdio_input@@@0@_K@Z 1004379b f i libucrt:input.obj
 0001:00042919       ??$parse_floating_point_possible_nan@_WV?$input_adapter_character_source@V?$string_input_adapter@_W@__crt_stdio_input@@@__crt_strtox@@_K@__crt_strtox@@YA?AW4floating_point_parse_result@0@AA_WAAV?$input_adapter_character_source@V?$string_input_adapter@_W@__crt_stdio_input@@@0@_K@Z 10043919 f i libucrt:input.obj
 0001:00042a97       ??$parse_floating_point_possible_nan_is_ind@DV?$input_adapter_character_source@V?$stream_input_adapter@D@__crt_stdio_input@@@__crt_strtox@@@__crt_strtox@@YA_NAADAAV?$input_adapter_character_source@V?$stream_input_adapter@D@__crt_stdio_input@@@0@@Z 10043a97 f i libucrt:input.obj
 0001:00042adf       ??$parse_floating_point_possible_nan_is_ind@DV?$input_adapter_character_source@V?$string_input_adapter@D@__crt_stdio_input@@@__crt_strtox@@@__crt_strtox@@YA_NAADAAV?$input_adapter_character_source@V?$string_input_adapter@D@__crt_stdio_input@@@0@@Z 10043adf f i libucrt:input.obj
 0001:00042b27       ??$parse_floating_point_possible_nan_is_ind@_WV?$input_adapter_character_source@V?$stream_input_adapter@_W@__crt_stdio_input@@@__crt_strtox@@@__crt_strtox@@YA_NAA_WAAV?$input_adapter_character_source@V?$stream_input_adapter@_W@__crt_stdio_input@@@0@@Z 10043b27 f i libucrt:input.obj
 0001:00042b77       ??$parse_floating_point_possible_nan_is_ind@_WV?$input_adapter_character_source@V?$string_input_adapter@_W@__crt_stdio_input@@@__crt_strtox@@@__crt_strtox@@YA_NAA_WAAV?$input_adapter_character_source@V?$string_input_adapter@_W@__crt_stdio_input@@@0@@Z 10043b77 f i libucrt:input.obj
 0001:00042bc7       ??$parse_floating_point_possible_nan_is_snan@DV?$input_adapter_character_source@V?$stream_input_adapter@D@__crt_stdio_input@@@__crt_strtox@@@__crt_strtox@@YA_NAADAAV?$input_adapter_character_source@V?$stream_input_adapter@D@__crt_stdio_input@@@0@@Z 10043bc7 f i libucrt:input.obj
 0001:00042c0f       ??$parse_floating_point_possible_nan_is_snan@DV?$input_adapter_character_source@V?$string_input_adapter@D@__crt_stdio_input@@@__crt_strtox@@@__crt_strtox@@YA_NAADAAV?$input_adapter_character_source@V?$string_input_adapter@D@__crt_stdio_input@@@0@@Z 10043c0f f i libucrt:input.obj
 0001:00042c57       ??$parse_floating_point_possible_nan_is_snan@_WV?$input_adapter_character_source@V?$stream_input_adapter@_W@__crt_stdio_input@@@__crt_strtox@@@__crt_strtox@@YA_NAA_WAAV?$input_adapter_character_source@V?$stream_input_adapter@_W@__crt_stdio_input@@@0@@Z 10043c57 f i libucrt:input.obj
 0001:00042ca7       ??$parse_floating_point_possible_nan_is_snan@_WV?$input_adapter_character_source@V?$string_input_adapter@_W@__crt_stdio_input@@@__crt_strtox@@@__crt_strtox@@YA_NAA_WAAV?$input_adapter_character_source@V?$string_input_adapter@_W@__crt_stdio_input@@@0@@Z 10043ca7 f i libucrt:input.obj
 0001:00042cf7       ??$parse_floating_point_write_result@M@__crt_strtox@@YA?AW4SLD_STATUS@@W4floating_point_parse_result@0@ABUfloating_point_string@0@QAM@Z 10043cf7 f i libucrt:input.obj
 0001:00042ebe       ??$parse_floating_point_write_result@N@__crt_strtox@@YA?AW4SLD_STATUS@@W4floating_point_parse_result@0@ABUfloating_point_string@0@QAN@Z 10043ebe f i libucrt:input.obj
 0001:0004302b       ??$parse_integer@_KV?$input_adapter_character_source@V?$stream_input_adapter@D@__crt_stdio_input@@@__crt_strtox@@@__crt_strtox@@YA_KQAU__crt_locale_pointers@@V?$input_adapter_character_source@V?$stream_input_adapter@D@__crt_stdio_input@@@0@H_N@Z 1004402b f i libucrt:input.obj
 0001:00043399       ??$parse_integer@_KV?$input_adapter_character_source@V?$stream_input_adapter@_W@__crt_stdio_input@@@__crt_strtox@@@__crt_strtox@@YA_KQAU__crt_locale_pointers@@V?$input_adapter_character_source@V?$stream_input_adapter@_W@__crt_stdio_input@@@0@H_N@Z 10044399 f i libucrt:input.obj
 0001:00043b29       ??$parse_integer@_KV?$input_adapter_character_source@V?$string_input_adapter@D@__crt_stdio_input@@@__crt_strtox@@@__crt_strtox@@YA_KQAU__crt_locale_pointers@@V?$input_adapter_character_source@V?$string_input_adapter@D@__crt_stdio_input@@@0@H_N@Z 10044b29 f i libucrt:input.obj
 0001:00043e97       ??$parse_integer@_KV?$input_adapter_character_source@V?$string_input_adapter@_W@__crt_stdio_input@@@__crt_strtox@@@__crt_strtox@@YA_KQAU__crt_locale_pointers@@V?$input_adapter_character_source@V?$string_input_adapter@_W@__crt_stdio_input@@@0@H_N@Z 10044e97 f i libucrt:input.obj
 0001:00044627       ??$parse_next_characters_from_source@DV?$input_adapter_character_source@V?$stream_input_adapter@D@__crt_stdio_input@@@__crt_strtox@@@__crt_strtox@@YA_NQBD0IAADAAV?$input_adapter_character_source@V?$stream_input_adapter@D@__crt_stdio_input@@@0@@Z 10045627 f i libucrt:input.obj
 0001:0004467c       ??$parse_next_characters_from_source@DV?$input_adapter_character_source@V?$string_input_adapter@D@__crt_stdio_input@@@__crt_strtox@@@__crt_strtox@@YA_NQBD0IAADAAV?$input_adapter_character_source@V?$string_input_adapter@D@__crt_stdio_input@@@0@@Z 1004567c f i libucrt:input.obj
 0001:000446d1       ??$parse_next_characters_from_source@_WV?$input_adapter_character_source@V?$stream_input_adapter@_W@__crt_stdio_input@@@__crt_strtox@@@__crt_strtox@@YA_NQB_W0IAA_WAAV?$input_adapter_character_source@V?$stream_input_adapter@_W@__crt_stdio_input@@@0@@Z 100456d1 f i libucrt:input.obj
 0001:0004472d       ??$parse_next_characters_from_source@_WV?$input_adapter_character_source@V?$string_input_adapter@_W@__crt_stdio_input@@@__crt_strtox@@@__crt_strtox@@YA_NQB_W0IAA_WAAV?$input_adapter_character_source@V?$string_input_adapter@_W@__crt_stdio_input@@@0@@Z 1004572d f i libucrt:input.obj
 0001:00044789       ??$process_floating_point_specifier_t@M@?$input_processor@DV?$stream_input_adapter@D@__crt_stdio_input@@@__crt_stdio_input@@AAE_NXZ 10045789 f i libucrt:input.obj
 0001:0004480b       ??$process_floating_point_specifier_t@M@?$input_processor@DV?$string_input_adapter@D@__crt_stdio_input@@@__crt_stdio_input@@AAE_NXZ 1004580b f i libucrt:input.obj
 0001:0004488d       ??$process_floating_point_specifier_t@M@?$input_processor@_WV?$stream_input_adapter@_W@__crt_stdio_input@@@__crt_stdio_input@@AAE_NXZ 1004588d f i libucrt:input.obj
 0001:0004490f       ??$process_floating_point_specifier_t@M@?$input_processor@_WV?$string_input_adapter@_W@__crt_stdio_input@@@__crt_stdio_input@@AAE_NXZ 1004590f f i libucrt:input.obj
 0001:00044991       ??$process_floating_point_specifier_t@N@?$input_processor@DV?$stream_input_adapter@D@__crt_stdio_input@@@__crt_stdio_input@@AAE_NXZ 10045991 f i libucrt:input.obj
 0001:00044a13       ??$process_floating_point_specifier_t@N@?$input_processor@DV?$string_input_adapter@D@__crt_stdio_input@@@__crt_stdio_input@@AAE_NXZ 10045a13 f i libucrt:input.obj
 0001:00044a95       ??$process_floating_point_specifier_t@N@?$input_processor@_WV?$stream_input_adapter@_W@__crt_stdio_input@@@__crt_stdio_input@@AAE_NXZ 10045a95 f i libucrt:input.obj
 0001:00044b17       ??$process_floating_point_specifier_t@N@?$input_processor@_WV?$string_input_adapter@_W@__crt_stdio_input@@@__crt_stdio_input@@AAE_NXZ 10045b17 f i libucrt:input.obj
 0001:00044b99       ??$process_string_specifier_tchar@D@?$input_processor@DV?$stream_input_adapter@D@__crt_stdio_input@@@__crt_stdio_input@@AAE_NW4conversion_mode@1@D@Z 10045b99 f i libucrt:input.obj
 0001:00044d68       ??$process_string_specifier_tchar@D@?$input_processor@DV?$string_input_adapter@D@__crt_stdio_input@@@__crt_stdio_input@@AAE_NW4conversion_mode@1@D@Z 10045d68 f i libucrt:input.obj
 0001:00044f1e       ??$process_string_specifier_tchar@D@?$input_processor@_WV?$stream_input_adapter@_W@__crt_stdio_input@@@__crt_stdio_input@@AAE_NW4conversion_mode@1@D@Z 10045f1e f i libucrt:input.obj
 0001:000450e0       ??$process_string_specifier_tchar@D@?$input_processor@_WV?$string_input_adapter@_W@__crt_stdio_input@@@__crt_stdio_input@@AAE_NW4conversion_mode@1@D@Z 100460e0 f i libucrt:input.obj
 0001:000452a2       ??$process_string_specifier_tchar@_W@?$input_processor@DV?$stream_input_adapter@D@__crt_stdio_input@@@__crt_stdio_input@@AAE_NW4conversion_mode@1@_W@Z 100462a2 f i libucrt:input.obj
 0001:0004547e       ??$process_string_specifier_tchar@_W@?$input_processor@DV?$string_input_adapter@D@__crt_stdio_input@@@__crt_stdio_input@@AAE_NW4conversion_mode@1@_W@Z 1004647e f i libucrt:input.obj
 0001:00045641       ??$process_string_specifier_tchar@_W@?$input_processor@_WV?$stream_input_adapter@_W@__crt_stdio_input@@@__crt_stdio_input@@AAE_NW4conversion_mode@1@_W@Z 10046641 f i libucrt:input.obj
 0001:00045804       ??$process_string_specifier_tchar@_W@?$input_processor@_WV?$string_input_adapter@_W@__crt_stdio_input@@@__crt_stdio_input@@AAE_NW4conversion_mode@1@_W@Z 10046804 f i libucrt:input.obj
 0001:000459c7       ??$reset_buffer@D@?$input_processor@DV?$stream_input_adapter@D@__crt_stdio_input@@@__crt_stdio_input@@CAXQADI@Z 100469c7 f i libucrt:input.obj
 0001:000459de       ??$reset_buffer@D@?$input_processor@DV?$string_input_adapter@D@__crt_stdio_input@@@__crt_stdio_input@@CAXQADI@Z 100469de f i libucrt:input.obj
 0001:000459f5       ??$reset_buffer@D@?$input_processor@_WV?$stream_input_adapter@_W@__crt_stdio_input@@@__crt_stdio_input@@CAXQADI@Z 100469f5 f i libucrt:input.obj
 0001:00045a0c       ??$reset_buffer@D@?$input_processor@_WV?$string_input_adapter@_W@__crt_stdio_input@@@__crt_stdio_input@@CAXQADI@Z 10046a0c f i libucrt:input.obj
 0001:00045a23       ??$reset_buffer@_W@?$input_processor@DV?$stream_input_adapter@D@__crt_stdio_input@@@__crt_stdio_input@@CAXQA_WI@Z 10046a23 f i libucrt:input.obj
 0001:00045a3d       ??$reset_buffer@_W@?$input_processor@DV?$string_input_adapter@D@__crt_stdio_input@@@__crt_stdio_input@@CAXQA_WI@Z 10046a3d f i libucrt:input.obj
 0001:00045a57       ??$reset_buffer@_W@?$input_processor@_WV?$stream_input_adapter@_W@__crt_stdio_input@@@__crt_stdio_input@@CAXQA_WI@Z 10046a57 f i libucrt:input.obj
 0001:00045a71       ??$reset_buffer@_W@?$input_processor@_WV?$string_input_adapter@_W@__crt_stdio_input@@@__crt_stdio_input@@CAXQA_WI@Z 10046a71 f i libucrt:input.obj
 0001:00045a8b       ??$skip_whitespace@Vstream_input_adapter@__crt_stdio_input@@D@__crt_stdio_input@@YAHAAV?$stream_input_adapter@D@0@QAU__crt_locale_pointers@@@Z 10046a8b f i libucrt:input.obj
 0001:00045acf       ??$skip_whitespace@Vstream_input_adapter@__crt_stdio_input@@_W@__crt_stdio_input@@YAGAAV?$stream_input_adapter@_W@0@QAU__crt_locale_pointers@@@Z 10046acf f i libucrt:input.obj
 0001:00045b09       ??$skip_whitespace@Vstring_input_adapter@__crt_stdio_input@@D@__crt_stdio_input@@YAHAAV?$string_input_adapter@D@0@QAU__crt_locale_pointers@@@Z 10046b09 f i libucrt:input.obj
 0001:00045b43       ??$skip_whitespace@Vstring_input_adapter@__crt_stdio_input@@_W@__crt_stdio_input@@YAGAAV?$string_input_adapter@_W@0@QAU__crt_locale_pointers@@@Z 10046b43 f i libucrt:input.obj
 0001:00045b7d       ??$tcsnlen@ABQBDABI@?$__crt_char_traits@D@@SAIABQBDABI@Z 10046b7d f i libucrt:input.obj
 0001:00045b9b       ??$tcsnlen@ABQB_WABI@?$__crt_char_traits@_W@@SAIABQB_WABI@Z 10046b9b f i libucrt:input.obj
 0001:00045bb9       ??$tcstoull@AAPB_WPAPA_WH@?$__crt_char_traits@_W@@SA_KAAPB_W$$QAPAPA_W$$QAH@Z 10046bb9 f i libucrt:input.obj
 0001:00045bde       ??$tcstoull@PBDPAPADH@?$__crt_char_traits@D@@SA_K$$QAPBD$$QAPAPAD$$QAH@Z 10046bde f i libucrt:input.obj
 0001:00045c03       ??$ungettc_nolock@ABGPAU_iobuf@@@?$__crt_char_traits@_W@@SAGABG$$QAPAU_iobuf@@@Z 10046c03 f i libucrt:input.obj
 0001:00045c23       ??$ungettc_nolock@ABHPAU_iobuf@@@?$__crt_char_traits@D@@SAHABH$$QAPAU_iobuf@@@Z 10046c23 f i libucrt:input.obj
 0001:00045c41       ??$write_floating_point@M@?$input_processor@DV?$stream_input_adapter@D@__crt_stdio_input@@@__crt_stdio_input@@AAE_NABM@Z 10046c41 f i libucrt:input.obj
 0001:00045c82       ??$write_floating_point@M@?$input_processor@DV?$string_input_adapter@D@__crt_stdio_input@@@__crt_stdio_input@@AAE_NABM@Z 10046c82 f i libucrt:input.obj
 0001:00045cc3       ??$write_floating_point@M@?$input_processor@_WV?$stream_input_adapter@_W@__crt_stdio_input@@@__crt_stdio_input@@AAE_NABM@Z 10046cc3 f i libucrt:input.obj
 0001:00045d04       ??$write_floating_point@M@?$input_processor@_WV?$string_input_adapter@_W@__crt_stdio_input@@@__crt_stdio_input@@AAE_NABM@Z 10046d04 f i libucrt:input.obj
 0001:00045d45       ??$write_floating_point@N@?$input_processor@DV?$stream_input_adapter@D@__crt_stdio_input@@@__crt_stdio_input@@AAE_NABN@Z 10046d45 f i libucrt:input.obj
 0001:00045d8d       ??$write_floating_point@N@?$input_processor@DV?$string_input_adapter@D@__crt_stdio_input@@@__crt_stdio_input@@AAE_NABN@Z 10046d8d f i libucrt:input.obj
 0001:00045dd5       ??$write_floating_point@N@?$input_processor@_WV?$stream_input_adapter@_W@__crt_stdio_input@@@__crt_stdio_input@@AAE_NABN@Z 10046dd5 f i libucrt:input.obj
 0001:00045e1d       ??$write_floating_point@N@?$input_processor@_WV?$string_input_adapter@_W@__crt_stdio_input@@@__crt_stdio_input@@AAE_NABN@Z 10046e1d f i libucrt:input.obj
 0001:000460c5       ??0?$__crt_unique_heap_ptr@EU__crt_internal_free_policy@@@@QAE@QAE@Z 100470c5 f i libucrt:input.obj
 0001:000460d9       ??0?$format_string_parser@D@__crt_stdio_input@@QAE@_KQBE@Z 100470d9 f i libucrt:input.obj
 0001:00046135       ??0?$format_string_parser@_W@__crt_stdio_input@@QAE@_KQB_W@Z 10047135 f i libucrt:input.obj
 0001:00046182       ??0?$input_adapter_character_source@V?$stream_input_adapter@D@__crt_stdio_input@@@__crt_strtox@@QAE@QAV?$stream_input_adapter@D@__crt_stdio_input@@_KQA_N@Z 10047182 f i libucrt:input.obj
 0001:000461bf       ??0?$input_adapter_character_source@V?$stream_input_adapter@_W@__crt_stdio_input@@@__crt_strtox@@QAE@QAV?$stream_input_adapter@_W@__crt_stdio_input@@_KQA_N@Z 100471bf f i libucrt:input.obj
 0001:000461fc       ??0?$input_adapter_character_source@V?$string_input_adapter@D@__crt_stdio_input@@@__crt_strtox@@QAE@QAV?$string_input_adapter@D@__crt_stdio_input@@_KQA_N@Z 100471fc f i libucrt:input.obj
 0001:00046239       ??0?$input_adapter_character_source@V?$string_input_adapter@_W@__crt_stdio_input@@@__crt_strtox@@QAE@QAV?$string_input_adapter@_W@__crt_stdio_input@@_KQA_N@Z 10047239 f i libucrt:input.obj
 0001:00046276       ??0?$input_processor@DV?$stream_input_adapter@D@__crt_stdio_input@@@__crt_stdio_input@@QAE@ABV?$stream_input_adapter@D@1@_KQBDQAU__crt_locale_pointers@@QAD@Z 10047276 f i libucrt:input.obj
 0001:000462d1       ??0?$input_processor@DV?$string_input_adapter@D@__crt_stdio_input@@@__crt_stdio_input@@QAE@ABV?$string_input_adapter@D@1@_KQBDQAU__crt_locale_pointers@@QAD@Z 100472d1 f i libucrt:input.obj
 0001:00046326       ??0?$input_processor@_WV?$stream_input_adapter@_W@__crt_stdio_input@@@__crt_stdio_input@@QAE@ABV?$stream_input_adapter@_W@1@_KQB_WQAU__crt_locale_pointers@@QAD@Z 10047326 f i libucrt:input.obj
 0001:00046381       ??0?$input_processor@_WV?$string_input_adapter@_W@__crt_stdio_input@@@__crt_stdio_input@@QAE@ABV?$string_input_adapter@_W@1@_KQB_WQAU__crt_locale_pointers@@QAD@Z 10047381 f i libucrt:input.obj
 0001:000463d6       ??0?$scanset_buffer@E@__crt_stdio_input@@QAE@XZ 100473d6 f i libucrt:input.obj
 0001:000463ec       ??0?$scanset_buffer@_W@__crt_stdio_input@@QAE@XZ 100473ec f i libucrt:input.obj
 0001:000463f2       ??0?$scanset_storage@$00@__crt_stdio_input@@QAE@XZ 100473f2 f i libucrt:input.obj
 0001:00046408       ??0?$scanset_storage@$01@__crt_stdio_input@@QAE@XZ 10047408 f i libucrt:input.obj
 0001:0004640e       ??0?$stream_input_adapter@D@__crt_stdio_input@@QAE@QAU_iobuf@@@Z 1004740e f i libucrt:input.obj
 0001:00046427       ??0?$stream_input_adapter@_W@__crt_stdio_input@@QAE@QAU_iobuf@@@Z 10047427 f i libucrt:input.obj
 0001:00046440       ??0?$string_input_adapter@D@__crt_stdio_input@@QAE@QBDI@Z 10047440 f i libucrt:input.obj
 0001:00046461       ??0?$string_input_adapter@_W@__crt_stdio_input@@QAE@QB_WI@Z 10047461 f i libucrt:input.obj
 0001:00046490       ??0big_integer@__crt_strtox@@QAE@ABU01@@Z 10047490 f i libucrt:input.obj
 0001:000464d0       ??0big_integer@__crt_strtox@@QAE@XZ 100474d0 f i libucrt:input.obj
 0001:000464db       ??0floating_point_value@__crt_strtox@@QAE@QAM@Z 100474db f i libucrt:input.obj
 0001:000464f4       ??0floating_point_value@__crt_strtox@@QAE@QAN@Z 100474f4 f i libucrt:input.obj
 0001:0004650d       ??1?$__crt_unique_heap_ptr@EU__crt_internal_free_policy@@@@QAE@XZ 1004750d f i libucrt:input.obj
 0001:00046523       ??1?$format_string_parser@_W@__crt_stdio_input@@QAE@XZ 10047523 f i libucrt:input.obj
 0001:0004653c       ??1?$input_adapter_character_source@V?$stream_input_adapter@D@__crt_stdio_input@@@__crt_strtox@@QAE@XZ 1004753c f i libucrt:input.obj
 0001:00046552       ??1?$input_adapter_character_source@V?$stream_input_adapter@_W@__crt_stdio_input@@@__crt_strtox@@QAE@XZ 10047552 f i libucrt:input.obj
 0001:00046568       ??1?$input_adapter_character_source@V?$string_input_adapter@D@__crt_stdio_input@@@__crt_strtox@@QAE@XZ 10047568 f i libucrt:input.obj
 0001:0004657e       ??1?$input_adapter_character_source@V?$string_input_adapter@_W@__crt_stdio_input@@@__crt_strtox@@QAE@XZ 1004757e f i libucrt:input.obj
 0001:00046594       ??1?$input_processor@_WV?$stream_input_adapter@_W@__crt_stdio_input@@@__crt_stdio_input@@QAE@XZ 10047594 f i libucrt:input.obj
 0001:000465ad       ??1?$input_processor@_WV?$string_input_adapter@_W@__crt_stdio_input@@@__crt_stdio_input@@QAE@XZ 100475ad f i libucrt:input.obj
 0001:000465c6       ??1?$scanset_buffer@_W@__crt_stdio_input@@QAE@XZ 100475c6 f i libucrt:input.obj
 0001:000465dc       ??1?$scanset_storage@$01@__crt_stdio_input@@QAE@XZ 100475dc f i libucrt:input.obj
 0001:000465f2       ??4?$__crt_unique_heap_ptr@EU__crt_internal_free_policy@@@@QAEAAV0@$$QAV0@@Z 100475f2 f i libucrt:input.obj
 0001:00046620       ??4big_integer@__crt_strtox@@QAEAAU01@ABU01@@Z 10047620 f i libucrt:input.obj
 0001:0004665d       ??B?$__crt_unique_heap_ptr@EU__crt_internal_free_policy@@@@QBE_NXZ 1004765d f i libucrt:input.obj
 0001:00046670       ??M__crt_strtox@@YA_NABUbig_integer@0@0@Z 10047670 f i libucrt:input.obj
 0001:00046ac7       ?accumulate_decimal_digits_into_big_integer@__crt_strtox@@YAXQBE0AAUbig_integer@1@@Z 10047ac7 f i libucrt:input.obj
 0001:00047280       ?add@__crt_strtox@@YA_NAAUbig_integer@1@I@Z 10048280 f i libucrt:input.obj
 0001:00047320       ?add_carry@__crt_strtox@@YAIAAIII@Z 10048320 f i libucrt:input.obj
 0001:00047350       ?add_multiply_carry@__crt_strtox@@YAIAAIIII@Z 10048350 f i libucrt:input.obj
 0001:0004737d       ?advance@?$format_string_parser@D@__crt_stdio_input@@QAE_NXZ 1004837d f i libucrt:input.obj
 0001:000474eb       ?advance@?$format_string_parser@_W@__crt_stdio_input@@QAE_NXZ 100484eb f i libucrt:input.obj
 0001:00047637       ?as_double@floating_point_value@__crt_strtox@@QBEAANXZ 10048637 f i libucrt:input.obj
 0001:00047665       ?as_float@floating_point_value@__crt_strtox@@QBEAAMXZ 10048665 f i libucrt:input.obj
 0001:00047693       ?assemble_floating_point_infinity@__crt_strtox@@YAX_NABVfloating_point_value@1@@Z 10048693 f i libucrt:input.obj
 0001:000476e6       ?assemble_floating_point_value@__crt_strtox@@YA?AW4SLD_STATUS@@_KH_N1ABVfloating_point_value@1@@Z 100486e6 f i libucrt:input.obj
 0001:00047afd       ?assemble_floating_point_value_from_big_integer@__crt_strtox@@YA?AW4SLD_STATUS@@ABUbig_integer@1@I_N1ABVfloating_point_value@1@@Z 10048afd f i libucrt:input.obj
 0001:00047cf8       ?assemble_floating_point_zero@__crt_strtox@@YAX_NABVfloating_point_value@1@@Z 10048cf8 f i libucrt:input.obj
 0001:00047d40       ?bit_scan_reverse@__crt_strtox@@YAIABUbig_integer@1@@Z 10048d40 f i libucrt:input.obj
 0001:00047d90       ?bit_scan_reverse@__crt_strtox@@YAII@Z 10048d90 f i libucrt:input.obj
 0001:00047dc0       ?bit_scan_reverse@__crt_strtox@@YAI_K@Z 10048dc0 f i libucrt:input.obj
 0001:00047e18       ?characters_read@?$stream_input_adapter@D@__crt_stdio_input@@QBEIXZ 10048e18 f i libucrt:input.obj
 0001:00047e1c       ?characters_read@?$stream_input_adapter@_W@__crt_stdio_input@@QBEIXZ 10048e1c f i libucrt:input.obj
 0001:00047e20       ?characters_read@?$string_input_adapter@D@__crt_stdio_input@@QBEIXZ 10048e20 f i libucrt:input.obj
 0001:00047e26       ?characters_read@?$string_input_adapter@_W@__crt_stdio_input@@QBEIXZ 10048e26 f i libucrt:input.obj
 0001:00047e30       ?convert_decimal_string_to_floating_type_common@__crt_strtox@@YA?AW4SLD_STATUS@@ABUfloating_point_string@1@ABVfloating_point_value@1@@Z 10048e30 f i libucrt:input.obj
 0001:0004a302       ?convert_hexadecimal_string_to_floating_type_common@__crt_strtox@@YA?AW4SLD_STATUS@@ABUfloating_point_string@1@ABVfloating_point_value@1@@Z 1004b302 f i libucrt:input.obj
 0001:0004a3e0       ?count_sequential_high_zeroes@__crt_strtox@@YAII@Z 1004b3e0 f i libucrt:input.obj
 0001:0004a401       ?data@?$scanset_storage@$00@__crt_stdio_input@@QBEPAEXZ 1004b401 f i libucrt:input.obj
 0001:0004a404       ?data@?$scanset_storage@$01@__crt_stdio_input@@QBEPAEXZ 1004b404 f i libucrt:input.obj
 0001:0004a44d       ?denormal_mantissa_mask@floating_point_value@__crt_strtox@@QBE_KXZ 1004b44d f i libucrt:input.obj
 0001:0004a470       ?divide@__crt_strtox@@YA_KAAUbig_integer@1@ABU21@@Z 1004b470 f i libucrt:input.obj
 0001:0004aa20       ?error_code@?$format_string_parser@D@__crt_stdio_input@@QBEHXZ 1004ba20 f i libucrt:input.obj
 0001:0004aa24       ?error_code@?$format_string_parser@_W@__crt_stdio_input@@QBEHXZ 1004ba24 f i libucrt:input.obj
 0001:0004aa28       ?exponent_bias@floating_point_value@__crt_strtox@@QBEHXZ 1004ba28 f i libucrt:input.obj
 0001:0004aa3e       ?get@?$__crt_unique_heap_ptr@EU__crt_internal_free_policy@@@@QBEPAEXZ 1004ba3e f i libucrt:input.obj
 0001:0004aa41       ?get@?$input_adapter_character_source@V?$stream_input_adapter@D@__crt_stdio_input@@@__crt_strtox@@QAEDXZ 1004ba41 f i libucrt:input.obj
 0001:0004aa8f       ?get@?$input_adapter_character_source@V?$stream_input_adapter@_W@__crt_stdio_input@@@__crt_strtox@@QAE_WXZ 1004ba8f f i libucrt:input.obj
 0001:0004aadd       ?get@?$input_adapter_character_source@V?$string_input_adapter@D@__crt_stdio_input@@@__crt_strtox@@QAEDXZ 1004badd f i libucrt:input.obj
 0001:0004ab2d       ?get@?$input_adapter_character_source@V?$string_input_adapter@_W@__crt_stdio_input@@@__crt_strtox@@QAE_WXZ 1004bb2d f i libucrt:input.obj
 0001:0004ab7b       ?get@?$stream_input_adapter@D@__crt_stdio_input@@QAEHXZ 1004bb7b f i libucrt:input.obj
 0001:0004ab97       ?get@?$stream_input_adapter@_W@__crt_stdio_input@@QAEGXZ 1004bb97 f i libucrt:input.obj
 0001:0004abbd       ?get@?$string_input_adapter@D@__crt_stdio_input@@QAEHXZ 1004bbbd f i libucrt:input.obj
 0001:0004abd8       ?get@?$string_input_adapter@_W@__crt_stdio_input@@QAEGXZ 1004bbd8 f i libucrt:input.obj
 0001:0004abf8       ?invert@?$scanset_buffer@E@__crt_stdio_input@@QAEXXZ 1004bbf8 f i libucrt:input.obj
 0001:0004ac1d       ?invert@?$scanset_buffer@_W@__crt_stdio_input@@QAEXXZ 1004bc1d f i libucrt:input.obj
 0001:0004ac56       ?is_character_allowed_in_string@?$input_processor@DV?$stream_input_adapter@D@__crt_stdio_input@@@__crt_stdio_input@@ABE_NW4conversion_mode@2@H@Z 1004bc56 f i libucrt:input.obj
 0001:0004acbf       ?is_character_allowed_in_string@?$input_processor@DV?$string_input_adapter@D@__crt_stdio_input@@@__crt_stdio_input@@ABE_NW4conversion_mode@2@H@Z 1004bcbf f i libucrt:input.obj
 0001:0004ad28       ?is_character_allowed_in_string@?$input_processor@_WV?$stream_input_adapter@_W@__crt_stdio_input@@@__crt_stdio_input@@ABE_NW4conversion_mode@2@G@Z 1004bd28 f i libucrt:input.obj
 0001:0004ad88       ?is_character_allowed_in_string@?$input_processor@_WV?$string_input_adapter@_W@__crt_stdio_input@@@__crt_stdio_input@@ABE_NW4conversion_mode@2@G@Z 1004bd88 f i libucrt:input.obj
 0001:0004ade8       ?is_digit_or_nondigit@__crt_strtox@@YA_NH@Z 1004bde8 f i libucrt:input.obj
 0001:0004ae1f       ?is_double@floating_point_value@__crt_strtox@@QBE_NXZ 1004be1f f i libucrt:input.obj
 0001:0004ae23       ?is_length_valid@__crt_stdio_input@@YA_NW4conversion_mode@1@W4length_modifier@1@@Z 1004be23 f i libucrt:input.obj
 0001:0004ae42       ?is_space@__crt_strtox@@YA_NDQAU__crt_locale_pointers@@@Z 1004be42 f i libucrt:input.obj
 0001:0004ae67       ?is_space@__crt_strtox@@YA_N_WPAU__crt_locale_pointers@@@Z 1004be67 f i libucrt:input.obj
 0001:0004ae85       ?is_usable@?$scanset_buffer@E@__crt_stdio_input@@QAE_NXZ 1004be85 f i libucrt:input.obj
 0001:0004ae8b       ?is_usable@?$scanset_buffer@_W@__crt_stdio_input@@QAE_NXZ 1004be8b f i libucrt:input.obj
 0001:0004ae98       ?is_valid@?$__crt_unique_heap_ptr@EU__crt_internal_free_policy@@@@QBE_NXZ 1004be98 f i libucrt:input.obj
 0001:0004ae9f       ?kind@?$format_string_parser@D@__crt_stdio_input@@QBE?AW4format_directive_kind@2@XZ 1004be9f f i libucrt:input.obj
 0001:0004aea3       ?kind@?$format_string_parser@_W@__crt_stdio_input@@QBE?AW4format_directive_kind@2@XZ 1004bea3 f i libucrt:input.obj
 0001:0004aea7       ?length@?$format_string_parser@D@__crt_stdio_input@@QBEIXZ 1004bea7 f i libucrt:input.obj
 0001:0004aef8       ?length@?$format_string_parser@_W@__crt_stdio_input@@QBEIXZ 1004bef8 f i libucrt:input.obj
 0001:0004af49       ?literal_character_lead@?$format_string_parser@D@__crt_stdio_input@@QBEEXZ 1004bf49 f i libucrt:input.obj
 0001:0004af4d       ?literal_character_lead@?$format_string_parser@_W@__crt_stdio_input@@QBE_WXZ 1004bf4d f i libucrt:input.obj
 0001:0004af52       ?literal_character_trail@?$format_string_parser@D@__crt_stdio_input@@QBEEXZ 1004bf52 f i libucrt:input.obj
 0001:0004af60       ?make_big_integer@__crt_strtox@@YA?AUbig_integer@1@_K@Z 1004bf60 f i libucrt:input.obj
 0001:0004af88       ?mantissa_bits@floating_point_value@__crt_strtox@@QBEHXZ 1004bf88 f i libucrt:input.obj
 0001:0004af9c       ?maximum_binary_exponent@floating_point_value@__crt_strtox@@QBEHXZ 1004bf9c f i libucrt:input.obj
 0001:0004afb2       ?maximum_signed_value@__crt_strtox@@YA_J_K@Z 1004bfb2 f i libucrt:input.obj
 0001:0004afbd       ?minimum_binary_exponent@floating_point_value@__crt_strtox@@QBEHXZ 1004bfbd f i libucrt:input.obj
 0001:0004afd3       ?minimum_signed_value@__crt_strtox@@YA_J_K@Z 1004bfd3 f i libucrt:input.obj
 0001:0004afdd       ?mode@?$format_string_parser@D@__crt_stdio_input@@QBE?AW4conversion_mode@2@XZ 1004bfdd f i libucrt:input.obj
 0001:0004afe1       ?mode@?$format_string_parser@_W@__crt_stdio_input@@QBE?AW4conversion_mode@2@XZ 1004bfe1 f i libucrt:input.obj
 0001:0004aff0       ?multiply@__crt_strtox@@YA_NAAUbig_integer@1@ABU21@@Z 1004bff0 f i libucrt:input.obj
 0001:0004b400       ?multiply@__crt_strtox@@YA_NAAUbig_integer@1@I@Z 1004c400 f i libucrt:input.obj
 0001:0004b500       ?multiply_64_32@__crt_strtox@@YA_K_KI@Z 1004c500 f i libucrt:input.obj
 0001:0004b520       ?multiply_by_power_of_ten@__crt_strtox@@YA_NAAUbig_integer@1@I@Z 1004c520 f i libucrt:input.obj
 0001:0004bb90       ?multiply_core@__crt_strtox@@YAIQAIII@Z 1004cb90 f i libucrt:input.obj
 0001:0004bbdd       ?normal_mantissa_mask@floating_point_value@__crt_strtox@@QBE_KXZ 1004cbdd f i libucrt:input.obj
 0001:0004bbf9       ?parse_digit@__crt_strtox@@YAID@Z 1004cbf9 f i libucrt:input.obj
 0001:0004bc41       ?parse_digit@__crt_strtox@@YAI_W@Z 1004cc41 f i libucrt:input.obj
 0001:0004beb2       ?process@?$input_processor@DV?$stream_input_adapter@D@__crt_stdio_input@@@__crt_stdio_input@@QAEHXZ 1004ceb2 f i libucrt:input.obj
 0001:0004bf66       ?process@?$input_processor@DV?$string_input_adapter@D@__crt_stdio_input@@@__crt_stdio_input@@QAEHXZ 1004cf66 f i libucrt:input.obj
 0001:0004c011       ?process@?$input_processor@_WV?$stream_input_adapter@_W@__crt_stdio_input@@@__crt_stdio_input@@QAEHXZ 1004d011 f i libucrt:input.obj
 0001:0004c0c7       ?process@?$input_processor@_WV?$string_input_adapter@_W@__crt_stdio_input@@@__crt_stdio_input@@QAEHXZ 1004d0c7 f i libucrt:input.obj
 0001:0004c17d       ?process_character_count_specifier@?$input_processor@DV?$stream_input_adapter@D@__crt_stdio_input@@@__crt_stdio_input@@AAE_NXZ 1004d17d f i libucrt:input.obj
 0001:0004c196       ?process_character_count_specifier@?$input_processor@DV?$string_input_adapter@D@__crt_stdio_input@@@__crt_stdio_input@@AAE_NXZ 1004d196 f i libucrt:input.obj
 0001:0004c1b4       ?process_character_count_specifier@?$input_processor@_WV?$stream_input_adapter@_W@__crt_stdio_input@@@__crt_stdio_input@@AAE_NXZ 1004d1b4 f i libucrt:input.obj
 0001:0004c1cd       ?process_character_count_specifier@?$input_processor@_WV?$string_input_adapter@_W@__crt_stdio_input@@@__crt_stdio_input@@AAE_NXZ 1004d1cd f i libucrt:input.obj
 0001:0004c1ed       ?process_conversion_specifier@?$input_processor@DV?$stream_input_adapter@D@__crt_stdio_input@@@__crt_stdio_input@@AAE_NXZ 1004d1ed f i libucrt:input.obj
 0001:0004c27e       ?process_conversion_specifier@?$input_processor@DV?$string_input_adapter@D@__crt_stdio_input@@@__crt_stdio_input@@AAE_NXZ 1004d27e f i libucrt:input.obj
 0001:0004c30f       ?process_conversion_specifier@?$input_processor@_WV?$stream_input_adapter@_W@__crt_stdio_input@@@__crt_stdio_input@@AAE_NXZ 1004d30f f i libucrt:input.obj
 0001:0004c3a0       ?process_conversion_specifier@?$input_processor@_WV?$string_input_adapter@_W@__crt_stdio_input@@@__crt_stdio_input@@AAE_NXZ 1004d3a0 f i libucrt:input.obj
 0001:0004c431       ?process_floating_point_specifier@?$input_processor@DV?$stream_input_adapter@D@__crt_stdio_input@@@__crt_stdio_input@@AAE_NXZ 1004d431 f i libucrt:input.obj
 0001:0004c46d       ?process_floating_point_specifier@?$input_processor@DV?$string_input_adapter@D@__crt_stdio_input@@@__crt_stdio_input@@AAE_NXZ 1004d46d f i libucrt:input.obj
 0001:0004c4a9       ?process_floating_point_specifier@?$input_processor@_WV?$stream_input_adapter@_W@__crt_stdio_input@@@__crt_stdio_input@@AAE_NXZ 1004d4a9 f i libucrt:input.obj
 0001:0004c4e5       ?process_floating_point_specifier@?$input_processor@_WV?$string_input_adapter@_W@__crt_stdio_input@@@__crt_stdio_input@@AAE_NXZ 1004d4e5 f i libucrt:input.obj
 0001:0004c521       ?process_integer_specifier@?$input_processor@DV?$stream_input_adapter@D@__crt_stdio_input@@@__crt_stdio_input@@AAE_NI_N@Z 1004d521 f i libucrt:input.obj
 0001:0004c59e       ?process_integer_specifier@?$input_processor@DV?$string_input_adapter@D@__crt_stdio_input@@@__crt_stdio_input@@AAE_NI_N@Z 1004d59e f i libucrt:input.obj
 0001:0004c61b       ?process_integer_specifier@?$input_processor@_WV?$stream_input_adapter@_W@__crt_stdio_input@@@__crt_stdio_input@@AAE_NI_N@Z 1004d61b f i libucrt:input.obj
 0001:0004c698       ?process_integer_specifier@?$input_processor@_WV?$string_input_adapter@_W@__crt_stdio_input@@@__crt_stdio_input@@AAE_NI_N@Z 1004d698 f i libucrt:input.obj
 0001:0004c715       ?process_literal_character@?$input_processor@DV?$stream_input_adapter@D@__crt_stdio_input@@@__crt_stdio_input@@AAE_NXZ 1004d715 f i libucrt:input.obj
 0001:0004c758       ?process_literal_character@?$input_processor@DV?$string_input_adapter@D@__crt_stdio_input@@@__crt_stdio_input@@AAE_NXZ 1004d758 f i libucrt:input.obj
 0001:0004c79b       ?process_literal_character@?$input_processor@_WV?$stream_input_adapter@_W@__crt_stdio_input@@@__crt_stdio_input@@AAE_NXZ 1004d79b f i libucrt:input.obj
 0001:0004c7dd       ?process_literal_character@?$input_processor@_WV?$string_input_adapter@_W@__crt_stdio_input@@@__crt_stdio_input@@AAE_NXZ 1004d7dd f i libucrt:input.obj
 0001:0004c81f       ?process_literal_character_tchar@?$input_processor@DV?$stream_input_adapter@D@__crt_stdio_input@@@__crt_stdio_input@@AAE_ND@Z 1004d81f f i libucrt:input.obj
 0001:0004c890       ?process_literal_character_tchar@?$input_processor@DV?$string_input_adapter@D@__crt_stdio_input@@@__crt_stdio_input@@AAE_ND@Z 1004d890 f i libucrt:input.obj
 0001:0004c8f6       ?process_literal_character_tchar@?$input_processor@_WV?$stream_input_adapter@_W@__crt_stdio_input@@@__crt_stdio_input@@AAE_N_W@Z 1004d8f6 f i libucrt:input.obj
 0001:0004c8fb       ?process_literal_character_tchar@?$input_processor@_WV?$string_input_adapter@_W@__crt_stdio_input@@@__crt_stdio_input@@AAE_N_W@Z 1004d8fb f i libucrt:input.obj
 0001:0004c900       ?process_state@?$input_processor@DV?$stream_input_adapter@D@__crt_stdio_input@@@__crt_stdio_input@@AAE_NXZ 1004d900 f i libucrt:input.obj
 0001:0004c952       ?process_state@?$input_processor@DV?$string_input_adapter@D@__crt_stdio_input@@@__crt_stdio_input@@AAE_NXZ 1004d952 f i libucrt:input.obj
 0001:0004c9a4       ?process_state@?$input_processor@_WV?$stream_input_adapter@_W@__crt_stdio_input@@@__crt_stdio_input@@AAE_NXZ 1004d9a4 f i libucrt:input.obj
 0001:0004c9f6       ?process_state@?$input_processor@_WV?$string_input_adapter@_W@__crt_stdio_input@@@__crt_stdio_input@@AAE_NXZ 1004d9f6 f i libucrt:input.obj
 0001:0004ca48       ?process_string_specifier@?$input_processor@DV?$stream_input_adapter@D@__crt_stdio_input@@@__crt_stdio_input@@AAE_NW4conversion_mode@2@@Z 1004da48 f i libucrt:input.obj
 0001:0004caa2       ?process_string_specifier@?$input_processor@DV?$string_input_adapter@D@__crt_stdio_input@@@__crt_stdio_input@@AAE_NW4conversion_mode@2@@Z 1004daa2 f i libucrt:input.obj
 0001:0004cafc       ?process_string_specifier@?$input_processor@_WV?$stream_input_adapter@_W@__crt_stdio_input@@@__crt_stdio_input@@AAE_NW4conversion_mode@2@@Z 1004dafc f i libucrt:input.obj
 0001:0004cb56       ?process_string_specifier@?$input_processor@_WV?$string_input_adapter@_W@__crt_stdio_input@@@__crt_stdio_input@@AAE_NW4conversion_mode@2@@Z 1004db56 f i libucrt:input.obj
 0001:0004cbb0       ?process_whitespace@?$input_processor@DV?$stream_input_adapter@D@__crt_stdio_input@@@__crt_stdio_input@@AAE_NXZ 1004dbb0 f i libucrt:input.obj
 0001:0004cbd4       ?process_whitespace@?$input_processor@DV?$string_input_adapter@D@__crt_stdio_input@@@__crt_stdio_input@@AAE_NXZ 1004dbd4 f i libucrt:input.obj
 0001:0004cbf8       ?process_whitespace@?$input_processor@_WV?$stream_input_adapter@_W@__crt_stdio_input@@@__crt_stdio_input@@AAE_NXZ 1004dbf8 f i libucrt:input.obj
 0001:0004cc20       ?process_whitespace@?$input_processor@_WV?$string_input_adapter@_W@__crt_stdio_input@@@__crt_stdio_input@@AAE_NXZ 1004dc20 f i libucrt:input.obj
 0001:0004cc48       ?release@?$__crt_unique_heap_ptr@EU__crt_internal_free_policy@@@@QAEXXZ 1004dc48 f i libucrt:input.obj
 0001:0004cc5e       ?reset@?$scanset_buffer@E@__crt_stdio_input@@QAEXXZ 1004dc5e f i libucrt:input.obj
 0001:0004cc74       ?reset@?$scanset_buffer@_W@__crt_stdio_input@@QAEXXZ 1004dc74 f i libucrt:input.obj
 0001:0004cc94       ?reset_token_state@?$format_string_parser@D@__crt_stdio_input@@AAEXXZ 1004dc94 f i libucrt:input.obj
 0001:0004ccb7       ?reset_token_state@?$format_string_parser@_W@__crt_stdio_input@@AAEXXZ 1004dcb7 f i libucrt:input.obj
 0001:0004ccdb       ?reset_token_state_for_error@?$format_string_parser@D@__crt_stdio_input@@AAEXH@Z 1004dcdb f i libucrt:input.obj
 0001:0004cd0f       ?reset_token_state_for_error@?$format_string_parser@_W@__crt_stdio_input@@AAEXH@Z 1004dd0f f i libucrt:input.obj
 0001:0004cd44       ?restore_state@?$input_adapter_character_source@V?$stream_input_adapter@D@__crt_stdio_input@@@__crt_strtox@@QAE_N_K@Z 1004dd44 f i libucrt:input.obj
 0001:0004cd72       ?restore_state@?$input_adapter_character_source@V?$stream_input_adapter@_W@__crt_stdio_input@@@__crt_strtox@@QAE_N_K@Z 1004dd72 f i libucrt:input.obj
 0001:0004cda0       ?restore_state@?$input_adapter_character_source@V?$string_input_adapter@D@__crt_stdio_input@@@__crt_strtox@@QAE_N_K@Z 1004dda0 f i libucrt:input.obj
 0001:0004cdce       ?restore_state@?$input_adapter_character_source@V?$string_input_adapter@_W@__crt_stdio_input@@@__crt_strtox@@QAE_N_K@Z 1004ddce f i libucrt:input.obj
 0001:0004cdfc       ?right_shift_with_rounding@__crt_strtox@@YA_K_N_KI0@Z 1004ddfc f i libucrt:input.obj
 0001:0004cf17       ?save_state@?$input_adapter_character_source@V?$stream_input_adapter@D@__crt_stdio_input@@@__crt_strtox@@QBE_KXZ 1004df17 f i libucrt:input.obj
 0001:0004cf1e       ?save_state@?$input_adapter_character_source@V?$stream_input_adapter@_W@__crt_stdio_input@@@__crt_strtox@@QBE_KXZ 1004df1e f i libucrt:input.obj
 0001:0004cf25       ?save_state@?$input_adapter_character_source@V?$string_input_adapter@D@__crt_stdio_input@@@__crt_strtox@@QBE_KXZ 1004df25 f i libucrt:input.obj
 0001:0004cf2c       ?save_state@?$input_adapter_character_source@V?$string_input_adapter@_W@__crt_stdio_input@@@__crt_strtox@@QBE_KXZ 1004df2c f i libucrt:input.obj
 0001:0004cf33       ?scan_conversion_specifier@?$format_string_parser@D@__crt_stdio_input@@AAE_NXZ 1004df33 f i libucrt:input.obj
 0001:0004d0ff       ?scan_conversion_specifier@?$format_string_parser@_W@__crt_stdio_input@@AAE_NXZ 1004e0ff f i libucrt:input.obj
 0001:0004d2a4       ?scan_optional_assignment_suppressor@?$format_string_parser@D@__crt_stdio_input@@AAEXXZ 1004e2a4 f i libucrt:input.obj
 0001:0004d2b9       ?scan_optional_assignment_suppressor@?$format_string_parser@_W@__crt_stdio_input@@AAEXXZ 1004e2b9 f i libucrt:input.obj
 0001:0004d2d2       ?scan_optional_field_width@?$format_string_parser@D@__crt_stdio_input@@AAE_NXZ 1004e2d2 f i libucrt:input.obj
 0001:0004d398       ?scan_optional_field_width@?$format_string_parser@_W@__crt_stdio_input@@AAE_NXZ 1004e398 f i libucrt:input.obj
 0001:0004d661       ?scan_optional_length_modifier@?$format_string_parser@D@__crt_stdio_input@@AAEXXZ 1004e661 f i libucrt:input.obj
 0001:0004d7bf       ?scan_optional_length_modifier@?$format_string_parser@_W@__crt_stdio_input@@AAEXXZ 1004e7bf f i libucrt:input.obj
 0001:0004d93e       ?scan_optional_literal_character_trail_bytes_tchar@?$format_string_parser@D@__crt_stdio_input@@AAE_ND@Z 1004e93e f i libucrt:input.obj
 0001:0004d9a4       ?scan_optional_literal_character_trail_bytes_tchar@?$format_string_parser@_W@__crt_stdio_input@@AAE_N_W@Z 1004e9a4 f i libucrt:input.obj
 0001:0004d9a9       ?scan_optional_wide_modifier@?$format_string_parser@D@__crt_stdio_input@@AAEXXZ 1004e9a9 f i libucrt:input.obj
 0001:0004d9ce       ?scan_optional_wide_modifier@?$format_string_parser@_W@__crt_stdio_input@@AAEXXZ 1004e9ce f i libucrt:input.obj
 0001:0004da02       ?scan_scanset_range@?$format_string_parser@D@__crt_stdio_input@@AAE_NXZ 1004ea02 f i libucrt:input.obj
 0001:0004db7b       ?scan_scanset_range@?$format_string_parser@_W@__crt_stdio_input@@AAE_NXZ 1004eb7b f i libucrt:input.obj
 0001:0004dd11       ?scanset@?$format_string_parser@D@__crt_stdio_input@@QBEABV?$scanset_buffer@E@2@XZ 1004ed11 f i libucrt:input.obj
 0001:0004dd15       ?scanset@?$format_string_parser@_W@__crt_stdio_input@@QBEABV?$scanset_buffer@_W@2@XZ 1004ed15 f i libucrt:input.obj
 0001:0004dd19       ?secure_buffers@?$input_processor@DV?$stream_input_adapter@D@__crt_stdio_input@@@__crt_stdio_input@@ABE_NXZ 1004ed19 f i libucrt:input.obj
 0001:0004dd2e       ?secure_buffers@?$input_processor@DV?$string_input_adapter@D@__crt_stdio_input@@@__crt_stdio_input@@ABE_NXZ 1004ed2e f i libucrt:input.obj
 0001:0004dd43       ?secure_buffers@?$input_processor@_WV?$stream_input_adapter@_W@__crt_stdio_input@@@__crt_stdio_input@@ABE_NXZ 1004ed43 f i libucrt:input.obj
 0001:0004dd58       ?secure_buffers@?$input_processor@_WV?$string_input_adapter@_W@__crt_stdio_input@@@__crt_stdio_input@@ABE_NXZ 1004ed58 f i libucrt:input.obj
 0001:0004dd6d       ?set@?$scanset_buffer@E@__crt_stdio_input@@QAEXE@Z 1004ed6d f i libucrt:input.obj
 0001:0004dd96       ?set@?$scanset_buffer@_W@__crt_stdio_input@@QAEX_W@Z 1004ed96 f i libucrt:input.obj
 0001:0004ddc5       ?set_wide_for_c_s_or_scanset@?$format_string_parser@D@__crt_stdio_input@@AAEXXZ 1004edc5 f i libucrt:input.obj
 0001:0004dded       ?set_wide_for_c_s_or_scanset@?$format_string_parser@_W@__crt_stdio_input@@AAEXXZ 1004eded f i libucrt:input.obj
 0001:0004de20       ?shift_left@__crt_strtox@@YA_NAAUbig_integer@1@I@Z 1004ee20 f i libucrt:input.obj
 0001:0004dfcb       ?should_default_to_wide@?$format_string_parser@D@__crt_stdio_input@@AAE_NE@Z 1004efcb f i libucrt:input.obj
 0001:0004dfeb       ?should_default_to_wide@?$format_string_parser@_W@__crt_stdio_input@@AAE_N_W@Z 1004efeb f i libucrt:input.obj
 0001:0004e02c       ?should_round_up@__crt_strtox@@YA_N_N000@Z 1004f02c f i libucrt:input.obj
 0001:0004e08c       ?size@?$scanset_storage@$00@__crt_stdio_input@@QBEIXZ 1004f08c f i libucrt:input.obj
 0001:0004e090       ?size@?$scanset_storage@$01@__crt_stdio_input@@QBEIXZ 1004f090 f i libucrt:input.obj
 0001:0004e096       ?suppress_assignment@?$format_string_parser@D@__crt_stdio_input@@QBE_NXZ 1004f096 f i libucrt:input.obj
 0001:0004e09a       ?suppress_assignment@?$format_string_parser@_W@__crt_stdio_input@@QBE_NXZ 1004f09a f i libucrt:input.obj
 0001:0004e09e       ?test@?$scanset_buffer@E@__crt_stdio_input@@QBE_NE@Z 1004f09e f i libucrt:input.obj
 0001:0004e0cb       ?test@?$scanset_buffer@_W@__crt_stdio_input@@QBE_N_W@Z 1004f0cb f i libucrt:input.obj
 0001:0004e100       ?to_floating_point_length@__crt_stdio_input@@YAIW4length_modifier@1@@Z 1004f100 f i libucrt:input.obj
 0001:0004e12b       ?to_integer_length@__crt_stdio_input@@YAIW4length_modifier@1@@Z 1004f12b f i libucrt:input.obj
 0001:0004e199       ?unget@?$input_adapter_character_source@V?$stream_input_adapter@D@__crt_stdio_input@@@__crt_strtox@@QAEXD@Z 1004f199 f i libucrt:input.obj
 0001:0004e1f1       ?unget@?$input_adapter_character_source@V?$stream_input_adapter@_W@__crt_stdio_input@@@__crt_strtox@@QAEX_W@Z 1004f1f1 f i libucrt:input.obj
 0001:0004e24e       ?unget@?$input_adapter_character_source@V?$string_input_adapter@D@__crt_stdio_input@@@__crt_strtox@@QAEXD@Z 1004f24e f i libucrt:input.obj
 0001:0004e2a6       ?unget@?$input_adapter_character_source@V?$string_input_adapter@_W@__crt_stdio_input@@@__crt_strtox@@QAEX_W@Z 1004f2a6 f i libucrt:input.obj
 0001:0004e303       ?unget@?$stream_input_adapter@D@__crt_stdio_input@@QAEXH@Z 1004f303 f i libucrt:input.obj
 0001:0004e328       ?unget@?$stream_input_adapter@_W@__crt_stdio_input@@QAEXG@Z 1004f328 f i libucrt:input.obj
 0001:0004e353       ?unget@?$string_input_adapter@D@__crt_stdio_input@@QAEXH@Z 1004f353 f i libucrt:input.obj
 0001:0004e379       ?unget@?$string_input_adapter@_W@__crt_stdio_input@@QAEXG@Z 1004f379 f i libucrt:input.obj
 0001:0004e3a8       ?validate@?$format_string_parser@D@__crt_stdio_input@@QBE_NXZ 1004f3a8 f i libucrt:input.obj
 0001:0004e3cb       ?validate@?$format_string_parser@_W@__crt_stdio_input@@QBE_NXZ 1004f3cb f i libucrt:input.obj
 0001:0004e3ee       ?validate@?$input_adapter_character_source@V?$stream_input_adapter@D@__crt_stdio_input@@@__crt_strtox@@QBE_NXZ 1004f3ee f i libucrt:input.obj
 0001:0004e417       ?validate@?$input_adapter_character_source@V?$stream_input_adapter@_W@__crt_stdio_input@@@__crt_strtox@@QBE_NXZ 1004f417 f i libucrt:input.obj
 0001:0004e440       ?validate@?$input_adapter_character_source@V?$string_input_adapter@D@__crt_stdio_input@@@__crt_strtox@@QBE_NXZ 1004f440 f i libucrt:input.obj
 0001:0004e469       ?validate@?$input_adapter_character_source@V?$string_input_adapter@_W@__crt_stdio_input@@@__crt_strtox@@QBE_NXZ 1004f469 f i libucrt:input.obj
 0001:0004e492       ?validate@?$stream_input_adapter@D@__crt_stdio_input@@QBE_NXZ 1004f492 f i libucrt:input.obj
 0001:0004e4bb       ?validate@?$stream_input_adapter@_W@__crt_stdio_input@@QBE_NXZ 1004f4bb f i libucrt:input.obj
 0001:0004e4dc       ?validate@?$string_input_adapter@D@__crt_stdio_input@@QAE_NXZ 1004f4dc f i libucrt:input.obj
 0001:0004e506       ?validate@?$string_input_adapter@_W@__crt_stdio_input@@QAE_NXZ 1004f506 f i libucrt:input.obj
 0001:0004e530       ?wide_character_to_digit@__crt_strtox@@YAH_W@Z 1004f530 f i libucrt:input.obj
 0001:0004e739       ?width@?$format_string_parser@D@__crt_stdio_input@@QBE_KXZ 1004f739 f i libucrt:input.obj
 0001:0004e740       ?width@?$format_string_parser@_W@__crt_stdio_input@@QBE_KXZ 1004f740 f i libucrt:input.obj
 0001:0004e747       ?write_character@?$input_processor@DV?$stream_input_adapter@D@__crt_stdio_input@@@__crt_stdio_input@@AAE_NQADIAAPADAAID@Z 1004f747 f i libucrt:input.obj
 0001:0004e76a       ?write_character@?$input_processor@DV?$stream_input_adapter@D@__crt_stdio_input@@@__crt_stdio_input@@AAE_NQA_WIAAPA_WAAID@Z 1004f76a f i libucrt:input.obj
 0001:0004e800       ?write_character@?$input_processor@DV?$string_input_adapter@D@__crt_stdio_input@@@__crt_stdio_input@@AAE_NQADIAAPADAAID@Z 1004f800 f i libucrt:input.obj
 0001:0004e823       ?write_character@?$input_processor@DV?$string_input_adapter@D@__crt_stdio_input@@@__crt_stdio_input@@AAE_NQA_WIAAPA_WAAID@Z 1004f823 f i libucrt:input.obj
 0001:0004e8ad       ?write_character@?$input_processor@_WV?$stream_input_adapter@_W@__crt_stdio_input@@@__crt_stdio_input@@AAE_NQADIAAPADAAI_W@Z 1004f8ad f i libucrt:input.obj
 0001:0004e957       ?write_character@?$input_processor@_WV?$stream_input_adapter@_W@__crt_stdio_input@@@__crt_stdio_input@@AAE_NQA_WIAAPA_WAAI_W@Z 1004f957 f i libucrt:input.obj
 0001:0004e97d       ?write_character@?$input_processor@_WV?$string_input_adapter@_W@__crt_stdio_input@@@__crt_stdio_input@@AAE_NQADIAAPADAAI_W@Z 1004f97d f i libucrt:input.obj
 0001:0004ea27       ?write_character@?$input_processor@_WV?$string_input_adapter@_W@__crt_stdio_input@@@__crt_stdio_input@@AAE_NQA_WIAAPA_WAAI_W@Z 1004fa27 f i libucrt:input.obj
 0001:0004ea4d       ?write_integer@?$input_processor@DV?$stream_input_adapter@D@__crt_stdio_input@@@__crt_stdio_input@@AAE_N_K@Z 1004fa4d f i libucrt:input.obj
 0001:0004ead6       ?write_integer@?$input_processor@DV?$string_input_adapter@D@__crt_stdio_input@@@__crt_stdio_input@@AAE_N_K@Z 1004fad6 f i libucrt:input.obj
 0001:0004eb5f       ?write_integer@?$input_processor@_WV?$stream_input_adapter@_W@__crt_stdio_input@@@__crt_stdio_input@@AAE_N_K@Z 1004fb5f f i libucrt:input.obj
 0001:0004ebe8       ?write_integer@?$input_processor@_WV?$string_input_adapter@_W@__crt_stdio_input@@@__crt_stdio_input@@AAE_N_K@Z 1004fbe8 f i libucrt:input.obj
 0001:0004ec71       ___acrt_get_locale_data_prefix 1004fc71 f i libucrt:input.obj
 0001:0004ec80       ___stdio_common_vfscanf    1004fc80 f   libucrt:input.obj
 0001:0004ed26       ___stdio_common_vfwscanf   1004fd26 f   libucrt:input.obj
 0001:0004edcc       ___stdio_common_vsscanf    1004fdcc f   libucrt:input.obj
 0001:0004edf9       ___stdio_common_vswscanf   1004fdf9 f   libucrt:input.obj
 0001:0004ee26       __chvalidchk_l             1004fe26 f i libucrt:input.obj
 0001:0004ee55       __invoke_watson_if_oneof   1004fe55 f i libucrt:input.obj
 0001:0004ee8d       __ischartype_l             1004fe8d f i libucrt:input.obj
 0001:0004ef6d       __errcode                  1004ff6d f   libucrt:fpexcept.obj
 0001:0004efae       __except1                  1004ffae f   libucrt:fpexcept.obj
 0001:0004f0af       __except2                  100500af f   libucrt:fpexcept.obj
 0001:0004f1f8       __handle_exc               100501f8 f   libucrt:fpexcept.obj
 0001:0004f460       __handle_qnan2             10050460 f   libucrt:fpexcept.obj
 0001:0004f470       __raise_exc                10050470 f   libucrt:fpexcept.obj
 0001:0004f49b       __raise_exc_ex             1005049b f   libucrt:fpexcept.obj
 0001:0004f84e       __raise_excf               1005084e f   libucrt:fpexcept.obj
 0001:0004f879       __set_errno_from_matherr   10050879 f   libucrt:fpexcept.obj
 0001:0004f8b3       __umatherr                 100508b3 f   libucrt:fpexcept.obj
 0001:0004f97d       __initterm                 1005097d f   libucrt:initterm.obj
 0001:0004f9f0       __initterm_e               100509f0 f   libucrt:initterm.obj
 0001:0004fa73       __seh_filter_dll           10050a73 f   libucrt:exception_filter.obj
 0001:0004fa9b       __seh_filter_exe           10050a9b f   libucrt:exception_filter.obj
 0001:0004fc5a       ??$?RPAD@__crt_internal_free_policy@@QBEXQBQAD@Z 10050c5a f i libucrt:argv_parsing.obj
 0001:0004fc70       ??$?RPA_W@__crt_internal_free_policy@@QBEXQBQA_W@Z 10050c70 f i libucrt:argv_parsing.obj
 0001:0004ff89       ??$get_module_file_name@$$TAAY0BAF@DH@?$__crt_char_traits@D@@SAK$$QA$$TAAY0BAF@D$$QAH@Z 10050f89 f i libucrt:argv_parsing.obj
 0001:0004ffac       ??$get_module_file_name@$$TAAY0BAF@_WH@?$__crt_char_traits@_W@@SAK$$QA$$TAAY0BAF@_W$$QAH@Z 10050fac f i libucrt:argv_parsing.obj
 0001:0005039f       ??$set_program_name@PAD@?$__crt_char_traits@D@@SAX$$QAPAD@Z 1005139f f i libucrt:argv_parsing.obj
 0001:000503b4       ??$set_program_name@PA_W@?$__crt_char_traits@_W@@SAX$$QAPA_W@Z 100513b4 f i libucrt:argv_parsing.obj
 0001:000503f1       ??0?$__crt_unique_heap_ptr@PADU__crt_internal_free_policy@@@@QAE@QAPAD@Z 100513f1 f i libucrt:argv_parsing.obj
 0001:00050405       ??0?$__crt_unique_heap_ptr@PA_WU__crt_internal_free_policy@@@@QAE@QAPA_W@Z 10051405 f i libucrt:argv_parsing.obj
 0001:00050419       ??1?$__crt_unique_heap_ptr@PADU__crt_internal_free_policy@@@@QAE@XZ 10051419 f i libucrt:argv_parsing.obj
 0001:0005042f       ??1?$__crt_unique_heap_ptr@PA_WU__crt_internal_free_policy@@@@QAE@XZ 1005142f f i libucrt:argv_parsing.obj
 0001:0005047b       ?detach@?$__crt_unique_heap_ptr@EU__crt_internal_free_policy@@@@QAEPAEXZ 1005147b f i libucrt:argv_parsing.obj
 0001:00050481       ?detach@?$__crt_unique_heap_ptr@PADU__crt_internal_free_policy@@@@QAEPAPADXZ 10051481 f i libucrt:argv_parsing.obj
 0001:00050487       ?detach@?$__crt_unique_heap_ptr@PA_WU__crt_internal_free_policy@@@@QAEPAPA_WXZ 10051487 f i libucrt:argv_parsing.obj
 0001:000504ad       ?get@?$__crt_unique_heap_ptr@PADU__crt_internal_free_policy@@@@QBEPAPADXZ 100514ad f i libucrt:argv_parsing.obj
 0001:000504b0       ?get@?$__crt_unique_heap_ptr@PA_WU__crt_internal_free_policy@@@@QBEPAPA_WXZ 100514b0 f i libucrt:argv_parsing.obj
 0001:000504b3       ?get_address_of@?$__crt_unique_heap_ptr@PADU__crt_internal_free_policy@@@@QAEPAPAPADXZ 100514b3 f i libucrt:argv_parsing.obj
 0001:000504b6       ?get_address_of@?$__crt_unique_heap_ptr@PA_WU__crt_internal_free_policy@@@@QAEPAPAPA_WXZ 100514b6 f i libucrt:argv_parsing.obj
 0001:000504d1       ?release@?$__crt_unique_heap_ptr@PADU__crt_internal_free_policy@@@@QAEXXZ 100514d1 f i libucrt:argv_parsing.obj
 0001:000504e7       ?release@?$__crt_unique_heap_ptr@PA_WU__crt_internal_free_policy@@@@QAEXXZ 100514e7 f i libucrt:argv_parsing.obj
 0001:0005051c       ___acrt_allocate_buffer_for_argv 1005151c f   libucrt:argv_parsing.obj
 0001:0005057e       __configure_narrow_argv    1005157e f   libucrt:argv_parsing.obj
 0001:0005058b       __configure_wide_argv      1005158b f   libucrt:argv_parsing.obj
 0001:00050598       __set_pgmptr               10051598 f i libucrt:argv_parsing.obj
 0001:000505aa       __set_wpgmptr              100515aa f i libucrt:argv_parsing.obj
 0001:000505bc       ??$?R_W@__crt_internal_free_policy@@QBEXQB_W@Z 100515bc f i libucrt:environment_initialization.obj
 0001:00050aa2       ??$get_environment_from_os@$$V@?$__crt_char_traits@D@@SAPADXZ 10051aa2 f i libucrt:environment_initialization.obj
 0001:00050aa7       ??$get_environment_from_os@$$V@?$__crt_char_traits@_W@@SAPA_WXZ 10051aa7 f i libucrt:environment_initialization.obj
 0001:00050bf8       ??$set_variable_in_environment_nolock@PADH@?$__crt_char_traits@D@@SAH$$QAPAD$$QAH@Z 10051bf8 f i libucrt:environment_initialization.obj
 0001:00050c16       ??$set_variable_in_environment_nolock@PA_WH@?$__crt_char_traits@_W@@SAH$$QAPA_W$$QAH@Z 10051c16 f i libucrt:environment_initialization.obj
 0001:00050c34       ??$tcscpy_s@PADABIAAPAD@?$__crt_char_traits@D@@SAH$$QAPADABIAAPAD@Z 10051c34 f i libucrt:environment_initialization.obj
 0001:00050c59       ??$tcscpy_s@PA_WABIAAPA_W@?$__crt_char_traits@_W@@SAH$$QAPA_WABIAAPA_W@Z 10051c59 f i libucrt:environment_initialization.obj
 0001:00050c7e       ??$tcslen@AAPAD@?$__crt_char_traits@D@@SAIAAPAD@Z 10051c7e f i libucrt:environment_initialization.obj
 0001:00050c9c       ??$tcslen@AAPA_W@?$__crt_char_traits@_W@@SAIAAPA_W@Z 10051c9c f i libucrt:environment_initialization.obj
 0001:00050cc1       ??$uninitialize@A6AXAAPAPAD@Z@?$dual_state_global@PAPAD@__crt_state_management@@QAEXA6AXAAPAPAD@Z@Z 10051cc1 f i libucrt:environment_initialization.obj
 0001:00050d11       ??$uninitialize@A6AXAAPAPA_W@Z@?$dual_state_global@PAPA_W@__crt_state_management@@QAEXA6AXAAPAPA_W@Z@Z 10051d11 f i libucrt:environment_initialization.obj
 0001:00050da3       ??0?$__crt_unique_heap_ptr@_WU__crt_internal_free_policy@@@@QAE@QA_W@Z 10051da3 f i libucrt:environment_initialization.obj
 0001:00050db7       ??1?$__crt_unique_heap_ptr@_WU__crt_internal_free_policy@@@@QAE@XZ 10051db7 f i libucrt:environment_initialization.obj
 0001:00050dcd       ??B?$__crt_unique_heap_ptr@PADU__crt_internal_free_policy@@@@QBE_NXZ 10051dcd f i libucrt:environment_initialization.obj
 0001:00050dd4       ??B?$__crt_unique_heap_ptr@PA_WU__crt_internal_free_policy@@@@QBE_NXZ 10051dd4 f i libucrt:environment_initialization.obj
 0001:00050ddb       ??B?$__crt_unique_heap_ptr@_WU__crt_internal_free_policy@@@@QBE_NXZ 10051ddb f i libucrt:environment_initialization.obj
 0001:00050de2       ?__crt_compute_required_transform_buffer_count@@YAIIQBD@Z 10051de2 f i libucrt:environment_initialization.obj
 0001:00050e05       ?__crt_compute_required_transform_buffer_count@@YAIIQB_W@Z 10051e05 f i libucrt:environment_initialization.obj
 0001:00050e2a       ?__crt_transform_string@@YAIIQBDQA_WI@Z 10051e2a f i libucrt:environment_initialization.obj
 0001:00050e50       ?__crt_transform_string@@YAIIQB_WQADI@Z 10051e50 f i libucrt:environment_initialization.obj
 0001:00050e7a       ?detach@?$__crt_unique_heap_ptr@DU__crt_internal_free_policy@@@@QAEPADXZ 10051e7a f i libucrt:environment_initialization.obj
 0001:00050e80       ?detach@?$__crt_unique_heap_ptr@_WU__crt_internal_free_policy@@@@QAEPA_WXZ 10051e80 f i libucrt:environment_initialization.obj
 0001:00050e86       ?get@?$__crt_unique_heap_ptr@_WU__crt_internal_free_policy@@@@QBEPA_WXZ 10051e86 f i libucrt:environment_initialization.obj
 0001:00050e89       ?get_current_state_index@__crt_state_management@@YAIXZ 10051e89 f i libucrt:environment_initialization.obj
 0001:00050eb0       ?initialize@?$dual_state_global@PAPAD@__crt_state_management@@QAEXQAPAD@Z 10051eb0 f i libucrt:environment_initialization.obj
 0001:00050edf       ?initialize@?$dual_state_global@PAPA_W@__crt_state_management@@QAEXQAPA_W@Z 10051edf f i libucrt:environment_initialization.obj
 0001:00050f0e       ?is_valid@?$__crt_unique_heap_ptr@PADU__crt_internal_free_policy@@@@QBE_NXZ 10051f0e f i libucrt:environment_initialization.obj
 0001:00050f15       ?is_valid@?$__crt_unique_heap_ptr@PA_WU__crt_internal_free_policy@@@@QBE_NXZ 10051f15 f i libucrt:environment_initialization.obj
 0001:00050f1c       ?is_valid@?$__crt_unique_heap_ptr@_WU__crt_internal_free_policy@@@@QBE_NXZ 10051f1c f i libucrt:environment_initialization.obj
 0001:00050f29       ?release@?$__crt_unique_heap_ptr@_WU__crt_internal_free_policy@@@@QAEXXZ 10051f29 f i libucrt:environment_initialization.obj
 0001:00050f3f       ?value@?$dual_state_global@PAPAD@__crt_state_management@@QAEAAPAPADXZ 10051f3f f i libucrt:environment_initialization.obj
 0001:00050f42       ?value@?$dual_state_global@PAPA_W@__crt_state_management@@QAEAAPAPA_WXZ 10051f42 f i libucrt:environment_initialization.obj
 0001:00050f45       ___dcrt_get_or_create_narrow_environment_nolock 10051f45 f   libucrt:environment_initialization.obj
 0001:00050f4a       ___dcrt_get_or_create_wide_environment_nolock 10051f4a f   libucrt:environment_initialization.obj
 0001:00050f4f       ___dcrt_uninitialize_environments_nolock 10051f4f f   libucrt:environment_initialization.obj
 0001:00050f93       ___p__environ              10051f93 f   libucrt:environment_initialization.obj
 0001:00050f99       ___p__wenviron             10051f99 f   libucrt:environment_initialization.obj
 0001:00050f9f       __get_initial_narrow_environment 10051f9f f   libucrt:environment_initialization.obj
 0001:00050fb8       __get_initial_wide_environment 10051fb8 f   libucrt:environment_initialization.obj
 0001:00050fd1       __initialize_narrow_environment 10051fd1 f   libucrt:environment_initialization.obj
 0001:00050fd6       __initialize_wide_environment 10051fd6 f   libucrt:environment_initialization.obj
 0001:00050fdb       ??$?BP6AXXZ@__crt_fast_encoded_nullptr_t@@QBEPAP6AXXZXZ 10051fdb f i libucrt:onexit.obj
 0001:00050ff9       ??$?RP6AXXZ@__crt_internal_free_policy@@QBEXQBQ6AXXZ@Z 10051ff9 f i libucrt:onexit.obj
 0001:0005113d       ??$__crt_fast_encode_pointer@P6AHXZ@@YAP6AHXZQ6AHXZ@Z 1005213d f i libucrt:onexit.obj
 0001:000511ea       ??0?$__crt_unique_heap_ptr@P6AXXZU__crt_internal_free_policy@@@@QAE@QAP6AXXZ@Z 100521ea f i libucrt:onexit.obj
 0001:000511fe       ??1?$__crt_unique_heap_ptr@P6AXXZU__crt_internal_free_policy@@@@QAE@XZ 100521fe f i libucrt:onexit.obj
 0001:00051214       ??1scoped_global_state_reset@__crt_state_management@@QAE@XZ 10052214 f i libucrt:onexit.obj
 0001:0005153f       ?detach@?$__crt_unique_heap_ptr@P6AXXZU__crt_internal_free_policy@@@@QAEPAP6AXXZXZ 1005253f f i libucrt:onexit.obj
 0001:00051545       ?release@?$__crt_unique_heap_ptr@P6AXXZU__crt_internal_free_policy@@@@QAEXXZ 10052545 f i libucrt:onexit.obj
 0001:0005155b       __crt_at_quick_exit        1005255b f   libucrt:onexit.obj
 0001:00051576       __crt_atexit               10052576 f   libucrt:onexit.obj
 0001:00051591       __execute_onexit_table     10052591 f   libucrt:onexit.obj
 0001:000515cb       __initialize_onexit_table  100525cb f   libucrt:onexit.obj
 0001:00051617       __register_onexit_function 10052617 f   libucrt:onexit.obj
 0001:000517e2       ?__acrt_stdio_is_initialized@@YA_NXZ 100527e2 f i libucrt:initialization.obj
 0001:000517ef       ?initialize@?$dual_state_global@PAU__crt_locale_data@@@__crt_state_management@@QAEXQAU__crt_locale_data@@@Z 100527ef f i libucrt:initialization.obj
 0001:0005181e       ___acrt_initialize         1005281e f   libucrt:initialization.obj
 0001:00051834       ___acrt_thread_attach      10052834 f   libucrt:initialization.obj
 0001:00051841       ___acrt_thread_detach      10052841 f   libucrt:initialization.obj
 0001:0005184b       ___acrt_uninitialize       1005284b f   libucrt:initialization.obj
 0001:00051887       ___acrt_uninitialize_critical 10052887 f   libucrt:initialization.obj
 0001:000518b8       __get_terminate            100528b8 f   libucrt:terminate.obj
 0001:000518ce       _set_terminate             100528ce f   libucrt:terminate.obj
 0001:000518f6       _terminate                 100528f6 f   libucrt:terminate.obj
 0001:000519b1       _strcpy_s                  100529b1 f   libucrt:strcpy_s.obj
 0001:00051a21       ??$is_overflow_condition@K@__crt_strtox@@YA_NIK@Z 10052a21 f i libucrt:atox.obj
 0001:00051a5e       ??$make_c_string_character_source@D$$T@__crt_strtox@@YA?AV?$c_string_character_source@D@0@QBD$$T@Z 10052a5e f i libucrt:atox.obj
 0001:00051a7f       ??$make_c_string_character_source@_W$$T@__crt_strtox@@YA?AV?$c_string_character_source@_W@0@QB_W$$T@Z 10052a7f f i libucrt:atox.obj
 0001:00051aa0       ??$parse_integer@KV?$c_string_character_source@D@__crt_strtox@@@__crt_strtox@@YAKQAU__crt_locale_pointers@@V?$c_string_character_source@D@0@H_N@Z 10052aa0 f i libucrt:atox.obj
 0001:00051d53       ??$parse_integer@KV?$c_string_character_source@_W@__crt_strtox@@@__crt_strtox@@YAKQAU__crt_locale_pointers@@V?$c_string_character_source@_W@0@H_N@Z 10052d53 f i libucrt:atox.obj
 0001:00052524       ??$parse_integer@_KV?$c_string_character_source@D@__crt_strtox@@@__crt_strtox@@YA_KQAU__crt_locale_pointers@@V?$c_string_character_source@D@0@H_N@Z 10053524 f i libucrt:atox.obj
 0001:00052874       ??$parse_integer@_KV?$c_string_character_source@_W@__crt_strtox@@@__crt_strtox@@YA_KQAU__crt_locale_pointers@@V?$c_string_character_source@_W@0@H_N@Z 10053874 f i libucrt:atox.obj
 0001:00053141       ??$parse_integer_from_string@JD$$T@__crt_strtox@@YAJQBD$$THQAU__crt_locale_pointers@@@Z 10054141 f i libucrt:atox.obj
 0001:00053179       ??$parse_integer_from_string@J_W$$T@__crt_strtox@@YAJQB_W$$THQAU__crt_locale_pointers@@@Z 10054179 f i libucrt:atox.obj
 0001:000531b1       ??$parse_integer_from_string@_JD$$T@__crt_strtox@@YA_JQBD$$THQAU__crt_locale_pointers@@@Z 100541b1 f i libucrt:atox.obj
 0001:000531e9       ??$parse_integer_from_string@_J_W$$T@__crt_strtox@@YA_JQB_W$$THQAU__crt_locale_pointers@@@Z 100541e9 f i libucrt:atox.obj
 0001:00053221       ??0?$c_string_character_source@D@__crt_strtox@@QAE@QBDQAPBD@Z 10054221 f i libucrt:atox.obj
 0001:00053244       ??0?$c_string_character_source@_W@__crt_strtox@@QAE@QB_WQAPB_W@Z 10054244 f i libucrt:atox.obj
 0001:00053267       ??1?$c_string_character_source@D@__crt_strtox@@QAE@XZ 10054267 f i libucrt:atox.obj
 0001:00053276       ??1?$c_string_character_source@_W@__crt_strtox@@QAE@XZ 10054276 f i libucrt:atox.obj
 0001:00053285       ?get@?$c_string_character_source@D@__crt_strtox@@QAEDXZ 10054285 f i libucrt:atox.obj
 0001:0005328f       ?get@?$c_string_character_source@_W@__crt_strtox@@QAE_WXZ 1005428f f i libucrt:atox.obj
 0001:0005329c       ?maximum_signed_value@__crt_strtox@@YAJK@Z 1005429c f i libucrt:atox.obj
 0001:000532a2       ?minimum_signed_value@__crt_strtox@@YAJK@Z 100542a2 f i libucrt:atox.obj
 0001:000532a8       ?restore_state@?$c_string_character_source@D@__crt_strtox@@QAE_NQBD@Z 100542a8 f i libucrt:atox.obj
 0001:000532bc       ?restore_state@?$c_string_character_source@_W@__crt_strtox@@QAE_NQB_W@Z 100542bc f i libucrt:atox.obj
 0001:000532d0       ?save_state@?$c_string_character_source@D@__crt_strtox@@QBEPBDXZ 100542d0 f i libucrt:atox.obj
 0001:000532d3       ?save_state@?$c_string_character_source@_W@__crt_strtox@@QBEPB_WXZ 100542d3 f i libucrt:atox.obj
 0001:000532d6       ?unget@?$c_string_character_source@D@__crt_strtox@@QAEXD@Z 100542d6 f i libucrt:atox.obj
 0001:00053309       ?unget@?$c_string_character_source@_W@__crt_strtox@@QAEX_W@Z 10054309 f i libucrt:atox.obj
 0001:00053342       ?validate@?$c_string_character_source@D@__crt_strtox@@QBE_NXZ 10054342 f i libucrt:atox.obj
 0001:00053363       ?validate@?$c_string_character_source@_W@__crt_strtox@@QBE_NXZ 10054363 f i libucrt:atox.obj
 0001:00053384       __atoi64                   10054384 f   libucrt:atox.obj
 0001:000533b2       __atoi64_l                 100543b2 f   libucrt:atox.obj
 0001:000533e1       __atoi_l                   100543e1 f   libucrt:atox.obj
 0001:00053410       __atol_l                   10054410 f   libucrt:atox.obj
 0001:0005343f       __atoll_l                  1005443f f   libucrt:atox.obj
 0001:0005346e       __wtoi                     1005446e f   libucrt:atox.obj
 0001:0005349c       __wtoi64                   1005449c f   libucrt:atox.obj
 0001:000534ca       __wtoi64_l                 100544ca f   libucrt:atox.obj
 0001:000534f9       __wtoi_l                   100544f9 f   libucrt:atox.obj
 0001:00053528       __wtol                     10054528 f   libucrt:atox.obj
 0001:00053556       __wtol_l                   10054556 f   libucrt:atox.obj
 0001:00053585       __wtoll                    10054585 f   libucrt:atox.obj
 0001:000535b3       __wtoll_l                  100545b3 f   libucrt:atox.obj
 0001:000535e2       _atoi                      100545e2 f   libucrt:atox.obj
 0001:00053610       _atol                      10054610 f   libucrt:atox.obj
 0001:0005363e       _atoll                     1005463e f   libucrt:atox.obj
 0001:00053670       _strncmp                   10054670 f   libucrt:strncmp.obj
 0001:00053706       __set_abort_behavior       10054706 f   libucrt:abort.obj
 0001:0005372f       _abort                     1005472f f   libucrt:abort.obj
 0001:00053784       _wcsncmp                   10054784 f   libucrt:wcsncmp.obj
 0001:000537cc       __malloc_base              100547cc f   libucrt:malloc_base.obj
 0001:00053833       __free_base                10054833 f   libucrt:free_base.obj
 0001:0005387b       ??$__crt_fast_decode_pointer@P6AXPB_W00II@Z@@YAP6AXPB_W00II@ZQ6AX000II@Z@Z 1005487b f i libucrt:invalid_parameter.obj
 0001:00053896       ??$__crt_fast_encode_pointer@P6AXPB_W00II@Z@@YAP6AXPB_W00II@ZQ6AX000II@Z@Z 10054896 f i libucrt:invalid_parameter.obj
 0001:000538bc       ??$initialize_from_array@$$BY00Q6AXPB_W00II@Z@?$dual_state_global@P6AXPB_W00II@Z@__crt_state_management@@QAAXAAY00Q6AXPB_W00II@Z@Z 100548bc f i libucrt:invalid_parameter.obj
 0001:000538d1       ?dangerous_get_state_array@?$dual_state_global@P6AXPB_W00II@Z@__crt_state_management@@QAEPAP6AXPB_W00II@ZXZ 100548d1 f i libucrt:invalid_parameter.obj
 0001:000538d4       ?value@?$dual_state_global@P6AXPB_W00II@Z@__crt_state_management@@QAEAAP6AXPB_W00II@ZXZ 100548d4 f i libucrt:invalid_parameter.obj
 0001:000538d7       ___acrt_call_reportfault   100548d7 f   libucrt:invalid_parameter.obj
 0001:00053a60       ___acrt_initialize_invalid_parameter_handler 10054a60 f   libucrt:invalid_parameter.obj
 0001:00053a72       __get_invalid_parameter_handler 10054a72 f   libucrt:invalid_parameter.obj
 0001:00053a89       __get_thread_local_invalid_parameter_handler 10054a89 f   libucrt:invalid_parameter.obj
 0001:00053a9e       __invalid_parameter        10054a9e f   libucrt:invalid_parameter.obj
 0001:00053b37       __invalid_parameter_noinfo 10054b37 f   libucrt:invalid_parameter.obj
 0001:00053b4b       __invalid_parameter_noinfo_noreturn 10054b4b f   libucrt:invalid_parameter.obj
 0001:00053b6f       __invoke_watson            10054b6f f   libucrt:invalid_parameter.obj
 0001:00053bb0       __set_invalid_parameter_handler 10054bb0 f   libucrt:invalid_parameter.obj
 0001:00053bec       __set_thread_local_invalid_parameter_handler 10054bec f   libucrt:invalid_parameter.obj
 0001:00053c10       ___acrt_errno_from_os_error 10054c10 f   libucrt:errno.obj
 0001:00053c63       ___acrt_errno_map_os_error 10054c63 f   libucrt:errno.obj
 0001:00053c8e       ___doserrno                10054c8e f   libucrt:errno.obj
 0001:00053ca5       __errno                    10054ca5 f   libucrt:errno.obj
 0001:00053cbc       __get_doserrno             10054cbc f   libucrt:errno.obj
 0001:00053cea       __get_errno                10054cea f   libucrt:errno.obj
 0001:00053d18       __set_doserrno             10054d18 f   libucrt:errno.obj
 0001:00053d41       __set_errno                10054d41 f   libucrt:errno.obj
 0001:00053d6a       __calloc_base              10054d6a f   libucrt:calloc_base.obj
 0001:00053dee       ??$?B$$A6GHPA_WKJ@Z@__crt_fast_encoded_nullptr_t@@QBEP6GHPA_WKJ@ZXZ 10054dee f i libucrt:winapi_thunks.obj
 0001:00053ee8       ??$__crt_fast_decode_pointer@P6GHPA_WKJ@Z@@YAP6GHPA_WKJ@ZQ6GH0KJ@Z@Z 10054ee8 f i libucrt:winapi_thunks.obj
 0001:00053f03       ??$__crt_fast_encode_pointer@P6GHPA_WKJ@Z@@YAP6GHPA_WKJ@ZQ6GH0KJ@Z@Z 10054f03 f i libucrt:winapi_thunks.obj
 0001:00054762       _GetCurrentThreadEffectiveToken 10055762 f i libucrt:winapi_thunks.obj
 0001:00054766       ___acrt_AppPolicyGetProcessTerminationMethodInternal@4 10055766 f   libucrt:winapi_thunks.obj
 0001:000547d2       ___acrt_AppPolicyGetShowDeveloperDiagnosticInternal@4 100557d2 f   libucrt:winapi_thunks.obj
 0001:0005483e       ___acrt_AppPolicyGetThreadInitializationTypeInternal@4 1005583e f   libucrt:winapi_thunks.obj
 0001:000548aa       ___acrt_AppPolicyGetWindowingModelInternal@4 100558aa f   libucrt:winapi_thunks.obj
 0001:00054916       ___acrt_AreFileApisANSI@0  10055916 f   libucrt:winapi_thunks.obj
 0001:0005495e       ___acrt_CompareStringEx@36 1005595e f   libucrt:winapi_thunks.obj
 0001:000549ef       ___acrt_EnumSystemLocalesEx@16 100559ef f   libucrt:winapi_thunks.obj
 0001:00054a73       ___acrt_FlsAlloc@4         10055a73 f   libucrt:winapi_thunks.obj
 0001:00054ade       ___acrt_FlsFree@4          10055ade f   libucrt:winapi_thunks.obj
 0001:00054b49       ___acrt_FlsGetValue@4      10055b49 f   libucrt:winapi_thunks.obj
 0001:00054bb4       ___acrt_FlsSetValue@8      10055bb4 f   libucrt:winapi_thunks.obj
 0001:00054c23       ___acrt_GetDateFormatEx@28 10055c23 f   libucrt:winapi_thunks.obj
 0001:00054cac       ___acrt_GetEnabledXStateFeatures@0 10055cac f   libucrt:winapi_thunks.obj
 0001:00054d0e       ___acrt_GetLocaleInfoEx@16 10055d0e f   libucrt:winapi_thunks.obj
 0001:00054d79       ___acrt_GetSystemTimePreciseAsFileTime@4 10055d79 f   libucrt:winapi_thunks.obj
 0001:00054de4       ___acrt_GetTimeFormatEx@24 10055de4 f   libucrt:winapi_thunks.obj
 0001:00054e57       ___acrt_GetUserDefaultLocaleName@8 10055e57 f   libucrt:winapi_thunks.obj
 0001:00054ebe       ___acrt_GetXStateFeaturesMask@8 10055ebe f   libucrt:winapi_thunks.obj
 0001:00054f2a       ___acrt_InitializeCriticalSectionEx@12 10055f2a f   libucrt:winapi_thunks.obj
 0001:00054fa4       ___acrt_IsValidLocaleName@4 10055fa4 f   libucrt:winapi_thunks.obj
 0001:00055006       ___acrt_LCIDToLocaleName@16 10056006 f   libucrt:winapi_thunks.obj
 0001:00055071       ___acrt_LCMapStringEx@36   10056071 f   libucrt:winapi_thunks.obj
 0001:00055102       ___acrt_LocaleNameToLCID@8 10056102 f   libucrt:winapi_thunks.obj
 0001:0005515c       ___acrt_LocateXStateFeature@12 1005615c f   libucrt:winapi_thunks.obj
 0001:000551b3       ___acrt_MessageBoxA@16     100561b3 f   libucrt:winapi_thunks.obj
 0001:0005520e       ___acrt_MessageBoxW@16     1005620e f   libucrt:winapi_thunks.obj
 0001:00055269       ___acrt_RoInitialize@4     10056269 f   libucrt:winapi_thunks.obj
 0001:000552cf       ___acrt_RoUninitialize@0   100562cf f   libucrt:winapi_thunks.obj
 0001:0005532a       ___acrt_RtlGenRandom@8     1005632a f   libucrt:winapi_thunks.obj
 0001:00055396       ___acrt_SetThreadStackGuarantee@4 10056396 f   libucrt:winapi_thunks.obj
 0001:000553fc       ___acrt_can_show_message_box 100563fc f   libucrt:winapi_thunks.obj
 0001:0005542c       ___acrt_can_use_vista_locale_apis 1005642c f   libucrt:winapi_thunks.obj
 0001:00055439       ___acrt_can_use_xstate_apis 10056439 f   libucrt:winapi_thunks.obj
 0001:00055446       ___acrt_eagerly_load_locale_apis 10056446 f   libucrt:winapi_thunks.obj
 0001:0005548a       ___acrt_get_parent_window  1005648a f   libucrt:winapi_thunks.obj
 0001:00055528       ___acrt_initialize_winapi_thunks 10056528 f   libucrt:winapi_thunks.obj
 0001:00055573       ___acrt_is_interactive     10056573 f   libucrt:winapi_thunks.obj
 0001:00055642       ___acrt_uninitialize_winapi_thunks 10056642 f   libucrt:winapi_thunks.obj
 0001:00055685       ??0__crt_stdio_stream@@QAE@QAU__crt_stdio_stream_data@@@Z 10056685 f i libucrt:closeall.obj
 0001:00055699       __fcloseall                10056699 f   libucrt:closeall.obj
 0001:00055d07       ___acrt_stdio_flush_nolock 10056d07 f   libucrt:fflush.obj
 0001:00055d82       __fflush_nolock            10056d82 f   libucrt:fflush.obj
 0001:00055dda       __flushall                 10056dda f   libucrt:fflush.obj
 0001:00055de5       _fflush                    10056de5 f   libucrt:fflush.obj
 0001:00055e4e       ?has_crt_buffer@__crt_stdio_stream@@QBE_NXZ 10056e4e f i libucrt:_freebuf.obj
 0001:00055e5b       ___acrt_stdio_free_buffer_nolock 10056e5b f   libucrt:_freebuf.obj
 0001:00056099       ___acrt_initialize_lowio   10057099 f   libucrt:ioinit.obj
 0001:00056104       ___acrt_uninitialize_lowio 10057104 f   libucrt:ioinit.obj
 0001:00056157       ___isascii                 10057157 f i libucrt:_ctype.obj
 0001:0005616d       ___iscsym                  1005716d f i libucrt:_ctype.obj
 0001:00056197       ___iscsymf                 10057197 f i libucrt:_ctype.obj
 0001:000561bd       ___toascii                 100571bd f i libucrt:_ctype.obj
 0001:000561cd       __isalnum_l                100571cd f i libucrt:_ctype.obj
 0001:00056216       __isalpha_l                10057216 f i libucrt:_ctype.obj
 0001:0005625f       __isblank_l                1005725f f i libucrt:_ctype.obj
 0001:000562b2       __iscntrl_l                100572b2 f i libucrt:_ctype.obj
 0001:000562f8       __iscsym_l                 100572f8 f i libucrt:_ctype.obj
 0001:00056323       __iscsymf_l                10057323 f i libucrt:_ctype.obj
 0001:0005634e       __isdigit_l                1005734e f i libucrt:_ctype.obj
 0001:00056394       __isgraph_l                10057394 f i libucrt:_ctype.obj
 0001:000563dd       __islower_l                100573dd f i libucrt:_ctype.obj
 0001:00056423       __isprint_l                10057423 f i libucrt:_ctype.obj
 0001:0005646c       __ispunct_l                1005746c f i libucrt:_ctype.obj
 0001:000564b2       __isspace_l                100574b2 f i libucrt:_ctype.obj
 0001:000564f8       __isupper_l                100574f8 f i libucrt:_ctype.obj
 0001:0005653e       __isxdigit_l               1005753e f i libucrt:_ctype.obj
 0001:00056587       _isalnum                   10057587 f i libucrt:_ctype.obj
 0001:000565c3       _isalpha                   100575c3 f i libucrt:_ctype.obj
 0001:000565ff       _isblank                   100575ff f i libucrt:_ctype.obj
 0001:00056647       _iscntrl                   10057647 f i libucrt:_ctype.obj
 0001:00056680       _isdigit                   10057680 f i libucrt:_ctype.obj
 0001:000566b9       _isgraph                   100576b9 f i libucrt:_ctype.obj
 0001:000566f5       _islower                   100576f5 f i libucrt:_ctype.obj
 0001:0005672e       _isprint                   1005772e f i libucrt:_ctype.obj
 0001:0005676a       _ispunct                   1005776a f i libucrt:_ctype.obj
 0001:000567a3       _isspace                   100577a3 f i libucrt:_ctype.obj
 0001:000567dc       _isupper                   100577dc f i libucrt:_ctype.obj
 0001:00056815       _isxdigit                  10057815 f i libucrt:_ctype.obj
 0001:00056c0d       __tolower                  10057c0d f   libucrt:tolower_toupper.obj
 0001:00056c1d       __tolower_l                10057c1d f   libucrt:tolower_toupper.obj
 0001:00056c3d       __toupper                  10057c3d f   libucrt:tolower_toupper.obj
 0001:00056c4d       __toupper_l                10057c4d f   libucrt:tolower_toupper.obj
 0001:00056c6d       _tolower                   10057c6d f   libucrt:tolower_toupper.obj
 0001:00056ca9       _toupper                   10057ca9 f   libucrt:tolower_toupper.obj
 0001:00056ce5       ??$make_c_string_character_source@DPAPAD@__crt_strtox@@YA?AV?$c_string_character_source@D@0@QBDQAPAD@Z 10057ce5 f i libucrt:strtox.obj
 0001:00056d06       ??$make_c_string_character_source@_WPAPA_W@__crt_strtox@@YA?AV?$c_string_character_source@_W@0@QB_WQAPA_W@Z 10057d06 f i libucrt:strtox.obj
 0001:00056d27       ??$parse_integer_from_string@JDPAPAD@__crt_strtox@@YAJQBDQAPADHQAU__crt_locale_pointers@@@Z 10057d27 f i libucrt:strtox.obj
 0001:00056d5f       ??$parse_integer_from_string@J_WPAPA_W@__crt_strtox@@YAJQB_WQAPA_WHQAU__crt_locale_pointers@@@Z 10057d5f f i libucrt:strtox.obj
 0001:00056d97       ??$parse_integer_from_string@KDPAPAD@__crt_strtox@@YAKQBDQAPADHQAU__crt_locale_pointers@@@Z 10057d97 f i libucrt:strtox.obj
 0001:00056dcf       ??$parse_integer_from_string@K_WPAPA_W@__crt_strtox@@YAKQB_WQAPA_WHQAU__crt_locale_pointers@@@Z 10057dcf f i libucrt:strtox.obj
 0001:00056e07       ??$parse_integer_from_string@_JDPAPAD@__crt_strtox@@YA_JQBDQAPADHQAU__crt_locale_pointers@@@Z 10057e07 f i libucrt:strtox.obj
 0001:00056e3f       ??$parse_integer_from_string@_J_WPAPA_W@__crt_strtox@@YA_JQB_WQAPA_WHQAU__crt_locale_pointers@@@Z 10057e3f f i libucrt:strtox.obj
 0001:00056e77       ??$parse_integer_from_string@_KDPAPAD@__crt_strtox@@YA_KQBDQAPADHQAU__crt_locale_pointers@@@Z 10057e77 f i libucrt:strtox.obj
 0001:00056eaf       ??$parse_integer_from_string@_K_WPAPA_W@__crt_strtox@@YA_KQB_WQAPA_WHQAU__crt_locale_pointers@@@Z 10057eaf f i libucrt:strtox.obj
 0001:00056ee7       __strtoi64                 10057ee7 f   libucrt:strtox.obj
 0001:00056f1e       __strtoi64_l               10057f1e f   libucrt:strtox.obj
 0001:00056f56       __strtoimax_l              10057f56 f   libucrt:strtox.obj
 0001:00056f8e       __strtol_l                 10057f8e f   libucrt:strtox.obj
 0001:00056fc6       __strtoll_l                10057fc6 f   libucrt:strtox.obj
 0001:00056ffe       __strtoui64                10057ffe f   libucrt:strtox.obj
 0001:00057035       __strtoui64_l              10058035 f   libucrt:strtox.obj
 0001:0005706d       __strtoul_l                1005806d f   libucrt:strtox.obj
 0001:000570a5       __strtoull_l               100580a5 f   libucrt:strtox.obj
 0001:000570dd       __strtoumax_l              100580dd f   libucrt:strtox.obj
 0001:00057115       __wcstoi64                 10058115 f   libucrt:strtox.obj
 0001:0005714c       __wcstoi64_l               1005814c f   libucrt:strtox.obj
 0001:00057184       __wcstoimax_l              10058184 f   libucrt:strtox.obj
 0001:000571bc       __wcstol_l                 100581bc f   libucrt:strtox.obj
 0001:000571f4       __wcstoll_l                100581f4 f   libucrt:strtox.obj
 0001:0005722c       __wcstoui64                1005822c f   libucrt:strtox.obj
 0001:00057263       __wcstoui64_l              10058263 f   libucrt:strtox.obj
 0001:0005729b       __wcstoul_l                1005829b f   libucrt:strtox.obj
 0001:000572d3       __wcstoull_l               100582d3 f   libucrt:strtox.obj
 0001:0005730b       __wcstoumax_l              1005830b f   libucrt:strtox.obj
 0001:00057343       _strtoimax                 10058343 f   libucrt:strtox.obj
 0001:0005737a       _strtol                    1005837a f   libucrt:strtox.obj
 0001:000573b1       _strtoll                   100583b1 f   libucrt:strtox.obj
 0001:000573e8       _strtoul                   100583e8 f   libucrt:strtox.obj
 0001:0005741f       _strtoull                  1005841f f   libucrt:strtox.obj
 0001:00057456       _strtoumax                 10058456 f   libucrt:strtox.obj
 0001:0005748d       _wcstoimax                 1005848d f   libucrt:strtox.obj
 0001:000574c4       _wcstol                    100584c4 f   libucrt:strtox.obj
 0001:000574fb       _wcstoll                   100584fb f   libucrt:strtox.obj
 0001:00057532       _wcstoul                   10058532 f   libucrt:strtox.obj
 0001:00057569       _wcstoull                  10058569 f   libucrt:strtox.obj
 0001:000575a0       _wcstoumax                 100585a0 f   libucrt:strtox.obj
 0001:000575d7       __mbtowc_l                 100585d7 f   libucrt:mbtowc.obj
 0001:0005776c       _mbtowc                    1005876c f   libucrt:mbtowc.obj
 0001:0005778c       __wctomb_l                 1005878c f   libucrt:wctomb.obj
 0001:000577f3       __wctomb_s_l               100587f3 f   libucrt:wctomb.obj
 0001:0005795e       _wctomb                    1005895e f   libucrt:wctomb.obj
 0001:0005799f       _wctomb_s                  1005899f f   libucrt:wctomb.obj
 0001:000583bc       ??1?$__crt_simd_cleanup_guard@$00@@QAE@XZ 100593bc f i libucrt:strnlen.obj
 0001:000583c0       ??1?$__crt_simd_cleanup_guard@$0A@@@QAE@XZ 100593c0 f i libucrt:strnlen.obj
 0001:000583c1       ?compare_equals@?$__crt_simd_traits@$00E@@SA?AT__m256i@@T2@0@Z 100593c1 f i libucrt:strnlen.obj
 0001:000583c6       ?compare_equals@?$__crt_simd_traits@$00G@@SA?AT__m256i@@T2@0@Z 100593c6 f i libucrt:strnlen.obj
 0001:000583cb       ?compare_equals@?$__crt_simd_traits@$0A@E@@SA?AT__m128i@@T2@0@Z 100593cb f i libucrt:strnlen.obj
 0001:000583d0       ?compare_equals@?$__crt_simd_traits@$0A@G@@SA?AT__m128i@@T2@0@Z 100593d0 f i libucrt:strnlen.obj
 0001:000583d5       ?compute_byte_mask@?$__crt_simd_pack_traits@$00@@SAHT__m256i@@@Z 100593d5 f i libucrt:strnlen.obj
 0001:000583da       ?compute_byte_mask@?$__crt_simd_pack_traits@$0A@@@SAHT__m128i@@@Z 100593da f i libucrt:strnlen.obj
 0001:000583df       ?get_zero_pack@?$__crt_simd_pack_traits@$00@@SA?AT__m256i@@XZ 100593df f i libucrt:strnlen.obj
 0001:000583e4       ?get_zero_pack@?$__crt_simd_pack_traits@$0A@@@SA?AT__m128i@@XZ 100593e4 f i libucrt:strnlen.obj
 0001:000583e8       _strnlen                   100593e8 f   libucrt:strnlen.obj
 0001:00058552       _wcslen                    10059552 f   libucrt:strnlen.obj
 0001:000586c4       _wcsnlen                   100596c4 f   libucrt:strnlen.obj
 0001:000588e0       ??$?RU__acrt_ptd@@@__crt_internal_free_policy@@QBEXQBU__acrt_ptd@@@Z 100598e0 f i libucrt:per_thread_data.obj
 0001:00058c59       ??0?$__crt_unique_heap_ptr@U__acrt_ptd@@U__crt_internal_free_policy@@@@QAE@QAU__acrt_ptd@@@Z 10059c59 f i libucrt:per_thread_data.obj
 0001:00058c6d       ??0__crt_scoped_get_last_error_reset@@QAE@XZ 10059c6d f i libucrt:per_thread_data.obj
 0001:00058c82       ??1?$__crt_unique_heap_ptr@U__acrt_ptd@@U__crt_internal_free_policy@@@@QAE@XZ 10059c82 f i libucrt:per_thread_data.obj
 0001:00058c98       ??1__crt_scoped_get_last_error_reset@@QAE@XZ 10059c98 f i libucrt:per_thread_data.obj
 0001:00058ca3       ??B?$__crt_unique_heap_ptr@U__acrt_ptd@@U__crt_internal_free_policy@@@@QBE_NXZ 10059ca3 f i libucrt:per_thread_data.obj
 0001:00058e40       ?dangerous_get_state_array@?$dual_state_global@PAU__crt_locale_data@@@__crt_state_management@@QAEPAPAU__crt_locale_data@@XZ 10059e40 f i libucrt:per_thread_data.obj
 0001:00058f73       ?detach@?$__crt_unique_heap_ptr@U__acrt_ptd@@U__crt_internal_free_policy@@@@QAEPAU__acrt_ptd@@XZ 10059f73 f i libucrt:per_thread_data.obj
 0001:00058f79       ?get@?$__crt_unique_heap_ptr@U__acrt_ptd@@U__crt_internal_free_policy@@@@QBEPAU__acrt_ptd@@XZ 10059f79 f i libucrt:per_thread_data.obj
 0001:00058f7c       ?get_current_state_index@__crt_state_management@@YAIABV__crt_scoped_get_last_error_reset@@@Z 10059f7c f i libucrt:per_thread_data.obj
 0001:00059102       ?is_valid@?$__crt_unique_heap_ptr@U__acrt_ptd@@U__crt_internal_free_policy@@@@QBE_NXZ 1005a102 f i libucrt:per_thread_data.obj
 0001:00059109       ?release@?$__crt_unique_heap_ptr@U__acrt_ptd@@U__crt_internal_free_policy@@@@QAEXXZ 1005a109 f i libucrt:per_thread_data.obj
 0001:00059195       ?value@?$dual_state_global@PAU__crt_locale_data@@@__crt_state_management@@QAEAAPAU__crt_locale_data@@XZ 1005a195 f i libucrt:per_thread_data.obj
 0001:00059198       ___acrt_freeptd            1005a198 f   libucrt:per_thread_data.obj
 0001:000591cf       ___acrt_getptd             1005a1cf f   libucrt:per_thread_data.obj
 0001:000592b3       ___acrt_getptd_head        1005a2b3 f   libucrt:per_thread_data.obj
 0001:00059373       ___acrt_getptd_noexit      1005a373 f   libucrt:per_thread_data.obj
 0001:0005944b       ___acrt_initialize_ptd     1005a44b f   libucrt:per_thread_data.obj
 0001:00059482       ___acrt_uninitialize_ptd   1005a482 f   libucrt:per_thread_data.obj
 0001:000594a2       ___threadhandle            1005a4a2 f   libucrt:per_thread_data.obj
 0001:000594a8       ___threadid                1005a4a8 f   libucrt:per_thread_data.obj
 0001:000594ae       ?value@?$dual_state_global@PAU__crt_multibyte_data@@@__crt_state_management@@QAEAAPAU__crt_multibyte_data@@XZ 1005a4ae f i libucrt:locale_update.obj
 0001:000594b1       ___acrt_update_locale_info 1005a4b1 f   libucrt:locale_update.obj
 0001:000594e9       ___acrt_update_multibyte_info 1005a4e9 f   libucrt:locale_update.obj
 0001:00059521       ?__acrt_fp_classify@@YA?AW4__acrt_fp_class@@ABN@Z 1005a521 f i libucrt:cvt.obj
 0001:0005959b       ?__acrt_fp_is_negative@@YA_NABN@Z 1005a59b f i libucrt:cvt.obj
 0001:0005a020       ?strrchr@@YAPADQADH@Z      1005b020 f i libucrt:cvt.obj
 0001:0005a02d       ___acrt_fp_format          1005b02d f   libucrt:cvt.obj
 0001:0005a1f5       __fputwc_nolock            1005b1f5 f   libucrt:fputwc.obj
 0001:0005a369       __fputwchar                1005b369 f   libucrt:fputwc.obj
 0001:0005a389       __putwc_nolock             1005b389 f   libucrt:fputwc.obj
 0001:0005a396       _fputwc                    1005b396 f   libucrt:fputwc.obj
 0001:0005a427       _putwc                     1005b427 f   libucrt:fputwc.obj
 0001:0005a434       _putwchar                  1005b434 f   libucrt:fputwc.obj
 0001:0005a441       ?lowio_handle@__crt_stdio_stream@@QBEHXZ 1005b441 f i libucrt:fileno.obj
 0001:0005a447       __fileno                   1005b447 f   libucrt:fileno.obj
 0001:0005a476       __fputc_nolock             1005b476 f   libucrt:fputc.obj
 0001:0005a4a9       __fputchar                 1005b4a9 f   libucrt:fputc.obj
 0001:0005a4c9       __putc_nolock              1005b4c9 f   libucrt:fputc.obj
 0001:0005a4d6       _fputc                     1005b4d6 f   libucrt:fputc.obj
 0001:0005a614       _putc                      1005b614 f   libucrt:fputc.obj
 0001:0005a621       _putchar                   1005b621 f   libucrt:fputc.obj
 0001:0005a62e       __get_printf_count_output  1005b62e f   libucrt:printf_count_output.obj
 0001:0005a648       __set_printf_count_output  1005b648 f   libucrt:printf_count_output.obj
 0001:0005a67c       ?has_temporary_buffer@__crt_stdio_stream@@QBE_NXZ 1005b67c f i libucrt:_sftbuf.obj
 0001:0005a689       ___acrt_stdio_begin_temporary_buffering_nolock 1005b689 f   libucrt:_sftbuf.obj
 0001:0005a76b       ___acrt_stdio_end_temporary_buffering_nolock 1005b76b f   libucrt:_sftbuf.obj
 0001:0005a7b5       ??$?RU__crt_locale_data@@@__crt_internal_free_policy@@QBEXQBU__crt_locale_data@@@Z 1005b7b5 f i libucrt:wsetlocale.obj
 0001:0005a7cb       ??$?RU__crt_locale_pointers@@@__crt_internal_free_policy@@QBEXQBU__crt_locale_pointers@@@Z 1005b7cb f i libucrt:wsetlocale.obj
 0001:0005a7e1       ??$?RU__crt_multibyte_data@@@__crt_internal_free_policy@@QBEXQBU__crt_multibyte_data@@@Z 1005b7e1 f i libucrt:wsetlocale.obj
 0001:0005aab1       ??$__vcrt_va_start_verify_argument_type@H@@YAXXZ 1005bab1 f i libucrt:wsetlocale.obj
 0001:0005ac3c       ??0?$__crt_unique_heap_ptr@U__crt_locale_data@@U__crt_internal_free_policy@@@@QAE@QAU__crt_locale_data@@@Z 1005bc3c f i libucrt:wsetlocale.obj
 0001:0005ac50       ??0?$__crt_unique_heap_ptr@U__crt_locale_pointers@@U__crt_internal_free_policy@@@@QAE@QAU__crt_locale_pointers@@@Z 1005bc50 f i libucrt:wsetlocale.obj
 0001:0005ac64       ??0?$__crt_unique_heap_ptr@U__crt_multibyte_data@@U__crt_internal_free_policy@@@@QAE@QAU__crt_multibyte_data@@@Z 1005bc64 f i libucrt:wsetlocale.obj
 0001:0005ac78       ??1?$__crt_unique_heap_ptr@U__crt_locale_data@@U__crt_internal_free_policy@@@@QAE@XZ 1005bc78 f i libucrt:wsetlocale.obj
 0001:0005ac8e       ??1?$__crt_unique_heap_ptr@U__crt_locale_pointers@@U__crt_internal_free_policy@@@@QAE@XZ 1005bc8e f i libucrt:wsetlocale.obj
 0001:0005aca4       ??1?$__crt_unique_heap_ptr@U__crt_multibyte_data@@U__crt_internal_free_policy@@@@QAE@XZ 1005bca4 f i libucrt:wsetlocale.obj
 0001:0005acba       ??B?$__crt_unique_heap_ptr@U__crt_locale_data@@U__crt_internal_free_policy@@@@QBE_NXZ 1005bcba f i libucrt:wsetlocale.obj
 0001:0005acc1       ??B?$__crt_unique_heap_ptr@U__crt_locale_pointers@@U__crt_internal_free_policy@@@@QBE_NXZ 1005bcc1 f i libucrt:wsetlocale.obj
 0001:0005acc8       ??B?$__crt_unique_heap_ptr@U__crt_multibyte_data@@U__crt_internal_free_policy@@@@QBE_NXZ 1005bcc8 f i libucrt:wsetlocale.obj
 0001:0005af6a       ?detach@?$__crt_unique_heap_ptr@U__crt_locale_data@@U__crt_internal_free_policy@@@@QAEPAU__crt_locale_data@@XZ 1005bf6a f i libucrt:wsetlocale.obj
 0001:0005af70       ?detach@?$__crt_unique_heap_ptr@U__crt_locale_pointers@@U__crt_internal_free_policy@@@@QAEPAU__crt_locale_pointers@@XZ 1005bf70 f i libucrt:wsetlocale.obj
 0001:0005af76       ?detach@?$__crt_unique_heap_ptr@U__crt_multibyte_data@@U__crt_internal_free_policy@@@@QAEPAU__crt_multibyte_data@@XZ 1005bf76 f i libucrt:wsetlocale.obj
 0001:0005af7c       ?get@?$__crt_unique_heap_ptr@U__crt_locale_data@@U__crt_internal_free_policy@@@@QBEPAU__crt_locale_data@@XZ 1005bf7c f i libucrt:wsetlocale.obj
 0001:0005af7f       ?get@?$__crt_unique_heap_ptr@U__crt_locale_pointers@@U__crt_internal_free_policy@@@@QBEPAU__crt_locale_pointers@@XZ 1005bf7f f i libucrt:wsetlocale.obj
 0001:0005af82       ?get@?$__crt_unique_heap_ptr@U__crt_multibyte_data@@U__crt_internal_free_policy@@@@QBEPAU__crt_multibyte_data@@XZ 1005bf82 f i libucrt:wsetlocale.obj
 0001:0005af85       ?is_valid@?$__crt_unique_heap_ptr@U__crt_locale_data@@U__crt_internal_free_policy@@@@QBE_NXZ 1005bf85 f i libucrt:wsetlocale.obj
 0001:0005af8c       ?is_valid@?$__crt_unique_heap_ptr@U__crt_locale_pointers@@U__crt_internal_free_policy@@@@QBE_NXZ 1005bf8c f i libucrt:wsetlocale.obj
 0001:0005af93       ?is_valid@?$__crt_unique_heap_ptr@U__crt_multibyte_data@@U__crt_internal_free_policy@@@@QBE_NXZ 1005bf93 f i libucrt:wsetlocale.obj
 0001:0005af9a       ?release@?$__crt_unique_heap_ptr@U__crt_locale_data@@U__crt_internal_free_policy@@@@QAEXXZ 1005bf9a f i libucrt:wsetlocale.obj
 0001:0005afb0       ?release@?$__crt_unique_heap_ptr@U__crt_locale_pointers@@U__crt_internal_free_policy@@@@QAEXXZ 1005bfb0 f i libucrt:wsetlocale.obj
 0001:0005afc6       ?release@?$__crt_unique_heap_ptr@U__crt_multibyte_data@@U__crt_internal_free_policy@@@@QAEXXZ 1005bfc6 f i libucrt:wsetlocale.obj
 0001:0005afdc       ___acrt_copy_locale_name   1005bfdc f   libucrt:wsetlocale.obj
 0001:0005b05b       ___acrt_set_locale_changed 1005c05b f   libucrt:wsetlocale.obj
 0001:0005b068       ___acrt_uninitialize_locale 1005c068 f   libucrt:wsetlocale.obj
 0001:0005b09b       ___lc_lctowcs              1005c09b f   libucrt:wsetlocale.obj
 0001:0005b127       ___lc_wcstolc              1005c127 f   libucrt:wsetlocale.obj
 0001:0005b2c7       __configthreadlocale       1005c2c7 f   libucrt:wsetlocale.obj
 0001:0005b37b       __create_locale            1005c37b f   libucrt:wsetlocale.obj
 0001:0005b3fa       __expandlocale             1005c3fa f   libucrt:wsetlocale.obj
 0001:0005b8ce       __free_locale              1005c8ce f   libucrt:wsetlocale.obj
 0001:0005b9b4       __get_current_locale       1005c9b4 f   libucrt:wsetlocale.obj
 0001:0005ba78       __wcreate_locale           1005ca78 f   libucrt:wsetlocale.obj
 0001:0005bbc3       __wcscats                  1005cbc3 f   libucrt:wsetlocale.obj
 0001:0005bc14       __wsetlocale               1005cc14 f   libucrt:wsetlocale.obj
 0001:0005c74b       ___p___mb_cur_max          1005d74b f   libucrt:nlsdata.obj
 0001:0005c77b       __realloc_base             1005d77b f   libucrt:realloc_base.obj
 0001:0005c7fe       ___acrt_initialize_locks   1005d7fe f   libucrt:locks.obj
 0001:0005c84f       ___acrt_lock               1005d84f f   libucrt:locks.obj
 0001:0005c86b       ___acrt_uninitialize_locks 1005d86b f   libucrt:locks.obj
 0001:0005c8a8       ___acrt_unlock             1005d8a8 f   libucrt:locks.obj
 0001:0005c8c4       __lock_locales             1005d8c4 f   libucrt:locks.obj
 0001:0005c8d5       __unlock_locales           1005d8d5 f   libucrt:locks.obj
 0001:0005caf3       ___acrt_get_begin_thread_init_policy 1005daf3 f   libucrt:win_policies.obj
 0001:0005cb49       ___acrt_get_developer_information_policy 1005db49 f   libucrt:win_policies.obj
 0001:0005cb9f       ___acrt_get_process_end_policy 1005db9f f   libucrt:win_policies.obj
 0001:0005cbde       ___acrt_get_windowing_model_policy 1005dbde f   libucrt:win_policies.obj
 0001:0005ce47       __close                    1005de47 f   libucrt:close.obj
 0001:0005cef9       __close_nolock             1005def9 f   libucrt:close.obj
 0001:0005cfbc       ??$?RU__crt_stdio_stream_data@@@__crt_internal_free_policy@@QBEXQBU__crt_stdio_stream_data@@@Z 1005dfbc f i libucrt:stream.obj
 0001:0005cfd2       ??0?$__crt_unique_heap_ptr@U__crt_stdio_stream_data@@U__crt_internal_free_policy@@@@QAE@QAU__crt_stdio_stream_data@@@Z 1005dfd2 f i libucrt:stream.obj
 0001:0005cfe6       ??0__crt_stdio_stream@@QAE@XZ 1005dfe6 f i libucrt:stream.obj
 0001:0005cfec       ??1?$__crt_unique_heap_ptr@U__crt_stdio_stream_data@@U__crt_internal_free_policy@@@@QAE@XZ 1005dfec f i libucrt:stream.obj
 0001:0005d002       ?__acrt_stdio_allocate_stream@@YA?AV__crt_stdio_stream@@XZ 1005e002 f   libucrt:stream.obj
 0001:0005d078       ?__acrt_stdio_free_stream@@YAXV__crt_stdio_stream@@@Z 1005e078 f   libucrt:stream.obj
 0001:0005d0c1       ?deallocate@__crt_stdio_stream@@QAEXXZ 1005e0c1 f i libucrt:stream.obj
 0001:0005d0cd       ?detach@?$__crt_unique_heap_ptr@U__crt_stdio_stream_data@@U__crt_internal_free_policy@@@@QAEPAU__crt_stdio_stream_data@@XZ 1005e0cd f i libucrt:stream.obj
 0001:0005d1c6       ?lock@__crt_stdio_stream@@QBEXXZ 1005e1c6 f i libucrt:stream.obj
 0001:0005d1d1       ?release@?$__crt_unique_heap_ptr@U__crt_stdio_stream_data@@U__crt_internal_free_policy@@@@QAEXXZ 1005e1d1 f i libucrt:stream.obj
 0001:0005d1e7       ?try_allocate@__crt_stdio_stream@@QAE_NXZ 1005e1e7 f i libucrt:stream.obj
 0001:0005d20f       ??$__acrt_stdio_parse_mode@D@@YA?AU__acrt_stdio_stream_mode@@QBD@Z 1005e20f f i libucrt:openfile.obj
 0001:0005d4c9       ??$__acrt_stdio_parse_mode@_W@@YA?AU__acrt_stdio_stream_mode@@QB_W@Z 1005e4c9 f i libucrt:openfile.obj
 0001:0005d91e       ??$tcsncmp@AAPBDAAY02$$CBDI@?$__crt_char_traits@D@@SAHAAPBDAAY02$$CBD$$QAI@Z 1005e91e f i libucrt:openfile.obj
 0001:0005d941       ??$tcsncmp@AAPB_WAAY02$$CB_WI@?$__crt_char_traits@_W@@SAHAAPB_WAAY02$$CB_W$$QAI@Z 1005e941 f i libucrt:openfile.obj
 0001:0005d964       ??$tcsnicmp@AAPBDAAY04$$CBDI@?$__crt_char_traits@D@@SAHAAPBDAAY04$$CBD$$QAI@Z 1005e964 f i libucrt:openfile.obj
 0001:0005d987       ??$tcsnicmp@AAPBDAAY06$$CBDI@?$__crt_char_traits@D@@SAHAAPBDAAY06$$CBD$$QAI@Z 1005e987 f i libucrt:openfile.obj
 0001:0005d9aa       ??$tcsnicmp@AAPBDAAY07$$CBDI@?$__crt_char_traits@D@@SAHAAPBDAAY07$$CBD$$QAI@Z 1005e9aa f i libucrt:openfile.obj
 0001:0005d9cd       ??$tcsnicmp@AAPB_WAAY04$$CB_WI@?$__crt_char_traits@_W@@SAHAAPB_WAAY04$$CB_W$$QAI@Z 1005e9cd f i libucrt:openfile.obj
 0001:0005d9f0       ??$tcsnicmp@AAPB_WAAY06$$CB_WI@?$__crt_char_traits@_W@@SAHAAPB_WAAY06$$CB_W$$QAI@Z 1005e9f0 f i libucrt:openfile.obj
 0001:0005da13       ??$tcsnicmp@AAPB_WAAY07$$CB_WI@?$__crt_char_traits@_W@@SAHAAPB_WAAY07$$CB_W$$QAI@Z 1005ea13 f i libucrt:openfile.obj
 0001:0005da36       ??$tsopen_s@PAHABQBDABHABHH@?$__crt_char_traits@D@@SAH$$QAPAHABQBDABH2$$QAH@Z 1005ea36 f i libucrt:openfile.obj
 0001:0005da68       ??$tsopen_s@PAHABQB_WABHABHH@?$__crt_char_traits@_W@@SAH$$QAPAHABQB_WABH2$$QAH@Z 1005ea68 f i libucrt:openfile.obj
 0001:0005da9a       ?__acrt_stdio_parse_mode_D@@YA_NAAU__acrt_stdio_stream_mode@@@Z 1005ea9a f i libucrt:openfile.obj
 0001:0005dabb       ?__acrt_stdio_parse_mode_N@@YA_NAAU__acrt_stdio_stream_mode@@@Z 1005eabb f i libucrt:openfile.obj
 0001:0005dad1       ?__acrt_stdio_parse_mode_R@@YA_NAAU__acrt_stdio_stream_mode@@AA_N@Z 1005ead1 f i libucrt:openfile.obj
 0001:0005daf6       ?__acrt_stdio_parse_mode_S@@YA_NAAU__acrt_stdio_stream_mode@@AA_N@Z 1005eaf6 f i libucrt:openfile.obj
 0001:0005db1b       ?__acrt_stdio_parse_mode_T@@YA_NAAU__acrt_stdio_stream_mode@@@Z 1005eb1b f i libucrt:openfile.obj
 0001:0005db41       ?__acrt_stdio_parse_mode_b@@YA_NAAU__acrt_stdio_stream_mode@@@Z 1005eb41 f i libucrt:openfile.obj
 0001:0005db69       ?__acrt_stdio_parse_mode_c@@YA_NAAU__acrt_stdio_stream_mode@@AA_N@Z 1005eb69 f i libucrt:openfile.obj
 0001:0005db93       ?__acrt_stdio_parse_mode_n@@YA_NAAU__acrt_stdio_stream_mode@@AA_N@Z 1005eb93 f i libucrt:openfile.obj
 0001:0005dbbd       ?__acrt_stdio_parse_mode_plus@@YA_NAAU__acrt_stdio_stream_mode@@AA_N@Z 1005ebbd f i libucrt:openfile.obj
 0001:0005dbff       ?__acrt_stdio_parse_mode_t@@YA_NAAU__acrt_stdio_stream_mode@@@Z 1005ebff f i libucrt:openfile.obj
 0001:0005dc27       ?__acrt_stdio_parse_mode_x@@YA_NAAU__acrt_stdio_stream_mode@@@Z 1005ec27 f i libucrt:openfile.obj
 0001:0005dc4f       __openfile                 1005ec4f f   libucrt:openfile.obj
 0001:0005dc5c       __wopenfile                1005ec5c f   libucrt:openfile.obj
 0001:0005e32f       __read                     1005f32f f   libucrt:read.obj
 0001:0005e47b       __read_nolock              1005f47b f   libucrt:read.obj
 0001:0005e919       __utf8_no_of_trailbytes    1005f919 f i libucrt:read.obj
 0001:0005ee38       ___acrt_stdio_refill_and_read_narrow_nolock 1005fe38 f   libucrt:_filbuf.obj
 0001:0005ee45       ___acrt_stdio_refill_and_read_wide_nolock 1005fe45 f   libucrt:_filbuf.obj
 0001:0005f5c7       __write                    100605c7 f   libucrt:write.obj
 0001:0005f6e9       __write_nolock             100606e9 f   libucrt:write.obj
 0001:0005fe2b       ___acrt_stdio_flush_and_write_narrow_nolock 10060e2b f   libucrt:_flsbuf.obj
 0001:0005fe38       ___acrt_stdio_flush_and_write_wide_nolock 10060e38 f   libucrt:_flsbuf.obj
 0001:0005fec7       ___acrt_MultiByteToWideChar 10060ec7 f   libucrt:multibytetowidechar.obj
 0001:0005ff62       __wremove                  10060f62 f   libucrt:wunlink.obj
 0001:0005ff94       __wunlink                  10060f94 f   libucrt:wunlink.obj
 0001:00060401       __lseek                    10061401 f   libucrt:lseek.obj
 0001:0006040e       __lseek_nolock             1006140e f   libucrt:lseek.obj
 0001:0006041b       __lseeki64                 1006141b f   libucrt:lseek.obj
 0001:0006043c       __lseeki64_nolock          1006143c f   libucrt:lseek.obj
 0001:0006045d       __chgsign                  1006145d f   libucrt:ieeemisc.obj
 0001:00060497       __chgsignf                 10061497 f   libucrt:ieeemisc.obj
 0001:000604c2       __copysign                 100614c2 f   libucrt:ieeemisc.obj
 0001:000604f6       __copysignf                100614f6 f   libucrt:ieeemisc.obj
 0001:0006051b       __finite                   1006151b f   libucrt:ieeemisc.obj
 0001:0006053b       __fpclass                  1006153b f   libucrt:ieeemisc.obj
 0001:00060608       __isnan                    10061608 f   libucrt:ieeemisc.obj
 0001:0006064b       __logb                     1006164b f   libucrt:ieeemisc.obj
 0001:00060750       __nextafter                10061750 f   libucrt:ieeemisc.obj
 0001:00060776       __scalb                    10061776 f   libucrt:ieeemisc.obj
 0001:00060796       __add_exp                  10061796 f   libucrt:util.obj
 0001:000607d0       __decomp                   100617d0 f   libucrt:util.obj
 0001:000608e5       __get_exp                  100618e5 f   libucrt:util.obj
 0001:00060903       __set_bexp                 10061903 f   libucrt:util.obj
 0001:00060936       __set_exp                  10061936 f   libucrt:util.obj
 0001:00060970       __sptype                   10061970 f   libucrt:util.obj
 0001:000609e5       ___clrfp_sse2              100619e5 f   libucrt:fpctrl.obj
 0001:00060a0e       ___ctrlfp_sse2             10061a0e f   libucrt:fpctrl.obj
 0001:00060a57       ___fclrf_sse2              10061a57 f   libucrt:fpctrl.obj
 0001:00060a7d       ___get_fpsr_sse2           10061a7d f   libucrt:fpctrl.obj
 0001:00060aa2       ___set_fpsr_sse2           10061aa2 f   libucrt:fpctrl.obj
 0001:00060b35       ___set_statfp_sse2         10061b35 f   libucrt:fpctrl.obj
 0001:00060b56       ___statfp_sse2             10061b56 f   libucrt:fpctrl.obj
 0001:00060b70       __clrfp                    10061b70 f   libucrt:fpctrl.obj
 0001:00060b87       __ctrlfp                   10061b87 f   libucrt:fpctrl.obj
 0001:00060bbe       __set_statfp               10061bbe f   libucrt:fpctrl.obj
 0001:00060c2f       __statfp                   10061c2f f   libucrt:fpctrl.obj
 0001:00060d0c       ___acrt_report_runtime_error 10061d0c f   libucrt:report_runtime_error.obj
 0001:00060e66       __query_app_type           10061e66 f   libucrt:report_runtime_error.obj
 0001:00060e6c       __set_app_type             10061e6c f   libucrt:report_runtime_error.obj
 0001:00061483       __i64toa                   10062483 f   libucrt:xtoa.obj
 0001:000614d6       __i64toa_s                 100624d6 f   libucrt:xtoa.obj
 0001:00061527       __i64tow                   10062527 f   libucrt:xtoa.obj
 0001:0006157a       __i64tow_s                 1006257a f   libucrt:xtoa.obj
 0001:000615cb       __itoa                     100625cb f   libucrt:xtoa.obj
 0001:0006160f       __itoa_s                   1006260f f   libucrt:xtoa.obj
 0001:00061651       __itow                     10062651 f   libucrt:xtoa.obj
 0001:00061695       __itow_s                   10062695 f   libucrt:xtoa.obj
 0001:000616d7       __ltoa                     100626d7 f   libucrt:xtoa.obj
 0001:0006171b       __ltoa_s                   1006271b f   libucrt:xtoa.obj
 0001:0006175d       __ltow                     1006275d f   libucrt:xtoa.obj
 0001:000617a1       __ltow_s                   100627a1 f   libucrt:xtoa.obj
 0001:000617e3       __ui64toa                  100627e3 f   libucrt:xtoa.obj
 0001:0006180d       __ui64toa_s                1006280d f   libucrt:xtoa.obj
 0001:00061835       __ui64tow                  10062835 f   libucrt:xtoa.obj
 0001:0006185f       __ui64tow_s                1006285f f   libucrt:xtoa.obj
 0001:00061887       __ultoa                    10062887 f   libucrt:xtoa.obj
 0001:000618ad       __ultoa_s                  100628ad f   libucrt:xtoa.obj
 0001:000618d1       __ultow                    100628d1 f   libucrt:xtoa.obj
 0001:000618f7       __ultow_s                  100628f7 f   libucrt:xtoa.obj
 0001:0006191b       __set_error_mode           1006291b f   libucrt:set_error_mode.obj
 0001:000619f7       _wcscat_s                  100629f7 f   libucrt:wcscat_s.obj
 0001:00061b01       _wcscpy_s                  10062b01 f   libucrt:wcscpy_s.obj
 0001:00061ca1       _wcsncat_s                 10062ca1 f   libucrt:wcsncat_s.obj
 0001:00061d31       _strcat_s                  10062d31 f   libucrt:strcat_s.obj
 0001:00061eb8       _strncat_s                 10062eb8 f   libucrt:strncat_s.obj
 0001:00061ec5       ___acrt_GetModuleFileNameA 10062ec5 f   libucrt:getmodulefilenamea.obj
 0001:0006207d       ??$message_box@$$TABQBDABQBDK@?$__crt_char_traits@D@@SAH$$QA$$TABQBD1$$QAK@Z 1006307d f i libucrt:crtmbox.obj
 0001:000620a5       ??$message_box@$$TABQB_WABQB_WK@?$__crt_char_traits@_W@@SAH$$QA$$TABQB_W1$$QAK@Z 100630a5 f i libucrt:crtmbox.obj
 0001:000620cd       ??$message_box@PAUHWND__@@ABQBDABQBDABI@?$__crt_char_traits@D@@SAH$$QAPAUHWND__@@ABQBD1ABI@Z 100630cd f i libucrt:crtmbox.obj
 0001:000620f5       ??$message_box@PAUHWND__@@ABQB_WABQB_WABI@?$__crt_char_traits@_W@@SAH$$QAPAUHWND__@@ABQB_W1ABI@Z 100630f5 f i libucrt:crtmbox.obj
 0001:0006211d       ??$output_debug_string@ABQBD@?$__crt_char_traits@D@@SAXABQBD@Z 1006311d f i libucrt:crtmbox.obj
 0001:00062132       ??$output_debug_string@ABQB_W@?$__crt_char_traits@_W@@SAXABQB_W@Z 10063132 f i libucrt:crtmbox.obj
 0001:00062148       ___acrt_show_narrow_message_box 10063148 f   libucrt:crtmbox.obj
 0001:00062155       ___acrt_show_wide_message_box 10063155 f   libucrt:crtmbox.obj
 0001:00062364       _setvbuf                   10063364 f   libucrt:setvbuf.obj
 0001:00062409       ??$?B$$A6AXH@Z@__crt_fast_encoded_nullptr_t@@QBEP6AXH@ZXZ 10063409 f i libucrt:signal.obj
 0001:000624c9       ??$__crt_fast_decode_pointer@P6AXH@Z@@YAP6AXH@ZQ6AXH@Z@Z 100634c9 f i libucrt:signal.obj
 0001:000624e4       ??$__crt_fast_encode_pointer@P6AXH@Z@@YAP6AXH@ZQ6AXH@Z@Z 100634e4 f i libucrt:signal.obj
 0001:0006268e       ?initialize@?$dual_state_global@P6AXH@Z@__crt_state_management@@QAEXQ6AXH@Z@Z 1006368e f i libucrt:signal.obj
 0001:0006276c       ?value@?$dual_state_global@P6AXH@Z@__crt_state_management@@QAEAAP6AXH@ZXZ 1006376c f i libucrt:signal.obj
 0001:0006276f       ___acrt_get_sigabrt_handler 1006376f f   libucrt:signal.obj
 0001:000627a2       ___acrt_initialize_signal_handlers 100637a2 f   libucrt:signal.obj
 0001:000627c7       ___fpecode                 100637c7 f   libucrt:signal.obj
 0001:000627d2       ___pxcptinfoptrs           100637d2 f   libucrt:signal.obj
 0001:000627dd       _raise                     100637dd f   libucrt:signal.obj
 0001:00062a5f       _signal                    10063a5f f   libucrt:signal.obj
 0001:00062c7c       ___pctype_func             10063c7c f   libucrt:ctype.obj
 0001:00062cab       ___pwctype_func            10063cab f   libucrt:ctype.obj
 0001:00062cb1       __iswctype_l               10063cb1 f   libucrt:iswctype.obj
 0001:00062cca       _iswctype                  10063cca f   libucrt:iswctype.obj
 0001:00062d4f       __isctype                  10063d4f f   libucrt:isctype.obj
 0001:00062d8d       __isctype_l                10063d8d f   libucrt:isctype.obj
 0001:00062e9b       __fgetwc_nolock            10063e9b f   libucrt:fgetwc.obj
 0001:00063069       __fgetwchar                10064069 f   libucrt:fgetwc.obj
 0001:0006307d       __getwc_nolock             1006407d f   libucrt:fgetwc.obj
 0001:0006308a       _fgetwc                    1006408a f   libucrt:fgetwc.obj
 0001:00063112       _getwc                     10064112 f   libucrt:fgetwc.obj
 0001:0006311f       _getwchar                  1006411f f   libucrt:fgetwc.obj
 0001:00063308       __ungetwc_nolock           10064308 f   libucrt:ungetwc.obj
 0001:000633eb       _ungetwc                   100643eb f   libucrt:ungetwc.obj
 0001:0006347c       __fgetc_nolock             1006447c f   libucrt:fgetc.obj
 0001:000634c7       __fgetchar                 100644c7 f   libucrt:fgetc.obj
 0001:000634db       __getc_nolock              100644db f   libucrt:fgetc.obj
 0001:000634e8       _fgetc                     100644e8 f   libucrt:fgetc.obj
 0001:00063624       _getc                      10064624 f   libucrt:fgetc.obj
 0001:00063631       _getchar                   10064631 f   libucrt:fgetc.obj
 0001:00063636       __ungetc_nolock            10064636 f   libucrt:ungetc.obj
 0001:00063769       _ungetc                    10064769 f   libucrt:ungetc.obj
 0001:000637ec       ___fpe_flt_rounds          100647ec f   libucrt:fegetround.obj
 0001:0006382d       _fegetround                1006482d f   libucrt:fegetround.obj
 0001:0006383d       ??$__crt_fast_decode_pointer@P6AHPAU_exception@@@Z@@YAP6AHPAU_exception@@@ZQ6AH0@Z@Z 1006483d f i libucrt:matherr.obj
 0001:00063858       ??$__crt_fast_encode_pointer@P6AHPAU_exception@@@Z@@YAP6AHPAU_exception@@@ZQ6AH0@Z@Z 10064858 f i libucrt:matherr.obj
 0001:0006387e       ?initialize@?$dual_state_global@P6AHPAU_exception@@@Z@__crt_state_management@@QAEXQ6AHPAU_exception@@@Z@Z 1006487e f i libucrt:matherr.obj
 0001:000638ad       ?value@?$dual_state_global@P6AHPAU_exception@@@Z@__crt_state_management@@QAEAAP6AHPAU_exception@@@ZXZ 100648ad f i libucrt:matherr.obj
 0001:000638b0       ___acrt_has_user_matherr   100648b0 f   libucrt:matherr.obj
 0001:000638ce       ___acrt_initialize_user_matherr 100648ce f   libucrt:matherr.obj
 0001:000638e0       ___acrt_invoke_user_matherr 100648e0 f   libucrt:matherr.obj
 0001:0006393b       ___setusermatherr          1006493b f   libucrt:matherr.obj
 0001:00064446       ??$find_first_file_ex@ABQADW4_FINDEX_INFO_LEVELS@@PAU_WIN32_FIND_DATAA@@W4_FINDEX_SEARCH_OPS@@$$TH@?$__crt_char_traits@D@@SAPAXABQAD$$QAW4_FINDEX_INFO_LEVELS@@$$QAPAU_WIN32_FIND_DATAA@@$$QAW4_FINDEX_SEARCH_OPS@@$$QA$$T$$QAH@Z 10065446 f i libucrt:argv_wildcards.obj
 0001:0006447e       ??$find_first_file_ex@ABQA_WW4_FINDEX_INFO_LEVELS@@PAU_WIN32_FIND_DATAW@@W4_FINDEX_SEARCH_OPS@@$$TH@?$__crt_char_traits@_W@@SAPAXABQA_W$$QAW4_FINDEX_INFO_LEVELS@@$$QAPAU_WIN32_FIND_DATAW@@$$QAW4_FINDEX_SEARCH_OPS@@$$QA$$T$$QAH@Z 1006547e f i libucrt:argv_wildcards.obj
 0001:000644b3       ??$find_next_file@PAXPAU_WIN32_FIND_DATAA@@@?$__crt_char_traits@D@@SAH$$QAPAX$$QAPAU_WIN32_FIND_DATAA@@@Z 100654b3 f i libucrt:argv_wildcards.obj
 0001:000644d1       ??$find_next_file@PAXPAU_WIN32_FIND_DATAW@@@?$__crt_char_traits@_W@@SAH$$QAPAX$$QAPAU_WIN32_FIND_DATAW@@@Z 100654d1 f i libucrt:argv_wildcards.obj
 0001:000644ed       ??$tcsncpy_s@AAPADIAAPADABI@?$__crt_char_traits@D@@SAHAAPAD$$QAI0ABI@Z 100654ed f i libucrt:argv_wildcards.obj
 0001:00064518       ??$tcsncpy_s@AAPA_WIAAPA_WABI@?$__crt_char_traits@_W@@SAHAAPA_W$$QAI0ABI@Z 10065518 f i libucrt:argv_wildcards.obj
 0001:00064543       ??$tcsncpy_s@PADABIABQBDABI@?$__crt_char_traits@D@@SAH$$QAPADABIABQBD1@Z 10065543 f i libucrt:argv_wildcards.obj
 0001:0006456e       ??$tcsncpy_s@PADIABQBDABI@?$__crt_char_traits@D@@SAH$$QAPAD$$QAIABQBDABI@Z 1006556e f i libucrt:argv_wildcards.obj
 0001:00064599       ??$tcsncpy_s@PA_WABIABQB_WABI@?$__crt_char_traits@_W@@SAH$$QAPA_WABIABQB_W1@Z 10065599 f i libucrt:argv_wildcards.obj
 0001:000645c4       ??$tcsncpy_s@PA_WIABQB_WABI@?$__crt_char_traits@_W@@SAH$$QAPA_W$$QAIABQB_WABI@Z 100655c4 f i libucrt:argv_wildcards.obj
 0001:000645ef       ??$tcspbrk@AAPADAAY02$$CBD@?$__crt_char_traits@D@@SAPADAAPADAAY02$$CBD@Z 100655ef f i libucrt:argv_wildcards.obj
 0001:0006460a       ??$tcspbrk@AAPA_WAAY02$$CB_W@?$__crt_char_traits@_W@@SAPA_WAAPA_WAAY02$$CB_W@Z 1006560a f i libucrt:argv_wildcards.obj
 0001:00064625       ??0?$__crt_unique_handle_t@U__crt_findfile_traits@@@@QAE@QAX@Z 10065625 f i libucrt:argv_wildcards.obj
 0001:00064659       ??1?$__crt_unique_handle_t@U__crt_findfile_traits@@@@QAE@XZ 10065659 f i libucrt:argv_wildcards.obj
 0001:00064803       ?close@?$__crt_unique_handle_t@U__crt_findfile_traits@@@@QAEXXZ 10065803 f i libucrt:argv_wildcards.obj
 0001:0006481f       ?close@__crt_findfile_traits@@SA_NPAX@Z 1006581f f i libucrt:argv_wildcards.obj
 0001:00064991       ?get@?$__crt_unique_handle_t@U__crt_findfile_traits@@@@QBEPAXXZ 10065991 f i libucrt:argv_wildcards.obj
 0001:00064994       ?get_invalid_value@__crt_findfile_traits@@SAPAXXZ 10065994 f i libucrt:argv_wildcards.obj
 0001:000649cb       ?strpbrk@@YAPADQADQBD@Z    100659cb f i libucrt:argv_wildcards.obj
 0001:000649d8       ?wcspbrk@@YAPA_WPA_WPB_W@Z 100659d8 f i libucrt:argv_wildcards.obj
 0001:000649e5       ___acrt_expand_narrow_argv_wildcards 100659e5 f   libucrt:argv_wildcards.obj
 0001:000649f2       ___acrt_expand_wide_argv_wildcards 100659f2 f   libucrt:argv_wildcards.obj
 0001:00064a84       ??$initialize_from_array@$$BY10BAA@E@?$dual_state_global@PAE@__crt_state_management@@QAAXAAY10BAA@E@Z 10065a84 f i libucrt:mbctype.obj
 0001:00064a96       ??$initialize_from_array@$$BY10BAB@E@?$dual_state_global@PAE@__crt_state_management@@QAAXAAY10BAB@E@Z 10065a96 f i libucrt:mbctype.obj
 0001:00064bf5       ?dangerous_get_state_array@?$dual_state_global@PAE@__crt_state_management@@QAEPAPAEXZ 10065bf5 f i libucrt:mbctype.obj
 0001:00064bf8       ?dangerous_get_state_array@?$dual_state_global@PAU__crt_multibyte_data@@@__crt_state_management@@QAEPAPAU__crt_multibyte_data@@XZ 10065bf8 f i libucrt:mbctype.obj
 0001:00064c8a       ?initialize@?$dual_state_global@PAU__crt_multibyte_data@@@__crt_state_management@@QAEXQAU__crt_multibyte_data@@@Z 10065c8a f i libucrt:mbctype.obj
 0001:00065179       ?value@?$dual_state_global@PAE@__crt_state_management@@QAEAAPAEXZ 10066179 f i libucrt:mbctype.obj
 0001:0006517c       ___acrt_initialize_multibyte 1006617c f   libucrt:mbctype.obj
 0001:000651d6       ___acrt_update_thread_multibyte_data 100661d6 f   libucrt:mbctype.obj
 0001:000651ed       ___p__mbcasemap            100661ed f   libucrt:mbctype.obj
 0001:000651f3       ___p__mbctype              100661f3 f   libucrt:mbctype.obj
 0001:000651f9       __getmbcp                  100661f9 f   libucrt:mbctype.obj
 0001:0006523c       __setmbcp                  1006623c f   libucrt:mbctype.obj
 0001:00065262       __setmbcp_nolock           10066262 f   libucrt:mbctype.obj
 0001:000655eb       __ismbbalnum               100665eb f   libucrt:ismbbyte.obj
 0001:0006560c       __ismbbalnum_l             1006660c f   libucrt:ismbbyte.obj
 0001:0006562f       __ismbbalpha               1006662f f   libucrt:ismbbyte.obj
 0001:00065650       __ismbbalpha_l             10066650 f   libucrt:ismbbyte.obj
 0001:00065673       __ismbbblank               10066673 f   libucrt:ismbbyte.obj
 0001:0006569e       __ismbbblank_l             1006669e f   libucrt:ismbbyte.obj
 0001:000656cb       __ismbbgraph               100666cb f   libucrt:ismbbyte.obj
 0001:000656ec       __ismbbgraph_l             100666ec f   libucrt:ismbbyte.obj
 0001:0006570f       __ismbbkalnum              1006670f f   libucrt:ismbbyte.obj
 0001:0006572d       __ismbbkalnum_l            1006672d f   libucrt:ismbbyte.obj
 0001:0006574c       __ismbbkana                1006674c f   libucrt:ismbbyte.obj
 0001:00065763       __ismbbkana_l              10066763 f   libucrt:ismbbyte.obj
 0001:000657c8       __ismbbkprint              100667c8 f   libucrt:ismbbyte.obj
 0001:000657e6       __ismbbkprint_l            100667e6 f   libucrt:ismbbyte.obj
 0001:00065805       __ismbbkpunct              10066805 f   libucrt:ismbbyte.obj
 0001:00065823       __ismbbkpunct_l            10066823 f   libucrt:ismbbyte.obj
 0001:00065842       __ismbblead                10066842 f   libucrt:ismbbyte.obj
 0001:00065860       __ismbblead_l              10066860 f   libucrt:ismbbyte.obj
 0001:0006587f       __ismbbprint               1006687f f   libucrt:ismbbyte.obj
 0001:000658a0       __ismbbprint_l             100668a0 f   libucrt:ismbbyte.obj
 0001:000658c3       __ismbbpunct               100668c3 f   libucrt:ismbbyte.obj
 0001:000658e1       __ismbbpunct_l             100668e1 f   libucrt:ismbbyte.obj
 0001:00065900       __ismbbtrail               10066900 f   libucrt:ismbbyte.obj
 0001:0006591e       __ismbbtrail_l             1006691e f   libucrt:ismbbyte.obj
 0001:0006593d       ___acrt_initialize_command_line 1006693d f   libucrt:argv_data.obj
 0001:0006595c       ___acrt_uninitialize_command_line 1006695c f   libucrt:argv_data.obj
 0001:0006595f       ___p___argc                1006695f f   libucrt:argv_data.obj
 0001:00065965       ___p___argv                10066965 f   libucrt:argv_data.obj
 0001:0006596b       ___p___wargv               1006696b f   libucrt:argv_data.obj
 0001:00065971       ___p__acmdln               10066971 f   libucrt:argv_data.obj
 0001:00065977       ___p__pgmptr               10066977 f   libucrt:argv_data.obj
 0001:0006597d       ___p__wcmdln               1006697d f   libucrt:argv_data.obj
 0001:00065983       ___p__wpgmptr              10066983 f   libucrt:argv_data.obj
 0001:00065989       __get_pgmptr               10066989 f   libucrt:argv_data.obj
 0001:000659c6       __get_wpgmptr              100669c6 f   libucrt:argv_data.obj
 0001:00065a81       ___acrt_WideCharToMultiByte 10066a81 f   libucrt:widechartomultibyte.obj
 0001:00065c13       ___dcrt_get_narrow_environment_from_os 10066c13 f   libucrt:get_environment_from_os.obj
 0001:00065cba       ___dcrt_get_wide_environment_from_os 10066cba f   libucrt:get_environment_from_os.obj
 0001:000665be       ??$get_or_create_environment_nolock@$$V@?$__crt_char_traits@D@@SAPAPADXZ 100675be f i libucrt:setenv.obj
 0001:000665c3       ??$get_or_create_environment_nolock@$$V@?$__crt_char_traits@_W@@SAPAPA_WXZ 100675c3 f i libucrt:setenv.obj
 0001:000665c8       ??$set_environment_variable@ABQADQAD@?$__crt_char_traits@D@@SAHABQAD$$QBQAD@Z 100675c8 f i libucrt:setenv.obj
 0001:000665e6       ??$set_environment_variable@ABQA_WQA_W@?$__crt_char_traits@_W@@SAHABQA_W$$QBQA_W@Z 100675e6 f i libucrt:setenv.obj
 0001:00066602       ??$tcschr@ABQADD@?$__crt_char_traits@D@@SAPADABQAD$$QAD@Z 10067602 f i libucrt:setenv.obj
 0001:00066622       ??$tcschr@ABQA_WD@?$__crt_char_traits@_W@@SAPA_WABQA_W$$QAD@Z 10067622 f i libucrt:setenv.obj
 0001:00066647       ??$tcscpy_s@AAPADABIAAPAD@?$__crt_char_traits@D@@SAHAAPADABI0@Z 10067647 f i libucrt:setenv.obj
 0001:0006666c       ??$tcscpy_s@AAPA_WABIAAPA_W@?$__crt_char_traits@_W@@SAHAAPA_WABI0@Z 1006766c f i libucrt:setenv.obj
 0001:00066691       ??$tcscpy_s@ABQADABIABQAD@?$__crt_char_traits@D@@SAHABQADABI0@Z 10067691 f i libucrt:setenv.obj
 0001:000666b6       ??$tcscpy_s@ABQA_WABIABQA_W@?$__crt_char_traits@_W@@SAHABQA_WABI0@Z 100676b6 f i libucrt:setenv.obj
 0001:000666db       ??$tcsnicoll@ABQBDAAPADABI@?$__crt_char_traits@D@@SAHABQBDAAPADABI@Z 100676db f i libucrt:setenv.obj
 0001:00066700       ??$tcsnicoll@ABQB_WAAPA_WABI@?$__crt_char_traits@_W@@SAHABQB_WAAPA_WABI@Z 10067700 f i libucrt:setenv.obj
 0001:00066749       ?strchr@@YAPADQADH@Z       10067749 f i libucrt:setenv.obj
 0001:00066756       ?wcschr@@YAPA_WPA_W_W@Z    10067756 f i libucrt:setenv.obj
 0001:00066763       ___dcrt_set_variable_in_narrow_environment_nolock 10067763 f   libucrt:setenv.obj
 0001:00066770       ___dcrt_set_variable_in_wide_environment_nolock 10067770 f   libucrt:setenv.obj
 0001:0006677d       __recalloc                 1006777d f   libucrt:recalloc.obj
 0001:0006678a       __recalloc_base            1006778a f   libucrt:recalloc.obj
 0001:00066812       ___acrt_getheap            10067812 f   libucrt:heap_handle.obj
 0001:00066818       ___acrt_initialize_heap    10067818 f   libucrt:heap_handle.obj
 0001:0006682d       ___acrt_uninitialize_heap  1006782d f   libucrt:heap_handle.obj
 0001:00066839       __get_heap_handle          10067839 f   libucrt:heap_handle.obj
 0001:0006683f       ___acrt_execute_initializers 1006783f f   libucrt:shared_initialization.obj
 0001:000668e2       ___acrt_execute_uninitializers 100678e2 f   libucrt:shared_initialization.obj
 0001:0006693c       ??$?B$$A6AHI@Z@__crt_fast_encoded_nullptr_t@@QBEP6AHI@ZXZ 1006793c f i libucrt:new_handler.obj
 0001:0006695a       ??$__crt_fast_decode_pointer@P6AHI@Z@@YAP6AHI@ZQ6AHI@Z@Z 1006795a f i libucrt:new_handler.obj
 0001:00066975       ??$__crt_fast_encode_pointer@P6AHI@Z@@YAP6AHI@ZQ6AHI@Z@Z 10067975 f i libucrt:new_handler.obj
 0001:0006699b       ?_set_new_handler@@YAP6AHI@ZH@Z 1006799b f   libucrt:new_handler.obj
 0001:000669c1       ?initialize@?$dual_state_global@P6AHI@Z@__crt_state_management@@QAEXQ6AHI@Z@Z 100679c1 f i libucrt:new_handler.obj
 0001:000669f0       ?value@?$dual_state_global@P6AHI@Z@__crt_state_management@@QAEAAP6AHI@ZXZ 100679f0 f i libucrt:new_handler.obj
 0001:000669f3       ___acrt_initialize_new_handler 100679f3 f   libucrt:new_handler.obj
 0001:00066a05       __callnewh                 10067a05 f   libucrt:new_handler.obj
 0001:00066a5a       __query_new_handler        10067a5a f   libucrt:new_handler.obj
 0001:00066ac0       __set_new_handler          10067ac0 f   libucrt:new_handler.obj
 0001:00066b38       ?value@?$dual_state_global@J@__crt_state_management@@QAEAAJXZ 10067b38 f i libucrt:new_mode.obj
 0001:00066b3b       __query_new_mode           10067b3b f   libucrt:new_mode.obj
 0001:00066b41       __set_new_mode             10067b41 f   libucrt:new_mode.obj
 0001:00066d27       ___acrt_DownlevelLCIDToLocaleName 10067d27 f   libucrt:lcidtoname_downlevel.obj
 0001:00066dfb       ___acrt_DownlevelLocaleNameToLCID 10067dfb f   libucrt:lcidtoname_downlevel.obj
 0001:00066fe2       __commit                   10067fe2 f   libucrt:commit.obj
 0001:00067080       ??$?RU__crt_lowio_handle_data@@@__crt_internal_free_policy@@QBEXQBU__crt_lowio_handle_data@@@Z 10068080 f i libucrt:osfinfo.obj
 0001:00067096       ??0?$__crt_unique_heap_ptr@U__crt_lowio_handle_data@@U__crt_internal_free_policy@@@@QAE@QAU__crt_lowio_handle_data@@@Z 10068096 f i libucrt:osfinfo.obj
 0001:000670aa       ??1?$__crt_unique_heap_ptr@U__crt_lowio_handle_data@@U__crt_internal_free_policy@@@@QAE@XZ 100680aa f i libucrt:osfinfo.obj
 0001:000670c0       ??B?$__crt_unique_heap_ptr@U__crt_lowio_handle_data@@U__crt_internal_free_policy@@@@QBE_NXZ 100680c0 f i libucrt:osfinfo.obj
 0001:000670c7       ?detach@?$__crt_unique_heap_ptr@U__crt_lowio_handle_data@@U__crt_internal_free_policy@@@@QAEPAU__crt_lowio_handle_data@@XZ 100680c7 f i libucrt:osfinfo.obj
 0001:000670cd       ?get@?$__crt_unique_heap_ptr@U__crt_lowio_handle_data@@U__crt_internal_free_policy@@@@QBEPAU__crt_lowio_handle_data@@XZ 100680cd f i libucrt:osfinfo.obj
 0001:000670d0       ?is_valid@?$__crt_unique_heap_ptr@U__crt_lowio_handle_data@@U__crt_internal_free_policy@@@@QBE_NXZ 100680d0 f i libucrt:osfinfo.obj
 0001:000670d7       ?release@?$__crt_unique_heap_ptr@U__crt_lowio_handle_data@@U__crt_internal_free_policy@@@@QAEXXZ 100680d7 f i libucrt:osfinfo.obj
 0001:000670ed       ___acrt_lowio_create_handle_array 100680ed f   libucrt:osfinfo.obj
 0001:00067185       ___acrt_lowio_destroy_handle_array 10068185 f   libucrt:osfinfo.obj
 0001:000671c7       ___acrt_lowio_ensure_fh_exists 100681c7 f   libucrt:osfinfo.obj
 0001:00067280       ___acrt_lowio_lock_fh      10068280 f   libucrt:osfinfo.obj
 0001:000672ab       ___acrt_lowio_set_os_handle 100682ab f   libucrt:osfinfo.obj
 0001:00067364       ___acrt_lowio_unlock_fh    10068364 f   libucrt:osfinfo.obj
 0001:0006738f       __alloc_osfhnd             1006838f f   libucrt:osfinfo.obj
 0001:000674da       __free_osfhnd              100684da f   libucrt:osfinfo.obj
 0001:0006758f       __get_osfhandle            1006858f f   libucrt:osfinfo.obj
 0001:00067613       __open_osfhandle           10068613 f   libucrt:osfinfo.obj
 0001:00067762       ___iswcsym                 10068762 f i libucrt:_wctype.obj
 0001:00067791       ___iswcsymf                10068791 f i libucrt:_wctype.obj
 0001:000677c0       __isleadbyte_l             100687c0 f i libucrt:_wctype.obj
 0001:00067807       __iswalnum_l               10068807 f i libucrt:_wctype.obj
 0001:00067822       __iswalpha_l               10068822 f i libucrt:_wctype.obj
 0001:0006783d       __iswblank_l               1006883d f i libucrt:_wctype.obj
 0001:00067861       __iswcntrl_l               10068861 f i libucrt:_wctype.obj
 0001:00067878       __iswcsym_l                10068878 f i libucrt:_wctype.obj
 0001:000678a7       __iswcsymf_l               100688a7 f i libucrt:_wctype.obj
 0001:000678d6       __iswdigit_l               100688d6 f i libucrt:_wctype.obj
 0001:000678ed       __iswgraph_l               100688ed f i libucrt:_wctype.obj
 0001:00067908       __iswlower_l               10068908 f i libucrt:_wctype.obj
 0001:0006791f       __iswprint_l               1006891f f i libucrt:_wctype.obj
 0001:0006793a       __iswpunct_l               1006893a f i libucrt:_wctype.obj
 0001:00067951       __iswspace_l               10068951 f i libucrt:_wctype.obj
 0001:00067968       __iswupper_l               10068968 f i libucrt:_wctype.obj
 0001:0006797f       __iswxdigit_l              1006897f f i libucrt:_wctype.obj
 0001:0006799a       _isleadbyte                1006899a f i libucrt:_wctype.obj
 0001:000679b1       _iswalnum                  100689b1 f i libucrt:_wctype.obj
 0001:000679cc       _iswalpha                  100689cc f i libucrt:_wctype.obj
 0001:000679e7       _iswascii                  100689e7 f i libucrt:_wctype.obj
 0001:00067a00       _iswblank                  10068a00 f i libucrt:_wctype.obj
 0001:00067a24       _iswcntrl                  10068a24 f i libucrt:_wctype.obj
 0001:00067a3b       _iswdigit                  10068a3b f i libucrt:_wctype.obj
 0001:00067a52       _iswgraph                  10068a52 f i libucrt:_wctype.obj
 0001:00067a6d       _iswlower                  10068a6d f i libucrt:_wctype.obj
 0001:00067a84       _iswprint                  10068a84 f i libucrt:_wctype.obj
 0001:00067a9f       _iswpunct                  10068a9f f i libucrt:_wctype.obj
 0001:00067ab6       _iswspace                  10068ab6 f i libucrt:_wctype.obj
 0001:00067acd       _iswupper                  10068acd f i libucrt:_wctype.obj
 0001:00067ae4       _iswxdigit                 10068ae4 f i libucrt:_wctype.obj
 0001:00067aff       ??0?$__crt_scoped_stack_ptr@_W@@QAE@U?$__crt_scoped_stack_ptr_tag@_W@@@Z 10068aff f i libucrt:lcmapstringa.obj
 0001:00067b13       ??0?$__crt_scoped_stack_ptr_tag@_W@@QAE@QA_W@Z 10068b13 f i libucrt:lcmapstringa.obj
 0001:00067b27       ??1?$__crt_scoped_stack_ptr@_W@@QAE@XZ 10068b27 f i libucrt:lcmapstringa.obj
 0001:00067b32       ??B?$__crt_scoped_stack_ptr@_W@@QBE_NXZ 10068b32 f i libucrt:lcmapstringa.obj
 0001:00067da0       ?get@?$__crt_scoped_stack_ptr@_W@@QBEPA_WXZ 10068da0 f i libucrt:lcmapstringa.obj
 0001:00067da3       __MallocaComputeSize       10068da3 f i libucrt:lcmapstringa.obj
 0001:00067dba       __MarkAllocaS              10068dba f i libucrt:lcmapstringa.obj
 0001:00067dd5       ___acrt_LCMapStringA       10068dd5 f   libucrt:lcmapstringa.obj
 0001:00067e32       __freea_crt                10068e32 f i libucrt:lcmapstringa.obj
 0001:00067e91       ?__mbrtowc_utf8@__crt_mbstring@@YAIPA_WPBDIPAU_Mbstatet@@@Z 10068e91 f   libucrt:mbrtowc.obj
 0001:00067ee3       ?__mbsrtowcs_utf8@__crt_mbstring@@YAIPA_WPAPBDIPAU_Mbstatet@@@Z 10068ee3 f   libucrt:mbrtowc.obj
 0001:00068400       _btowc                     10069400 f   libucrt:mbrtowc.obj
 0001:00068470       _mbrlen                    10069470 f   libucrt:mbrtowc.obj
 0001:000684b1       _mbrtowc                   100694b1 f   libucrt:mbrtowc.obj
 0001:00068518       _mbsrtowcs                 10069518 f   libucrt:mbrtowc.obj
 0001:00068525       _mbsrtowcs_s               10069525 f   libucrt:mbrtowc.obj
 0001:000685f0       ??$?RG@__crt_internal_free_policy@@QBEXQBG@Z 100695f0 f i libucrt:initctype.obj
 0001:00068606       ??$?RJ@__crt_internal_free_policy@@QBEXQBJ@Z 10069606 f i libucrt:initctype.obj
 0001:0006861c       ??0?$__crt_unique_heap_ptr@GU__crt_internal_free_policy@@@@QAE@QAG@Z 1006961c f i libucrt:initctype.obj
 0001:00068630       ??0?$__crt_unique_heap_ptr@JU__crt_internal_free_policy@@@@QAE@QAJ@Z 10069630 f i libucrt:initctype.obj
 0001:00068644       ??1?$__crt_unique_heap_ptr@GU__crt_internal_free_policy@@@@QAE@XZ 10069644 f i libucrt:initctype.obj
 0001:0006865a       ??1?$__crt_unique_heap_ptr@JU__crt_internal_free_policy@@@@QAE@XZ 1006965a f i libucrt:initctype.obj
 0001:00068670       ?detach@?$__crt_unique_heap_ptr@GU__crt_internal_free_policy@@@@QAEPAGXZ 10069670 f i libucrt:initctype.obj
 0001:00068676       ?detach@?$__crt_unique_heap_ptr@JU__crt_internal_free_policy@@@@QAEPAJXZ 10069676 f i libucrt:initctype.obj
 0001:0006867c       ?release@?$__crt_unique_heap_ptr@GU__crt_internal_free_policy@@@@QAEXXZ 1006967c f i libucrt:initctype.obj
 0001:00068692       ?release@?$__crt_unique_heap_ptr@JU__crt_internal_free_policy@@@@QAEXXZ 10069692 f i libucrt:initctype.obj
 0001:000686a8       ____lc_codepage_func       100696a8 f   libucrt:initctype.obj
 0001:000686d8       ____lc_collate_cp_func     100696d8 f   libucrt:initctype.obj
 0001:00068708       ____lc_locale_name_func    10069708 f   libucrt:initctype.obj
 0001:0006873b       ____mb_cur_max_func        1006973b f   libucrt:initctype.obj
 0001:0006876b       ____mb_cur_max_l_func      1006976b f   libucrt:initctype.obj
 0001:0006878a       ___acrt_locale_initialize_ctype 1006978a f   libucrt:initctype.obj
 0001:00068ccb       ___acrt_add_locale_ref     10069ccb f   libucrt:locale_refcounting.obj
 0001:00068d67       ___acrt_free_locale        10069d67 f   libucrt:locale_refcounting.obj
 0001:00068f03       ___acrt_locale_add_lc_time_reference 10069f03 f   libucrt:locale_refcounting.obj
 0001:00068f36       ___acrt_locale_free_lc_time_if_unreferenced 10069f36 f   libucrt:locale_refcounting.obj
 0001:00068f72       ___acrt_locale_release_lc_time_reference 10069f72 f   libucrt:locale_refcounting.obj
 0001:00068fa5       ___acrt_release_locale_ref 10069fa5 f   libucrt:locale_refcounting.obj
 0001:00069046       ___acrt_update_thread_locale_data 1006a046 f   libucrt:locale_refcounting.obj
 0001:000690da       __updatetlocinfoEx_nolock  1006a0da f   libucrt:locale_refcounting.obj
 0001:0006913e       ___acrt_fp_strflt_to_string 1006a13e f   libucrt:_fptostr.obj
 0001:0006aaa0       ??8__crt_strtox@@YA_NABUbig_integer@0@0@Z 1006baa0 f i libucrt:cfout.obj
 0001:0006aaf0       ??9__crt_strtox@@YA_NABUbig_integer@0@0@Z 1006baf0 f i libucrt:cfout.obj
 0001:0006ab40       ?is_zero@__crt_strtox@@YA_NABUbig_integer@1@@Z 1006bb40 f i libucrt:cfout.obj
 0001:0006ab60       ?make_big_integer_power_of_two@__crt_strtox@@YA?AUbig_integer@1@I@Z 1006bb60 f i libucrt:cfout.obj
 0001:0006abbf       ___acrt_fltout             1006bbbf f   libucrt:cfout.obj
 0001:0006c4aa       __isatty                   1006d4aa f   libucrt:isatty.obj
 0001:0006c515       ??$?RUlconv@@@__crt_internal_free_policy@@QBEXQBUlconv@@@Z 1006d515 f i libucrt:initmon.obj
 0001:0006c52b       ??0?$__crt_unique_heap_ptr@Ulconv@@U__crt_internal_free_policy@@@@QAE@QAUlconv@@@Z 1006d52b f i libucrt:initmon.obj
 0001:0006c53f       ??1?$__crt_unique_heap_ptr@Ulconv@@U__crt_internal_free_policy@@@@QAE@XZ 1006d53f f i libucrt:initmon.obj
 0001:0006c555       ?detach@?$__crt_unique_heap_ptr@Ulconv@@U__crt_internal_free_policy@@@@QAEPAUlconv@@XZ 1006d555 f i libucrt:initmon.obj
 0001:0006c55b       ?release@?$__crt_unique_heap_ptr@Ulconv@@U__crt_internal_free_policy@@@@QAEXXZ 1006d55b f i libucrt:initmon.obj
 0001:0006c571       ___acrt_locale_free_monetary 1006d571 f   libucrt:initmon.obj
 0001:0006c6ae       ___acrt_locale_initialize_monetary 1006d6ae f   libucrt:initmon.obj
 0001:0006cb9b       ___acrt_locale_free_numeric 1006db9b f   libucrt:initnum.obj
 0001:0006cc1e       ___acrt_locale_initialize_numeric 1006dc1e f   libucrt:initnum.obj
 0001:0006cef9       ??$?RU__crt_lc_time_data@@@__crt_internal_free_policy@@QBEXQBU__crt_lc_time_data@@@Z 1006def9 f i libucrt:inittime.obj
 0001:0006cf99       ??0?$__crt_unique_heap_ptr@U__crt_lc_time_data@@U__crt_internal_free_policy@@@@QAE@QAU__crt_lc_time_data@@@Z 1006df99 f i libucrt:inittime.obj
 0001:0006cfad       ??1?$__crt_unique_heap_ptr@U__crt_lc_time_data@@U__crt_internal_free_policy@@@@QAE@XZ 1006dfad f i libucrt:inittime.obj
 0001:0006cfc3       ??B?$__crt_unique_heap_ptr@U__crt_lc_time_data@@U__crt_internal_free_policy@@@@QBE_NXZ 1006dfc3 f i libucrt:inittime.obj
 0001:0006cfca       ?detach@?$__crt_unique_heap_ptr@U__crt_lc_time_data@@U__crt_internal_free_policy@@@@QAEPAU__crt_lc_time_data@@XZ 1006dfca f i libucrt:inittime.obj
 0001:0006d016       ?get@?$__crt_unique_heap_ptr@U__crt_lc_time_data@@U__crt_internal_free_policy@@@@QBEPAU__crt_lc_time_data@@XZ 1006e016 f i libucrt:inittime.obj
 0001:0006d3af       ?is_valid@?$__crt_unique_heap_ptr@U__crt_lc_time_data@@U__crt_internal_free_policy@@@@QBE_NXZ 1006e3af f i libucrt:inittime.obj
 0001:0006d3b6       ?release@?$__crt_unique_heap_ptr@U__crt_lc_time_data@@U__crt_internal_free_policy@@@@QAEXXZ 1006e3b6 f i libucrt:inittime.obj
 0001:0006d3cc       ___acrt_locale_free_time   1006e3cc f   libucrt:inittime.obj
 0001:0006d4e9       ___acrt_locale_initialize_time 1006e4e9 f   libucrt:inittime.obj
 0001:0006d681       _wcsncpy_s                 1006e681 f   libucrt:wcsncpy_s.obj
 0001:0006d68e       _wcscspn                   1006e68e f   libucrt:wcscspn.obj
 0001:0006d6ff       _wcspbrk                   1006e6ff f   libucrt:wcspbrk.obj
 0001:0006d760       __wcsicmp                  1006e760 f   libucrt:wcsicmp.obj
 0001:0006d811       __wcsicmp_l                1006e811 f   libucrt:wcsicmp.obj
 0001:0006d925       ___acrt_GetStringTypeA     1006e925 f   libucrt:getstringtypea.obj
 0001:0006e39a       ___acrt_get_qualified_locale 1006f39a f   libucrt:get_qualified_locale.obj
 0001:0006ef88       ___acrt_get_qualified_locale_downlevel 1006ff88 f   libucrt:getqloc_downlevel.obj
 0001:0006f1fc       _localeconv                100701fc f   libucrt:localeconv.obj
 0001:0006f230       __wcsnicmp                 10070230 f   libucrt:wcsnicmp.obj
 0001:0006f30d       __wcsnicmp_l               1007030d f   libucrt:wcsnicmp.obj
 0001:0006f449       __strnicmp                 10070449 f   libucrt:strnicmp.obj
 0001:0006f4d1       __strnicmp_l               100704d1 f   libucrt:strnicmp.obj
 0001:0006f65a       ??$__vcrt_va_start_verify_argument_type@$$CBH@@YAXXZ 1007065a f i libucrt:open.obj
 0001:0006f9cb       ??$tsopen_nolock@PAHABQAHABQBDABHABHABHABH@?$__crt_char_traits@D@@SAH$$QAPAHABQAHABQBDABH333@Z 100709cb f i libucrt:open.obj
 0001:0006fa09       ??$tsopen_nolock@PAHABQAHABQB_WABHABHABHABH@?$__crt_char_traits@_W@@SAH$$QAPAHABQAHABQB_WABH333@Z 10070a09 f i libucrt:open.obj
 0001:0006fa47       ??$tsopen_nolock@PAHPAHABQBDABHHABHH@?$__crt_char_traits@D@@SAH$$QAPAH0ABQBDABH$$QAH23@Z 10070a47 f i libucrt:open.obj
 0001:0006fa85       ??$tsopen_nolock@PAHPAHABQB_WABHHABHH@?$__crt_char_traits@_W@@SAH$$QAPAH0ABQB_WABH$$QAH23@Z 10070a85 f i libucrt:open.obj
 0001:00070277       __open                     10071277 f   libucrt:open.obj
 0001:00070295       __sopen                    10071295 f   libucrt:open.obj
 0001:000702d7       __sopen_dispatch           100712d7 f   libucrt:open.obj
 0001:000702e4       __sopen_nolock             100712e4 f   libucrt:open.obj
 0001:00070370       __sopen_s                  10071370 f   libucrt:open.obj
 0001:00070398       __wopen                    10071398 f   libucrt:open.obj
 0001:000703b6       __wsopen                   100713b6 f   libucrt:open.obj
 0001:000703f8       __wsopen_dispatch          100713f8 f   libucrt:open.obj
 0001:00070405       __wsopen_nolock            10071405 f   libucrt:open.obj
 0001:000707fc       __wsopen_s                 100717fc f   libucrt:open.obj
 0001:00070824       ___p__commode              10071824 f   libucrt:ncommode.obj
 0001:0007082a       ___acrt_stdio_allocate_buffer_nolock 1007182a f   libucrt:_getbuf.obj
 0001:000709a6       __putwch                   100719a6 f   libucrt:putwch.obj
 0001:000709e0       __putwch_nolock            100719e0 f   libucrt:putwch.obj
 0001:00070a21       _nextafter                 10071a21 f   libucrt:nextafter.obj
 0001:00070c55       __mbstowcs_l               10071c55 f   libucrt:mbstowcs.obj
 0001:00070c62       __mbstowcs_s_l             10071c62 f   libucrt:mbstowcs.obj
 0001:00070d7c       _mbstowcs                  10071d7c f   libucrt:mbstowcs.obj
 0001:00070db0       _mbstowcs_s                10071db0 f   libucrt:mbstowcs.obj
 0001:00070dd8       ___acrt_OutputDebugStringA@4 10071dd8 f   libucrt:outputdebugstringa.obj
 0001:00070e65       ___acrt_GetStringTypeW     10071e65 f   libucrt:getstringtypew.obj
 0001:00070e84       ??$__acrt_fenv_shift_bits@W4__acrt_fenv_abstract_control@@@@YA?AW4__acrt_fenv_abstract_control@@W40@0I@Z 10071e84 f i libucrt:_fenvutils.obj
 0001:00070e9a       ??$__acrt_fenv_shift_bits@W4__acrt_fenv_abstract_status@@@@YA?AW4__acrt_fenv_abstract_status@@W40@0I@Z 10071e9a f i libucrt:_fenvutils.obj
 0001:00070eb0       ??$__acrt_fenv_translate_bit@W4__acrt_fenv_abstract_control@@W4__acrt_fenv_machine_sse_control@@@@YA?AW4__acrt_fenv_abstract_control@@W4__acrt_fenv_machine_sse_control@@0W40@1@Z 10071eb0 f i libucrt:_fenvutils.obj
 0001:00070ece       ??$__acrt_fenv_translate_bit@W4__acrt_fenv_abstract_control@@W4__acrt_fenv_machine_x87_control@@@@YA?AW4__acrt_fenv_abstract_control@@W4__acrt_fenv_machine_x87_control@@0W40@1@Z 10071ece f i libucrt:_fenvutils.obj
 0001:00070eec       ??$__acrt_fenv_translate_bit@W4__acrt_fenv_abstract_status@@W4__acrt_fenv_machine_sse_status@@@@YA?AW4__acrt_fenv_abstract_status@@W4__acrt_fenv_machine_sse_status@@0W40@1@Z 10071eec f i libucrt:_fenvutils.obj
 0001:00070f06       ??$__acrt_fenv_translate_bit@W4__acrt_fenv_abstract_status@@W4__acrt_fenv_machine_x87_status@@@@YA?AW4__acrt_fenv_abstract_status@@W4__acrt_fenv_machine_x87_status@@0W40@1@Z 10071f06 f i libucrt:_fenvutils.obj
 0001:00070f20       ??$__acrt_fenv_translate_bit@W4__acrt_fenv_machine_sse_control@@W4__acrt_fenv_abstract_control@@@@YA?AW4__acrt_fenv_machine_sse_control@@W4__acrt_fenv_abstract_control@@0W40@1@Z 10071f20 f i libucrt:_fenvutils.obj
 0001:00070f3c       ??$__acrt_fenv_translate_bit@W4__acrt_fenv_machine_sse_status@@W4__acrt_fenv_abstract_status@@@@YA?AW4__acrt_fenv_machine_sse_status@@W4__acrt_fenv_abstract_status@@0W40@1@Z 10071f3c f i libucrt:_fenvutils.obj
 0001:00070f56       ??$__acrt_fenv_translate_bit@W4__acrt_fenv_machine_x87_control@@W4__acrt_fenv_abstract_control@@@@YA?AW4__acrt_fenv_machine_x87_control@@W4__acrt_fenv_abstract_control@@0W40@1@Z 10071f56 f i libucrt:_fenvutils.obj
 0001:00070f72       ??$__acrt_fenv_translate_bit@W4__acrt_fenv_machine_x87_status@@W4__acrt_fenv_abstract_status@@@@YA?AW4__acrt_fenv_machine_x87_status@@W4__acrt_fenv_abstract_status@@0W40@1@Z 10071f72 f i libucrt:_fenvutils.obj
 0001:00070f8c       ??$__acrt_fenv_unshift_bits@W4__acrt_fenv_abstract_control@@@@YA?AW4__acrt_fenv_abstract_control@@W40@0I@Z 10071f8c f i libucrt:_fenvutils.obj
 0001:00070fa2       ??$__acrt_fenv_unshift_bits@W4__acrt_fenv_abstract_status@@@@YA?AW4__acrt_fenv_abstract_status@@W40@0I@Z 10071fa2 f i libucrt:_fenvutils.obj
 0001:000715cd       ??I@YA?AW4__acrt_fenv_abstract_control@@W40@0@Z 100725cd f i libucrt:_fenvutils.obj
 0001:000715dd       ??I@YA?AW4__acrt_fenv_abstract_status@@W40@0@Z 100725dd f i libucrt:_fenvutils.obj
 0001:000715ed       ??I@YA?AW4__acrt_fenv_machine_sse_control@@W40@0@Z 100725ed f i libucrt:_fenvutils.obj
 0001:000715fd       ??I@YA?AW4__acrt_fenv_machine_sse_status@@W40@0@Z 100725fd f i libucrt:_fenvutils.obj
 0001:0007160d       ??I@YA?AW4__acrt_fenv_machine_x87_control@@W40@0@Z 1007260d f i libucrt:_fenvutils.obj
 0001:0007161d       ??I@YA?AW4__acrt_fenv_machine_x87_status@@W40@0@Z 1007261d f i libucrt:_fenvutils.obj
 0001:0007162d       ??U@YA?AW4__acrt_fenv_abstract_control@@W40@0@Z 1007262d f i libucrt:_fenvutils.obj
 0001:0007163d       ??U@YA?AW4__acrt_fenv_abstract_status@@W40@0@Z 1007263d f i libucrt:_fenvutils.obj
 0001:0007164d       ??U@YA?AW4__acrt_fenv_machine_sse_control@@W40@0@Z 1007264d f i libucrt:_fenvutils.obj
 0001:0007165d       ??U@YA?AW4__acrt_fenv_machine_x87_control@@W40@0@Z 1007265d f i libucrt:_fenvutils.obj
 0001:0007166d       ??_5@YAAAW4__acrt_fenv_abstract_control@@AAW40@W40@@Z 1007266d f i libucrt:_fenvutils.obj
 0001:0007167f       ??_5@YAAAW4__acrt_fenv_abstract_status@@AAW40@W40@@Z 1007267f f i libucrt:_fenvutils.obj
 0001:00071691       ??_5@YAAAW4__acrt_fenv_machine_sse_control@@AAW40@W40@@Z 10072691 f i libucrt:_fenvutils.obj
 0001:000716a6       ??_5@YAAAW4__acrt_fenv_machine_sse_status@@AAW40@W40@@Z 100726a6 f i libucrt:_fenvutils.obj
 0001:000716b8       ??_5@YAAAW4__acrt_fenv_machine_x87_control@@AAW40@W40@@Z 100726b8 f i libucrt:_fenvutils.obj
 0001:000716cd       ??_5@YAAAW4__acrt_fenv_machine_x87_status@@AAW40@W40@@Z 100726cd f i libucrt:_fenvutils.obj
 0001:000716df       ?__acrt_fenv_shift_abstract_sse_control@@YA?AW4__acrt_fenv_abstract_control@@W41@@Z 100726df f i libucrt:_fenvutils.obj
 0001:00071703       ?__acrt_fenv_shift_abstract_sse_status@@YA?AW4__acrt_fenv_abstract_status@@W41@@Z 10072703 f i libucrt:_fenvutils.obj
 0001:00071717       ?__acrt_fenv_shift_abstract_x87_control@@YA?AW4__acrt_fenv_abstract_control@@W41@@Z 10072717 f i libucrt:_fenvutils.obj
 0001:0007173b       ?__acrt_fenv_shift_abstract_x87_status@@YA?AW4__acrt_fenv_abstract_status@@W41@@Z 1007273b f i libucrt:_fenvutils.obj
 0001:0007174f       ?__acrt_fenv_unshift_abstract_sse_control@@YA?AW4__acrt_fenv_abstract_control@@W41@@Z 1007274f f i libucrt:_fenvutils.obj
 0001:00071775       ?__acrt_fenv_unshift_abstract_sse_status@@YA?AW4__acrt_fenv_abstract_status@@W41@@Z 10072775 f i libucrt:_fenvutils.obj
 0001:00071789       ?__acrt_fenv_unshift_abstract_x87_control@@YA?AW4__acrt_fenv_abstract_control@@W41@@Z 10072789 f i libucrt:_fenvutils.obj
 0001:000717af       ?__acrt_fenv_unshift_abstract_x87_status@@YA?AW4__acrt_fenv_abstract_status@@W41@@Z 100727af f i libucrt:_fenvutils.obj
 0001:00071e66       ___acrt_fenv_expand_round_control 10072e66 f   libucrt:_fenvutils.obj
 0001:00071ea9       ___acrt_fenv_get_common_round_control 10072ea9 f   libucrt:_fenvutils.obj
 0001:00071ed3       ___acrt_fenv_get_control   10072ed3 f   libucrt:_fenvutils.obj
 0001:00071f75       ___acrt_fenv_get_fp_status_word_from_exception_mask 10072f75 f   libucrt:_fenvutils.obj
 0001:00071f95       ___acrt_fenv_get_status    10072f95 f   libucrt:_fenvutils.obj
 0001:00072087       ___acrt_fenv_set_control   10073087 f   libucrt:_fenvutils.obj
 0001:0007210b       ___acrt_fenv_set_status    1007310b f   libucrt:_fenvutils.obj
 0001:00072360       _qsort                     10073360 f   libucrt:qsort.obj
 0001:00072991       _strncpy_s                 10073991 f   libucrt:strncpy_s.obj
 0001:000729a0       _strpbrk                   100739a0 f   libucrt:strpbrk.obj
 0001:000729f0       ??$__acrt_convert_wcs_mbs@D_W$$A6AIPA_WPBDIPAU__crt_locale_pointers@@@ZU__crt_win32_buffer_internal_dynamic_resizing@@@@YAHQBDAAV?$__crt_win32_buffer@_WU__crt_win32_buffer_internal_dynamic_resizing@@@@A6AIPA_WPBDIPAU__crt_locale_pointers@@@Z4@Z 100739f0 f i libucrt:findfirstfileexa.obj
 0001:00072ab9       ??$__acrt_mbs_to_wcs@U__crt_win32_buffer_internal_dynamic_resizing@@@@YAHQBDAAV?$__crt_win32_buffer@_WU__crt_win32_buffer_internal_dynamic_resizing@@@@PAU__crt_locale_pointers@@@Z 10073ab9 f i libucrt:findfirstfileexa.obj
 0001:00072add       ?set_to_nullptr@?$__crt_win32_buffer@_WU__crt_win32_buffer_internal_dynamic_resizing@@@@QAEXXZ 10073add f i libucrt:findfirstfileexa.obj
 0001:00072af9       ___acrt_FindFirstFileExA   10073af9 f   libucrt:findfirstfileexa.obj
 0001:00072b78       ??$?0$0BAE@@?$__crt_win32_buffer@DU__crt_win32_buffer_no_resizing@@@@QAE@AAY0BAE@D@Z 10073b78 f i libucrt:findnextfilea.obj
 0001:00072ba7       ??$?0$0O@@?$__crt_win32_buffer@DU__crt_win32_buffer_no_resizing@@@@QAE@AAY0O@D@Z 10073ba7 f i libucrt:findnextfilea.obj
 0001:00072bd4       ??$__acrt_convert_wcs_mbs@_WD$$A6AIPADPB_WIPAU__crt_locale_pointers@@@ZU__crt_win32_buffer_no_resizing@@@@YAHQB_WAAV?$__crt_win32_buffer@DU__crt_win32_buffer_no_resizing@@@@A6AIPADPB_WIPAU__crt_locale_pointers@@@Z4@Z 10073bd4 f i libucrt:findnextfilea.obj
 0001:00072c9e       ??$__acrt_wcs_to_mbs@U__crt_win32_buffer_no_resizing@@@@YAHQB_WAAV?$__crt_win32_buffer@DU__crt_win32_buffer_no_resizing@@@@PAU__crt_locale_pointers@@@Z 10073c9e f i libucrt:findnextfilea.obj
 0001:00072cc2       ??1?$__crt_win32_buffer@DU__crt_win32_buffer_no_resizing@@@@QAE@XZ 10073cc2 f i libucrt:findnextfilea.obj
 0001:00072ccf       ?_deallocate@?$__crt_win32_buffer@DU__crt_win32_buffer_no_resizing@@@@AAEXXZ 10073ccf f i libucrt:findnextfilea.obj
 0001:00072cdc       ?allocate@?$__crt_win32_buffer@DU__crt_win32_buffer_no_resizing@@@@QAEHI@Z 10073cdc f i libucrt:findnextfilea.obj
 0001:00072d0c       ?allocate@__crt_win32_buffer_no_resizing@@SAHQAPAXIABV__crt_win32_buffer_empty_debug_info@@@Z 10073d0c f i libucrt:findnextfilea.obj
 0001:00072d1c       ?capacity@?$__crt_win32_buffer@DU__crt_win32_buffer_no_resizing@@@@QBEIXZ 10073d1c f i libucrt:findnextfilea.obj
 0001:00072d20       ?data@?$__crt_win32_buffer@DU__crt_win32_buffer_no_resizing@@@@QAEPADXZ 10073d20 f i libucrt:findnextfilea.obj
 0001:00072d24       ?deallocate@__crt_win32_buffer_no_resizing@@SAXQAXABV__crt_win32_buffer_empty_debug_info@@@Z 10073d24 f i libucrt:findnextfilea.obj
 0001:00072d25       ?debug_info@?$__crt_win32_buffer@DU__crt_win32_buffer_no_resizing@@@@QBEABV__crt_win32_buffer_empty_debug_info@@XZ 10073d25 f i libucrt:findnextfilea.obj
 0001:00072d28       ?set_to_nullptr@?$__crt_win32_buffer@DU__crt_win32_buffer_no_resizing@@@@QAEXXZ 10073d28 f i libucrt:findnextfilea.obj
 0001:00072d41       ?size@?$__crt_win32_buffer@DU__crt_win32_buffer_no_resizing@@@@QAEXI@Z 10073d41 f i libucrt:findnextfilea.obj
 0001:00072d53       ___acrt_FindNextFileA      10073d53 f   libucrt:findnextfilea.obj
 0001:00072ee4       __mbsdec                   10073ee4 f   libucrt:mbsdec.obj
 0001:00072f00       __mbsdec_l                 10073f00 f   libucrt:mbsdec.obj
 0001:00072fc4       __wcsnicoll                10073fc4 f   libucrt:wcsnicol.obj
 0001:000730bc       __wcsnicoll_l              100740bc f   libucrt:wcsnicol.obj
 0001:00073221       __strnicoll                10074221 f   libucrt:strnicol.obj
 0001:00073254       __strnicoll_l              10074254 f   libucrt:strnicol.obj
 0001:00073350       ___acrt_SetEnvironmentVariableA 10074350 f   libucrt:setenvironmentvariablea.obj
 0001:0007341f       __msize                    1007441f f   libucrt:msize.obj
 0001:0007342c       __msize_base               1007442c f   libucrt:msize.obj
 0001:0007346b       ___strncnt                 1007446b f   libucrt:strncnt.obj
 0001:0007348e       ?__mbrtoc32_utf8@__crt_mbstring@@YAIPA_UPBDIPAU_Mbstatet@@@Z 1007448e f   libucrt:mbrtoc32.obj
 0001:000736af       ?reset_and_return@__crt_mbstring@@YAIIPAU_Mbstatet@@@Z 100746af f i libucrt:mbrtoc32.obj
 0001:000736c8       ?return_illegal_sequence@__crt_mbstring@@YAIPAU_Mbstatet@@@Z 100746c8 f i libucrt:mbrtoc32.obj
 0001:000736ee       _mbrtoc32                  100746ee f   libucrt:mbrtoc32.obj
 0001:00073814       ___acrt_GetLocaleInfoA     10074814 f   libucrt:getlocaleinfoa.obj
 0001:00073a32       _fegetenv                  10074a32 f   libucrt:fegetenv.obj
 0001:00073a56       _fesetenv                  10074a56 f   libucrt:fesetenv.obj
 0001:00073ab6       _feholdexcept              10074ab6 f   libucrt:feholdexcept.obj
 0001:00073b20       __CIlog10                  10074b20 f   libucrt:log10_impl.obj
 0001:00073b5b       __CIlog10_default          10074b5b f   libucrt:log10_impl.obj
 0001:00073b6f       __log10_default            10074b6f     libucrt:log10_impl.obj
 0001:00073c80       _ceil                      10074c80 f   libucrt:ceil_pentium4.obj
 0001:00073cc0       __ceil_pentium4            10074cc0 f   libucrt:ceil_pentium4.obj
 0001:00073de4       __towlower_l               10074de4 f   libucrt:towlower.obj
 0001:00073edf       _towlower                  10074edf f   libucrt:towlower.obj
 0001:00073f00       ___ascii_strnicmp          10074f00 f   libucrt:_strnicm.obj
 0001:00073f79       ??$__crt_interlocked_read@H@@YAHPDH@Z 10074f79 f i libucrt:setmode.obj
 0001:00073f88       ?value@?$dual_state_global@H@__crt_state_management@@QAEAAHXZ 10074f88 f i libucrt:setmode.obj
 0001:00073f8b       __get_fmode                10074f8b f   libucrt:setmode.obj
 0001:00073fc2       __set_fmode                10074fc2 f   libucrt:setmode.obj
 0001:0007400e       __setmode                  1007500e f   libucrt:setmode.obj
 0001:00074156       __setmode_nolock           10075156 f   libucrt:setmode.obj
 0001:000743e7       __chsize                   100753e7 f   libucrt:chsize.obj
 0001:0007440a       __chsize_nolock            1007540a f   libucrt:chsize.obj
 0001:000745ff       __chsize_s                 100755ff f   libucrt:chsize.obj
 0001:000746d7       __umask                    100756d7 f   libucrt:umask.obj
 0001:00074705       __umask_s                  10075705 f   libucrt:umask.obj
 0001:00074828       ___dcrt_lowio_ensure_console_output_initialized 10075828 f   libucrt:initcon.obj
 0001:0007484e       ___dcrt_terminate_console_output 1007584e f   libucrt:initcon.obj
 0001:0007486a       ___dcrt_write_console      1007586a f   libucrt:initcon.obj
 0001:000748d4       _nexttoward                100758d4 f   libucrt:nexttoward.obj
 0001:00074e1c       __wcstombs_l               10075e1c f   libucrt:wcstombs.obj
 0001:00074e29       __wcstombs_s_l             10075e29 f   libucrt:wcstombs.obj
 0001:00074f29       _wcstombs                  10075f29 f   libucrt:wcstombs.obj
 0001:00074f49       _wcstombs_s                10075f49 f   libucrt:wcstombs.obj
 0001:00074f71       ___acrt_CompareStringW     10075f71 f   libucrt:comparestringw.obj
 0001:00075308       ___acrt_CompareStringA     10076308 f   libucrt:comparestringa.obj
 0001:000754f7       ___control87_2             100764f7 f   libucrt:ieee87.obj
 0001:00075ac3       ___fpreset_sse2            10076ac3 f   libucrt:ieee87.obj
 0001:00075d0c       __clearfp                  10076d0c f   libucrt:ieee87.obj
 0001:00075e24       __control87                10076e24 f   libucrt:ieee87.obj
 0001:000761e2       __controlfp                100771e2 f   libucrt:ieee87.obj
 0001:00076202       __fpreset                  10077202 f   libucrt:ieee87.obj
 0001:00076305       __set_controlfp            10077305 f   libucrt:ieee87.obj
 0001:0007639b       __statusfp                 1007739b f   libucrt:ieee87.obj
 0001:0007645f       __statusfp2                1007745f f   libucrt:ieee87.obj
 0001:000764dd       ___acrt_initialize_sse2    100774dd f   libucrt:mathfcns.obj
 0001:000764f1       __set_SSE2_enable          100774f1 f   libucrt:mathfcns.obj
 0001:00076520       __CIlog10_pentium4         10077520 f   libucrt:log10_pentium4.obj
 0001:00076538       __log10_pentium4           10077538     libucrt:log10_pentium4.obj
 0001:00076880       __fFEXP                    10077880 f   libucrt:87tran.obj
 0001:000768d7       __rtinfpopse               100778d7     libucrt:87tran.obj
 0001:000768d9       __rtinfnpopse              100778d9     libucrt:87tran.obj
 0001:000768e9       __fFLN                     100778e9     libucrt:87tran.obj
 0001:0007699e       __rtinfpop                 1007799e     libucrt:87tran.obj
 0001:000769a0       __rtinfnpop                100779a0     libucrt:87tran.obj
 0001:000769b0       __rtforexpinf              100779b0 f   libucrt:87tran.obj
 0001:000769bd       __ffexpm1                  100779bd     libucrt:87tran.obj
 0001:00076af0       __trandisp1                10077af0 f   libucrt:87disp.obj
 0001:00076b65       __trandisp2                10077b65 f   libucrt:87disp.obj
 0001:00076bff       __rttospopde               10077bff     libucrt:87disp.obj
 0001:00076c04       __rttospop                 10077c04     libucrt:87disp.obj
 0001:00076c10       __rtnospop                 10077c10 f   libucrt:87disp.obj
 0001:00076c20       __rttosnpop                10077c20 f   libucrt:87disp.obj
 0001:00076c21       __rtnospopde               10077c21     libucrt:87disp.obj
 0001:00076c28       __rtzeropop                10077c28     libucrt:87disp.obj
 0001:00076c2a       __rtzeronpop               10077c2a     libucrt:87disp.obj
 0001:00076c30       __rtzerospop               10077c30 f   libucrt:87disp.obj
 0001:00076c3d       __rtonepop                 10077c3d     libucrt:87disp.obj
 0001:00076c40       __rtonenpop                10077c40 f   libucrt:87disp.obj
 0001:00076c50       __tosnan1                  10077c50 f   libucrt:87disp.obj
 0001:00076c80       __nosnan2                  10077c80 f   libucrt:87disp.obj
 0001:00076c90       __tosnan2                  10077c90 f   libucrt:87disp.obj
 0001:00076cc0       __nan2                     10077cc0 f   libucrt:87disp.obj
 0001:00076d00       __rtindfpop                10077d00 f   libucrt:87disp.obj
 0001:00076d02       __rtindfnpop               10077d02     libucrt:87disp.obj
 0001:00076d13       __rttosnpopde              10077d13     libucrt:87disp.obj
 0001:00076d20       __rtatan2inf               10077d20 f   libucrt:87disp.obj
 0001:00076d3d       __rtchsifneg               10077d3d     libucrt:87disp.obj
 0001:00076dd9       ___setfflag                10077dd9 f   libucrt:fp_flags.obj
 0001:00076e00       __twoToTOS                 10077e00 f   libucrt:common.obj
 0001:00076e15       __load_CW                  10077e15 f   libucrt:common.obj
 0001:00076e2c       __convertTOStoQNaN         10077e2c f   libucrt:common.obj
 0001:00076e45       __fload_withFB             10077e45 f   libucrt:common.obj
 0001:00076e88       __checkTOS_withFB          10077e88 f   libucrt:common.obj
 0001:00076e9e       __fast_exit                10077e9e f   libucrt:common.obj
 0001:00076eab       __math_exit                10077eab f   libucrt:common.obj
 0001:00076ed5       __check_overflow_exit      10077ed5 f   libucrt:common.obj
 0001:00076ee9       __check_range_exit         10077ee9 f   libucrt:common.obj
 0001:00076ff0       __startTwoArgErrorHandling 10077ff0 f   libucrt:genexcep.obj
 0001:00077007       __startOneArgErrorHandling 10078007 f   libucrt:genexcep.obj
 0001:00077057       ___libm_error_support      10078057 f   libucrt:libm_error.obj
 0001:000772f5       ___libm_setusermatherr     100782f5 f   libucrt:libm_error.obj
 0001:00077325       __ceil_default             10078325 f   libucrt:ceil.obj
 0001:0007740c       ___acrt_LCMapStringW       1007840c f   libucrt:lcmapstringw.obj
 0001:00077459       ___p__fmode                10078459 f   libucrt:txtmode.obj
 0001:000774f5       __d_int                    100784f5 f   libucrt:_test.obj
 0001:0007763f       __dtest                    1007863f f   libucrt:_test.obj
 0001:000776bc       __fd_int                   100786bc f   libucrt:_test.obj
 0001:000777be       __fdtest                   100787be f   libucrt:_test.obj
 0001:0007781f       __fperrraise               1007881f f   libucrt:_test.obj
 0001:0007784a       __ld_int                   1007884a f   libucrt:_test.obj
 0001:00077857       __ldtest                   10078857 f   libucrt:_test.obj
 0001:00077864       ?__wcsrtombs_utf8@__crt_mbstring@@YAIPADPAPB_WIPAU_Mbstatet@@@Z 10078864 f   libucrt:wcrtomb.obj
 0001:00077d0e       _wcrtomb                   10078d0e f   libucrt:wcrtomb.obj
 0001:00077d4b       _wcrtomb_s                 10078d4b f   libucrt:wcrtomb.obj
 0001:00077de2       _wcsrtombs                 10078de2 f   libucrt:wcrtomb.obj
 0001:00077def       _wcsrtombs_s               10078def f   libucrt:wcrtomb.obj
 0001:00077eae       _wctob                     10078eae f   libucrt:wcrtomb.obj
 0001:00077f22       __controlfp_s              10078f22 f   libucrt:contrlfp.obj
 0001:00077f98       __d_inttype                10078f98 f   libucrt:powhlp.obj
 0001:0007801c       __powhlp                   1007901c f   libucrt:powhlp.obj
 0001:00078191       __87except                 10079191 f   libucrt:87except.obj
 0001:000782dd       __frnd                     100792dd f   libucrt:frnd.obj
 0001:000782f8       ??_4@YAAAW4__acrt_fenv_abstract_status@@AAW40@W40@@Z 100792f8 f i libucrt:fegetexceptflag.obj
 0001:0007830a       _fegetexceptflag           1007930a f   libucrt:fegetexceptflag.obj
 0001:00078347       ??S@YA?AW4__acrt_fenv_abstract_status@@W40@@Z 10079347 f i libucrt:fesetexceptflag.obj
 0001:00078356       _fesetexceptflag           10079356 f   libucrt:fesetexceptflag.obj
 0001:000783c5       ?__c16rtomb_utf8@__crt_mbstring@@YAIPAD_SPAU_Mbstatet@@@Z 100793c5 f   libucrt:c16rtomb.obj
 0001:0007851d       _c16rtomb                  1007951d f   libucrt:c16rtomb.obj
 0001:0007852a       _fetestexcept              1007952a f   libucrt:fetestexcept.obj
 0001:00078554       ?__c32rtomb_utf8@__crt_mbstring@@YAIPAD_UPAU_Mbstatet@@@Z 10079554 f   libucrt:c32rtomb.obj
 0001:0007862e       _c32rtomb                  1007962e f   libucrt:c32rtomb.obj
 0001:00078640       __FindPESection            10079640 f   LIBCMT:pesect.obj
 0001:000786a0       __IsNonwritableInCurrentImage 100796a0 f   LIBCMT:pesect.obj
 0001:00078790       __ValidateImageBase        10079790 f   LIBCMT:pesect.obj
 0001:000787cf       __EH_epilog3               100797cf f   LIBCMT:ehprolg3.obj
 0001:000787e9       __EH_epilog3_GS            100797e9 f   LIBCMT:ehprolg3.obj
 0001:000787fe       __EH_epilog3_catch_GS      100797fe f   LIBCMT:ehprolg3.obj
 0001:00078813       __EH_prolog3               10079813 f   LIBCMT:ehprolg3.obj
 0001:00078854       __EH_prolog3_GS            10079854 f   LIBCMT:ehprolg3.obj
 0001:00078898       __EH_prolog3_catch         10079898 f   LIBCMT:ehprolg3.obj
 0001:000788dc       __EH_prolog3_catch_GS      100798dc f   LIBCMT:ehprolg3.obj
 0001:00078930       __aulldvrm                 10079930 f   LIBCMT:ulldvrm.obj
 0001:000789ea       ??1type_info@@UAE@XZ       100799ea f   LIBCMT:std_type_info_static.obj
 0001:000789f1       ??_Etype_info@@UAEPAXI@Z   100799f1 f i LIBCMT:std_type_info_static.obj
 0001:000789f1       ??_Gtype_info@@UAEPAXI@Z   100799f1 f i LIBCMT:std_type_info_static.obj
 0001:00078a1c       ??3@YAXPAXI@Z              10079a1c f   LIBCMT:delete_scalar_size.obj
 0001:00078a30       __SEH_prolog4_GS           10079a30 f   LIBCMT:sehprolg4gs.obj
 0001:00078a79       __SEH_epilog4_GS           10079a79 f   LIBCMT:sehprolg4gs.obj
 0001:00078aa0       __allmul                   10079aa0 f   LIBCMT:llmul.obj
 0001:00078af0       __allshl                   10079af0 f   LIBCMT:llshl.obj
 0001:00078b20       __aullshr                  10079b20 f   LIBCMT:ullshr.obj
 0001:00078b50       __alldvrm                  10079b50 f   LIBCMT:lldvrm.obj
 0001:00078c70       __chkstk                   10079c70 f   LIBCMT:chkstk.obj
 0001:00078c70       __alloca_probe             10079c70 f   LIBCMT:chkstk.obj
 0001:00078cb0       __alloca_probe_16          10079cb0 f   LIBCMT:alloca16.obj
 0001:00078cc6       __alloca_probe_8           10079cc6     LIBCMT:alloca16.obj
 0001:00078cf0       __ftol2_sse                10079cf0 f   LIBCMT:ftol2.obj
 0001:00078cf9       __ftol2_pentium4           10079cf9 f   LIBCMT:ftol2.obj
 0001:00078d0c       __ftol2_sse_excpt          10079d0c f   LIBCMT:ftol2.obj
 0001:00078d30       __ftol2                    10079d30 f   LIBCMT:ftol2.obj
 0001:00078dd2       __initialize_default_precision 10079dd2 f   LIBCMT:default_precision.obj
 0001:00078dfb       ??3@YAXPAX@Z               10079dfb f   LIBCMT:delete_scalar.obj
 0001:00078e00       _InterlockedPushEntrySList@8 10079e00 f   kernel32:KERNEL32.dll
 0001:00078e06       _InterlockedFlushSList@4   10079e06 f   kernel32:KERNEL32.dll
 0001:00078e0c       _RtlUnwind@16              10079e0c f   kernel32:KERNEL32.dll
 0001:00078e12       _GetLastError@0            10079e12 f   kernel32:KERNEL32.dll
 0001:00078e18       _SetLastError@4            10079e18 f   kernel32:KERNEL32.dll
 0001:00078e1e       _EnterCriticalSection@4    10079e1e f   kernel32:KERNEL32.dll
 0001:00078e24       _LeaveCriticalSection@4    10079e24 f   kernel32:KERNEL32.dll
 0001:00078e2a       _DeleteCriticalSection@4   10079e2a f   kernel32:KERNEL32.dll
 0001:00078e30       _InitializeCriticalSectionAndSpinCount@8 10079e30 f   kernel32:KERNEL32.dll
 0001:00078e36       _TlsAlloc@0                10079e36 f   kernel32:KERNEL32.dll
 0001:00078e3c       _TlsGetValue@4             10079e3c f   kernel32:KERNEL32.dll
 0001:00078e42       _TlsSetValue@8             10079e42 f   kernel32:KERNEL32.dll
 0001:00078e48       _TlsFree@4                 10079e48 f   kernel32:KERNEL32.dll
 0001:00078e4e       _FreeLibrary@4             10079e4e f   kernel32:KERNEL32.dll
 0001:00078e54       _LoadLibraryExW@12         10079e54 f   kernel32:KERNEL32.dll
 0001:00078e5a       _EncodePointer@4           10079e5a f   kernel32:KERNEL32.dll
 0001:00078e60       _RaiseException@16         10079e60 f   kernel32:KERNEL32.dll
 0001:00078e66       _ExitProcess@4             10079e66 f   kernel32:KERNEL32.dll
 0001:00078e6c       _GetModuleHandleExW@12     10079e6c f   kernel32:KERNEL32.dll
 0001:00078e72       _GetStdHandle@4            10079e72 f   kernel32:KERNEL32.dll
 0001:00078e78       _GetFileType@4             10079e78 f   kernel32:KERNEL32.dll
 0001:00078e7e       _GetModuleFileNameW@12     10079e7e f   kernel32:KERNEL32.dll
 0001:00078e84       _WriteConsoleW@20          10079e84 f   kernel32:KERNEL32.dll
 0001:00078e8a       _HeapAlloc@12              10079e8a f   kernel32:KERNEL32.dll
 0001:00078e90       _HeapFree@12               10079e90 f   kernel32:KERNEL32.dll
 0001:00078e96       _GetDateFormatW@24         10079e96 f   kernel32:KERNEL32.dll
 0001:00078e9c       _GetTimeFormatW@24         10079e9c f   kernel32:KERNEL32.dll
 0001:00078ea2       _CompareStringW@24         10079ea2 f   kernel32:KERNEL32.dll
 0001:00078ea8       _LCMapStringW@24           10079ea8 f   kernel32:KERNEL32.dll
 0001:00078eae       _GetLocaleInfoW@16         10079eae f   kernel32:KERNEL32.dll
 0001:00078eb4       _IsValidLocale@8           10079eb4 f   kernel32:KERNEL32.dll
 0001:00078eba       _GetUserDefaultLCID@0      10079eba f   kernel32:KERNEL32.dll
 0001:00078ec0       _EnumSystemLocalesW@8      10079ec0 f   kernel32:KERNEL32.dll
 0001:00078ec6       _GetCurrentThread@0        10079ec6 f   kernel32:KERNEL32.dll
 0001:00078ecc       _HeapReAlloc@16            10079ecc f   kernel32:KERNEL32.dll
 0001:00078ed2       _CloseHandle@4             10079ed2 f   kernel32:KERNEL32.dll
 0001:00078ed8       _ReadFile@20               10079ed8 f   kernel32:KERNEL32.dll
 0001:00078ede       _GetConsoleMode@8          10079ede f   kernel32:KERNEL32.dll
 0001:00078ee4       _ReadConsoleW@20           10079ee4 f   kernel32:KERNEL32.dll
 0001:00078eea       _WriteFile@20              10079eea f   kernel32:KERNEL32.dll
 0001:00078ef0       _GetConsoleCP@0            10079ef0 f   kernel32:KERNEL32.dll
 0001:00078ef6       _MultiByteToWideChar@24    10079ef6 f   kernel32:KERNEL32.dll
 0001:00078efc       _DeleteFileW@4             10079efc f   kernel32:KERNEL32.dll
 0001:00078f02       _SetFilePointerEx@20       10079f02 f   kernel32:KERNEL32.dll
 0001:00078f08       _OutputDebugStringW@4      10079f08 f   kernel32:KERNEL32.dll
 0001:00078f0e       _SetConsoleCtrlHandler@8   10079f0e f   kernel32:KERNEL32.dll
 0001:00078f14       _FindClose@4               10079f14 f   kernel32:KERNEL32.dll
 0001:00078f1a       _FindFirstFileExW@24       10079f1a f   kernel32:KERNEL32.dll
 0001:00078f20       _FindNextFileW@8           10079f20 f   kernel32:KERNEL32.dll
 0001:00078f26       _IsValidCodePage@4         10079f26 f   kernel32:KERNEL32.dll
 0001:00078f2c       _GetACP@0                  10079f2c f   kernel32:KERNEL32.dll
 0001:00078f32       _GetOEMCP@0                10079f32 f   kernel32:KERNEL32.dll
 0001:00078f38       _GetCPInfo@8               10079f38 f   kernel32:KERNEL32.dll
 0001:00078f3e       _GetCommandLineA@0         10079f3e f   kernel32:KERNEL32.dll
 0001:00078f44       _GetCommandLineW@0         10079f44 f   kernel32:KERNEL32.dll
 0001:00078f4a       _WideCharToMultiByte@32    10079f4a f   kernel32:KERNEL32.dll
 0001:00078f50       _GetEnvironmentStringsW@0  10079f50 f   kernel32:KERNEL32.dll
 0001:00078f56       _FreeEnvironmentStringsW@4 10079f56 f   kernel32:KERNEL32.dll
 0001:00078f5c       _SetEnvironmentVariableW@8 10079f5c f   kernel32:KERNEL32.dll
 0001:00078f62       _GetProcessHeap@0          10079f62 f   kernel32:KERNEL32.dll
 0001:00078f68       _FlushFileBuffers@4        10079f68 f   kernel32:KERNEL32.dll
 0001:00078f6e       _SetStdHandle@8            10079f6e f   kernel32:KERNEL32.dll
 0001:00078f74       _GetStringTypeW@16         10079f74 f   kernel32:KERNEL32.dll
 0001:00078f7a       _CreateFileW@28            10079f7a f   kernel32:KERNEL32.dll
 0001:00078f80       _HeapSize@12               10079f80 f   kernel32:KERNEL32.dll
 0001:00078f86       _SetEndOfFile@4            10079f86 f   kernel32:KERNEL32.dll
 0001:00078f8c       _DecodePointer@4           10079f8c f   kernel32:KERNEL32.dll
 0001:00078fa0       _strrchr                   10079fa0 f   libvcruntime:strrchr.obj
 0001:00079255       _memcmp                    1007a255 f   libvcruntime:memcmp.obj
 0001:0007b73a       _wcschr                    1007c73a f   libvcruntime:wcschr.obj
 0002:00000000       ___xc_a                    10081000     LIBCMT:initializers.obj
 0002:00000104       ___xc_z                    10081104     LIBCMT:initializers.obj
 0002:00000208       ___xi_a                    10081208     LIBCMT:initializers.obj
 0002:0000030c       ___acrt_stdio_initializer  1008130c     libucrt:stdio_initializer.obj
 0002:00000310       ___acrt_multibyte_initializer 10081310     libucrt:multibyte_initializer.obj
 0002:00000314       ___acrt_tran_sse2_initializer 10081314     libucrt:sse2_initializer.obj
 0002:0000041c       ___xi_z                    1008141c     LIBCMT:initializers.obj
 0002:00000520       ___xp_a                    10081520     LIBCMT:initializers.obj
 0002:00000624       ___acrt_locale_terminator  10081624     libucrt:locale_initializer.obj
 0002:00000628       ___dcrt_console_output_terminator 10081628     libucrt:console_output_initializer.obj
 0002:00000730       ___acrt_stdio_terminator   10081730     libucrt:stdio_initializer.obj
 0002:00000834       ___xp_z                    10081834     LIBCMT:initializers.obj
 0002:00000938       ___xt_a                    10081938     LIBCMT:initializers.obj
 0002:00000a3c       ___xt_z                    10081a3c     LIBCMT:initializers.obj
 0002:00000b40       ??_C@_0O@LJNNLLGA@udp_comm_test@ 10081b40     xpctarget.obj
 0002:00000b50       _ptsetfilename             10081b50     xpctarget.obj
 0002:00000b54       _xmlfile                   10081b54     xpctarget.obj
 0002:00000b5c       ??_C@_03COLHFAIP@6?48@     10081b5c     xpctarget.obj
 0002:00000b60       ??_C@_01DNKMNLPK@?$HM@     10081b60     xpctarget.obj
 0002:00000b68       __real@3fb999999999999a    10081b68     xpctarget.obj
 0002:00000b78       __real@408f400000000000    10081b78     xpctarget.obj
 0002:00000b88       _udp_comm_test_BIOMAP      10081b88     appmappingData.obj
 0002:00000ce8       _udp_comm_test_LBLMAP      10081ce8     appmappingData.obj
 0002:00000e48       _udp_comm_test_SIDMAP      10081e48     appmappingData.obj
 0002:00000fa8       _udp_comm_test_SBIO        10081fa8     appmappingData.obj
 0002:00001020       _udp_comm_test_SLBL        10082020     appmappingData.obj
 0002:00001098       _udp_comm_test_PTIDSMAP    10082098     appmappingData.obj
 0002:00001228       _udp_comm_test_PTNAMESMAP  10082228     appmappingData.obj
 0002:000013b8       _udp_comm_test_SPTMAP      100823b8     appmappingData.obj
 0002:00001480       _udp_comm_test_dtmap       10082480     appmappingData.obj
 0002:000014b0       _appInfo                   100824b0     appmappingData.obj
 0002:000016e0       ??_C@_00CNPNBAHC@@         100826e0     appmappingData.obj
 0002:000016e8       __real@3cb0000000000000    100826e8     rt_matrx.obj
 0002:000016f8       __real@3fe0000000000000    100826f8     rt_matrx.obj
 0002:00001708       __real@3ff0000000000000    10082708     rt_matrx.obj
 0002:00001f78       ??_C@_0DJ@FHKINPLE@Unexpected?5itemKind?5?$DN?5DATA_ITEM@ 10082f78     rt_logging.obj
 0002:00001fbc       ??_C@_0DA@IEHFPFCJ@Unexpected?5itemKind?$DN?$CFd?5in?5rt_Pr@ 10082fbc     rt_logging.obj
 0002:00001ff8       ??_C@_0DA@IFLHJPBO@Unexpected?5itemKind?$DN?$CFd?5in?5rt_Pr@ 10082ff8     rt_logging.obj
 0002:00002034       ??_C@_0DA@IAPIIJJL@Unexpected?5itemKind?$DN?$CFd?5in?5rt_Pr@ 10083034     rt_logging.obj
 0002:00002070       ??_C@_0BE@LCIGPJIG@MATLAB?55?40?5MAT?9file@ 10083070     rt_logging.obj
 0002:00002088       ??_C@_0FB@PCJEAJIB@?$CK?$CK?$CK?5Log?5variable?5?$CFs?5has?5wrapped@ 10083088     rt_logging.obj
 0002:000020f0       ??_C@_0MG@NKMLMOGF@?$CK?$CK?$CK?5To?5avoid?5wrapping?0?5explicit@ 100830f0     rt_logging.obj
 0002:000021e0       ??_C@_0N@IPAEOLLP@_rtw_tmw?4tmw@ 100831e0     rt_logging.obj
 0002:000021f0       ??_C@_04HDOCAJNK@?$CFs?$CFs@ 100831f0     rt_logging.obj
 0002:000021f8       ??_C@_03ELIABIOC@w?$CLb@   100831f8     rt_logging.obj
 0002:000021fc       ??_C@_0BF@JPILDDFA@?$CK?$CK?$CK?5Error?5opening?5?$CFs@ 100831fc     rt_logging.obj
 0002:00002218       ??_C@_0BK@EEMDELA@unable?5to?5open?5data?5file?6@ 10083218     rt_logging.obj
 0002:00002238       ??_C@_04CGFJFPFD@none@     10083238     rt_logging.obj
 0002:00002240       ??_C@_0EE@LCGFPNON@?$CK?$CK?$CK?5Error?5creating?5signals?5stru@ 10083240     rt_logging.obj
 0002:00002294       ??_C@_0CE@NHECEDMK@?$CK?$CK?$CK?5Error?5creating?5log?5variable@ 10083294     rt_logging.obj
 0002:000022c0       ??_C@_0DB@IOCGKAGH@?$CK?$CK?$CK?5Errors?5occurred?5when?5starti@ 100832c0     rt_logging.obj
 0002:000022fc       ??_C@_0BO@BBLOGEBK@?$CK?$CK?$CK?5Memory?5allocation?5error?4?6@ 100832fc     rt_logging.obj
 0002:00002320       ??_C@_0N@LGFBAGEL@?5?$CIreal?5part?$CJ@ 10083320     rt_logging.obj
 0002:00002330       ??_C@_0KH@CGNMHNFE@?5?5?5?5varName?5?5?5?5?5?5?5?5?5?5?$DN?5?$CFs?$CFs?6?5?5?5@ 10083330     rt_logging.obj
 0002:000023f8       ??_C@_0LE@OALKKEFM@?5?5?5?5varName?5?5?5?5?5?5?5?5?5?5?$DN?5?$CFs?5?$CIcomp@ 100833f8     rt_logging.obj
 0002:000024d0       ??_C@_0KF@JDDLEOKO@?5?5?5?5varName?5?5?5?5?5?5?5?5?5?5?$DN?5?$CFs?6?5?5?5?5n@ 100834d0     rt_logging.obj
 0002:00002598       ??_C@_0DP@HPDMIOFM@?$CK?$CK?$CK?5Using?5a?5default?5buffer?5of?5s@ 10083598     rt_logging.obj
 0002:000025e8       ??_C@_0KE@JEFOLKNF@?6?$CK?$CK?$CK?5Memory?5required?5to?5log?5var@ 100835e8     rt_logging.obj
 0002:000026b0       ??_C@_0JP@DKLMHCBI@?$CK?$CK?$CK?5Details?3?6?5?5?5?5?5?5?5varName?5?5?5?5@ 100836b0     rt_logging.obj
 0002:00002770       ??_C@_0CM@CAMILBED@?$CK?$CK?$CK?5Error?5allocating?5memory?5for@ 10083770     rt_logging.obj
 0002:000027a4       ??_C@_0DF@BBCNMOPM@?$CK?$CK?$CK?5Error?5allocating?5memory?5for@ 100837a4     rt_logging.obj
 0002:000027e8       ??_C@_0JP@DBCLPCCI@?$CK?$CK?$CK?5Details?3?6?5?5?5?5?5?5?5varName?5?5?5?5@ 100837e8     rt_logging.obj
 0002:000028a8       ??_C@_0FK@DPGAOBGA@?$CK?$CK?$CK?5Error?5allocating?5memory?5for@ 100838a8     rt_logging.obj
 0002:00002914       ??_C@_0BI@GGDNPHLJ@?$CK?$CK?$CK?5Error?5writing?5to?5?$CFs@ 10083914     rt_logging.obj
 0002:00002930       ??_C@_0CB@IBGJGELG@?$CK?$CK?$CK?5Error?5writing?5?$CFs?5due?5to?3?5?$CFs@ 10083930     rt_logging.obj
 0002:00002958       ??_C@_0CN@FLMCHCPB@?$CK?$CK?$CK?5Error?5writing?5log?5variable?5@ 10083958     rt_logging.obj
 0002:00002990       ??_C@_0DH@GAJCNOJP@?$CK?$CK?$CK?5Error?5writing?5structure?5log@ 10083990     rt_logging.obj
 0002:000029d4       ??_C@_0BD@POEALECL@?$CK?$CK?5created?5?$CFs?5?$CK?$CK?6?6@ 100839d4     rt_logging.obj
 0002:000029f0       __real@4020000000000000    100839f0     rt_logging.obj
 0002:00002a00       __real@41dfffffffc00000    10083a00     rt_logging.obj
 0002:00002a10       __real@41efffffffe00000    10083a10     rt_logging.obj
 0002:00002a20       __real@4330000000000000    10083a20     rt_logging.obj
 0002:00002a30       __real@8000000000000000    10083a30     rt_logging.obj
 0002:00002a40       __real@bfbf9add3afd2773    10083a40     rt_logging.obj
 0002:00002a50       __real@bff0000000000000    10083a50     rt_logging.obj
 0002:00002a60       __real@c000000000000000    10083a60     rt_logging.obj
 0002:00002a70       __xmm@20202020202020202020202020202020 10083a70     rt_logging.obj
 0002:00002a90       __xmm@41f00000000000000000000000000000 10083a90     rt_logging.obj
 0002:00002aa4       _udp_comm_test_M           10083aa4     udp_comm_test.obj
 0002:00002aa8       ??_C@_0BC@OJJPBDHH@FixedStepDiscrete@ 10083aa8     udp_comm_test.obj
 0002:00002ac0       ??_C@_04EPKDLPPB@tout@     10083ac0     udp_comm_test.obj
 0002:00002ac8       ??_C@_03HBFGMJOD@rt_@      10083ac8     udp_comm_test.obj
 0002:00002acc       ??_C@_0O@IGJILCBD@UDP?5Configure@ 10083acc     udp_comm_test.obj
 0002:00002adc       ??_C@_0BM@FOEDEFJO@udp_comm_test?1UDP?5Configure@ 10083adc     udp_comm_test.obj
 0002:00002b00       ??_C@_0P@OIHMDNGO@ASCII?5Encode?52@ 10083b00     udp_comm_test.obj
 0002:00002b14       ??_C@_0BN@HLKNBJAE@udp_comm_test?1ASCII?5Encode?52@ 10083b14     udp_comm_test.obj
 0002:00002b38       ??_C@_08JIAODFFN@UDP?5Send@ 10083b38     udp_comm_test.obj
 0002:00002b44       ??_C@_0BH@BPIAONDM@udp_comm_test?1UDP?5Send@ 10083b44     udp_comm_test.obj
 0002:00002b60       ??_C@_0M@GCGBFLLD@UDP?5Receive@ 10083b60     udp_comm_test.obj
 0002:00002b70       ??_C@_0BK@GIJFBLBD@udp_comm_test?1UDP?5Receive@ 10083b70     udp_comm_test.obj
 0002:00002b90       ??_C@_0O@MCJDFIKD@ASCII?5Decode?5@ 10083b90     udp_comm_test.obj
 0002:00002ba0       ??_C@_0BM@BKEIKPCO@udp_comm_test?1ASCII?5Decode?5@ 10083ba0     udp_comm_test.obj
 0002:00002bc8       __real@3f50624dd2f1a9fc    10083bc8     udp_comm_test.obj
 0002:00002bd8       __real@41f0000000000000    10083bd8     udp_comm_test.obj
 0002:00002bf0       __xmm@00000000000000003f50624dd2f1a9fc 10083bf0     udp_comm_test.obj
 0002:00002c10       __xmm@000001040000001c0000002800000001 10083c10     udp_comm_test.obj
 0002:0000362c       ??_C@_09LKEICJMG@Constant3@ 1008462c     udp_comm_test_capi.obj
 0002:00003638       ??_C@_0BB@KKKHCGND@ASCII?5Decode?5?1p1@ 10084638     udp_comm_test_capi.obj
 0002:0000364c       ??_C@_0BB@IBIKHFBA@ASCII?5Decode?5?1p2@ 1008464c     udp_comm_test_capi.obj
 0002:00003660       ??_C@_0BB@JIJBEEFB@ASCII?5Decode?5?1p3@ 10084660     udp_comm_test_capi.obj
 0002:00003674       ??_C@_0BB@NHNANCJG@ASCII?5Decode?5?1p4@ 10084674     udp_comm_test_capi.obj
 0002:00003688       ??_C@_0BB@MOMLODNH@ASCII?5Decode?5?1p5@ 10084688     udp_comm_test_capi.obj
 0002:0000369c       ??_C@_0BB@OFOGLABE@ASCII?5Decode?5?1p6@ 1008469c     udp_comm_test_capi.obj
 0002:000036b0       ??_C@_0BB@PMPNIBFF@ASCII?5Decode?5?1p7@ 100846b0     udp_comm_test_capi.obj
 0002:000036c4       ??_C@_0BB@HLGFJNJK@ASCII?5Decode?5?1p8@ 100846c4     udp_comm_test_capi.obj
 0002:000036d8       ??_C@_0BB@GCHOKMNL@ASCII?5Decode?5?1p9@ 100846d8     udp_comm_test_capi.obj
 0002:000036ec       ??_C@_0BC@MADGBCLL@ASCII?5Decode?5?1p10@ 100846ec     udp_comm_test_capi.obj
 0002:00003704       ??_C@_0BC@NJCNCDPK@ASCII?5Decode?5?1p11@ 10084704     udp_comm_test_capi.obj
 0002:0000371c       ??_C@_0BC@PCAAHADJ@ASCII?5Decode?5?1p12@ 1008471c     udp_comm_test_capi.obj
 0002:00003734       ??_C@_0P@MOBPEFPA@UDP?5Receive?1p1@ 10084734     udp_comm_test_capi.obj
 0002:00003748       ??_C@_0P@OFDCBGDD@UDP?5Receive?1p2@ 10084748     udp_comm_test_capi.obj
 0002:0000375c       ??_C@_01HIHLOKLC@1@        1008475c     udp_comm_test_capi.obj
 0002:00003760       ??_C@_01FDFGLJHB@2@        10084760     udp_comm_test_capi.obj
 0002:00003764       ??_C@_01EKENIIDA@3@        10084764     udp_comm_test_capi.obj
 0002:00003768       ??_C@_01FAMBOPH@4@         10084768     udp_comm_test_capi.obj
 0002:0000376c       ??_C@_01BMBHCPLG@5@        1008476c     udp_comm_test_capi.obj
 0002:00003770       ??_C@_01DHDKHMHF@6@        10084770     udp_comm_test_capi.obj
 0002:00003774       ??_C@_04GBIJHNAB@Add1@     10084774     udp_comm_test_capi.obj
 0002:0000377c       ??_C@_04EKKECOMC@Add2@     1008477c     udp_comm_test_capi.obj
 0002:00003784       ??_C@_04FDLPBPID@Add3@     10084784     udp_comm_test_capi.obj
 0002:0000378c       ??_C@_04BMPOIJEE@Add4@     1008478c     udp_comm_test_capi.obj
 0002:00003794       ??_C@_04FOFLIAF@Add5@      10084794     udp_comm_test_capi.obj
 0002:0000379c       ??_C@_04COMIOLMG@Add6@     1008479c     udp_comm_test_capi.obj
 0002:000037a4       ??_C@_05LPIJGKJ@Value@     100847a4     udp_comm_test_capi.obj
 0002:000037ac       ??_C@_0P@CPEHNNHL@abduction_tune@ 100847ac     udp_comm_test_capi.obj
 0002:000037c0       ??_C@_0L@LNFICPKM@ankle_tune@ 100847c0     udp_comm_test_capi.obj
 0002:000037d0       ??_C@_0BB@NLLPIHGF@ankle_twist_tune@ 100847d0     udp_comm_test_capi.obj
 0002:000037e4       ??_C@_08CKCJHGBN@hip_tune@ 100847e4     udp_comm_test_capi.obj
 0002:000037f0       ??_C@_09BHPOCKOO@knee_tune@ 100847f0     udp_comm_test_capi.obj
 0002:000037fc       ??_C@_0BB@OMDHHLIL@left_abduction2?5@ 100847fc     udp_comm_test_capi.obj
 0002:00003810       ??_C@_0M@FGAAFPMB@left_ankle2@ 10084810     udp_comm_test_capi.obj
 0002:00003820       ??_C@_0BD@BCJCIPEF@left_ankle_twist2?5@ 10084820     udp_comm_test_capi.obj
 0002:00003838       ??_C@_0L@ICFHFGAJ@left_hip2?5@ 10084838     udp_comm_test_capi.obj
 0002:00003848       ??_C@_0L@MACDBHPM@left_knee2@ 10084848     udp_comm_test_capi.obj
 0002:00003858       ??_C@_0BA@MOKDFPBE@left_rotation2?5@ 10084858     udp_comm_test_capi.obj
 0002:0000386c       ??_C@_0BC@BAACGLCK@right_abduction2?5@ 1008486c     udp_comm_test_capi.obj
 0002:00003884       ??_C@_0O@IBPPNCDD@right_annkle2@ 10084884     udp_comm_test_capi.obj
 0002:00003894       ??_C@_0BF@DCLKOFBP@right_annkle_twist2?5@ 10084894     udp_comm_test_capi.obj
 0002:000038b0       ??_C@_0M@OHBEJJAM@right_hip2?5@ 100848b0     udp_comm_test_capi.obj
 0002:000038c0       ??_C@_0M@KFGANIPJ@right_knee2@ 100848c0     udp_comm_test_capi.obj
 0002:000038d0       ??_C@_0BA@LCHEADOB@right_rotation2@ 100848d0     udp_comm_test_capi.obj
 0002:000038e4       ??_C@_0O@JAFIEPDB@rotation_tune@ 100848e4     udp_comm_test_capi.obj
 0002:000038f4       ??_C@_02KKFPAPOP@P1@       100848f4     udp_comm_test_capi.obj
 0002:000038f8       ??_C@_02IBHCFMCM@P2@       100848f8     udp_comm_test_capi.obj
 0002:000038fc       ??_C@_02JIGJGNGN@P3@       100848fc     udp_comm_test_capi.obj
 0002:00003900       ??_C@_02NHCIPLKK@P4@       10084900     udp_comm_test_capi.obj
 0002:00003904       ??_C@_02MODDMKOL@P5@       10084904     udp_comm_test_capi.obj
 0002:00003908       ??_C@_02HLJNLEKG@P8@       10084908     udp_comm_test_capi.obj
 0002:0000390c       ??_C@_02GCIGIFOH@P9@       1008490c     udp_comm_test_capi.obj
 0002:00003910       ??_C@_03OPFJJGBF@P10@      10084910     udp_comm_test_capi.obj
 0002:00003914       ??_C@_03PGECKHFE@P11@      10084914     udp_comm_test_capi.obj
 0002:00003918       ??_C@_03NNGPPEJH@P12@      10084918     udp_comm_test_capi.obj
 0002:0000391c       ??_C@_02OFBOJJCI@P6@       1008491c     udp_comm_test_capi.obj
 0002:00003920       ??_C@_02PMAFKIGJ@P7@       10084920     udp_comm_test_capi.obj
 0002:00003924       ??_C@_06BNJCAIGJ@double@   10084924     udp_comm_test_capi.obj
 0002:0000392c       ??_C@_06CNMIJIPB@real_T@   1008492c     udp_comm_test_capi.obj
 0002:00003934       ??_C@_0N@OFHMGPAL@unsigned?5int@ 10084934     udp_comm_test_capi.obj
 0002:00003944       ??_C@_08CCMIKNJF@uint32_T@ 10084944     udp_comm_test_capi.obj
 0002:00003950       ??_C@_0O@PPAIJIHF@unsigned?5char@ 10084950     udp_comm_test_capi.obj
 0002:00003960       ??_C@_07NCEHLPOC@uint8_T@  10084960     udp_comm_test_capi.obj
 0002:0000396c       ??_C@_03JBIPMCLC@int@      1008496c     udp_comm_test_capi.obj
 0002:00003970       ??_C@_07BLNHOAMI@int32_T@  10084970     udp_comm_test_capi.obj
 0002:0000397c       ??_C@_05KNFBNCOH@float@    1008497c     udp_comm_test_capi.obj
 0002:00003984       ??_C@_0DL@PGGFBBLM@Error?3?5task?5ID?5?$CFd?5is?5out?5of?5ran@ 10084984     udp_comm_test_xcp_TET.obj
 0002:000039d0       __real@3e112e0be826d695    100849d0     udp_comm_test_xcp_TET.obj
 0002:000039e0       __real@3f847ae147ae147b    100849e0     udp_comm_test_xcp_TET.obj
 0002:000039f0       __real@3fefae147ae147ae    100849f0     udp_comm_test_xcp_TET.obj
 0002:000039fc       _serialfifoground          100849fc     xpc_datatype_ground.obj
 0002:00003a08       _bcmsg1553ground           10084a08     xpc_datatype_ground.obj
 0002:00003a18       _bcstatground              10084a18     xpc_datatype_ground.obj
 0002:00003a30       _bmmsg1553ground           10084a30     xpc_datatype_ground.obj
 0002:00003a6c       ??_C@_0BI@INNPNFJN@Memory?5Allocation?5Error@ 10084a6c     rtw_modelmap_utils.obj
 0002:00003a88       ??_C@_1HC@PKAJIAEN@?$AAC?$AA?3?$AA?2?$AAP?$AAR?$AAO?$AAG?$AAR?$AAA?$AA?$HO?$AA1?$AA?2?$AAM?$AAA?$AAT@ 10084a88     rtw_modelmap_utils.obj
 0002:00003b10       ??_C@_1CI@OEAJCJND@?$AAj?$AA?5?$AA?$DN?$AA?$DN?$AA?5?$AAe?$AAn?$AAc?$AAo?$AAd?$AAe?$AAd?$AAP?$AAa?$AAt@ 10084b10     rtw_modelmap_utils.obj
 0002:00003b40       ??_C@_1DC@NFAOIFKB@?$AAe?$AAn?$AAc?$AAo?$AAd?$AAe?$AAd?$AAP?$AAa?$AAt?$AAh?$AA?$FL?$AAj?$AA?9?$AA1@ 10084b40     rtw_modelmap_utils.obj
 0002:00003b7c       ??_C@_1DI@FLNJGPEE@?$AAs?$AAi?$AAg?$AAC?$AAo?$AAm?$AAp?$AAl?$AAe?$AAx?$AAi?$AAt?$AAy?$AA?$FL?$AA?$CK@ 10084b7c     rtw_modelmap_utils.obj
 0002:00003bc0       ??_C@_1KI@OFELMGBG@?$AA?$CI?$AA?$CI?$AA?$CI?$AAd?$AAa?$AAt?$AAa?$AAT?$AAy?$AAp?$AAe?$AAM?$AAa?$AAp?$AA?$CJ@ 10084bc0     rtw_modelmap_utils.obj
 0002:00003c8c       ??_C@_1DA@ILCMPHNE@?$AAf?$AAu?$AAl?$AAl?$AAP?$AAa?$AAt?$AAh?$AA?5?$AA?$CB?$AA?$DN?$AA?5?$AA?$CI?$AA?$CI?$AAv@ 10084c8c     rtw_modelmap_utils.obj
 0002:00003cc8       ??_C@_1CI@OEPPFCCA@?$AAp?$AAa?$AAt?$AAh?$AA?5?$AA?$CB?$AA?$DN?$AA?5?$AA?$CI?$AA?$CI?$AAv?$AAo?$AAi?$AAd?$AA?5@ 10084cc8     rtw_modelmap_utils.obj
 0002:00003cf8       ??_C@_1FK@GLJIMFHB@?$AA?$CI?$AA?$CI?$AAm?$AAm?$AAi?$AA?$CJ?$AA?9?$AA?$DO?$AAI?$AAn?$AAs?$AAt?$AAa?$AAn?$AAc@ 10084cf8     rtw_modelmap_utils.obj
 0002:00003d64       ??_C@_1DG@HPCJGNCE@?$AAm?$AAm?$AAi?$AAP?$AAa?$AAt?$AAh?$AA?$FL?$AAp?$AAa?$AAt?$AAh?$AAL?$AAe?$AAn@ 10084d64     rtw_modelmap_utils.obj
 0002:00003da4       ??_C@_1DM@DBAOGGOO@?$AAm?$AAm?$AAi?$AAP?$AAa?$AAt?$AAh?$AA?$FL?$AAm?$AAm?$AAi?$AAP?$AAa?$AAt?$AAh@ 10084da4     rtw_modelmap_utils.obj
 0002:00003dec       ??_C@_1DC@LHIAKAFE@?$AAb?$AAl?$AAo?$AAc?$AAk?$AAP?$AAa?$AAt?$AAh?$AA?5?$AA?$CB?$AA?$DN?$AA?5?$AA?$CI?$AA?$CI@ 10084dec     rtw_modelmap_utils.obj
 0002:00003e28       ??_C@_1GI@KIEJKPGC@?$AAf?$AAu?$AAl?$AAl?$AAS?$AAt?$AAa?$AAt?$AAe?$AAB?$AAl?$AAo?$AAc?$AAk?$AAP@ 10084e28     rtw_modelmap_utils.obj
 0002:00003ea8       ??_C@_1EE@DNPIBJHC@?$AA?$CI?$AA?$CI?$AAd?$AAi?$AAm?$AAM?$AAa?$AAp?$AA?$CJ?$AA?$FL?$AA?$CI?$AAm?$AAa?$AAp?$AAI@ 10084ea8     rtw_modelmap_utils.obj
 0002:00003efc       ??_C@_06JFOKFOED@CSTATE@   10084efc     rtw_modelmap_utils.obj
 0002:00003f04       ??_C@_06FAENGAMN@DSTATE@   10084f04     rtw_modelmap_utils.obj
 0002:00003f0c       ??_C@_1BI@LEBJNOGG@?$AAc?$AAs?$AAv?$AAI?$AAd?$AAx?$AA?5?$AA?$DO?$AA?$DN?$AA?5?$AA0@ 10084f0c     rtw_modelmap_utils.obj
 0002:00003f28       ??_C@_1BA@KDMGHCHP@?$AAT?$AAI?$AAD?$AA?$DN?$AA?$DN?$AA?9?$AA1@ 10084f28     rtw_modelmap_utils.obj
 0002:00003f3c       ??_C@_1DM@DHGKBPCE@?$AAs?$AAi?$AAg?$AAP?$AAa?$AAt?$AAh?$AA?$FL?$AAs?$AAi?$AAg?$AAP?$AAa?$AAt?$AAh@ 10084f3c     rtw_modelmap_utils.obj
 0002:00003f88       ??_C@_0ED@LKHIFFLC@Wrong?5number?5of?5input?5arguments@ 10084f88     asciidecode.obj
 0002:00003fd8       ??_C@_0CP@GNPFCBGC@Number?5of?5variables?5argument?5mu@ 10084fd8     asciidecode.obj
 0002:00004010       ??_C@_0DE@JPPPAPBN@ASCII?5Decode?3?5Unable?5to?5allocat@ 10085010     asciidecode.obj
 0002:00004050       ??_C@_0BI@MKEHIOKD@error?5in?5format?5string?6@ 10085050     asciidecode.obj
 0002:0000406c       ??_C@_0CD@HPFDKADH@RS232?5Send?1Rec?3?5receive?5data?5er@ 1008506c     asciidecode.obj
 0002:00004098       ??_C@_0DO@FPEMOPIN@Converted?5string?5length?5exceeds@ 10085098     asciiencode.obj
 0002:000040e4       ??_C@_0CC@HOBPNJNM@Error?5getting?5board?5configurati@ 100850e4     slrtIPConfig.obj
 0002:0000410c       ??_C@_0CB@NBMNJKGH@Error?5?$CFs?5initializing?5interface@ 1008510c     slrtIPConfig.obj
 0002:00004134       ??_C@_0DP@MDFBBNI@Ethernet?5interface?5not?5found?5at@ 10085134     slrtIPConfig.obj
 0002:00004180       ??_C@_0GJ@FCKIJHNC@Device?5at?5PCI?5Bus?3?$CFd?5Slot?3?$CFd?5Fu@ 10085180     slrtIPConfig.obj
 0002:00004200       ??_C@_0DE@CBCIHBDI@Error?5setting?5IP?5address?0?5inter@ 10085200     slrtIPConfig.obj
 0002:00004240       ??_C@_0BM@CGPFMAHK@Error?5?$CFd?5setting?5IP?5address@ 10085240     slrtIPConfig.obj
 0002:00004268       ??_C@_0EK@BBEACNDD@IP?5address?5already?5in?5use?5for?5c@ 10085268     slrtIPConfig.obj
 0002:000042c0       ??_C@_0EH@FMJBALDK@Subnet?5already?5in?5use?5for?5commu@ 100852c0     slrtIPConfig.obj
 0002:00004318       ??_C@_0BI@JGFKGBGL@Invalid?5gateway?5address@ 10085318     slrtIPConfig.obj
 0002:00004334       ??_C@_0BM@EPGFEMO@Error?5?$CFs?5setting?5IP?5address@ 10085334     slrtIPConfig.obj
 0002:00004358       ??_C@_0CF@JGOPHNAL@Invalid?5multicast?5IP?5address?5or@ 10085358     slrtIPConfig.obj
 0002:00004384       ??_C@_0CA@MMGIOPJH@Error?5?$CFs?5adding?5multicast?5route@ 10085384     slrtIPConfig.obj
 0002:000043ac       ??_C@_0BJ@EOBAMGKI@Error?5closing?5device?3?5?$CFs@ 100853ac     slrtIPConfig.obj
 0002:000043cc       ??_C@_0BP@LNHNEODM@Invalid?5local?5port?5for?5receive@ 100853cc     slrtUDPReceive.obj
 0002:000043f4       ??_C@_0BJ@DMMKJICG@UDP?5Initialize?5error?3?5?$CFs@ 100853f4     slrtUDPReceive.obj
 0002:00004414       ??_C@_0BF@CNHBOFGC@UDP?5Initialize?5error@ 10085414     slrtUDPReceive.obj
 0002:00004430       ??_C@_0CB@GLIGAFEB@Invalid?5multicast?5group?5address@ 10085430     slrtUDPReceive.obj
 0002:00004458       ??_C@_0CD@FIGFIJJN@UDP?5add?5multicast?5member?5error?3@ 10085458     slrtUDPReceive.obj
 0002:00004484       ??_C@_0CF@EDEKNHFK@Error?5checking?5socket?5I?1O?5statu@ 10085484     slrtUDPReceive.obj
 0002:000044b0       ??_C@_0BG@DLJKGPE@UDP?5receive?5error?3?5?$CFs@ 100854b0     slrtUDPReceive.obj
 0002:000044cc       ??_C@_0CJ@GAKAOIGG@Data?5port?5width?5exceeds?5maximum@ 100854cc     slrtUDPSend.obj
 0002:00004500       ??_C@_0DI@ICMDLECJ@Route?5to?5?$CFs?5is?5not?5available?0?5n@ 10085500     slrtUDPSend.obj
 0002:00004544       ??_C@_0BJ@JMOBKMKG@Warning?3?5block?5?8?$CFs?8?3?5?$CFs?6@ 10085544     slrtUDPSend.obj
 0002:00004564       ??_C@_0BD@KCHFJACO@UDP?5send?5error?3?5?$CFs@ 10085564     slrtUDPSend.obj
 0002:0000457c       ??_C@_0BK@EBKJELMI@maxfunc?5?$DN?5?$CFd?5at?5?$FL?$CFd?0?5?$CFd?$FN?6@ 1008557c     xpcruntime:xpcimports.obj
 0002:0000459c       ??_C@_0CC@DMFKNLL@VendorId?5?$DN?50x?$CFx?0?5DeviceId?5?$DN?50x?$CF@ 1008559c     xpcruntime:xpcimports.obj
 0002:000045c4       ??_C@_0DH@OHCBLNMG@Subsystem?5Device?5ID?5?$DN?50x?$CFx?6Subs@ 100855c4     xpcruntime:xpcimports.obj
 0002:00004608       ??_C@_0BD@MMMMEFCM@Class?5Code?5?$DN?50x?$CFx?6@ 10085608     xpcruntime:xpcimports.obj
 0002:00004620       ??_C@_0BE@OLDDDNHM@InterruptLine?5?$DN?5?$CFd?6@ 10085620     xpcruntime:xpcimports.obj
 0002:00004638       ??_C@_0CE@IBMFFAPN@bus?5?$DN?5?$CFd?0?5slot?5?$DN?5?$CFd?0?5function?5?$DN@ 10085638     xpcruntime:xpcimports.obj
 0002:00004664       ??_C@_0CE@DGLLGDFH@?5?5?5?5Phys?5?5?5Virtual?5?5?5Length?5IO?1@ 10085664     xpcruntime:xpcimports.obj
 0002:00004690       ??_C@_0BI@FEOPLEMG@?$CF08x?5?$CF08x?5?$CF08x?5?5?5?5?5?5?$CFc?6@ 10085690     xpcruntime:xpcimports.obj
 0002:000046ac       ??_C@_0BB@BNNCEDPC@rl32eScopeExists@ 100856ac     xpcruntime:xpcimports.obj
 0002:000046c0       ??_C@_0BM@FJBFEGFG@rl32eScopeExists?5not?5found?6@ 100856c0     xpcruntime:xpcimports.obj
 0002:000046e4       ??_C@_0O@BNNGKJEA@rl32eDefScope@ 100856e4     xpcruntime:xpcimports.obj
 0002:000046f4       ??_C@_0BJ@CDNOENKA@rl32eDefScope?5not?5found?6@ 100856f4     xpcruntime:xpcimports.obj
 0002:00004714       ??_C@_0P@CKNKILDP@rl32eAddSignal@ 10085714     xpcruntime:xpcimports.obj
 0002:00004728       ??_C@_0BK@GMJAJBAI@rl32eAddSignal?5not?5found?6@ 10085728     xpcruntime:xpcimports.obj
 0002:00004748       ??_C@_0BB@LDMIHGCE@rl32eGetSignalNo@ 10085748     xpcruntime:xpcimports.obj
 0002:0000475c       ??_C@_0BM@LGAMBAID@rl32eGetSignalNo?5not?5found?6@ 1008575c     xpcruntime:xpcimports.obj
 0002:00004780       ??_C@_0O@CFDGALBP@rl32eSetScope@ 10085780     xpcruntime:xpcimports.obj
 0002:00004790       ??_C@_0BJ@JCLHHIN@rl32eSetScope?5not?5found?6@ 10085790     xpcruntime:xpcimports.obj
 0002:000047b0       ??_C@_0P@IKMCBMHH@xpceFSScopeSet@ 100857b0     xpcruntime:xpcimports.obj
 0002:000047c4       ??_C@_0BK@JODJPNNH@xpceFSScopeSet?5not?5found?6@ 100857c4     xpcruntime:xpcimports.obj
 0002:000047e4       ??_C@_0BE@DLACEEJM@rl32eSetTargetScope@ 100857e4     xpcruntime:xpcimports.obj
 0002:000047fc       ??_C@_0BP@JCHFMKPJ@rl32eSetTargetScope?5not?5found?6@ 100857fc     xpcruntime:xpcimports.obj
 0002:00004824       ??_C@_0BJ@LIDLNDHC@rl32eSetTargetScopeSigFt@ 10085824     xpcruntime:xpcimports.obj
 0002:00004844       ??_C@_0CE@JLGHCFHI@rl32eSetTargetScopeSigFt?5not?5fo@ 10085844     xpcruntime:xpcimports.obj
 0002:00004870       ??_C@_0BI@JAPOIDNG@rl32eRestartAcquisition@ 10085870     xpcruntime:xpcimports.obj
 0002:0000488c       ??_C@_0CD@LLBEFFBO@rl32eRestartAcquisition?5not?5fou@ 1008588c     xpcruntime:xpcimports.obj
 0002:000048b8       ??_C@_0P@IEIIADJB@xpceScopeAcqOK@ 100858b8     xpcruntime:xpcimports.obj
 0002:000048cc       ??_C@_0BK@NJCKNFPN@xpceScopeAcqOK?5not?5found?6@ 100858cc     xpcruntime:xpcimports.obj
 0002:000048ec       ??_C@_0BA@IJINKAHF@xpceRegisterISR@ 100858ec     xpcruntime:xpcimports.obj
 0002:00004900       ??_C@_0BL@NNDLOEJE@xpceRegisterISR?5not?5found?6@ 10085900     xpcruntime:xpcimports.obj
 0002:00004920       ??_C@_0BC@NLBADGKF@xpceDeRegisterISR@ 10085920     xpcruntime:xpcimports.obj
 0002:00004938       ??_C@_0BN@DCAIKFFD@xpceDeRegisterISR?5not?5found?6@ 10085938     xpcruntime:xpcimports.obj
 0002:0000495c       ??_C@_07JPMEPILD@xpcInpB@  1008595c     xpcruntime:xpcimports.obj
 0002:00004968       ??_C@_0BD@PGABEJOL@xpcInpB?5not?5found?6@ 10085968     xpcruntime:xpcimports.obj
 0002:00004980       ??_C@_07KIHBBOKH@xpcInpW@  10085980     xpcruntime:xpcimports.obj
 0002:0000498c       ??_C@_0BD@FPCJFMCC@xpcInpW?5not?5found?6@ 1008598c     xpcruntime:xpcimports.obj
 0002:000049a4       ??_C@_08KDIAJBOP@xpcInpDW@ 100859a4     xpcruntime:xpcimports.obj
 0002:000049b0       ??_C@_0BE@PIELDNIL@xpcInpDW?5not?5found?6@ 100859b0     xpcruntime:xpcimports.obj
 0002:000049c8       ??_C@_08PJFMOIGO@xpcOutpB@ 100859c8     xpcruntime:xpcimports.obj
 0002:000049d4       ??_C@_0BE@HCKNCEKF@xpcOutpB?5not?5found?6@ 100859d4     xpcruntime:xpcimports.obj
 0002:000049ec       ??_C@_08MOOJAOHK@xpcOutpW@ 100859ec     xpcruntime:xpcimports.obj
 0002:000049f8       ??_C@_0BE@NLIFDBGM@xpcOutpW?5not?5found?6@ 100859f8     xpcruntime:xpcimports.obj
 0002:00004a10       ??_C@_09FLIEKHJG@xpcOutpDW@ 10085a10     xpcruntime:xpcimports.obj
 0002:00004a1c       ??_C@_0BF@GJKLPNHB@xpcOutpDW?5not?5found?6@ 10085a1c     xpcruntime:xpcimports.obj
 0002:00004a38       ??_C@_0BH@EHOLELHH@xpcReserveMemoryRegion@ 10085a38     xpcruntime:xpcimports.obj
 0002:00004a54       ??_C@_0CC@KAAAGPI@xpcReserveMemoryRegion?5not?5foun@ 10085a54     xpcruntime:xpcimports.obj
 0002:00004a7c       ??_C@_0BA@JGPMHGAF@rl32eShowPCIDev@ 10085a7c     xpcruntime:xpcimports.obj
 0002:00004a90       ??_C@_0BL@DDFFLNHI@rl32eShowPCIDev?5not?5found?6@ 10085a90     xpcruntime:xpcimports.obj
 0002:00004ab0       ??_C@_0BB@KBCOJPFB@rl32eShowPCIInfo@ 10085ab0     xpcruntime:xpcimports.obj
 0002:00004ac4       ??_C@_0BM@IFDMAGLO@rl32eShowPCIInfo?5not?5found?6@ 10085ac4     xpcruntime:xpcimports.obj
 0002:00004ae8       ??_C@_0BA@BGPAADB@rl32eGetPCIInfo@ 10085ae8     xpcruntime:xpcimports.obj
 0002:00004afc       ??_C@_0BL@IGOMLDCK@rl32eGetPCIInfo?5not?5found?6@ 10085afc     xpcruntime:xpcimports.obj
 0002:00004b1c       ??_C@_0BG@NJPFKFDP@rl32eGetPCIInfoAtSlot@ 10085b1c     xpcruntime:xpcimports.obj
 0002:00004b38       ??_C@_0CB@BBKIPMLA@rl32eGetPCIInfoAtSlot?5not?5found@ 10085b38     xpcruntime:xpcimports.obj
 0002:00004b60       ??_C@_0BH@OKBOPNFG@xpceAssignPCIInterrupt@ 10085b60     xpcruntime:xpcimports.obj
 0002:00004b7c       ??_C@_0CC@CDNDNJBJ@xpceAssignPCIInterrupt?5not?5foun@ 10085b7c     xpcruntime:xpcimports.obj
 0002:00004ba4       ??_C@_0BD@PCKOKHO@xpceGetSignalValue@ 10085ba4     xpcruntime:xpcimports.obj
 0002:00004bbc       ??_C@_0BO@GCBDJHMB@xpceGetSignalValue?5not?5found?6@ 10085bbc     xpcruntime:xpcimports.obj
 0002:00004be0       ??_C@_0BB@BJONJAGA@xpceSetParameter@ 10085be0     xpcruntime:xpcimports.obj
 0002:00004bf4       ??_C@_0BM@BJIKDLHA@xpceSetParameter?5not?5found?6@ 10085bf4     xpcruntime:xpcimports.obj
 0002:00004c18       ??_C@_0BB@GNFDFMCM@xpceGetParameter@ 10085c18     xpcruntime:xpcimports.obj
 0002:00004c2c       ??_C@_0BM@POHNKBC@xpceGetParameter?5not?5found?6@ 10085c2c     xpcruntime:xpcimports.obj
 0002:00004c50       ??_C@_0BB@CEIJLFCD@xpceGetParamDims@ 10085c50     xpcruntime:xpcimports.obj
 0002:00004c64       ??_C@_0BM@OABDBKAO@xpceGetParamDims?5not?5found?6@ 10085c64     xpcruntime:xpcimports.obj
 0002:00004c88       ??_C@_0L@OCBLLHBM@xpceGetTET@ 10085c88     xpcruntime:xpcimports.obj
 0002:00004c98       ??_C@_0BG@HNOFBOB@xpceGetTET?5not?5found?6@ 10085c98     xpcruntime:xpcimports.obj
 0002:00004cb4       ??_C@_0P@OKGNGAGH@xpcIsModelInit@ 10085cb4     xpcruntime:xpcimports.obj
 0002:00004cc8       ??_C@_0BK@DHEMLBIM@xpcIsModelInit?5not?5found?6@ 10085cc8     xpcruntime:xpcimports.obj
 0002:00004ce8       ??_C@_0BH@KJJLCAOJ@xpcAllocPhysicalMemory@ 10085ce8     xpcruntime:xpcimports.obj
 0002:00004d04       ??_C@_0CC@MOJPNHKL@xpcAllocPhysicalMemory?5not?5foun@ 10085d04     xpcruntime:xpcimports.obj
 0002:00004d2c       ??_C@_0BG@CBNPGAEL@xpcFreePhysicalMemory@ 10085d2c     xpcruntime:xpcimports.obj
 0002:00004d48       ??_C@_0CB@PKJEBPOG@xpcFreePhysicalMemory?5not?5found@ 10085d48     xpcruntime:xpcimports.obj
 0002:00004d70       ??_C@_0BC@JGKNLICL@xpcGetElapsedTime@ 10085d70     xpcruntime:xpcimports.obj
 0002:00004d88       ??_C@_0BN@OEOAHCIO@xpcGetElapsedTime?5not?5found?6@ 10085d88     xpcruntime:xpcimports.obj
 0002:00004dac       ??_C@_0M@ICBLMODA@xpcBusyWait@ 10085dac     xpcruntime:xpcimports.obj
 0002:00004dbc       ??_C@_0BH@FBOPECBI@xpcBusyWait?5not?5found?6@ 10085dbc     xpcruntime:xpcimports.obj
 0002:00004dd8       ??_C@_0N@LKKJEKKA@TBCreateSpin@ 10085dd8     xpcruntime:xpcimports.obj
 0002:00004de8       ??_C@_0BI@FHKMLKOE@TBCreateSpin?5not?5found?6@ 10085de8     xpcruntime:xpcimports.obj
 0002:00004e04       ??_C@_0N@HOAJHNBD@TBDeleteSpin@ 10085e04     xpcruntime:xpcimports.obj
 0002:00004e14       ??_C@_0BI@BKCPAAG@TBDeleteSpin?5not?5found?6@ 10085e14     xpcruntime:xpcimports.obj
 0002:00004e30       ??_C@_0P@DAHDDBJG@TBTakeSpinFast@ 10085e30     xpcruntime:xpcimports.obj
 0002:00004e44       ??_C@_0BK@NKAIBHGB@TBTakeSpinFast?5not?5found?6@ 10085e44     xpcruntime:xpcimports.obj
 0002:00004e64       ??_C@_0P@FKNAAELA@TBGiveSpinFast@ 10085e64     xpcruntime:xpcimports.obj
 0002:00004e78       ??_C@_0BK@KGPJBJND@TBGiveSpinFast?5not?5found?6@ 10085e78     xpcruntime:xpcimports.obj
 0002:00004e98       ??_C@_0BE@IIGBFDHK@xpceCreateSemaphore@ 10085e98     xpcruntime:xpcimports.obj
 0002:00004eb0       ??_C@_0BP@KFBAFFKJ@xpceCreateSemaphore?5not?5found?6@ 10085eb0     xpcruntime:xpcimports.obj
 0002:00004ed8       ??_C@_0BC@IFNIONKJ@xpceWaitSemaphore@ 10085ed8     xpcruntime:xpcimports.obj
 0002:00004ef0       ??_C@_0BN@NMFAADIO@xpceWaitSemaphore?5not?5found?6@ 10085ef0     xpcruntime:xpcimports.obj
 0002:00004f14       ??_C@_0BE@NNDIOBKE@xpceSignalSemaphore@ 10085f14     xpcruntime:xpcimports.obj
 0002:00004f2c       ??_C@_0BP@LBANMHJP@xpceSignalSemaphore?5not?5found?6@ 10085f2c     xpcruntime:xpcimports.obj
 0002:00004f54       ??_C@_0BE@MEBEKOIM@xpceDeleteSemaphore@ 10085f54     xpcruntime:xpcimports.obj
 0002:00004f6c       ??_C@_0BP@OFNCKOJH@xpceDeleteSemaphore?5not?5found?6@ 10085f6c     xpcruntime:xpcimports.obj
 0002:00004f94       ??_C@_0BD@MFNDMBOF@FindUsbVideoDevice@ 10085f94     xpcruntime:xpcimports.obj
 0002:00004fac       ??_C@_0BO@POKLDHMI@FindUsbVideoDevice?5not?5found?6@ 10085fac     xpcruntime:xpcimports.obj
 0002:00004fd0       ??_C@_0BA@PLPAPNAB@GetVideoConfigs@ 10085fd0     xpcruntime:xpcimports.obj
 0002:00004fe4       ??_C@_0BL@DALDHKHC@GetVideoConfigs?5not?5found?6@ 10085fe4     xpcruntime:xpcimports.obj
 0002:00005004       ??_C@_0L@GBAEMHMH@StartVideo@ 10086004     xpcruntime:xpcimports.obj
 0002:00005014       ??_C@_0BG@HDCELEBP@StartVideo?5not?5found?6@ 10086014     xpcruntime:xpcimports.obj
 0002:00005030       ??_C@_0BA@FDNPOCLN@ReadFrameBuffer@ 10086030     xpcruntime:xpcimports.obj
 0002:00005044       ??_C@_0BL@JHGHPNBI@ReadFrameBuffer?5not?5found?6@ 10086044     xpcruntime:xpcimports.obj
 0002:00005064       ??_C@_09FAHCLKAG@StopVideo@ 10086064     xpcruntime:xpcimports.obj
 0002:00005070       ??_C@_0BF@NKGKKADL@StopVideo?5not?5found?6@ 10086070     xpcruntime:xpcimports.obj
 0002:0000508c       ??_C@_0O@MCPKDLLL@ConvertUImage@ 1008608c     xpcruntime:xpcimports.obj
 0002:0000509c       ??_C@_0BJ@PHJKOAFL@ConvertUImage?5not?5found?6@ 1008609c     xpcruntime:xpcimports.obj
 0002:000050bc       ??_C@_0BD@NKCBPBJJ@CreateVideoDisplay@ 100860bc     xpcruntime:xpcimports.obj
 0002:000050d4       ??_C@_0BO@HPPLLNFP@CreateVideoDisplay?5not?5found?6@ 100860d4     xpcruntime:xpcimports.obj
 0002:000050f8       ??_C@_0BE@KJCKGPHA@DestroyVideoDisplay@ 100860f8     xpcruntime:xpcimports.obj
 0002:00005110       ??_C@_0BP@FMGLJAIJ@DestroyVideoDisplay?5not?5found?6@ 10086110     xpcruntime:xpcimports.obj
 0002:00005138       ??_C@_0BC@HCMIMIDN@StartVideoDisplay@ 10086138     xpcruntime:xpcimports.obj
 0002:00005150       ??_C@_0BN@EFIEBGOO@StartVideoDisplay?5not?5found?6@ 10086150     xpcruntime:xpcimports.obj
 0002:00005174       ??_C@_0BB@JBBLMILG@StopVideoDisplay@ 10086174     xpcruntime:xpcimports.obj
 0002:00005188       ??_C@_0BM@DBJBPLEL@StopVideoDisplay?5not?5found?6@ 10086188     xpcruntime:xpcimports.obj
 0002:000051ac       ??_C@_0M@MFJEGMHC@StreamVideo@ 100861ac     xpcruntime:xpcimports.obj
 0002:000051bc       ??_C@_0BH@OINCDMLA@StreamVideo?5not?5found?6@ 100861bc     xpcruntime:xpcimports.obj
 0002:000051d8       ??_C@_0N@IGGLCIGE@xpceaddEvent@ 100861d8     xpcruntime:xpcimports.obj
 0002:000051e8       ??_C@_0BI@NHJNFMKH@xpceaddEvent?5not?5found?6@ 100861e8     xpcruntime:xpcimports.obj
 0002:00005204       ??_C@_0BC@MLJODBHJ@slrtStartProfiler@ 10086204     xpcruntime:xpcimports.obj
 0002:0000521c       ??_C@_0BN@HLNCOKA@slrtStartProfiler?5not?5found?6@ 1008621c     xpcruntime:xpcimports.obj
 0002:00005240       ??_C@_0BB@ONJONMCD@slrtStopProfiler@ 10086240     xpcruntime:xpcimports.obj
 0002:00005254       ??_C@_0BM@GAKJEGBA@slrtStopProfiler?5not?5found?6@ 10086254     xpcruntime:xpcimports.obj
 0002:00005278       ??_C@_0BF@EILBHBBF@slrtGetProfilerState@ 10086278     xpcruntime:xpcimports.obj
 0002:00005294       ??_C@_0CA@EDDFOCLE@slrtGetProfilerState?5not?5found?6@ 10086294     xpcruntime:xpcimports.obj
 0002:000052bc       ??_C@_0BB@HDPOIJAB@xpceDAQPostEvent@ 100862bc     xpcruntime:xpcimports.obj
 0002:000052d0       ??_C@_0BM@IHANBKGN@xpceDAQPostEvent?5not?5found?6@ 100862d0     xpcruntime:xpcimports.obj
 0002:000052f4       ??_C@_0BH@MBACMOD@xpceDAQUpdateTimeStamp@ 100862f4     xpcruntime:xpcimports.obj
 0002:00005310       ??_C@_0CC@DAKBBINL@xpceDAQUpdateTimeStamp?5not?5foun@ 10086310     xpcruntime:xpcimports.obj
 0002:00005338       ??_C@_0BD@HLALHPHI@slrtRegisterSignal@ 10086338     xpcruntime:xpcimports.obj
 0002:00005350       ??_C@_0BO@BALEBHKF@slrtRegisterSignal?5not?5found?6@ 10086350     xpcruntime:xpcimports.obj
 0002:00005374       ??_C@_0O@DKILEOIJ@slrtLogSignal@ 10086374     xpcruntime:xpcimports.obj
 0002:00005384       ??_C@_0BJ@FMKKIEDD@slrtLogSignal?5not?5found?6@ 10086384     xpcruntime:xpcimports.obj
 0002:000053a4       ??_C@_0BG@CCHICKPN@slrteSetStepSizeDelta@ 100863a4     xpcruntime:xpcimports.obj
 0002:000053c0       ??_C@_0CB@MKHINEIJ@slrteSetStepSizeDelta?5not?5found@ 100863c0     xpcruntime:xpcimports.obj
 0002:000053e8       ??_C@_0BI@CLNBLDKJ@slrteGetCurrentStepSize@ 100863e8     xpcruntime:xpcimports.obj
 0002:00005404       ??_C@_0CD@GIOJPGJA@slrteGetCurrentStepSize?5not?5fou@ 10086404     xpcruntime:xpcimports.obj
 0002:00005430       ??_C@_0BE@FCLCBOC@registerPTPTimeRead@ 10086430     xpcruntime:xpcimports.obj
 0002:00005448       ??_C@_0BP@LHPKAJIP@registerPTPTimeRead?5not?5found?6@ 10086448     xpcruntime:xpcimports.obj
 0002:00005470       ??_C@_0BG@KIGCDDJI@unRegisterPTPTimeRead@ 10086470     xpcruntime:xpcimports.obj
 0002:0000548c       ??_C@_0CB@MLFFBFCM@unRegisterPTPTimeRead?5not?5found@ 1008648c     xpcruntime:xpcimports.obj
 0002:000054b4       ??_C@_0BB@IPMDDBHK@slTestInitialize@ 100864b4     xpcruntime:xpcimports.obj
 0002:000054c8       ??_C@_0BM@LAJFCCJH@slTestInitialize?5not?5found?6@ 100864c8     xpcruntime:xpcimports.obj
 0002:000054ec       ??_C@_0BF@OOMPMEBC@slTestLogAssessments@ 100864ec     xpcruntime:xpcimports.obj
 0002:00005508       ??_C@_0CA@FGJCEBAG@slTestLogAssessments?5not?5found?6@ 10086508     xpcruntime:xpcimports.obj
 0002:00005530       ??_C@_0BB@HJHKONHO@slTestEvalOnFail@ 10086530     xpcruntime:xpcimports.obj
 0002:00005544       ??_C@_0BM@JIKCFFNJ@slTestEvalOnFail?5not?5found?6@ 10086544     xpcruntime:xpcimports.obj
 0002:00005568       ??_C@_0BA@LBHLABFP@slTestTerminate@ 10086568     xpcruntime:xpcimports.obj
 0002:0000557c       ??_C@_0BL@EMFGKAPA@slTestTerminate?5not?5found?6@ 1008657c     xpcruntime:xpcimports.obj
 0002:0000559c       ??_C@_0BE@JPNPBBEO@slTestRegAssessment@ 1008659c     xpcruntime:xpcimports.obj
 0002:000055b4       ??_C@_0BP@FBDEJJJH@slTestRegAssessment?5not?5found?6@ 100865b4     xpcruntime:xpcimports.obj
 0002:000055dc       ??_C@_0O@NCLGDNIB@slrteSetupMSI@ 100865dc     xpcruntime:xpcimports.obj
 0002:000055ec       ??_C@_0BJ@HEFMECLM@slrteSetupMSI?5not?5found?6@ 100865ec     xpcruntime:xpcimports.obj
 0002:0000560c       ??_C@_0BH@BPOLALHD@slrtGetCRBScratchSpace@ 1008660c     xpcruntime:xpcimports.obj
 0002:00005628       ??_C@_0CC@KCKAJKKJ@slrtGetCRBScratchSpace?5not?5foun@ 10086628     xpcruntime:xpcimports.obj
 0002:00005650       ??_C@_0BC@MKFDAKOL@slrtGetSgCRBSpace@ 10086650     xpcruntime:xpcimports.obj
 0002:00005668       ??_C@_0BN@JDPHPLHL@slrtGetSgCRBSpace?5not?5found?6@ 10086668     xpcruntime:xpcimports.obj
 0002:0000568c       ??_C@_0P@EPAPKLIF@slrtfsOpenFile@ 1008668c     xpcruntime:xpcimports.obj
 0002:000056a0       ??_C@_0BK@FIHCBOHG@slrtfsOpenFile?5not?5found?6@ 100866a0     xpcruntime:xpcimports.obj
 0002:000056c0       ??_C@_0BA@LILAFDDL@slrtfsCloseFile@ 100866c0     xpcruntime:xpcimports.obj
 0002:000056d4       ??_C@_0BL@DEGHJFIB@slrtfsCloseFile?5not?5found?6@ 100866d4     xpcruntime:xpcimports.obj
 0002:000056f4       ??_C@_0BC@OKMJDIEH@slrtfsWriteToFile@ 100866f4     xpcruntime:xpcimports.obj
 0002:0000570c       ??_C@_0BN@KCFLCLAH@slrtfsWriteToFile?5not?5found?6@ 1008670c     xpcruntime:xpcimports.obj
 0002:00005730       ??_C@_0BK@GIPNFFFF@slrtfsGetFileErrorMessage@ 10086730     xpcruntime:xpcimports.obj
 0002:00005750       ??_C@_0CF@BCBLMKLE@slrtfsGetFileErrorMessage?5not?5f@ 10086750     xpcruntime:xpcimports.obj
 0002:0000577c       ??_C@_0BD@ICBOKMK@slrtfsGetFileError@ 1008677c     xpcruntime:xpcimports.obj
 0002:00005794       ??_C@_0BO@FNBANAE@slrtfsGetFileError?5not?5found?6@ 10086794     xpcruntime:xpcimports.obj
 0002:000057b8       ??_C@_0BE@PPAJMHJP@slrtfsOpenFileAsync@ 100867b8     xpcruntime:xpcimports.obj
 0002:000057d0       ??_C@_0BP@HKBMMJOK@slrtfsOpenFileAsync?5not?5found?6@ 100867d0     xpcruntime:xpcimports.obj
 0002:000057f8       ??_C@_0BF@IGNDIBPF@slrtfsCloseFileAsync@ 100867f8     xpcruntime:xpcimports.obj
 0002:00005814       ??_C@_0CA@GJPFDBKN@slrtfsCloseFileAsync?5not?5found?6@ 10086814     xpcruntime:xpcimports.obj
 0002:0000583c       ??_C@_0BE@IOLEBNB@slrtfsGetFileStatus@ 1008683c     xpcruntime:xpcimports.obj
 0002:00005854       ??_C@_0BP@PEFHDGHL@slrtfsGetFileStatus?5not?5found?6@ 10086854     xpcruntime:xpcimports.obj
 0002:0000587c       ??_C@_0M@HKIJIMG@slrtfsFread@ 1008687c     xpcruntime:xpcimports.obj
 0002:0000588c       ??_C@_0BH@OOKBGONO@slrtfsFread?5not?5found?6@ 1008688c     xpcruntime:xpcimports.obj
 0002:000058a8       ??_C@_0BE@OGCMPLAP@slrtGetDefaultDrive@ 100868a8     xpcruntime:xpcimports.obj
 0002:000058c0       ??_C@_0BP@HKFGLHOE@slrtGetDefaultDrive?5not?5found?6@ 100868c0     xpcruntime:xpcimports.obj
 0002:000058e8       ??_C@_0N@NAJIKFFI@slrtLogEvent@ 100868e8     xpcruntime:xpcimports.obj
 0002:000058f8       ??_C@_0BI@NKCEACND@slrtLogEvent?5not?5found?6@ 100868f8     xpcruntime:xpcimports.obj
 0002:00005914       ??_C@_0N@IDKFJOHI@getlasterror@ 10086914     xpcruntime:xpcimports.obj
 0002:00005924       ??_C@_0BI@MIHMCHGL@getlasterror?5not?5found?6@ 10086924     xpcruntime:xpcimports.obj
 0002:00005940       ??_C@_0P@OKHGKJKN@geterrorstring@ 10086940     xpcruntime:xpcimports.obj
 0002:00005954       ??_C@_0BK@NOHFDMLP@geterrorstring?5not?5found?6@ 10086954     xpcruntime:xpcimports.obj
 0002:00005974       ??_C@_0BD@HNFFKMGJ@slrtGetCPUTCelsius@ 10086974     xpcruntime:xpcimports.obj
 0002:0000598c       ??_C@_0BO@LHBFKLIH@slrtGetCPUTCelsius?5not?5found?6@ 1008698c     xpcruntime:xpcimports.obj
 0002:000059b0       ??_C@_0M@OONCNCLM@slrtWarning@ 100869b0     xpcruntime:xpcimports.obj
 0002:000059c0       ??_C@_0BH@ICKGIEMB@slrtWarning?5not?5found?6@ 100869c0     xpcruntime:xpcimports.obj
 0002:000059dc       ??_C@_0M@JACEPOPN@registerNIC@ 100869dc     xpcruntime:xpcimports.obj
 0002:000059ec       ??_C@_0BH@JMDHJIAC@registerNIC?5not?5found?6@ 100869ec     xpcruntime:xpcimports.obj
 0002:00005a08       ??_C@_0M@KBKHECFH@NICSetIface@ 10086a08     xpcruntime:xpcimports.obj
 0002:00005a18       ??_C@_0BH@NJAHOBA@NICSetIface?5not?5found?6@ 10086a18     xpcruntime:xpcimports.obj
 0002:00005a34       ??_C@_0M@FAILFBCK@NICGetIface@ 10086a34     xpcruntime:xpcimports.obj
 0002:00005a44       ??_C@_0BH@KDLLDOGM@NICGetIface?5not?5found?6@ 10086a44     xpcruntime:xpcimports.obj
 0002:00005a60       ??_C@_0L@JNFPDPO@releaseNIC@ 10086a60     xpcruntime:xpcimports.obj
 0002:00005a70       ??_C@_0BG@EBGJANLA@releaseNIC?5not?5found?6@ 10086a70     xpcruntime:xpcimports.obj
 0002:00005a8c       ??_C@_0BC@HLDKJAG@SetIPTASKPriority@ 10086a8c     xpcruntime:xpcimports.obj
 0002:00005aa4       ??_C@_0BN@OGKMHHAE@SetIPTASKPriority?5not?5found?6@ 10086aa4     xpcruntime:xpcimports.obj
 0002:00005ac8       ??_C@_0O@LHENMBDD@OpenInterface@ 10086ac8     xpcruntime:xpcimports.obj
 0002:00005ad8       ??_C@_0BJ@PFGDBKHB@OpenInterface?5not?5found?6@ 10086ad8     xpcruntime:xpcimports.obj
 0002:00005af8       ??_C@_0P@IINFELKD@CloseInterface@ 10086af8     xpcruntime:xpcimports.obj
 0002:00005b0c       ??_C@_0BK@PAPDNDBK@CloseInterface?5not?5found?6@ 10086b0c     xpcruntime:xpcimports.obj
 0002:00005b2c       ??_C@_05LEFIAAOI@SetIP@    10086b2c     xpcruntime:xpcimports.obj
 0002:00005b34       ??_C@_0BB@CGLIBAMM@SetIP?5not?5found?6@ 10086b34     xpcruntime:xpcimports.obj
 0002:00005b48       ??_C@_0BA@HIJJHHMD@AddGatewayRoute@ 10086b48     xpcruntime:xpcimports.obj
 0002:00005b5c       ??_C@_0BL@BFCFMDMN@AddGatewayRoute?5not?5found?6@ 10086b5c     xpcruntime:xpcimports.obj
 0002:00005b7c       ??_C@_0BC@OGIEOMEH@AddMulticastRoute@ 10086b7c     xpcruntime:xpcimports.obj
 0002:00005b94       ??_C@_0BN@IMNDPFCL@AddMulticastRoute?5not?5found?6@ 10086b94     xpcruntime:xpcimports.obj
 0002:00005bb8       ??_C@_0M@PHMABFPI@DeleteRoute@ 10086bb8     xpcruntime:xpcimports.obj
 0002:00005bc8       ??_C@_0BH@JPJGLLID@DeleteRoute?5not?5found?6@ 10086bc8     xpcruntime:xpcimports.obj
 0002:00005be4       ??_C@_0BA@FCDIMKIJ@GetHostTarIPAdd@ 10086be4     xpcruntime:xpcimports.obj
 0002:00005bf8       ??_C@_0BL@MBKDGKBO@GetHostTarIPAdd?5not?5found?6@ 10086bf8     xpcruntime:xpcimports.obj
 0002:00005c18       ??_C@_0M@HPMIPIBI@GetDCUUsage@ 10086c18     xpcruntime:xpcimports.obj
 0002:00005c28       ??_C@_0BH@EBLJKCJC@GetDCUUsage?5not?5found?6@ 10086c28     xpcruntime:xpcimports.obj
 0002:00005c44       ??_C@_06MPKMECK@accept@    10086c44     xpcruntime:xpcimports.obj
 0002:00005c4c       ??_C@_0BC@GBGIEMNO@accept?5not?5found?6@ 10086c4c     xpcruntime:xpcimports.obj
 0002:00005c64       ??_C@_04NPNJNMMP@bind@     10086c64     xpcruntime:xpcimports.obj
 0002:00005c6c       ??_C@_0BA@DAJNENLO@bind?5not?5found?6@ 10086c6c     xpcruntime:xpcimports.obj
 0002:00005c80       ??_C@_0L@CKHNIFCM@setsockopt@ 10086c80     xpcruntime:xpcimports.obj
 0002:00005c90       ??_C@_0BG@MFIIOMFE@setsockopt?5not?5found?6@ 10086c90     xpcruntime:xpcimports.obj
 0002:00005cac       ??_C@_0M@ODDJDCDK@closesocket@ 10086cac     xpcruntime:xpcimports.obj
 0002:00005cbc       ??_C@_0BH@JHGHMIL@closesocket?5not?5found?6@ 10086cbc     xpcruntime:xpcimports.obj
 0002:00005cd8       ??_C@_07KAIBNCHO@connect@  10086cd8     xpcruntime:xpcimports.obj
 0002:00005ce4       ??_C@_0BD@MKLLMBM@connect?5not?5found?6@ 10086ce4     xpcruntime:xpcimports.obj
 0002:00005cfc       ??_C@_0M@PBPOCKDG@ioctlsocket@ 10086cfc     xpcruntime:xpcimports.obj
 0002:00005d0c       ??_C@_0BH@NFCNHHIH@ioctlsocket?5not?5found?6@ 10086d0c     xpcruntime:xpcimports.obj
 0002:00005d28       ??_C@_06OODDLKLE@listen@   10086d28     xpcruntime:xpcimports.obj
 0002:00005d30       ??_C@_0BC@NHBILEKI@listen?5not?5found?6@ 10086d30     xpcruntime:xpcimports.obj
 0002:00005d48       ??_C@_08HMBBGFHE@recvfrom@ 10086d48     xpcruntime:xpcimports.obj
 0002:00005d54       ??_C@_0BE@BJAJFFLF@recvfrom?5not?5found?6@ 10086d54     xpcruntime:xpcimports.obj
 0002:00005d6c       ??_C@_06MEPBGKEC@sendto@   10086d6c     xpcruntime:xpcimports.obj
 0002:00005d74       ??_C@_0BC@BHPIMDJO@sendto?5not?5found?6@ 10086d74     xpcruntime:xpcimports.obj
 0002:00005d8c       ??_C@_09JKBDEEOB@inet_addr@ 10086d8c     xpcruntime:xpcimports.obj
 0002:00005d98       ??_C@_0BF@HKJPGECN@inet_addr?5not?5found?6@ 10086d98     xpcruntime:xpcimports.obj
 0002:00005db4       ??_C@_06HBELJPBO@socket@   10086db4     xpcruntime:xpcimports.obj
 0002:00005dbc       ??_C@_0BC@NAGFFJGA@socket?5not?5found?6@ 10086dbc     xpcruntime:xpcimports.obj
 0002:00005dd4       ??_C@_09ICJIFGNC@GetSocket@ 10086dd4     xpcruntime:xpcimports.obj
 0002:00005de0       ??_C@_0BF@KDBCKMOJ@GetSocket?5not?5found?6@ 10086de0     xpcruntime:xpcimports.obj
 0002:00005dfc       ??_C@_0P@KJEGJMJI@GetSocketState@ 10086dfc     xpcruntime:xpcimports.obj
 0002:00005e10       ??_C@_0BK@IALBJHEB@GetSocketState?5not?5found?6@ 10086e10     xpcruntime:xpcimports.obj
 0002:00005e30       ??_C@_0L@MEAJHNHB@SocketSend@ 10086e30     xpcruntime:xpcimports.obj
 0002:00005e40       ??_C@_0BG@EOCMBFJA@SocketSend?5not?5found?6@ 10086e40     xpcruntime:xpcimports.obj
 0002:00005e5c       ??_C@_0O@PFPCLEMF@SocketReceive@ 10086e5c     xpcruntime:xpcimports.obj
 0002:00005e6c       ??_C@_0BJ@HIBADDFO@SocketReceive?5not?5found?6@ 10086e6c     xpcruntime:xpcimports.obj
 0002:00005e8c       ??_C@_0BD@OOGFNAIK@CreateServerSocket@ 10086e8c     xpcruntime:xpcimports.obj
 0002:00005ea4       ??_C@_0BO@GKIJHIPH@CreateServerSocket?5not?5found?6@ 10086ea4     xpcruntime:xpcimports.obj
 0002:00005ec8       ??_C@_0BB@KGHJGFFO@OpenServerListen@ 10086ec8     xpcruntime:xpcimports.obj
 0002:00005edc       ??_C@_0BM@NFMMLIO@OpenServerListen?5not?5found?6@ 10086edc     xpcruntime:xpcimports.obj
 0002:00005f00       ??_C@_0BE@BAJLDJAH@ConnectServerSocket@ 10086f00     xpcruntime:xpcimports.obj
 0002:00005f18       ??_C@_0BP@KJNODIKE@ConnectServerSocket?5not?5found?6@ 10086f18     xpcruntime:xpcimports.obj
 0002:00005f40       ??_C@_0BC@PLKKJDIM@CloseServerSocket@ 10086f40     xpcruntime:xpcimports.obj
 0002:00005f58       ??_C@_0BN@KEJEPNMB@CloseServerSocket?5not?5found?6@ 10086f58     xpcruntime:xpcimports.obj
 0002:00005f7c       ??_C@_0BC@IHMNIGFJ@ResetServerSocket@ 10086f7c     xpcruntime:xpcimports.obj
 0002:00005f94       ??_C@_0BN@NIOGJLCG@ResetServerSocket?5not?5found?6@ 10086f94     xpcruntime:xpcimports.obj
 0002:00005fb8       ??_C@_0BD@MCLPKCPP@CreateClientSocket@ 10086fb8     xpcruntime:xpcimports.obj
 0002:00005fd0       ??_C@_0BO@DILAGPFN@CreateClientSocket?5not?5found?6@ 10086fd0     xpcruntime:xpcimports.obj
 0002:00005ff4       ??_C@_0BB@DAPKNNLG@BindClientSocket@ 10086ff4     xpcruntime:xpcimports.obj
 0002:00006008       ??_C@_0BM@LLLMMDFN@BindClientSocket?5not?5found?6@ 10087008     xpcruntime:xpcimports.obj
 0002:0000602c       ??_C@_0BE@DMEBELHC@ConnectClientSocket@ 1008702c     xpcruntime:xpcimports.obj
 0002:00006044       ??_C@_0BP@PLOHCPAO@ConnectClientSocket?5not?5found?6@ 10087044     xpcruntime:xpcimports.obj
 0002:0000606c       ??_C@_0BC@NHHAOBPJ@CloseClientSocket@ 1008706c     xpcruntime:xpcimports.obj
 0002:00006084       ??_C@_0BN@PGKNOKGL@CloseClientSocket?5not?5found?6@ 10087084     xpcruntime:xpcimports.obj
 0002:000060a8       ??_C@_0BC@KLBHPECM@ResetClientSocket@ 100870a8     xpcruntime:xpcimports.obj
 0002:000060c0       ??_C@_0BN@IKNPIMIM@ResetClientSocket?5not?5found?6@ 100870c0     xpcruntime:xpcimports.obj
 0002:000060e4       ??_C@_0M@IJOPFCCE@UDPOpenSend@ 100870e4     xpcruntime:xpcimports.obj
 0002:000060f4       ??_C@_0BH@CCHBDPG@UDPOpenSend?5not?5found?6@ 100870f4     xpcruntime:xpcimports.obj
 0002:00006110       ??_C@_0P@MEPACHPD@UDPOpenReceive@ 10087110     xpcruntime:xpcimports.obj
 0002:00006124       ??_C@_0BK@PFMCPKIO@UDPOpenReceive?5not?5found?6@ 10087124     xpcruntime:xpcimports.obj
 0002:00006144       ??_C@_0BK@BGNLEHGA@UDPAddMulticastMembership@ 10087144     xpcruntime:xpcimports.obj
 0002:00006164       ??_C@_0CF@CAEMAELE@UDPAddMulticastMembership?5not?5f@ 10087164     xpcruntime:xpcimports.obj
 0002:00006190       ??_C@_0N@NMMOLOEM@UDPCloseSend@ 10087190     xpcruntime:xpcimports.obj
 0002:000061a0       ??_C@_0BI@ENKCOCDG@UDPCloseSend?5not?5found?6@ 100871a0     xpcruntime:xpcimports.obj
 0002:000061bc       ??_C@_0BA@DMJGBBIA@UDPCloseReceive@ 100871bc     xpcruntime:xpcimports.obj
 0002:000061d0       ??_C@_0BL@PEBIMLNC@UDPCloseReceive?5not?5found?6@ 100871d0     xpcruntime:xpcimports.obj
 0002:000061f0       ??_C@_0P@NPOCJKPL@registerDFTask@ 100871f0     xpcruntime:xpcimports.obj
 0002:00006204       ??_C@_0BK@JHOOFMMI@registerDFTask?5not?5found?6@ 10087204     xpcruntime:xpcimports.obj
 0002:00006224       ??_C@_0BB@ICCLEIPB@deregisterDFTask@ 10087224     xpcruntime:xpcimports.obj
 0002:00006238       ??_C@_0BM@PEOCAIDM@deregisterDFTask?5not?5found?6@ 10087238     xpcruntime:xpcimports.obj
 0002:0000625c       ??_C@_0O@PHHDMOJH@triggerDFTask@ 1008725c     xpcruntime:xpcimports.obj
 0002:0000626c       ??_C@_0BJ@IKKCFBJL@triggerDFTask?5not?5found?6@ 1008726c     xpcruntime:xpcimports.obj
 0002:0000628c       ??_C@_0O@IAHKGBOC@waitForDFTask@ 1008728c     xpcruntime:xpcimports.obj
 0002:0000629c       ??_C@_0BJ@FHLCNAKE@waitForDFTask?5not?5found?6@ 1008729c     xpcruntime:xpcimports.obj
 0002:00006368       __pDefaultRawDllMain       10087368     LIBCMT:dll_dllmain.obj
 0002:00006368       __pRawDllMain              10087368     LIBCMT:dll_dllmain.obj
 0002:00006560       ??_C@_08EHJDFFNH@__based?$CI@ 10087560     libvcruntime:undname.obj
 0002:0000656c       ??_C@_07KOLFKCDI@__cdecl@  1008756c     libvcruntime:undname.obj
 0002:00006578       ??_C@_08GHMPAG@__pascal@   10087578     libvcruntime:undname.obj
 0002:00006584       ??_C@_09IFJBGAPI@__stdcall@ 10087584     libvcruntime:undname.obj
 0002:00006590       ??_C@_0L@NPHFGOKO@__thiscall@ 10087590     libvcruntime:undname.obj
 0002:000065a0       ??_C@_0L@JMKHOMEK@__fastcall@ 100875a0     libvcruntime:undname.obj
 0002:000065b0       ??_C@_0N@BCKKPABJ@__vectorcall@ 100875b0     libvcruntime:undname.obj
 0002:000065c0       ??_C@_09HIJEGCPM@__clrcall@ 100875c0     libvcruntime:undname.obj
 0002:000065cc       ??_C@_06GHPCKEAG@__eabi@   100875cc     libvcruntime:undname.obj
 0002:000065d4       ??_C@_09IOPIDJLG@__swift_1@ 100875d4     libvcruntime:undname.obj
 0002:000065e0       ??_C@_09KFNFGKHF@__swift_2@ 100875e0     libvcruntime:undname.obj
 0002:000065ec       ??_C@_07JOMMBBKO@__ptr64@  100875ec     libvcruntime:undname.obj
 0002:000065f8       ??_C@_0L@PILCLIHE@__restrict@ 100875f8     libvcruntime:undname.obj
 0002:00006608       ??_C@_0M@GFIIJFMG@__unaligned@ 10087608     libvcruntime:undname.obj
 0002:00006618       ??_C@_09DHDLOLLB@restrict?$CI@ 10087618     libvcruntime:undname.obj
 0002:00006624       ??_C@_04NIHEBCM@?5new@     10087624     libvcruntime:undname.obj
 0002:0000662c       ??_C@_07FPCDHGMM@?5delete@ 1008762c     libvcruntime:undname.obj
 0002:00006638       ??_C@_01NEMOKFLO@?$DN@     10087638     libvcruntime:undname.obj
 0002:0000663c       ??_C@_02GPIOPFAK@?$DO?$DO@ 1008763c     libvcruntime:undname.obj
 0002:00006640       ??_C@_02FODMEDOG@?$DM?$DM@ 10087640     libvcruntime:undname.obj
 0002:00006644       ??_C@_01DCLJPIOD@?$CB@     10087644     libvcruntime:undname.obj
 0002:00006648       ??_C@_02EGOFBIJA@?$DN?$DN@ 10087648     libvcruntime:undname.obj
 0002:0000664c       ??_C@_02FDNJECIE@?$CB?$DN@ 1008764c     libvcruntime:undname.obj
 0002:00006650       ??_C@_02GPECMEKF@?$FL?$FN@ 10087650     libvcruntime:undname.obj
 0002:00006654       ??_C@_08LHJFAFGD@operator@ 10087654     libvcruntime:undname.obj
 0002:00006660       ??_C@_02HBOOOICD@?9?$DO@   10087660     libvcruntime:undname.obj
 0002:00006664       ??_C@_01NBENCBCI@?$CK@     10087664     libvcruntime:undname.obj
 0002:00006668       ??_C@_02ECNGHCIF@?$CL?$CL@ 10087668     libvcruntime:undname.obj
 0002:0000666c       ??_C@_02BAABKJLB@?9?9@     1008766c     libvcruntime:undname.obj
 0002:00006670       ??_C@_01JOAMLHOP@?9@       10087670     libvcruntime:undname.obj
 0002:00006674       ??_C@_01MIFGBAGJ@?$CL@     10087674     libvcruntime:undname.obj
 0002:00006678       ??_C@_01HNPIGOCE@?$CG@     10087678     libvcruntime:undname.obj
 0002:0000667c       ??_C@_03MNHNFDLC@?9?$DO?$CK@ 1008767c     libvcruntime:undname.obj
 0002:00006680       ??_C@_01KMDKNFGN@?1@       10087680     libvcruntime:undname.obj
 0002:00006684       ??_C@_01FGNFDNOH@?$CF@     10087684     libvcruntime:undname.obj
 0002:00006688       ??_C@_01MNNFJEPP@?$DM@     10087688     libvcruntime:undname.obj
 0002:0000668c       ??_C@_02EHCHHCKH@?$DM?$DN@ 1008768c     libvcruntime:undname.obj
 0002:00006690       ??_C@_01PPODPGHN@?$DO@     10087690     libvcruntime:undname.obj
 0002:00006694       ??_C@_02EEKDKGMJ@?$DO?$DN@ 10087694     libvcruntime:undname.obj
 0002:00006698       ??_C@_01IHBHIGKO@?0@       10087698     libvcruntime:undname.obj
 0002:0000669c       ??_C@_02HCKGKOFO@?$CI?$CJ@ 1008769c     libvcruntime:undname.obj
 0002:000066a0       ??_C@_01PJKLJHI@?$HO@      100876a0     libvcruntime:undname.obj
 0002:000066a4       ??_C@_01JKBOJNNK@?$FO@     100876a4     libvcruntime:undname.obj
 0002:000066a8       ??_C@_02PPKAJPJL@?$CG?$CG@ 100876a8     libvcruntime:undname.obj
 0002:000066ac       ??_C@_02NONPIBCD@?$HM?$HM@ 100876ac     libvcruntime:undname.obj
 0002:000066b0       ??_C@_02FPIMKNGF@?$CK?$DN@ 100876b0     libvcruntime:undname.obj
 0002:000066b4       ??_C@_02FOEOMHFC@?$CL?$DN@ 100876b4     libvcruntime:undname.obj
 0002:000066b8       ??_C@_02FKMDLLOA@?9?$DN@   100876b8     libvcruntime:undname.obj
 0002:000066bc       ??_C@_02FJEHGPIO@?1?$DN@   100876bc     libvcruntime:undname.obj
 0002:000066c0       ??_C@_02FENAOKFI@?$CF?$DN@ 100876c0     libvcruntime:undname.obj
 0002:000066c4       ??_C@_03IKFCCPFF@?$DO?$DO?$DN@ 100876c4     libvcruntime:undname.obj
 0002:000066c8       ??_C@_03CDNPDDLA@?$DM?$DM?$DN@ 100876c8     libvcruntime:undname.obj
 0002:000066cc       ??_C@_02FGJGFEAB@?$CG?$DN@ 100876cc     libvcruntime:undname.obj
 0002:000066d0       ??_C@_02DHLNPPGH@?$HM?$DN@ 100876d0     libvcruntime:undname.obj
 0002:000066d4       ??_C@_02MHEGNOJ@?$FO?$DN@  100876d4     libvcruntime:undname.obj
 0002:000066d8       ??_C@_09IFPLHPGF@?$GAvftable?8@ 100876d8     libvcruntime:undname.obj
 0002:000066e4       ??_C@_09BLBHBJP@?$GAvbtable?8@ 100876e4     libvcruntime:undname.obj
 0002:000066f0       ??_C@_07FEEIOKP@?$GAvcall?8@ 100876f0     libvcruntime:undname.obj
 0002:000066fc       ??_C@_08LLFFHHDJ@?$GAtypeof?8@ 100876fc     libvcruntime:undname.obj
 0002:00006708       ??_C@_0BF@KDPPACIK@?$GAlocal?5static?5guard?8@ 10087708     libvcruntime:undname.obj
 0002:00006724       ??_C@_08OBABFOLI@?$GAstring?8@ 10087724     libvcruntime:undname.obj
 0002:00006730       ??_C@_0BD@JDLKDPAB@?$GAvbase?5destructor?8@ 10087730     libvcruntime:undname.obj
 0002:00006748       ??_C@_0BN@DEGPLNFK@?$GAvector?5deleting?5destructor?8@ 10087748     libvcruntime:undname.obj
 0002:0000676c       ??_C@_0BO@OBMKPJIG@?$GAdefault?5constructor?5closure?8@ 1008776c     libvcruntime:undname.obj
 0002:00006790       ??_C@_0BN@IMDCHIKM@?$GAscalar?5deleting?5destructor?8@ 10087790     libvcruntime:undname.obj
 0002:000067b4       ??_C@_0BO@PFGOCPJJ@?$GAvector?5constructor?5iterator?8@ 100877b4     libvcruntime:undname.obj
 0002:000067d8       ??_C@_0BN@LFPFMEDL@?$GAvector?5destructor?5iterator?8@ 100877d8     libvcruntime:undname.obj
 0002:000067fc       ??_C@_0CE@IKBNEHA@?$GAvector?5vbase?5constructor?5itera@ 100877fc     libvcruntime:undname.obj
 0002:00006828       ??_C@_0BL@NILFHHPC@?$GAvirtual?5displacement?5map?8@ 10087828     libvcruntime:undname.obj
 0002:00006848       ??_C@_0CB@JONCMFFK@?$GAeh?5vector?5constructor?5iterator@ 10087848     libvcruntime:undname.obj
 0002:00006870       ??_C@_0CA@GCEOPDGL@?$GAeh?5vector?5destructor?5iterator?8@ 10087870     libvcruntime:undname.obj
 0002:00006898       ??_C@_0CH@OOJPLCPH@?$GAeh?5vector?5vbase?5constructor?5it@ 10087898     libvcruntime:undname.obj
 0002:000068c8       ??_C@_0BL@LLKPOHJI@?$GAcopy?5constructor?5closure?8@ 100878c8     libvcruntime:undname.obj
 0002:000068e8       ??_C@_0BA@KBCDOMBN@?$GAudt?5returning?8@ 100878e8     libvcruntime:undname.obj
 0002:000068fc       ??_C@_03KLGMFNMG@?$GAEH@   100878fc     libvcruntime:undname.obj
 0002:00006900       ??_C@_05KHLCHHI@?$GARTTI@  10087900     libvcruntime:undname.obj
 0002:00006908       ??_C@_0BA@KKLDJDLB@?$GAlocal?5vftable?8@ 10087908     libvcruntime:undname.obj
 0002:0000691c       ??_C@_0CE@IIHCMGGL@?$GAlocal?5vftable?5constructor?5clos@ 1008791c     libvcruntime:undname.obj
 0002:00006948       ??_C@_06FHBGPFGH@?5new?$FL?$FN@ 10087948     libvcruntime:undname.obj
 0002:00006950       ??_C@_09LBNFPBCA@?5delete?$FL?$FN@ 10087950     libvcruntime:undname.obj
 0002:0000695c       ??_C@_0P@HJKNJFNN@?$GAomni?5callsig?8@ 1008795c     libvcruntime:undname.obj
 0002:00006970       ??_C@_0BL@CNOONJFP@?$GAplacement?5delete?5closure?8@ 10087970     libvcruntime:undname.obj
 0002:00006990       ??_C@_0BN@CKNJLHMB@?$GAplacement?5delete?$FL?$FN?5closure?8@ 10087990     libvcruntime:undname.obj
 0002:000069b4       ??_C@_0CG@CFDHKGGD@?$GAmanaged?5vector?5constructor?5ite@ 100879b4     libvcruntime:undname.obj
 0002:000069e4       ??_C@_0CF@IMGKMJNO@?$GAmanaged?5vector?5destructor?5iter@ 100879e4     libvcruntime:undname.obj
 0002:00006a10       ??_C@_0CG@HLDDJMAG@?$GAeh?5vector?5copy?5constructor?5ite@ 10087a10     libvcruntime:undname.obj
 0002:00006a40       ??_C@_0CM@FCBBDIGB@?$GAeh?5vector?5vbase?5copy?5construct@ 10087a40     libvcruntime:undname.obj
 0002:00006a74       ??_C@_0BL@CLIPGLGB@?$GAdynamic?5initializer?5for?5?8@ 10087a74     libvcruntime:undname.obj
 0002:00006a94       ??_C@_0CB@PDBIFEP@?$GAdynamic?5atexit?5destructor?5for?5@ 10087a94     libvcruntime:undname.obj
 0002:00006abc       ??_C@_0CD@CGAJBKEJ@?$GAvector?5copy?5constructor?5iterat@ 10087abc     libvcruntime:undname.obj
 0002:00006ae8       ??_C@_0CJ@GJELGAMM@?$GAvector?5vbase?5copy?5constructor?5@ 10087ae8     libvcruntime:undname.obj
 0002:00006b1c       ??_C@_0CL@FGIJHLCE@?$GAmanaged?5vector?5copy?5constructo@ 10087b1c     libvcruntime:undname.obj
 0002:00006b50       ??_C@_0BM@PMGGMLDN@?$GAlocal?5static?5thread?5guard?8@ 10087b50     libvcruntime:undname.obj
 0002:00006b74       ??_C@_0N@BDNMDMOL@operator?5?$CC?$CC?5@ 10087b74     libvcruntime:undname.obj
 0002:00006b84       ??_C@_0BC@GGEBGALA@operator?5co_await@ 10087b84     libvcruntime:undname.obj
 0002:00006b9c       ??_C@_0BC@DAFEJGAK@?5Type?5Descriptor?8@ 10087b9c     libvcruntime:undname.obj
 0002:00006bb4       ??_C@_0BM@LDKODKLH@?5Base?5Class?5Descriptor?5at?5?$CI@ 10087bb4     libvcruntime:undname.obj
 0002:00006bd8       ??_C@_0BD@LGICGFMM@?5Base?5Class?5Array?8@ 10087bd8     libvcruntime:undname.obj
 0002:00006bf0       ??_C@_0BN@MECKDCOJ@?5Class?5Hierarchy?5Descriptor?8@ 10087bf0     libvcruntime:undname.obj
 0002:00006c14       ??_C@_0BK@CFCOFLF@?5Complete?5Object?5Locator?8@ 10087c14     libvcruntime:undname.obj
 0002:00006c34       ??_C@_04HEJADOOB@CV?3?5@   10087c34     libvcruntime:undname.obj
 0002:00006c3c       ??_C@_02MOLJINC@?3?3@      10087c3c     libvcruntime:undname.obj
 0002:00006c40       ??_C@_0BE@JAEOCHPE@template?9parameter?9@ 10087c40     libvcruntime:undname.obj
 0002:00006c58       ??_C@_0O@KHGCOMHP@generic?9type?9@ 10087c58     libvcruntime:undname.obj
 0002:00006c68       ??_C@_01NLNLIGKH@?$GA@     10087c68     libvcruntime:undname.obj
 0002:00006c6c       ??_C@_01GEODFPGF@?8@       10087c6c     libvcruntime:undname.obj
 0002:00006c70       ??_C@_0BG@JNJLAMPM@?$GAanonymous?5namespace?8@ 10087c70     libvcruntime:undname.obj
 0002:00006c8c       ??_C@_02OHHJMEON@?8?8@     10087c8c     libvcruntime:undname.obj
 0002:00006c90       ??_C@_0BN@IBLMMFAP@?$GAnon?9type?9template?9parameter@ 10087c90     libvcruntime:undname.obj
 0002:00006cb4       ??_C@_04GKJNKENE@void@     10087cb4     libvcruntime:undname.obj
 0002:00006cbc       ??_C@_0BE@EODMJLIF@?$GAtemplate?9parameter@ 10087cbc     libvcruntime:undname.obj
 0002:00006cd4       ??_C@_03KHICJKCI@?4?4?4@   10087cd4     libvcruntime:undname.obj
 0002:00006cd8       ??_C@_04HIBGFPH@NULL@      10087cd8     libvcruntime:undname.obj
 0002:00006ce0       ??_C@_02DPKJAMEF@?$CFd@    10087ce0     libvcruntime:undname.obj
 0002:00006ce4       ??_C@_0BK@IHCCFNEL@?$GAtemplate?9type?9parameter?9@ 10087ce4     libvcruntime:undname.obj
 0002:00006d04       ??_C@_0BK@OFCNNNKO@?$GAgeneric?9class?9parameter?9@ 10087d04     libvcruntime:undname.obj
 0002:00006d24       ??_C@_0BL@NGJBLFIL@?$GAgeneric?9method?9parameter?9@ 10087d24     libvcruntime:undname.obj
 0002:00006d44       ??_C@_03OPGICMGF@?$HN?8?5@ 10087d44     libvcruntime:undname.obj
 0002:00006d48       ??_C@_02IGFCGPIL@?$HN?8@   10087d48     libvcruntime:undname.obj
 0002:00006d4c       ??_C@_01CLKCMJKC@?5@       10087d4c     libvcruntime:undname.obj
 0002:00006d50       ??_C@_0N@CBHHHENL@?$GAvtordispex?$HL@ 10087d50     libvcruntime:undname.obj
 0002:00006d60       ??_C@_0L@GHPFDFH@?$GAvtordisp?$HL@ 10087d60     libvcruntime:undname.obj
 0002:00006d70       ??_C@_0L@HNGCOGAE@?$GAadjustor?$HL@ 10087d70     libvcruntime:undname.obj
 0002:00006d80       ??_C@_0CB@KJDOOODE@?$GAlocal?5static?5destructor?5helper@ 10087d80     libvcruntime:undname.obj
 0002:00006da8       ??_C@_0DB@ILEFOCIJ@?$GAtemplate?5static?5data?5member?5co@ 10087da8     libvcruntime:undname.obj
 0002:00006de4       ??_C@_0DA@HGFJFBBE@?$GAtemplate?5static?5data?5member?5de@ 10087de4     libvcruntime:undname.obj
 0002:00006e20       ??_C@_07PGOEDBHP@static?5@ 10087e20     libvcruntime:undname.obj
 0002:00006e2c       ??_C@_08NIEOINHE@virtual?5@ 10087e2c     libvcruntime:undname.obj
 0002:00006e38       ??_C@_09LAPHOOG@private?3?5@ 10087e38     libvcruntime:undname.obj
 0002:00006e44       ??_C@_0M@GAIFPFIP@protected?3?5@ 10087e44     libvcruntime:undname.obj
 0002:00006e54       ??_C@_08GPDDCMKI@public?3?5@ 10087e54     libvcruntime:undname.obj
 0002:00006e60       ??_C@_08KJLFOPNE@?$FLthunk?$FN?3@ 10087e60     libvcruntime:undname.obj
 0002:00006e6c       ??_C@_0M@DHNBOJMP@extern?5?$CCC?$CC?5@ 10087e6c     libvcruntime:undname.obj
 0002:00006e7c       ??_C@_02KCKGHPCA@?$CJ?5@   10087e7c     libvcruntime:undname.obj
 0002:00006e80       ??_C@_05CIHEBHNO@char?5@   10087e80     libvcruntime:undname.obj
 0002:00006e88       ??_C@_06EHJMALKF@short?5@  10087e88     libvcruntime:undname.obj
 0002:00006e90       ??_C@_04LAHKHJMA@int?5@    10087e90     libvcruntime:undname.obj
 0002:00006e98       ??_C@_05CJIMAING@long?5@   10087e98     libvcruntime:undname.obj
 0002:00006ea0       ??_C@_09EBBEKKIH@unsigned?5@ 10087ea0     libvcruntime:undname.obj
 0002:00006eac       ??_C@_05BEFAKPML@void?5@   10087eac     libvcruntime:undname.obj
 0002:00006eb4       ??_C@_08PABEKFH@volatile@  10087eb4     libvcruntime:undname.obj
 0002:00006ec0       ??_C@_0BA@LKIJLKPP@std?3?3nullptr_t?5@ 10087ec0     libvcruntime:undname.obj
 0002:00006ed4       ??_C@_0P@GCOCNKDM@std?3?3nullptr_t@ 10087ed4     libvcruntime:undname.obj
 0002:00006ee8       ??_C@_0L@EGPHHEKN@?$DMellipsis?$DO@ 10087ee8     libvcruntime:undname.obj
 0002:00006ef8       ??_C@_04EENFHACM@?0?4?4?4@ 10087ef8     libvcruntime:undname.obj
 0002:00006f00       ??_C@_0M@ELJOJFFH@?0?$DMellipsis?$DO@ 10087f00     libvcruntime:undname.obj
 0002:00006f10       ??_C@_09DNHFEOJI@?5noexcept@ 10087f10     libvcruntime:undname.obj
 0002:00006f1c       ??_C@_03PBJBJNON@cpu@      10087f1c     libvcruntime:undname.obj
 0002:00006f20       ??_C@_03DCBBJBAA@amp@      10087f20     libvcruntime:undname.obj
 0002:00006f24       ??_C@_02KEGNLNML@?0?5@     10087f24     libvcruntime:undname.obj
 0002:00006f28       ??_C@_04ENMBGAPA@char@     10087f28     libvcruntime:undname.obj
 0002:00006f30       ??_C@_05BFKKPKCG@short@    10087f30     libvcruntime:undname.obj
 0002:00006f38       ??_C@_04GOKPGOLB@long@     10087f38     libvcruntime:undname.obj
 0002:00006f40       ??_C@_04DDKJGDCM@bool@     10087f40     libvcruntime:undname.obj
 0002:00006f48       ??_C@_06EBGKOKIG@__int8@   10087f48     libvcruntime:undname.obj
 0002:00006f50       ??_C@_07ICFHOGAF@__int16@  10087f50     libvcruntime:undname.obj
 0002:00006f5c       ??_C@_07OFLPPHGP@__int32@  10087f5c     libvcruntime:undname.obj
 0002:00006f68       ??_C@_07LFCOJCAC@__int64@  10087f68     libvcruntime:undname.obj
 0002:00006f74       ??_C@_08GAHOLHEO@__int128@ 10087f74     libvcruntime:undname.obj
 0002:00006f80       ??_C@_09EEKGDCPH@?$DMunknown?$DO@ 10087f80     libvcruntime:undname.obj
 0002:00006f8c       ??_C@_08HBIPOFJB@char16_t@ 10087f8c     libvcruntime:undname.obj
 0002:00006f98       ??_C@_08IECNCBKG@char32_t@ 10087f98     libvcruntime:undname.obj
 0002:00006fa4       ??_C@_07CLGGIAMF@wchar_t@  10087fa4     libvcruntime:undname.obj
 0002:00006fb0       ??_C@_06GCICPBLB@__w64?5@  10087fb0     libvcruntime:undname.obj
 0002:00006fb8       ??_C@_07NFANNNEC@UNKNOWN@  10087fb8     libvcruntime:undname.obj
 0002:00006fc4       ??_C@_07EDHNAJHC@signed?5@ 10087fc4     libvcruntime:undname.obj
 0002:00006fd0       ??_C@_05BNCCCJPP@const@    10087fd0     libvcruntime:undname.obj
 0002:00006fd8       ??_C@_09EFNPDFFP@?5volatile@ 10087fd8     libvcruntime:undname.obj
 0002:00006fe4       ??_C@_0P@GCIFDJCJ@?$GAunknown?5ecsu?8@ 10087fe4     libvcruntime:undname.obj
 0002:00006ff8       ??_C@_06MOJHIBMG@union?5@  10087ff8     libvcruntime:undname.obj
 0002:00007000       ??_C@_07DIBCDNGL@struct?5@ 10088000     libvcruntime:undname.obj
 0002:0000700c       ??_C@_06LJBABKPM@class?5@  1008800c     libvcruntime:undname.obj
 0002:00007014       ??_C@_08KOFANOFK@coclass?5@ 10088014     libvcruntime:undname.obj
 0002:00007020       ??_C@_0N@DLIEFKNA@cointerface?5@ 10088020     libvcruntime:undname.obj
 0002:00007030       ??_C@_05LJGMCFOG@enum?5@   10088030     libvcruntime:undname.obj
 0002:00007038       ??_C@_09GAIEOBLP@volatile?5@ 10088038     libvcruntime:undname.obj
 0002:00007044       ??_C@_06LIJLOJAG@const?5@  10088044     libvcruntime:undname.obj
 0002:0000704c       ??_C@_02KJPKDIBN@?$CG?5@   1008804c     libvcruntime:undname.obj
 0002:00007050       ??_C@_03PCKGMOPB@?$CG?$CG?5@ 10088050     libvcruntime:undname.obj
 0002:00007054       ??_C@_0M@EALIELKG@cli?3?3array?$DM@ 10088054     libvcruntime:undname.obj
 0002:00007064       ??_C@_0O@GKABPPIF@cli?3?3pin_ptr?$DM@ 10088064     libvcruntime:undname.obj
 0002:00007074       ??_C@_02GOGNNPBN@?$CJ?$FL@ 10088074     libvcruntime:undname.obj
 0002:00007078       ??_C@_06EEGAIFAK@?$HLflat?$HN@ 10088078     libvcruntime:undname.obj
 0002:00007080       ??_C@_05JIBOFOHK@?$HLfor?5@ 10088080     libvcruntime:undname.obj
 0002:00007088       ??_C@_02MDINNEEG@s?5@      10088088     libvcruntime:undname.obj
 0002:00007090       ??_7DNameNode@@6B@         10088090     libvcruntime:undname.obj
 0002:000070a4       ??_7charNode@@6B@          100880a4     libvcruntime:undname.obj
 0002:000070b8       ??_7pcharNode@@6B@         100880b8     libvcruntime:undname.obj
 0002:000070cc       ??_7pDNameNode@@6B@        100880cc     libvcruntime:undname.obj
 0002:000070e0       ??_7DNameStatusNode@@6B@   100880e0     libvcruntime:undname.obj
 0002:000070f4       ??_7pairNode@@6B@          100880f4     libvcruntime:undname.obj
 0002:00007104       ??_C@_04OKOHEJBO@?5?$DP?$DP?5@ 10088104     libvcruntime:undname.obj
 0002:0000710c       ?nodes@?1??make@DNameStatusNode@@SAPBV2@W4DNameStatus@@@Z@4QBV2@B 1008810c     libvcruntime:undname.obj
 0002:00007158       ??_C@_1DM@KHCHBNEB@?$AAa?$AAp?$AAi?$AA?9?$AAm?$AAs?$AA?9?$AAw?$AAi?$AAn?$AA?9?$AAc?$AAo?$AAr?$AAe@ 10088158     libvcruntime:winapi_downlevel.obj
 0002:000071a0       ??_C@_1DK@LPPGFMPP@?$AAa?$AAp?$AAi?$AA?9?$AAm?$AAs?$AA?9?$AAw?$AAi?$AAn?$AA?9?$AAc?$AAo?$AAr?$AAe@ 100881a0     libvcruntime:winapi_downlevel.obj
 0002:000071e8       ??_C@_1BC@GDMECMAK@?$AAk?$AAe?$AAr?$AAn?$AAe?$AAl?$AA3?$AA2@ 100881e8     libvcruntime:winapi_downlevel.obj
 0002:00007200       ??_C@_1BA@PFFKHIOG@?$AAa?$AAp?$AAi?$AA?9?$AAm?$AAs?$AA?9@ 10088200     libvcruntime:winapi_downlevel.obj
 0002:00007214       ??_C@_1BA@IAIFMGEF@?$AAe?$AAx?$AAt?$AA?9?$AAm?$AAs?$AA?9@ 10088214     libvcruntime:winapi_downlevel.obj
 0002:00007234       ??_C@_08KNHFBNJ@FlsAlloc@  10088234     libvcruntime:winapi_downlevel.obj
 0002:0000724c       ??_C@_07PEJMOBNF@FlsFree@  1008824c     libvcruntime:winapi_downlevel.obj
 0002:00007264       ??_C@_0M@GDNOONDI@FlsGetValue@ 10088264     libvcruntime:winapi_downlevel.obj
 0002:00007280       ??_C@_0M@JCPCPOEF@FlsSetValue@ 10088280     libvcruntime:winapi_downlevel.obj
 0002:0000729c       ??_C@_0BM@HCFOFFN@InitializeCriticalSectionEx@ 1008829c     libvcruntime:winapi_downlevel.obj
 0002:000072c4       ??_7exception@std@@6B@     100882c4     libvcruntime:frame.obj
 0002:000072d0       ??_C@_0BC@EOODALEL@Unknown?5exception@ 100882d0     libvcruntime:frame.obj
 0002:000072ec       ??_7bad_exception@std@@6B@ 100882ec     libvcruntime:frame.obj
 0002:000072f8       ??_C@_0O@DPKOEFFH@bad?5exception@ 100882f8     libvcruntime:frame.obj
 0002:00007308       __pDestructExceptionObject 10088308     libvcruntime:ehhelpers.obj
 0002:00007338       _standard_lookup_table     10088338     libucrt:output.obj
 0002:000073a8       _format_validation_lookup_table 100883a8     libucrt:output.obj
 0002:00007418       ??_C@_1O@CEDCILHN@?$AA?$CI?$AAn?$AAu?$AAl?$AAl?$AA?$CJ?$AA?$AA@ 10088418     libucrt:output.obj
 0002:00007428       ??_C@_06OJHGLDPL@?$CInull?$CJ?$AA@ 10088428     libucrt:output.obj
 0002:00007430       _RtlNtPathSeperatorString  10088430     libucrt:exit.obj
 0002:0000743c       ??_C@_13FPGAJAPJ@?$AA?2?$AA?$AA@ 1008843c     libucrt:exit.obj
 0002:00007440       _RtlDosPathSeperatorsString 10088440     libucrt:exit.obj
 0002:0000744c       ??_C@_15MNCACJLI@?$AA?2?$AA?1?$AA?$AA@ 1008844c     libucrt:exit.obj
 0002:00007454       _RtlAlternateDosPathSeperatorString 10088454     libucrt:exit.obj
 0002:00007460       ??_C@_13CGOKJPIL@?$AA?1?$AA?$AA@ 10088460     libucrt:exit.obj
 0002:00007464       ??_C@_1BI@BGOHAHKC@?$AAm?$AAs?$AAc?$AAo?$AAr?$AAe?$AAe?$AA?4?$AAd?$AAl?$AAl?$AA?$AA@ 10088464     libucrt:exit.obj
 0002:00007480       ??_C@_0P@MIGLKIOC@CorExitProcess?$AA@ 10088480     libucrt:exit.obj
 0002:00007498       __real@0000000000000000    10088498     libucrt:ldexp.obj
 0002:000074a4       ??_C@_0CK@CFPGFGGO@Assertion?5failed?3?5?$CFTs?0?5file?5?$CFTs?0@ 100884a4     libucrt:assert.obj
 0002:000074d8       ??_C@_1FE@LHBLIKM@?$AAA?$AAs?$AAs?$AAe?$AAr?$AAt?$AAi?$AAo?$AAn?$AA?5?$AAf?$AAa?$AAi?$AAl?$AAe?$AAd?$AA?3?$AA?5?$AA?$CF?$AAT?$AAs?$AA?0?$AA?5?$AAf?$AAi?$AAl?$AAe?$AA?5?$AA?$CF?$AAT?$AAs?$AA?0@ 100884d8     libucrt:assert.obj
 0002:0000753c       ??_C@_0CF@GOGNBNAK@Microsoft?5Visual?5C?$CL?$CL?5Runtime?5Lib@ 1008853c     libucrt:assert.obj
 0002:00007568       ??_C@_1EK@MBDPDCGA@?$AAM?$AAi?$AAc?$AAr?$AAo?$AAs?$AAo?$AAf?$AAt?$AA?5?$AAV?$AAi?$AAs?$AAu?$AAa?$AAl?$AA?5?$AAC?$AA?$CL?$AA?$CL?$AA?5?$AAR?$AAu?$AAn?$AAt?$AAi?$AAm?$AAe?$AA?5?$AAL?$AAi?$AAb@ 10088568     libucrt:assert.obj
 0002:000075c0       ??_C@_0BC@LAIDCHCH@Assertion?5failed?$CB?$AA@ 100885c0     libucrt:assert.obj
 0002:000075d8       ??_C@_1CE@OJBNHDMO@?$AAA?$AAs?$AAs?$AAe?$AAr?$AAt?$AAi?$AAo?$AAn?$AA?5?$AAf?$AAa?$AAi?$AAl?$AAe?$AAd?$AA?$CB?$AA?$AA@ 100885d8     libucrt:assert.obj
 0002:00007604       ??_C@_09KLGCKDOD@Program?3?5?$AA@ 10088604     libucrt:assert.obj
 0002:00007610       ??_C@_1BE@PHKBBGE@?$AAP?$AAr?$AAo?$AAg?$AAr?$AAa?$AAm?$AA?3?$AA?5?$AA?$AA@ 10088610     libucrt:assert.obj
 0002:00007628       ??_C@_06IGPBOHMJ@File?3?5?$AA@ 10088628     libucrt:assert.obj
 0002:00007630       ??_C@_1O@HEMHKNDC@?$AAF?$AAi?$AAl?$AAe?$AA?3?$AA?5?$AA?$AA@ 10088630     libucrt:assert.obj
 0002:00007640       ??_C@_06FIEBOLOH@Line?3?5?$AA@ 10088640     libucrt:assert.obj
 0002:00007648       ??_C@_1O@KCAFKHJE@?$AAL?$AAi?$AAn?$AAe?$AA?3?$AA?5?$AA?$AA@ 10088648     libucrt:assert.obj
 0002:00007658       ??_C@_0N@MEECIJGN@Expression?3?5?$AA@ 10088658     libucrt:assert.obj
 0002:00007668       ??_C@_1BK@PEDCIPMA@?$AAE?$AAx?$AAp?$AAr?$AAe?$AAs?$AAs?$AAi?$AAo?$AAn?$AA?3?$AA?5?$AA?$AA@ 10088668     libucrt:assert.obj
 0002:00007688       ??_C@_0HA@OJHAGA@For?5information?5on?5how?5your?5prog@ 10088688     libucrt:assert.obj
 0002:00007710       ??_C@_1OA@EGMLFBHJ@?$AAF?$AAo?$AAr?$AA?5?$AAi?$AAn?$AAf?$AAo?$AAr?$AAm?$AAa?$AAt?$AAi?$AAo?$AAn?$AA?5?$AAo?$AAn?$AA?5?$AAh?$AAo?$AAw?$AA?5?$AAy?$AAo?$AAu?$AAr?$AA?5?$AAp?$AAr?$AAo?$AAg@ 10088710     libucrt:assert.obj
 0002:0000781c       ??_C@_0DN@EBBNMLME@?$CIPress?5Retry?5to?5debug?5the?5applic@ 1008881c     libucrt:assert.obj
 0002:00007868       ??_C@_1HK@POCJMFGK@?$AA?$CI?$AAP?$AAr?$AAe?$AAs?$AAs?$AA?5?$AAR?$AAe?$AAt?$AAr?$AAy?$AA?5?$AAt?$AAo?$AA?5?$AAd?$AAe?$AAb?$AAu?$AAg?$AA?5?$AAt?$AAh?$AAe?$AA?5?$AAa?$AAp?$AAp?$AAl?$AAi?$AAc@ 10088868     libucrt:assert.obj
 0002:000078fc       ??_C@_03KHICJKCI@?4?4?4?$AA@ 100888fc     libucrt:assert.obj
 0002:00007900       ??_C@_17LGKOMLJ@?$AA?4?$AA?4?$AA?4?$AA?$AA@ 10088900     libucrt:assert.obj
 0002:0000790c       ??_C@_01EEMJAFIK@?6?$AA@   1008890c     libucrt:assert.obj
 0002:00007910       ??_C@_13LBAGMAIH@?$AA?6?$AA?$AA@ 10088910     libucrt:assert.obj
 0002:00007914       ??_C@_02PHMGELLB@?6?6?$AA@ 10088914     libucrt:assert.obj
 0002:00007918       ??_C@_15IABLJNFO@?$AA?6?$AA?6?$AA?$AA@ 10088918     libucrt:assert.obj
 0002:00007920       ??_C@_0BH@DNAGHKFM@?$DMprogram?5name?5unknown?$DO?$AA@ 10088920     libucrt:assert.obj
 0002:0000793c       ??_C@_1CO@EAEJAADC@?$AA?$DM?$AAp?$AAr?$AAo?$AAg?$AAr?$AAa?$AAm?$AA?5?$AAn?$AAa?$AAm?$AAe?$AA?5?$AAu?$AAn?$AAk?$AAn?$AAo?$AAw?$AAn?$AA?$DO?$AA?$AA@ 1008893c     libucrt:assert.obj
 0002:00007974       __Fenv1                    10088974     libucrt:input.obj
 0002:00007980       ?large_power_data@?1??multiply_by_power_of_ten@__crt_strtox@@YA_NAAUbig_integer@2@I@Z@4QBIB 10088980     libucrt:input.obj
 0002:00008458       ?large_power_indices@?1??multiply_by_power_of_ten@__crt_strtox@@YA_NAAUbig_integer@2@I@Z@4QBUunpack_index@?1??12@YA_N0I@Z@B 10089458     libucrt:input.obj
 0002:00008510       ?small_powers_of_ten@?1??multiply_by_power_of_ten@__crt_strtox@@YA_NAAUbig_integer@2@I@Z@4QBIB 10089510     libucrt:input.obj
 0002:00008540       ??_C@_1GE@DPGDJKLM@?$AAm?$AAi?$AAn?$AAk?$AAe?$AAr?$AAn?$AAe?$AAl?$AA?2?$AAc?$AAr?$AAt?$AAs?$AA?2?$AAu?$AAc?$AAr?$AAt?$AA?2?$AAi?$AAn?$AAc?$AA?2?$AAc?$AAo?$AAr?$AAe?$AAc?$AAr?$AAt?$AA_@ 10089540     libucrt:input.obj
 0002:000085b8       ??_C@_1FM@FELNCOBF@?$AA_?$AA_?$AAc?$AAr?$AAt?$AA_?$AAs?$AAt?$AAr?$AAt?$AAo?$AAx?$AA?3?$AA?3?$AAf?$AAl?$AAo?$AAa?$AAt?$AAi?$AAn?$AAg?$AA_?$AAp?$AAo?$AAi?$AAn?$AAt?$AA_?$AAv?$AAa?$AAl@ 100895b8     libucrt:input.obj
 0002:00008628       ??_C@_1BG@GEMHBGAF@?$AA_?$AAi?$AAs?$AA_?$AAd?$AAo?$AAu?$AAb?$AAl?$AAe?$AA?$AA@ 10089628     libucrt:input.obj
 0002:00008648       ??_C@_1FK@JOJELFFO@?$AA_?$AA_?$AAc?$AAr?$AAt?$AA_?$AAs?$AAt?$AAr?$AAt?$AAo?$AAx?$AA?3?$AA?3?$AAf?$AAl?$AAo?$AAa?$AAt?$AAi?$AAn?$AAg?$AA_?$AAp?$AAo?$AAi?$AAn?$AAt?$AA_?$AAv?$AAa?$AAl@ 10089648     libucrt:input.obj
 0002:000086b4       ??_C@_1BI@BANMPGJI@?$AA?$CB?$AA_?$AAi?$AAs?$AA_?$AAd?$AAo?$AAu?$AAb?$AAl?$AAe?$AA?$AA@ 100896b4     libucrt:input.obj
 0002:000086d0       ?constraints@?1??is_length_valid@__crt_stdio_input@@YA_NW4conversion_mode@2@W4length_modifier@2@@Z@4QAY0M@$$CBEA 100896d0     libucrt:input.obj
 0002:00008760       ?inf_uppercase@?1???$parse_floating_point_possible_infinity@_WV?$input_adapter_character_source@V?$string_input_adapter@_W@__crt_stdio_input@@@__crt_strtox@@_K@__crt_strtox@@YA?AW4floating_point_parse_result@1@AA_WAAV?$input_adapter_character_source@V?$string_input_adapter@_W@__crt_stdio_input@@@1@_K@Z@4QB_WB 10089760     libucrt:input.obj
 0002:00008768       ?inf_lowercase@?1???$parse_floating_point_possible_infinity@_WV?$input_adapter_character_source@V?$string_input_adapter@_W@__crt_stdio_input@@@__crt_strtox@@_K@__crt_strtox@@YA?AW4floating_point_parse_result@1@AA_WAAV?$input_adapter_character_source@V?$string_input_adapter@_W@__crt_stdio_input@@@1@_K@Z@4QB_WB 10089768     libucrt:input.obj
 0002:00008770       ?inity_uppercase@?1???$parse_floating_point_possible_infinity@_WV?$input_adapter_character_source@V?$string_input_adapter@_W@__crt_stdio_input@@@__crt_strtox@@_K@__crt_strtox@@YA?AW4floating_point_parse_result@1@AA_WAAV?$input_adapter_character_source@V?$string_input_adapter@_W@__crt_stdio_input@@@1@_K@Z@4QB_WB 10089770     libucrt:input.obj
 0002:0000877c       ?inity_lowercase@?1???$parse_floating_point_possible_infinity@_WV?$input_adapter_character_source@V?$string_input_adapter@_W@__crt_stdio_input@@@__crt_strtox@@_K@__crt_strtox@@YA?AW4floating_point_parse_result@1@AA_WAAV?$input_adapter_character_source@V?$string_input_adapter@_W@__crt_stdio_input@@@1@_K@Z@4QB_WB 1008977c     libucrt:input.obj
 0002:00008788       ?uppercase@?1???$parse_floating_point_possible_nan@_WV?$input_adapter_character_source@V?$string_input_adapter@_W@__crt_stdio_input@@@__crt_strtox@@_K@__crt_strtox@@YA?AW4floating_point_parse_result@1@AA_WAAV?$input_adapter_character_source@V?$string_input_adapter@_W@__crt_stdio_input@@@1@_K@Z@4QB_WB 10089788     libucrt:input.obj
 0002:00008790       ?lowercase@?1???$parse_floating_point_possible_nan@_WV?$input_adapter_character_source@V?$string_input_adapter@_W@__crt_stdio_input@@@__crt_strtox@@_K@__crt_strtox@@YA?AW4floating_point_parse_result@1@AA_WAAV?$input_adapter_character_source@V?$string_input_adapter@_W@__crt_stdio_input@@@1@_K@Z@4QB_WB 10089790     libucrt:input.obj
 0002:00008798       ?inf_uppercase@?1???$parse_floating_point_possible_infinity@DV?$input_adapter_character_source@V?$string_input_adapter@D@__crt_stdio_input@@@__crt_strtox@@_K@__crt_strtox@@YA?AW4floating_point_parse_result@1@AADAAV?$input_adapter_character_source@V?$string_input_adapter@D@__crt_stdio_input@@@1@_K@Z@4QBDB 10089798     libucrt:input.obj
 0002:0000879c       ?inf_lowercase@?1???$parse_floating_point_possible_infinity@DV?$input_adapter_character_source@V?$string_input_adapter@D@__crt_stdio_input@@@__crt_strtox@@_K@__crt_strtox@@YA?AW4floating_point_parse_result@1@AADAAV?$input_adapter_character_source@V?$string_input_adapter@D@__crt_stdio_input@@@1@_K@Z@4QBDB 1008979c     libucrt:input.obj
 0002:000087a0       ?inity_uppercase@?1???$parse_floating_point_possible_infinity@DV?$input_adapter_character_source@V?$string_input_adapter@D@__crt_stdio_input@@@__crt_strtox@@_K@__crt_strtox@@YA?AW4floating_point_parse_result@1@AADAAV?$input_adapter_character_source@V?$string_input_adapter@D@__crt_stdio_input@@@1@_K@Z@4QBDB 100897a0     libucrt:input.obj
 0002:000087a8       ?inity_lowercase@?1???$parse_floating_point_possible_infinity@DV?$input_adapter_character_source@V?$string_input_adapter@D@__crt_stdio_input@@@__crt_strtox@@_K@__crt_strtox@@YA?AW4floating_point_parse_result@1@AADAAV?$input_adapter_character_source@V?$string_input_adapter@D@__crt_stdio_input@@@1@_K@Z@4QBDB 100897a8     libucrt:input.obj
 0002:000087b0       ?uppercase@?1???$parse_floating_point_possible_nan@DV?$input_adapter_character_source@V?$string_input_adapter@D@__crt_stdio_input@@@__crt_strtox@@_K@__crt_strtox@@YA?AW4floating_point_parse_result@1@AADAAV?$input_adapter_character_source@V?$string_input_adapter@D@__crt_stdio_input@@@1@_K@Z@4QBDB 100897b0     libucrt:input.obj
 0002:000087b4       ?lowercase@?1???$parse_floating_point_possible_nan@DV?$input_adapter_character_source@V?$string_input_adapter@D@__crt_stdio_input@@@__crt_strtox@@_K@__crt_strtox@@YA?AW4floating_point_parse_result@1@AADAAV?$input_adapter_character_source@V?$string_input_adapter@D@__crt_stdio_input@@@1@_K@Z@4QBDB 100897b4     libucrt:input.obj
 0002:000087b8       ?inf_uppercase@?1???$parse_floating_point_possible_infinity@_WV?$input_adapter_character_source@V?$stream_input_adapter@_W@__crt_stdio_input@@@__crt_strtox@@_K@__crt_strtox@@YA?AW4floating_point_parse_result@1@AA_WAAV?$input_adapter_character_source@V?$stream_input_adapter@_W@__crt_stdio_input@@@1@_K@Z@4QB_WB 100897b8     libucrt:input.obj
 0002:000087c0       ?inf_lowercase@?1???$parse_floating_point_possible_infinity@_WV?$input_adapter_character_source@V?$stream_input_adapter@_W@__crt_stdio_input@@@__crt_strtox@@_K@__crt_strtox@@YA?AW4floating_point_parse_result@1@AA_WAAV?$input_adapter_character_source@V?$stream_input_adapter@_W@__crt_stdio_input@@@1@_K@Z@4QB_WB 100897c0     libucrt:input.obj
 0002:000087c8       ?inity_uppercase@?1???$parse_floating_point_possible_infinity@_WV?$input_adapter_character_source@V?$stream_input_adapter@_W@__crt_stdio_input@@@__crt_strtox@@_K@__crt_strtox@@YA?AW4floating_point_parse_result@1@AA_WAAV?$input_adapter_character_source@V?$stream_input_adapter@_W@__crt_stdio_input@@@1@_K@Z@4QB_WB 100897c8     libucrt:input.obj
 0002:000087d4       ?inity_lowercase@?1???$parse_floating_point_possible_infinity@_WV?$input_adapter_character_source@V?$stream_input_adapter@_W@__crt_stdio_input@@@__crt_strtox@@_K@__crt_strtox@@YA?AW4floating_point_parse_result@1@AA_WAAV?$input_adapter_character_source@V?$stream_input_adapter@_W@__crt_stdio_input@@@1@_K@Z@4QB_WB 100897d4     libucrt:input.obj
 0002:000087e0       ?uppercase@?1???$parse_floating_point_possible_nan@_WV?$input_adapter_character_source@V?$stream_input_adapter@_W@__crt_stdio_input@@@__crt_strtox@@_K@__crt_strtox@@YA?AW4floating_point_parse_result@1@AA_WAAV?$input_adapter_character_source@V?$stream_input_adapter@_W@__crt_stdio_input@@@1@_K@Z@4QB_WB 100897e0     libucrt:input.obj
 0002:000087e8       ?lowercase@?1???$parse_floating_point_possible_nan@_WV?$input_adapter_character_source@V?$stream_input_adapter@_W@__crt_stdio_input@@@__crt_strtox@@_K@__crt_strtox@@YA?AW4floating_point_parse_result@1@AA_WAAV?$input_adapter_character_source@V?$stream_input_adapter@_W@__crt_stdio_input@@@1@_K@Z@4QB_WB 100897e8     libucrt:input.obj
 0002:000087f0       ?inf_uppercase@?1???$parse_floating_point_possible_infinity@DV?$input_adapter_character_source@V?$stream_input_adapter@D@__crt_stdio_input@@@__crt_strtox@@_K@__crt_strtox@@YA?AW4floating_point_parse_result@1@AADAAV?$input_adapter_character_source@V?$stream_input_adapter@D@__crt_stdio_input@@@1@_K@Z@4QBDB 100897f0     libucrt:input.obj
 0002:000087f4       ?inf_lowercase@?1???$parse_floating_point_possible_infinity@DV?$input_adapter_character_source@V?$stream_input_adapter@D@__crt_stdio_input@@@__crt_strtox@@_K@__crt_strtox@@YA?AW4floating_point_parse_result@1@AADAAV?$input_adapter_character_source@V?$stream_input_adapter@D@__crt_stdio_input@@@1@_K@Z@4QBDB 100897f4     libucrt:input.obj
 0002:000087f8       ?inity_uppercase@?1???$parse_floating_point_possible_infinity@DV?$input_adapter_character_source@V?$stream_input_adapter@D@__crt_stdio_input@@@__crt_strtox@@_K@__crt_strtox@@YA?AW4floating_point_parse_result@1@AADAAV?$input_adapter_character_source@V?$stream_input_adapter@D@__crt_stdio_input@@@1@_K@Z@4QBDB 100897f8     libucrt:input.obj
 0002:00008800       ?inity_lowercase@?1???$parse_floating_point_possible_infinity@DV?$input_adapter_character_source@V?$stream_input_adapter@D@__crt_stdio_input@@@__crt_strtox@@_K@__crt_strtox@@YA?AW4floating_point_parse_result@1@AADAAV?$input_adapter_character_source@V?$stream_input_adapter@D@__crt_stdio_input@@@1@_K@Z@4QBDB 10089800     libucrt:input.obj
 0002:00008808       ?uppercase@?1???$parse_floating_point_possible_nan@DV?$input_adapter_character_source@V?$stream_input_adapter@D@__crt_stdio_input@@@__crt_strtox@@_K@__crt_strtox@@YA?AW4floating_point_parse_result@1@AADAAV?$input_adapter_character_source@V?$stream_input_adapter@D@__crt_stdio_input@@@1@_K@Z@4QBDB 10089808     libucrt:input.obj
 0002:0000880c       ?lowercase@?1???$parse_floating_point_possible_nan@DV?$input_adapter_character_source@V?$stream_input_adapter@D@__crt_stdio_input@@@__crt_strtox@@_K@__crt_strtox@@YA?AW4floating_point_parse_result@1@AADAAV?$input_adapter_character_source@V?$stream_input_adapter@D@__crt_stdio_input@@@1@_K@Z@4QBDB 1008980c     libucrt:input.obj
 0002:00008810       ?uppercase@?1???$parse_floating_point_possible_nan_is_snan@_WV?$input_adapter_character_source@V?$string_input_adapter@_W@__crt_stdio_input@@@__crt_strtox@@@__crt_strtox@@YA_NAA_WAAV?$input_adapter_character_source@V?$string_input_adapter@_W@__crt_stdio_input@@@1@@Z@4QB_WB 10089810     libucrt:input.obj
 0002:0000881c       ?lowercase@?1???$parse_floating_point_possible_nan_is_snan@_WV?$input_adapter_character_source@V?$string_input_adapter@_W@__crt_stdio_input@@@__crt_strtox@@@__crt_strtox@@YA_NAA_WAAV?$input_adapter_character_source@V?$string_input_adapter@_W@__crt_stdio_input@@@1@@Z@4QB_WB 1008981c     libucrt:input.obj
 0002:00008828       ?uppercase@?1???$parse_floating_point_possible_nan_is_ind@_WV?$input_adapter_character_source@V?$string_input_adapter@_W@__crt_stdio_input@@@__crt_strtox@@@__crt_strtox@@YA_NAA_WAAV?$input_adapter_character_source@V?$string_input_adapter@_W@__crt_stdio_input@@@1@@Z@4QB_WB 10089828     libucrt:input.obj
 0002:00008834       ?lowercase@?1???$parse_floating_point_possible_nan_is_ind@_WV?$input_adapter_character_source@V?$string_input_adapter@_W@__crt_stdio_input@@@__crt_strtox@@@__crt_strtox@@YA_NAA_WAAV?$input_adapter_character_source@V?$string_input_adapter@_W@__crt_stdio_input@@@1@@Z@4QB_WB 10089834     libucrt:input.obj
 0002:00008840       ?uppercase@?1???$parse_floating_point_possible_nan_is_snan@DV?$input_adapter_character_source@V?$string_input_adapter@D@__crt_stdio_input@@@__crt_strtox@@@__crt_strtox@@YA_NAADAAV?$input_adapter_character_source@V?$string_input_adapter@D@__crt_stdio_input@@@1@@Z@4QBDB 10089840     libucrt:input.obj
 0002:00008848       ?lowercase@?1???$parse_floating_point_possible_nan_is_snan@DV?$input_adapter_character_source@V?$string_input_adapter@D@__crt_stdio_input@@@__crt_strtox@@@__crt_strtox@@YA_NAADAAV?$input_adapter_character_source@V?$string_input_adapter@D@__crt_stdio_input@@@1@@Z@4QBDB 10089848     libucrt:input.obj
 0002:00008850       ?uppercase@?1???$parse_floating_point_possible_nan_is_ind@DV?$input_adapter_character_source@V?$string_input_adapter@D@__crt_stdio_input@@@__crt_strtox@@@__crt_strtox@@YA_NAADAAV?$input_adapter_character_source@V?$string_input_adapter@D@__crt_stdio_input@@@1@@Z@4QBDB 10089850     libucrt:input.obj
 0002:00008854       ?lowercase@?1???$parse_floating_point_possible_nan_is_ind@DV?$input_adapter_character_source@V?$string_input_adapter@D@__crt_stdio_input@@@__crt_strtox@@@__crt_strtox@@YA_NAADAAV?$input_adapter_character_source@V?$string_input_adapter@D@__crt_stdio_input@@@1@@Z@4QBDB 10089854     libucrt:input.obj
 0002:00008858       ?uppercase@?1???$parse_floating_point_possible_nan_is_snan@_WV?$input_adapter_character_source@V?$stream_input_adapter@_W@__crt_stdio_input@@@__crt_strtox@@@__crt_strtox@@YA_NAA_WAAV?$input_adapter_character_source@V?$stream_input_adapter@_W@__crt_stdio_input@@@1@@Z@4QB_WB 10089858     libucrt:input.obj
 0002:00008864       ?lowercase@?1???$parse_floating_point_possible_nan_is_snan@_WV?$input_adapter_character_source@V?$stream_input_adapter@_W@__crt_stdio_input@@@__crt_strtox@@@__crt_strtox@@YA_NAA_WAAV?$input_adapter_character_source@V?$stream_input_adapter@_W@__crt_stdio_input@@@1@@Z@4QB_WB 10089864     libucrt:input.obj
 0002:00008870       ?uppercase@?1???$parse_floating_point_possible_nan_is_ind@_WV?$input_adapter_character_source@V?$stream_input_adapter@_W@__crt_stdio_input@@@__crt_strtox@@@__crt_strtox@@YA_NAA_WAAV?$input_adapter_character_source@V?$stream_input_adapter@_W@__crt_stdio_input@@@1@@Z@4QB_WB 10089870     libucrt:input.obj
 0002:0000887c       ?lowercase@?1???$parse_floating_point_possible_nan_is_ind@_WV?$input_adapter_character_source@V?$stream_input_adapter@_W@__crt_stdio_input@@@__crt_strtox@@@__crt_strtox@@YA_NAA_WAAV?$input_adapter_character_source@V?$stream_input_adapter@_W@__crt_stdio_input@@@1@@Z@4QB_WB 1008987c     libucrt:input.obj
 0002:00008888       ?uppercase@?1???$parse_floating_point_possible_nan_is_snan@DV?$input_adapter_character_source@V?$stream_input_adapter@D@__crt_stdio_input@@@__crt_strtox@@@__crt_strtox@@YA_NAADAAV?$input_adapter_character_source@V?$stream_input_adapter@D@__crt_stdio_input@@@1@@Z@4QBDB 10089888     libucrt:input.obj
 0002:00008890       ?lowercase@?1???$parse_floating_point_possible_nan_is_snan@DV?$input_adapter_character_source@V?$stream_input_adapter@D@__crt_stdio_input@@@__crt_strtox@@@__crt_strtox@@YA_NAADAAV?$input_adapter_character_source@V?$stream_input_adapter@D@__crt_stdio_input@@@1@@Z@4QBDB 10089890     libucrt:input.obj
 0002:00008898       ?uppercase@?1???$parse_floating_point_possible_nan_is_ind@DV?$input_adapter_character_source@V?$stream_input_adapter@D@__crt_stdio_input@@@__crt_strtox@@@__crt_strtox@@YA_NAADAAV?$input_adapter_character_source@V?$stream_input_adapter@D@__crt_stdio_input@@@1@@Z@4QBDB 10089898     libucrt:input.obj
 0002:0000889c       ?lowercase@?1???$parse_floating_point_possible_nan_is_ind@DV?$input_adapter_character_source@V?$stream_input_adapter@D@__crt_stdio_input@@@__crt_strtox@@@__crt_strtox@@YA_NAADAAV?$input_adapter_character_source@V?$stream_input_adapter@D@__crt_stdio_input@@@1@@Z@4QBDB 1008989c     libucrt:input.obj
 0002:000088a0       __real@00000000            100898a0     libucrt:input.obj
 0002:000089c0       ??_C@_03KHJOGHMM@exp?$AA@  100899c0     libucrt:fpexcept.obj
 0002:000089c4       ??_C@_03JGHBODFD@pow?$AA@  100899c4     libucrt:fpexcept.obj
 0002:000089c8       ??_C@_03MGHMBJCF@log?$AA@  100899c8     libucrt:fpexcept.obj
 0002:000089cc       ??_C@_05HGHHAHAP@log10?$AA@ 100899cc     libucrt:fpexcept.obj
 0002:000089d4       ??_C@_04COOMCNPB@sinh?$AA@ 100899d4     libucrt:fpexcept.obj
 0002:000089dc       ??_C@_04HPJJNFIM@cosh?$AA@ 100899dc     libucrt:fpexcept.obj
 0002:000089e4       ??_C@_04FJHINJAO@tanh?$AA@ 100899e4     libucrt:fpexcept.obj
 0002:000089ec       ??_C@_04FIHNOPOL@asin?$AA@ 100899ec     libucrt:fpexcept.obj
 0002:000089f4       ??_C@_04PDIFKINK@acos?$AA@ 100899f4     libucrt:fpexcept.obj
 0002:000089fc       ??_C@_04MLLJIGOK@atan?$AA@ 100899fc     libucrt:fpexcept.obj
 0002:00008a04       ??_C@_05KNGEOGJB@atan2?$AA@ 10089a04     libucrt:fpexcept.obj
 0002:00008a0c       ??_C@_04EIAKFFMI@sqrt?$AA@ 10089a0c     libucrt:fpexcept.obj
 0002:00008a14       ??_C@_03BLEJJJBH@sin?$AA@  10089a14     libucrt:fpexcept.obj
 0002:00008a18       ??_C@_03LALBNOCG@cos?$AA@  10089a18     libucrt:fpexcept.obj
 0002:00008a1c       ??_C@_03IIINPABG@tan?$AA@  10089a1c     libucrt:fpexcept.obj
 0002:00008a20       ??_C@_04GFPJNGEK@ceil?$AA@ 10089a20     libucrt:fpexcept.obj
 0002:00008a28       ??_C@_05PBJFFIGL@floor?$AA@ 10089a28     libucrt:fpexcept.obj
 0002:00008a30       ??_C@_04ODHECPBC@fabs?$AA@ 10089a30     libucrt:fpexcept.obj
 0002:00008a38       ??_C@_04EHEDPDJG@modf?$AA@ 10089a38     libucrt:fpexcept.obj
 0002:00008a40       ??_C@_05CEJMAHNP@ldexp?$AA@ 10089a40     libucrt:fpexcept.obj
 0002:00008a48       ??_C@_05KBKMEMPO@_cabs?$AA@ 10089a48     libucrt:fpexcept.obj
 0002:00008a50       ??_C@_06MEIMCGCF@_hypot?$AA@ 10089a50     libucrt:fpexcept.obj
 0002:00008a58       ??_C@_04KEPJIHGP@fmod?$AA@ 10089a58     libucrt:fpexcept.obj
 0002:00008a60       ??_C@_05GKKHEGJL@frexp?$AA@ 10089a60     libucrt:fpexcept.obj
 0002:00008a68       ??_C@_03MJLDFKDL@_y0?$AA@  10089a68     libucrt:fpexcept.obj
 0002:00008a6c       ??_C@_03NAKIGLHK@_y1?$AA@  10089a6c     libucrt:fpexcept.obj
 0002:00008a70       ??_C@_03ONILCKOB@_yn?$AA@  10089a70     libucrt:fpexcept.obj
 0002:00008a74       ??_C@_05JGDBENOH@_logb?$AA@ 10089a74     libucrt:fpexcept.obj
 0002:00008a7c       ??_C@_0L@KDOEJCKC@_nextafter?$AA@ 10089a7c     libucrt:fpexcept.obj
 0002:00008a90       ___acrt_exception_action_table 10089a90     libucrt:exception_filter.obj
 0002:00008b3c       ___acrt_signal_action_table_count 10089b3c     libucrt:exception_filter.obj
 0002:00008b40       ___acrt_signal_action_table_size 10089b40     libucrt:exception_filter.obj
 0002:00008b44       ___acrt_signal_action_first_fpe_index 10089b44     libucrt:exception_filter.obj
 0002:00008b48       ___acrt_signal_action_fpe_count 10089b48     libucrt:exception_filter.obj
 0002:00008df8       ??_C@_1EA@JGEFHKEI@?$AAa?$AAp?$AAi?$AA?9?$AAm?$AAs?$AA?9?$AAw?$AAi?$AAn?$AA?9?$AAc?$AAo?$AAr?$AAe?$AA?9?$AAd?$AAa?$AAt?$AAe?$AAt?$AAi?$AAm?$AAe?$AA?9?$AAl?$AA1?$AA?9?$AA1?$AA?9?$AA1?$AA?$AA@ 10089df8     libucrt:winapi_thunks.obj
 0002:00008e44       ??_C@_1DM@KHCHBNEB@?$AAa?$AAp?$AAi?$AA?9?$AAm?$AAs?$AA?9?$AAw?$AAi?$AAn?$AA?9?$AAc?$AAo?$AAr?$AAe?$AA?9?$AAf?$AAi?$AAb?$AAe?$AAr?$AAs?$AA?9?$AAl?$AA1?$AA?9?$AA1?$AA?9?$AA1?$AA?$AA@ 10089e44     libucrt:winapi_thunks.obj
 0002:00008e8c       ??_C@_1DI@IJCEHOCB@?$AAa?$AAp?$AAi?$AA?9?$AAm?$AAs?$AA?9?$AAw?$AAi?$AAn?$AA?9?$AAc?$AAo?$AAr?$AAe?$AA?9?$AAf?$AAi?$AAl?$AAe?$AA?9?$AAl?$AA1?$AA?9?$AA2?$AA?9?$AA2?$AA?$AA@ 10089e8c     libucrt:winapi_thunks.obj
 0002:00008ed0       ??_C@_1EI@MPIAOHOC@?$AAa?$AAp?$AAi?$AA?9?$AAm?$AAs?$AA?9?$AAw?$AAi?$AAn?$AA?9?$AAc?$AAo?$AAr?$AAe?$AA?9?$AAl?$AAo?$AAc?$AAa?$AAl?$AAi?$AAz?$AAa?$AAt?$AAi?$AAo?$AAn?$AA?9?$AAl?$AA1?$AA?9@ 10089ed0     libucrt:winapi_thunks.obj
 0002:00008f28       ??_C@_1FK@FPHCKFIE@?$AAa?$AAp?$AAi?$AA?9?$AAm?$AAs?$AA?9?$AAw?$AAi?$AAn?$AA?9?$AAc?$AAo?$AAr?$AAe?$AA?9?$AAl?$AAo?$AAc?$AAa?$AAl?$AAi?$AAz?$AAa?$AAt?$AAi?$AAo?$AAn?$AA?9?$AAo?$AAb?$AAs@ 10089f28     libucrt:winapi_thunks.obj
 0002:00008f98       ??_C@_1EM@DILCGIIO@?$AAa?$AAp?$AAi?$AA?9?$AAm?$AAs?$AA?9?$AAw?$AAi?$AAn?$AA?9?$AAc?$AAo?$AAr?$AAe?$AA?9?$AAp?$AAr?$AAo?$AAc?$AAe?$AAs?$AAs?$AAt?$AAh?$AAr?$AAe?$AAa?$AAd?$AAs?$AA?9?$AAl@ 10089f98     libucrt:winapi_thunks.obj
 0002:00008ff4       ??_C@_1DM@LNCGDDPN@?$AAa?$AAp?$AAi?$AA?9?$AAm?$AAs?$AA?9?$AAw?$AAi?$AAn?$AA?9?$AAc?$AAo?$AAr?$AAe?$AA?9?$AAs?$AAt?$AAr?$AAi?$AAn?$AAg?$AA?9?$AAl?$AA1?$AA?9?$AA1?$AA?9?$AA0?$AA?$AA@ 10089ff4     libucrt:winapi_thunks.obj
 0002:0000903c       ??_C@_1DK@LPPGFMPP@?$AAa?$AAp?$AAi?$AA?9?$AAm?$AAs?$AA?9?$AAw?$AAi?$AAn?$AA?9?$AAc?$AAo?$AAr?$AAe?$AA?9?$AAs?$AAy?$AAn?$AAc?$AAh?$AA?9?$AAl?$AA1?$AA?9?$AA2?$AA?9?$AA0?$AA?$AA@ 1008a03c     libucrt:winapi_thunks.obj
 0002:00009084       ??_C@_1DO@FPAPJEMD@?$AAa?$AAp?$AAi?$AA?9?$AAm?$AAs?$AA?9?$AAw?$AAi?$AAn?$AA?9?$AAc?$AAo?$AAr?$AAe?$AA?9?$AAs?$AAy?$AAs?$AAi?$AAn?$AAf?$AAo?$AA?9?$AAl?$AA1?$AA?9?$AA2?$AA?9?$AA1?$AA?$AA@ 1008a084     libucrt:winapi_thunks.obj
 0002:000090d0       ??_C@_1DK@NDHNAHIO@?$AAa?$AAp?$AAi?$AA?9?$AAm?$AAs?$AA?9?$AAw?$AAi?$AAn?$AA?9?$AAc?$AAo?$AAr?$AAe?$AA?9?$AAw?$AAi?$AAn?$AAr?$AAt?$AA?9?$AAl?$AA1?$AA?9?$AA1?$AA?9?$AA0?$AA?$AA@ 1008a0d0     libucrt:winapi_thunks.obj
 0002:00009118       ??_C@_1DM@KGHDGBCM@?$AAa?$AAp?$AAi?$AA?9?$AAm?$AAs?$AA?9?$AAw?$AAi?$AAn?$AA?9?$AAc?$AAo?$AAr?$AAe?$AA?9?$AAx?$AAs?$AAt?$AAa?$AAt?$AAe?$AA?9?$AAl?$AA2?$AA?9?$AA1?$AA?9?$AA0?$AA?$AA@ 1008a118     libucrt:winapi_thunks.obj
 0002:00009160       ??_C@_1EO@IJIOEFOH@?$AAa?$AAp?$AAi?$AA?9?$AAm?$AAs?$AA?9?$AAw?$AAi?$AAn?$AA?9?$AAr?$AAt?$AAc?$AAo?$AAr?$AAe?$AA?9?$AAn?$AAt?$AAu?$AAs?$AAe?$AAr?$AA?9?$AAw?$AAi?$AAn?$AAd?$AAo?$AAw?$AA?9@ 1008a160     libucrt:winapi_thunks.obj
 0002:000091c0       ??_C@_1FG@HHGEKANL@?$AAa?$AAp?$AAi?$AA?9?$AAm?$AAs?$AA?9?$AAw?$AAi?$AAn?$AA?9?$AAs?$AAe?$AAc?$AAu?$AAr?$AAi?$AAt?$AAy?$AA?9?$AAs?$AAy?$AAs?$AAt?$AAe?$AAm?$AAf?$AAu?$AAn?$AAc?$AAt?$AAi@ 1008a1c0     libucrt:winapi_thunks.obj
 0002:00009228       ??_C@_1EG@DBIOJECG@?$AAe?$AAx?$AAt?$AA?9?$AAm?$AAs?$AA?9?$AAw?$AAi?$AAn?$AA?9?$AAn?$AAt?$AAu?$AAs?$AAe?$AAr?$AA?9?$AAd?$AAi?$AAa?$AAl?$AAo?$AAg?$AAb?$AAo?$AAx?$AA?9?$AAl?$AA1?$AA?9?$AA1@ 1008a228     libucrt:winapi_thunks.obj
 0002:00009280       ??_C@_1EO@FIHMJCLF@?$AAe?$AAx?$AAt?$AA?9?$AAm?$AAs?$AA?9?$AAw?$AAi?$AAn?$AA?9?$AAn?$AAt?$AAu?$AAs?$AAe?$AAr?$AA?9?$AAw?$AAi?$AAn?$AAd?$AAo?$AAw?$AAs?$AAt?$AAa?$AAt?$AAi?$AAo?$AAn?$AA?9@ 1008a280     libucrt:winapi_thunks.obj
 0002:000092e0       ??_C@_1BC@DNHGCMLG@?$AAa?$AAd?$AAv?$AAa?$AAp?$AAi?$AA3?$AA2?$AA?$AA@ 1008a2e0     libucrt:winapi_thunks.obj
 0002:000092f8       ??_C@_1BC@GDMECMAK@?$AAk?$AAe?$AAr?$AAn?$AAe?$AAl?$AA3?$AA2?$AA?$AA@ 1008a2f8     libucrt:winapi_thunks.obj
 0002:00009310       ??_C@_1M@OAIMIKLP@?$AAn?$AAt?$AAd?$AAl?$AAl?$AA?$AA@ 1008a310     libucrt:winapi_thunks.obj
 0002:00009320       ??_C@_1EG@DPGNFKGC@?$AAa?$AAp?$AAi?$AA?9?$AAm?$AAs?$AA?9?$AAw?$AAi?$AAn?$AA?9?$AAa?$AAp?$AAp?$AAm?$AAo?$AAd?$AAe?$AAl?$AA?9?$AAr?$AAu?$AAn?$AAt?$AAi?$AAm?$AAe?$AA?9?$AAl?$AA1?$AA?9?$AA1@ 1008a320     libucrt:winapi_thunks.obj
 0002:00009374       ??_C@_1O@BCCLBEOE@?$AAu?$AAs?$AAe?$AAr?$AA3?$AA2?$AA?$AA@ 1008a374     libucrt:winapi_thunks.obj
 0002:00009384       ??_C@_1BA@PFFKHIOG@?$AAa?$AAp?$AAi?$AA?9?$AAm?$AAs?$AA?9?$AA?$AA@ 1008a384     libucrt:winapi_thunks.obj
 0002:00009398       ??_C@_1BA@IAIFMGEF@?$AAe?$AAx?$AAt?$AA?9?$AAm?$AAs?$AA?9?$AA?$AA@ 1008a398     libucrt:winapi_thunks.obj
 0002:000093b0       ??_C@_0BA@FHFNEAED@AreFileApisANSI?$AA@ 1008a3b0     libucrt:winapi_thunks.obj
 0002:000093d0       ??_C@_0BA@IHGNDAEB@CompareStringEx?$AA@ 1008a3d0     libucrt:winapi_thunks.obj
 0002:000093f0       ??_C@_0BE@LJANKFHF@EnumSystemLocalesEx?$AA@ 1008a3f0     libucrt:winapi_thunks.obj
 0002:00009414       ??_C@_08KNHFBNJ@FlsAlloc?$AA@ 1008a414     libucrt:winapi_thunks.obj
 0002:0000942c       ??_C@_07PEJMOBNF@FlsFree?$AA@ 1008a42c     libucrt:winapi_thunks.obj
 0002:00009444       ??_C@_0M@GDNOONDI@FlsGetValue?$AA@ 1008a444     libucrt:winapi_thunks.obj
 0002:00009460       ??_C@_0M@JCPCPOEF@FlsSetValue?$AA@ 1008a460     libucrt:winapi_thunks.obj
 0002:0000947c       ??_C@_0BA@HNOPNCHB@GetActiveWindow?$AA@ 1008a47c     libucrt:winapi_thunks.obj
 0002:0000949c       ??_C@_0BA@EPCJIIPD@GetDateFormatEx?$AA@ 1008a49c     libucrt:winapi_thunks.obj
 0002:000094bc       ??_C@_0BJ@DIBIJBHA@GetEnabledXStateFeatures?$AA@ 1008a4bc     libucrt:winapi_thunks.obj
 0002:000094e8       ??_C@_0BD@HHGDFDBJ@GetLastActivePopup?$AA@ 1008a4e8     libucrt:winapi_thunks.obj
 0002:0000950c       ??_C@_0BA@ONOKGCMP@GetLocaleInfoEx?$AA@ 1008a50c     libucrt:winapi_thunks.obj
 0002:0000952c       ??_C@_0BI@DFKBFLJE@GetProcessWindowStation?$AA@ 1008a52c     libucrt:winapi_thunks.obj
 0002:0000954c       ??_C@_0BP@FPNJPEJC@GetSystemTimePreciseAsFileTime?$AA@ 1008a54c     libucrt:winapi_thunks.obj
 0002:00009580       ??_C@_0BA@CIJJKCJJ@GetTimeFormatEx?$AA@ 1008a580     libucrt:winapi_thunks.obj
 0002:000095a0       ??_C@_0BJ@PBCCBIPI@GetUserDefaultLocaleName?$AA@ 1008a5a0     libucrt:winapi_thunks.obj
 0002:000095cc       ??_C@_0BK@DEKFELLI@GetUserObjectInformationW?$AA@ 1008a5cc     libucrt:winapi_thunks.obj
 0002:000095f8       ??_C@_0BG@IKLDMBLM@GetXStateFeaturesMask?$AA@ 1008a5f8     libucrt:winapi_thunks.obj
 0002:00009620       ??_C@_0BM@HCFOFFN@InitializeCriticalSectionEx?$AA@ 1008a620     libucrt:winapi_thunks.obj
 0002:00009650       ??_C@_0BC@CELBKLLA@IsValidLocaleName?$AA@ 1008a650     libucrt:winapi_thunks.obj
 0002:00009674       ??_C@_0O@KKBNKAPF@LCMapStringEx?$AA@ 1008a674     libucrt:winapi_thunks.obj
 0002:00009690       ??_C@_0BB@CDHDDLLP@LCIDToLocaleName?$AA@ 1008a690     libucrt:winapi_thunks.obj
 0002:000096b0       ??_C@_0BB@HBDEELFH@LocaleNameToLCID?$AA@ 1008a6b0     libucrt:winapi_thunks.obj
 0002:000096d0       ??_C@_0BE@KINNKFDA@LocateXStateFeature?$AA@ 1008a6d0     libucrt:winapi_thunks.obj
 0002:000096f4       ??_C@_0M@CHKKJDAI@MessageBoxA?$AA@ 1008a6f4     libucrt:winapi_thunks.obj
 0002:00009710       ??_C@_0M@DLDCCGNP@MessageBoxW?$AA@ 1008a710     libucrt:winapi_thunks.obj
 0002:00009724       ??_C@_0N@PPOMPGGK@RoInitialize?$AA@ 1008a724     libucrt:winapi_thunks.obj
 0002:00009738       ??_C@_0P@LLFHBIJD@RoUninitialize?$AA@ 1008a738     libucrt:winapi_thunks.obj
 0002:00009750       ??_C@_0CF@OJOFEIGO@AppPolicyGetProcessTerminationMe@ 1008a750     libucrt:winapi_thunks.obj
 0002:00009780       ??_C@_0CF@NNDFDCOC@AppPolicyGetThreadInitialization@ 1008a780     libucrt:winapi_thunks.obj
 0002:000097b0       ??_C@_0CE@OICFMIKE@AppPolicyGetShowDeveloperDiagnos@ 1008a7b0     libucrt:winapi_thunks.obj
 0002:000097e0       ??_C@_0BL@ODDJNEDA@AppPolicyGetWindowingModel?$AA@ 1008a7e0     libucrt:winapi_thunks.obj
 0002:0000980c       ??_C@_0BI@BKLFFAPO@SetThreadStackGuarantee?$AA@ 1008a80c     libucrt:winapi_thunks.obj
 0002:00009834       ??_C@_0BC@JEAENNKH@SystemFunction036?$AA@ 1008a834     libucrt:winapi_thunks.obj
 0002:0000984c       ??_C@_03OEIAHPBN@INF?$AA@  1008a84c     libucrt:cvt.obj
 0002:00009850       ??_C@_03OJHLLCGB@inf?$AA@  1008a850     libucrt:cvt.obj
 0002:00009854       ??_C@_03LKNCIKJB@NAN?$AA@  1008a854     libucrt:cvt.obj
 0002:00009858       ??_C@_03LHCJEHON@nan?$AA@  1008a858     libucrt:cvt.obj
 0002:0000985c       ??_C@_09OFJJIMPC@NAN?$CISNAN?$CJ?$AA@ 1008a85c     libucrt:cvt.obj
 0002:00009868       ??_C@_09IPFBKMDL@nan?$CIsnan?$CJ?$AA@ 1008a868     libucrt:cvt.obj
 0002:00009874       ??_C@_08IKHNHAJ@NAN?$CIIND?$CJ?$AA@ 1008a874     libucrt:cvt.obj
 0002:00009880       ??_C@_08OFCDMILK@nan?$CIind?$CJ?$AA@ 1008a880     libucrt:cvt.obj
 0002:0000988c       ??_C@_05KLBDPFGC@e?$CL000?$AA@ 1008a88c     libucrt:cvt.obj
 0002:00009930       ___lc_category             1008a930     libucrt:wsetlocale.obj
 0002:00009988       ??_C@_1O@GIFLHMA@?$AAL?$AAC?$AA_?$AAA?$AAL?$AAL?$AA?$AA@ 1008a988     libucrt:wsetlocale.obj
 0002:00009998       ??_C@_1BG@PPOMIBNJ@?$AAL?$AAC?$AA_?$AAC?$AAO?$AAL?$AAL?$AAA?$AAT?$AAE?$AA?$AA@ 1008a998     libucrt:wsetlocale.obj
 0002:000099b4       ??_C@_1BC@FFJGAPJM@?$AAL?$AAC?$AA_?$AAC?$AAT?$AAY?$AAP?$AAE?$AA?$AA@ 1008a9b4     libucrt:wsetlocale.obj
 0002:000099cc       ??_C@_1BI@PCKFNJFB@?$AAL?$AAC?$AA_?$AAM?$AAO?$AAN?$AAE?$AAT?$AAA?$AAR?$AAY?$AA?$AA@ 1008a9cc     libucrt:wsetlocale.obj
 0002:000099e8       ??_C@_1BG@ENIEDKID@?$AAL?$AAC?$AA_?$AAN?$AAU?$AAM?$AAE?$AAR?$AAI?$AAC?$AA?$AA@ 1008a9e8     libucrt:wsetlocale.obj
 0002:00009a04       ??_C@_1BA@HAAOMIIG@?$AAL?$AAC?$AA_?$AAT?$AAI?$AAM?$AAE?$AA?$AA@ 1008aa04     libucrt:wsetlocale.obj
 0002:00009a18       ??_C@_15NBPDDFIP@?$AA?$DN?$AA?$DL?$AA?$AA@ 1008aa18     libucrt:wsetlocale.obj
 0002:00009a20       ??_C@_13PJJBFPED@?$AA?$DL?$AA?$AA@ 1008aa20     libucrt:wsetlocale.obj
 0002:00009a24       ??_C@_13NMPKAAJP@?$AA?$DN?$AA?$AA@ 1008aa24     libucrt:wsetlocale.obj
 0002:00009a28       ??_C@_13FHBKNHDA@?$AAC?$AA?$AA@ 1008aa28     libucrt:wsetlocale.obj
 0002:00009a2c       ??_C@_19MPDNHKDG@?$AAu?$AAt?$AAf?$AA8?$AA?$AA@ 1008aa2c     libucrt:wsetlocale.obj
 0002:00009a38       ??_C@_1M@FPEIIFAM@?$AAu?$AAt?$AAf?$AA?9?$AA8?$AA?$AA@ 1008aa38     libucrt:wsetlocale.obj
 0002:00009a48       ??_C@_17MBJJLFDM@?$AA_?$AA?4?$AA?0?$AA?$AA@ 1008aa48     libucrt:wsetlocale.obj
 0002:00009a54       ??_C@_13ENNFDPBH@?$AA_?$AA?$AA@ 1008aa54     libucrt:wsetlocale.obj
 0002:00009a58       ??_C@_13JOFGPIOO@?$AA?4?$AA?$AA@ 1008aa58     libucrt:wsetlocale.obj
 0002:00009a60       ___lc_time_c               1008aa60     libucrt:nlsdata.obj
 0002:00009c0c       ??_C@_03KOEHGMDN@Sun?$AA@  1008ac0c     libucrt:nlsdata.obj
 0002:00009c10       ??_C@_03PDAGKDH@Mon?$AA@   1008ac10     libucrt:nlsdata.obj
 0002:00009c14       ??_C@_03NAGEINEP@Tue?$AA@  1008ac14     libucrt:nlsdata.obj
 0002:00009c18       ??_C@_03MHOMLAJA@Wed?$AA@  1008ac18     libucrt:nlsdata.obj
 0002:00009c1c       ??_C@_03IOFIKPDN@Thu?$AA@  1008ac1c     libucrt:nlsdata.obj
 0002:00009c20       ??_C@_03IDIOELNC@Fri?$AA@  1008ac20     libucrt:nlsdata.obj
 0002:00009c24       ??_C@_03FEFJNEK@Sat?$AA@   1008ac24     libucrt:nlsdata.obj
 0002:00009c28       ??_C@_06OOPIFAJ@Sunday?$AA@ 1008ac28     libucrt:nlsdata.obj
 0002:00009c30       ??_C@_06JLEDEDGH@Monday?$AA@ 1008ac30     libucrt:nlsdata.obj
 0002:00009c38       ??_C@_07BAAGCFCM@Tuesday?$AA@ 1008ac38     libucrt:nlsdata.obj
 0002:00009c44       ??_C@_09DLIGFAKA@Wednesday?$AA@ 1008ac44     libucrt:nlsdata.obj
 0002:00009c50       ??_C@_08HACCIKIA@Thursday?$AA@ 1008ac50     libucrt:nlsdata.obj
 0002:00009c5c       ??_C@_06JECMNKMI@Friday?$AA@ 1008ac5c     libucrt:nlsdata.obj
 0002:00009c64       ??_C@_08INBOOONO@Saturday?$AA@ 1008ac64     libucrt:nlsdata.obj
 0002:00009c70       ??_C@_03JIHJHPIE@Jan?$AA@  1008ac70     libucrt:nlsdata.obj
 0002:00009c74       ??_C@_03HJBDCHOM@Feb?$AA@  1008ac74     libucrt:nlsdata.obj
 0002:00009c78       ??_C@_03ODNJBKGA@Mar?$AA@  1008ac78     libucrt:nlsdata.obj
 0002:00009c7c       ??_C@_03LEOLGMJP@Apr?$AA@  1008ac7c     libucrt:nlsdata.obj
 0002:00009c80       ??_C@_03CNMDKL@May?$AA@    1008ac80     libucrt:nlsdata.obj
 0002:00009c84       ??_C@_03IDFGHECI@Jun?$AA@  1008ac84     libucrt:nlsdata.obj
 0002:00009c88       ??_C@_03LBGABGKK@Jul?$AA@  1008ac88     libucrt:nlsdata.obj
 0002:00009c8c       ??_C@_03IFJFEIGA@Aug?$AA@  1008ac8c     libucrt:nlsdata.obj
 0002:00009c90       ??_C@_03GGCAPAJC@Sep?$AA@  1008ac90     libucrt:nlsdata.obj
 0002:00009c94       ??_C@_03BMAOKBAD@Oct?$AA@  1008ac94     libucrt:nlsdata.obj
 0002:00009c98       ??_C@_03JPJOFNIA@Nov?$AA@  1008ac98     libucrt:nlsdata.obj
 0002:00009c9c       ??_C@_03MKABNOCG@Dec?$AA@  1008ac9c     libucrt:nlsdata.obj
 0002:00009ca0       ??_C@_07CGJPFGJA@January?$AA@ 1008aca0     libucrt:nlsdata.obj
 0002:00009cac       ??_C@_08GNJGEPFN@February?$AA@ 1008acac     libucrt:nlsdata.obj
 0002:00009cb8       ??_C@_05HPCKOFNC@March?$AA@ 1008acb8     libucrt:nlsdata.obj
 0002:00009cc0       ??_C@_05DMJDNLEJ@April?$AA@ 1008acc0     libucrt:nlsdata.obj
 0002:00009cc8       ??_C@_04CNLMGBGM@June?$AA@ 1008acc8     libucrt:nlsdata.obj
 0002:00009cd0       ??_C@_04MIEPOIFP@July?$AA@ 1008acd0     libucrt:nlsdata.obj
 0002:00009cd8       ??_C@_06LBBHFDDG@August?$AA@ 1008acd8     libucrt:nlsdata.obj
 0002:00009ce0       ??_C@_09BHHEALKD@September?$AA@ 1008ace0     libucrt:nlsdata.obj
 0002:00009cec       ??_C@_07JJNFCEND@October?$AA@ 1008acec     libucrt:nlsdata.obj
 0002:00009cf8       ??_C@_08HCHEGEOA@November?$AA@ 1008acf8     libucrt:nlsdata.obj
 0002:00009d04       ??_C@_08EDHMEBNP@December?$AA@ 1008ad04     libucrt:nlsdata.obj
 0002:00009d10       ??_C@_02DEDBPAFC@AM?$AA@   1008ad10     libucrt:nlsdata.obj
 0002:00009d14       ??_C@_02CJNFDJBF@PM?$AA@   1008ad14     libucrt:nlsdata.obj
 0002:00009d18       ??_C@_08BPBNCDIB@MM?1dd?1yy?$AA@ 1008ad18     libucrt:nlsdata.obj
 0002:00009d24       ??_C@_0BE@CKGJFCPC@dddd?0?5MMMM?5dd?0?5yyyy?$AA@ 1008ad24     libucrt:nlsdata.obj
 0002:00009d3c       ??_C@_08JCCMCCIL@HH?3mm?3ss?$AA@ 1008ad3c     libucrt:nlsdata.obj
 0002:00009d48       ??_C@_17MBGCMIPB@?$AAS?$AAu?$AAn?$AA?$AA@ 1008ad48     libucrt:nlsdata.obj
 0002:00009d54       ??_C@_17KBOMKBF@?$AAM?$AAo?$AAn?$AA?$AA@ 1008ad54     libucrt:nlsdata.obj
 0002:00009d60       ??_C@_17BMKGEGOJ@?$AAT?$AAu?$AAe?$AA?$AA@ 1008ad60     libucrt:nlsdata.obj
 0002:00009d6c       ??_C@_17CJEDCEPE@?$AAW?$AAe?$AAd?$AA?$AA@ 1008ad6c     libucrt:nlsdata.obj
 0002:00009d78       ??_C@_17PDPHAADD@?$AAT?$AAh?$AAu?$AA?$AA@ 1008ad78     libucrt:nlsdata.obj
 0002:00009d84       ??_C@_17HFOLPPLP@?$AAF?$AAr?$AAi?$AA?$AA@ 1008ad84     libucrt:nlsdata.obj
 0002:00009d90       ??_C@_17GGIBDPIH@?$AAS?$AAa?$AAt?$AA?$AA@ 1008ad90     libucrt:nlsdata.obj
 0002:00009d9c       ??_C@_1O@IHNHDHPB@?$AAS?$AAu?$AAn?$AAd?$AAa?$AAy?$AA?$AA@ 1008ad9c     libucrt:nlsdata.obj
 0002:00009dac       ??_C@_1O@MMNBFLIA@?$AAM?$AAo?$AAn?$AAd?$AAa?$AAy?$AA?$AA@ 1008adac     libucrt:nlsdata.obj
 0002:00009dbc       ??_C@_1BA@ENFBFFEK@?$AAT?$AAu?$AAe?$AAs?$AAd?$AAa?$AAy?$AA?$AA@ 1008adbc     libucrt:nlsdata.obj
 0002:00009dd0       ??_C@_1BE@EBOGMDOH@?$AAW?$AAe?$AAd?$AAn?$AAe?$AAs?$AAd?$AAa?$AAy?$AA?$AA@ 1008add0     libucrt:nlsdata.obj
 0002:00009de8       ??_C@_1BC@HHMNLIHE@?$AAT?$AAh?$AAu?$AAr?$AAs?$AAd?$AAa?$AAy?$AA?$AA@ 1008ade8     libucrt:nlsdata.obj
 0002:00009e00       ??_C@_1O@PDICJHAG@?$AAF?$AAr?$AAi?$AAd?$AAa?$AAy?$AA?$AA@ 1008ae00     libucrt:nlsdata.obj
 0002:00009e10       ??_C@_1BC@ENMNNPAJ@?$AAS?$AAa?$AAt?$AAu?$AAr?$AAd?$AAa?$AAy?$AA?$AA@ 1008ae10     libucrt:nlsdata.obj
 0002:00009e28       ??_C@_17DKNBKCHM@?$AAJ?$AAa?$AAn?$AA?$AA@ 1008ae28     libucrt:nlsdata.obj
 0002:00009e34       ??_C@_17LMDJEKJN@?$AAF?$AAe?$AAb?$AA?$AA@ 1008ae34     libucrt:nlsdata.obj
 0002:00009e40       ??_C@_17CKNLEDEC@?$AAM?$AAa?$AAr?$AA?$AA@ 1008ae40     libucrt:nlsdata.obj
 0002:00009e4c       ??_C@_17LFPOIHDD@?$AAA?$AAp?$AAr?$AA?$AA@ 1008ae4c     libucrt:nlsdata.obj
 0002:00009e58       ??_C@_17PNNKMEED@?$AAM?$AAa?$AAy?$AA?$AA@ 1008ae58     libucrt:nlsdata.obj
 0002:00009e64       ??_C@_17KCJGOCPB@?$AAJ?$AAu?$AAn?$AA?$AA@ 1008ae64     libucrt:nlsdata.obj
 0002:00009e70       ??_C@_17IJPCKHK@?$AAJ?$AAu?$AAl?$AA?$AA@ 1008ae70     libucrt:nlsdata.obj
 0002:00009e7c       ??_C@_17ICPELBCN@?$AAA?$AAu?$AAg?$AA?$AA@ 1008ae7c     libucrt:nlsdata.obj
 0002:00009e88       ??_C@_17HCHCOKMG@?$AAS?$AAe?$AAp?$AA?$AA@ 1008ae88     libucrt:nlsdata.obj
 0002:00009e94       ??_C@_17FNLKOI@?$AAO?$AAc?$AAt?$AA?$AA@ 1008ae94     libucrt:nlsdata.obj
 0002:00009ea0       ??_C@_17BBDMLCIG@?$AAN?$AAo?$AAv?$AA?$AA@ 1008aea0     libucrt:nlsdata.obj
 0002:00009eac       ??_C@_17EGKACKIF@?$AAD?$AAe?$AAc?$AA?$AA@ 1008aeac     libucrt:nlsdata.obj
 0002:00009eb8       ??_C@_1BA@EFMEIEBA@?$AAJ?$AAa?$AAn?$AAu?$AAa?$AAr?$AAy?$AA?$AA@ 1008aeb8     libucrt:nlsdata.obj
 0002:00009ecc       ??_C@_1BC@JGDDFFAM@?$AAF?$AAe?$AAb?$AAr?$AAu?$AAa?$AAr?$AAy?$AA?$AA@ 1008aecc     libucrt:nlsdata.obj
 0002:00009ee4       ??_C@_1M@IKEENEDF@?$AAM?$AAa?$AAr?$AAc?$AAh?$AA?$AA@ 1008aee4     libucrt:nlsdata.obj
 0002:00009ef4       ??_C@_1M@GJNLMHFD@?$AAA?$AAp?$AAr?$AAi?$AAl?$AA?$AA@ 1008aef4     libucrt:nlsdata.obj
 0002:00009f04       ??_C@_19EPFLPGAP@?$AAJ?$AAu?$AAn?$AAe?$AA?$AA@ 1008af04     libucrt:nlsdata.obj
 0002:00009f10       ??_C@_19BIFMLPCD@?$AAJ?$AAu?$AAl?$AAy?$AA?$AA@ 1008af10     libucrt:nlsdata.obj
 0002:00009f1c       ??_C@_1O@PAHLKOAC@?$AAA?$AAu?$AAg?$AAu?$AAs?$AAt?$AA?$AA@ 1008af1c     libucrt:nlsdata.obj
 0002:00009f2c       ??_C@_1BE@DKAAMBJL@?$AAS?$AAe?$AAp?$AAt?$AAe?$AAm?$AAb?$AAe?$AAr?$AA?$AA@ 1008af2c     libucrt:nlsdata.obj
 0002:00009f44       ??_C@_1BA@EPANDLNG@?$AAO?$AAc?$AAt?$AAo?$AAb?$AAe?$AAr?$AA?$AA@ 1008af44     libucrt:nlsdata.obj
 0002:00009f58       ??_C@_1BC@BGLIFPF@?$AAN?$AAo?$AAv?$AAe?$AAm?$AAb?$AAe?$AAr?$AA?$AA@ 1008af58     libucrt:nlsdata.obj
 0002:00009f70       ??_C@_1BC@FEMKIFH@?$AAD?$AAe?$AAc?$AAe?$AAm?$AAb?$AAe?$AAr?$AA?$AA@ 1008af70     libucrt:nlsdata.obj
 0002:00009f88       ??_C@_15ODEHAHHF@?$AAA?$AAM?$AA?$AA@ 1008af88     libucrt:nlsdata.obj
 0002:00009f90       ??_C@_15CLMNNGEL@?$AAP?$AAM?$AA?$AA@ 1008af90     libucrt:nlsdata.obj
 0002:00009f98       ??_C@_1BC@IEBCMHCM@?$AAM?$AAM?$AA?1?$AAd?$AAd?$AA?1?$AAy?$AAy?$AA?$AA@ 1008af98     libucrt:nlsdata.obj
 0002:00009fb0       ??_C@_1CI@KNAKOEBC@?$AAd?$AAd?$AAd?$AAd?$AA?0?$AA?5?$AAM?$AAM?$AAM?$AAM?$AA?5?$AAd?$AAd?$AA?0?$AA?5?$AAy?$AAy?$AAy?$AAy?$AA?$AA@ 1008afb0     libucrt:nlsdata.obj
 0002:00009fe0       ??_C@_1BC@GDGBMEMK@?$AAH?$AAH?$AA?3?$AAm?$AAm?$AA?3?$AAs?$AAs?$AA?$AA@ 1008afe0     libucrt:nlsdata.obj
 0002:00009ff8       ??_C@_1M@BMHNFIME@?$AAe?$AAn?$AA?9?$AAU?$AAS?$AA?$AA@ 1008aff8     libucrt:nlsdata.obj
 0002:0000a008       ?ccs@?1???$__acrt_stdio_parse_mode@D@@YA?AU__acrt_stdio_stream_mode@@QBD@Z@4QBDB 1008b008     libucrt:openfile.obj
 0002:0000a00c       ?utf8_encoding@?1???$__acrt_stdio_parse_mode@D@@YA?AU__acrt_stdio_stream_mode@@QBD@Z@4QBDB 1008b00c     libucrt:openfile.obj
 0002:0000a014       ?utf16_encoding@?1???$__acrt_stdio_parse_mode@D@@YA?AU__acrt_stdio_stream_mode@@QBD@Z@4QBDB 1008b014     libucrt:openfile.obj
 0002:0000a020       ?unicode_encoding@?1???$__acrt_stdio_parse_mode@D@@YA?AU__acrt_stdio_stream_mode@@QBD@Z@4QBDB 1008b020     libucrt:openfile.obj
 0002:0000a028       ?ccs@?1???$__acrt_stdio_parse_mode@_W@@YA?AU__acrt_stdio_stream_mode@@QB_W@Z@4QB_WB 1008b028     libucrt:openfile.obj
 0002:0000a030       ?utf8_encoding@?1???$__acrt_stdio_parse_mode@_W@@YA?AU__acrt_stdio_stream_mode@@QB_W@Z@4QB_WB 1008b030     libucrt:openfile.obj
 0002:0000a03c       ?utf16_encoding@?1???$__acrt_stdio_parse_mode@_W@@YA?AU__acrt_stdio_stream_mode@@QB_W@Z@4QB_WB 1008b03c     libucrt:openfile.obj
 0002:0000a050       ?unicode_encoding@?1???$__acrt_stdio_parse_mode@_W@@YA?AU__acrt_stdio_stream_mode@@QB_W@Z@4QB_WB 1008b050     libucrt:openfile.obj
 0002:0000a060       __d_inf                    1008b060     libucrt:util.obj
 0002:0000a070       __d_ind                    1008b070     libucrt:util.obj
 0002:0000a080       __d_max                    1008b080     libucrt:util.obj
 0002:0000a090       __d_min                    1008b090     libucrt:util.obj
 0002:0000a0a0       __d_mzero                  1008b0a0     libucrt:util.obj
 0002:0000a0cc       ??_C@_1DE@JNGNBFGO@?$AAR?$AAu?$AAn?$AAt?$AAi?$AAm?$AAe?$AA?5?$AAE?$AAr?$AAr?$AAo?$AAr?$AA?$CB?$AA?6?$AA?6?$AAP?$AAr?$AAo?$AAg?$AAr?$AAa?$AAm?$AA?3?$AA?5?$AA?$AA@ 1008b0cc     libucrt:report_runtime_error.obj
 0002:0000a110       ___newctype                1008b110     libucrt:ctype.obj
 0002:0000a4b0       ___newclmap                1008b4b0     libucrt:ctype.obj
 0002:0000a680       ___newcumap                1008b680     libucrt:ctype.obj
 0002:0000a850       __wctype                   1008b850     libucrt:ctype.obj
 0002:0000aad0       ??_C@_1M@HPNHIDJI@?$AAj?$AAa?$AA?9?$AAJ?$AAP?$AA?$AA@ 1008bad0     libucrt:mbctype.obj
 0002:0000aae0       ??_C@_1M@BIBDDEMK@?$AAz?$AAh?$AA?9?$AAC?$AAN?$AA?$AA@ 1008bae0     libucrt:mbctype.obj
 0002:0000aaf0       ??_C@_1M@JLOOOEGK@?$AAk?$AAo?$AA?9?$AAK?$AAR?$AA?$AA@ 1008baf0     libucrt:mbctype.obj
 0002:0000ab00       ??_C@_1M@CLNBBOPM@?$AAz?$AAh?$AA?9?$AAT?$AAW?$AA?$AA@ 1008bb00     libucrt:mbctype.obj
 0002:0000b39c       ??_C@_15EMKDOKLE@?$AAa?$AAr?$AA?$AA@ 1008c39c     libucrt:lcidtoname_downlevel.obj
 0002:0000b3a4       ??_C@_15KNPADPLH@?$AAb?$AAg?$AA?$AA@ 1008c3a4     libucrt:lcidtoname_downlevel.obj
 0002:0000b3ac       ??_C@_15EDMHLDMO@?$AAc?$AAa?$AA?$AA@ 1008c3ac     libucrt:lcidtoname_downlevel.obj
 0002:0000b3b4       ??_C@_1O@BPEAJADD@?$AAz?$AAh?$AA?9?$AAC?$AAH?$AAS?$AA?$AA@ 1008c3b4     libucrt:lcidtoname_downlevel.obj
 0002:0000b3c4       ??_C@_15LJNHCMNK@?$AAc?$AAs?$AA?$AA@ 1008c3c4     libucrt:lcidtoname_downlevel.obj
 0002:0000b3cc       ??_C@_15FOMCIDHG@?$AAd?$AAa?$AA?$AA@ 1008c3cc     libucrt:lcidtoname_downlevel.obj
 0002:0000b3d4       ??_C@_15NBKABECB@?$AAd?$AAe?$AA?$AA@ 1008c3d4     libucrt:lcidtoname_downlevel.obj
 0002:0000b3dc       ??_C@_15GHPEIIAO@?$AAe?$AAl?$AA?$AA@ 1008c3dc     libucrt:lcidtoname_downlevel.obj
 0002:0000b3e4       ??_C@_15MNPNEAIF@?$AAe?$AAn?$AA?$AA@ 1008c3e4     libucrt:lcidtoname_downlevel.obj
 0002:0000b3ec       ??_C@_15GPIOMPMH@?$AAe?$AAs?$AA?$AA@ 1008c3ec     libucrt:lcidtoname_downlevel.obj
 0002:0000b3f4       ??_C@_15NGLOAKJC@?$AAf?$AAi?$AA?$AA@ 1008c3f4     libucrt:lcidtoname_downlevel.obj
 0002:0000b3fc       ??_C@_15FBKGNKAM@?$AAf?$AAr?$AA?$AA@ 1008c3fc     libucrt:lcidtoname_downlevel.obj
 0002:0000b404       ??_C@_15KGGCNEFK@?$AAh?$AAe?$AA?$AA@ 1008c404     libucrt:lcidtoname_downlevel.obj
 0002:0000b40c       ??_C@_15PGHLIDMF@?$AAh?$AAu?$AA?$AA@ 1008c40c     libucrt:lcidtoname_downlevel.obj
 0002:0000b414       ??_C@_15BIEMAPLM@?$AAi?$AAs?$AA?$AA@ 1008c414     libucrt:lcidtoname_downlevel.obj
 0002:0000b41c       ??_C@_15IFJLDHAF@?$AAi?$AAt?$AA?$AA@ 1008c41c     libucrt:lcidtoname_downlevel.obj
 0002:0000b424       ??_C@_15GEMIOCAG@?$AAj?$AAa?$AA?$AA@ 1008c424     libucrt:lcidtoname_downlevel.obj
 0002:0000b42c       ??_C@_15EPELEGJA@?$AAk?$AAo?$AA?$AA@ 1008c42c     libucrt:lcidtoname_downlevel.obj
 0002:0000b434       ??_C@_15NDDHIMN@?$AAn?$AAl?$AA?$AA@ 1008c434     libucrt:lcidtoname_downlevel.obj
 0002:0000b43c       ??_C@_15BPIGNHCD@?$AAn?$AAo?$AA?$AA@ 1008c43c     libucrt:lcidtoname_downlevel.obj
 0002:0000b444       ??_C@_15DEOPBLCG@?$AAp?$AAl?$AA?$AA@ 1008c444     libucrt:lcidtoname_downlevel.obj
 0002:0000b44c       ??_C@_15KBECGEFG@?$AAp?$AAt?$AA?$AA@ 1008c44c     libucrt:lcidtoname_downlevel.obj
 0002:0000b454       ??_C@_15GLJCBFMD@?$AAr?$AAo?$AA?$AA@ 1008c454     libucrt:lcidtoname_downlevel.obj
 0002:0000b45c       ??_C@_15FEDGKCDI@?$AAr?$AAu?$AA?$AA@ 1008c45c     libucrt:lcidtoname_downlevel.obj
 0002:0000b464       ??_C@_15GLKMLLHM@?$AAh?$AAr?$AA?$AA@ 1008c464     libucrt:lcidtoname_downlevel.obj
 0002:0000b46c       ??_C@_15CPKMFBDB@?$AAs?$AAk?$AA?$AA@ 1008c46c     libucrt:lcidtoname_downlevel.obj
 0002:0000b474       ??_C@_15BAAIOGMK@?$AAs?$AAq?$AA?$AA@ 1008c474     libucrt:lcidtoname_downlevel.obj
 0002:0000b47c       ??_C@_15INNPNOHD@?$AAs?$AAv?$AA?$AA@ 1008c47c     libucrt:lcidtoname_downlevel.obj
 0002:0000b484       ??_C@_15CABMMOGH@?$AAt?$AAh?$AA?$AA@ 1008c484     libucrt:lcidtoname_downlevel.obj
 0002:0000b48c       ??_C@_15BPLIHJJM@?$AAt?$AAr?$AA?$AA@ 1008c48c     libucrt:lcidtoname_downlevel.obj
 0002:0000b494       ??_C@_15NEOEKKDJ@?$AAu?$AAr?$AA?$AA@ 1008c494     libucrt:lcidtoname_downlevel.obj
 0002:0000b49c       ??_C@_15NFICGAJK@?$AAi?$AAd?$AA?$AA@ 1008c49c     libucrt:lcidtoname_downlevel.obj
 0002:0000b4a4       ??_C@_15PJPFLCCM@?$AAu?$AAk?$AA?$AA@ 1008c4a4     libucrt:lcidtoname_downlevel.obj
 0002:0000b4ac       ??_C@_15HPJPHDM@?$AAb?$AAe?$AA?$AA@ 1008c4ac     libucrt:lcidtoname_downlevel.obj
 0002:0000b4b4       ??_C@_15LCHLGJII@?$AAs?$AAl?$AA?$AA@ 1008c4b4     libucrt:lcidtoname_downlevel.obj
 0002:0000b4bc       ??_C@_15PCFJPHHO@?$AAe?$AAt?$AA?$AA@ 1008c4bc     libucrt:lcidtoname_downlevel.obj
 0002:0000b4c4       ??_C@_15HPFPGODN@?$AAl?$AAv?$AA?$AA@ 1008c4c4     libucrt:lcidtoname_downlevel.obj
 0002:0000b4cc       ??_C@_15NFFGKGLG@?$AAl?$AAt?$AA?$AA@ 1008c4cc     libucrt:lcidtoname_downlevel.obj
 0002:0000b4d4       ??_C@_15BDAKCCHN@?$AAf?$AAa?$AA?$AA@ 1008c4d4     libucrt:lcidtoname_downlevel.obj
 0002:0000b4dc       ??_C@_15NFGIAIAJ@?$AAv?$AAi?$AA?$AA@ 1008c4dc     libucrt:lcidtoname_downlevel.obj
 0002:0000b4e4       ??_C@_15LMKNDMHN@?$AAh?$AAy?$AA?$AA@ 1008c4e4     libucrt:lcidtoname_downlevel.obj
 0002:0000b4ec       ??_C@_15IJBHMCFL@?$AAa?$AAz?$AA?$AA@ 1008c4ec     libucrt:lcidtoname_downlevel.obj
 0002:0000b4f4       ??_C@_15EKOFJABL@?$AAe?$AAu?$AA?$AA@ 1008c4f4     libucrt:lcidtoname_downlevel.obj
 0002:0000b4fc       ??_C@_15BGHADCNK@?$AAm?$AAk?$AA?$AA@ 1008c4fc     libucrt:lcidtoname_downlevel.obj
 0002:0000b504       ??_C@_15JDNICKHM@?$AAa?$AAf?$AA?$AA@ 1008c504     libucrt:lcidtoname_downlevel.obj
 0002:0000b50c       ??_C@_15KPJEDBKD@?$AAk?$AAa?$AA?$AA@ 1008c50c     libucrt:lcidtoname_downlevel.obj
 0002:0000b514       ??_C@_15PDNFFFEO@?$AAf?$AAo?$AA?$AA@ 1008c514     libucrt:lcidtoname_downlevel.obj
 0002:0000b51c       ??_C@_15OMLEGLOC@?$AAh?$AAi?$AA?$AA@ 1008c51c     libucrt:lcidtoname_downlevel.obj
 0002:0000b524       ??_C@_15IDNNENKK@?$AAm?$AAs?$AA?$AA@ 1008c524     libucrt:lcidtoname_downlevel.obj
 0002:0000b52c       ??_C@_15MACJNBMH@?$AAk?$AAk?$AA?$AA@ 1008c52c     libucrt:lcidtoname_downlevel.obj
 0002:0000b534       ??_C@_15DKDJEOND@?$AAk?$AAy?$AA?$AA@ 1008c534     libucrt:lcidtoname_downlevel.obj
 0002:0000b53c       ??_C@_15DFGDLJBG@?$AAs?$AAw?$AA?$AA@ 1008c53c     libucrt:lcidtoname_downlevel.obj
 0002:0000b544       ??_C@_15BBFAICNG@?$AAu?$AAz?$AA?$AA@ 1008c544     libucrt:lcidtoname_downlevel.obj
 0002:0000b54c       ??_C@_15DKNDCGEA@?$AAt?$AAt?$AA?$AA@ 1008c54c     libucrt:lcidtoname_downlevel.obj
 0002:0000b554       ??_C@_15MGIFMDPL@?$AAp?$AAa?$AA?$AA@ 1008c554     libucrt:lcidtoname_downlevel.obj
 0002:0000b55c       ??_C@_15HCNDBBA@?$AAg?$AAu?$AA?$AA@ 1008c55c     libucrt:lcidtoname_downlevel.obj
 0002:0000b564       ??_C@_15FNBEIBON@?$AAt?$AAa?$AA?$AA@ 1008c564     libucrt:lcidtoname_downlevel.obj
 0002:0000b56c       ??_C@_15NCHGBGLK@?$AAt?$AAe?$AA?$AA@ 1008c56c     libucrt:lcidtoname_downlevel.obj
 0002:0000b574       ??_C@_15PHPHCBPF@?$AAk?$AAn?$AA?$AA@ 1008c574     libucrt:lcidtoname_downlevel.obj
 0002:0000b57c       ??_C@_15DLGBCKMP@?$AAm?$AAr?$AA?$AA@ 1008c57c     libucrt:lcidtoname_downlevel.obj
 0002:0000b584       ??_C@_15EABBLBFF@?$AAs?$AAa?$AA?$AA@ 1008c584     libucrt:lcidtoname_downlevel.obj
 0002:0000b58c       ??_C@_15CBKOMCOI@?$AAm?$AAn?$AA?$AA@ 1008c58c     libucrt:lcidtoname_downlevel.obj
 0002:0000b594       ??_C@_15CKDMCJAF@?$AAg?$AAl?$AA?$AA@ 1008c594     libucrt:lcidtoname_downlevel.obj
 0002:0000b59c       ??_C@_17CNJFBPG@?$AAk?$AAo?$AAk?$AA?$AA@ 1008c59c     libucrt:lcidtoname_downlevel.obj
 0002:0000b5a8       ??_C@_17FFBJICPL@?$AAs?$AAy?$AAr?$AA?$AA@ 1008c5a8     libucrt:lcidtoname_downlevel.obj
 0002:0000b5b4       ??_C@_17KPNDCPAF@?$AAd?$AAi?$AAv?$AA?$AA@ 1008c5b4     libucrt:lcidtoname_downlevel.obj
 0002:0000b5c0       ??_C@_11LOCGONAA@?$AA?$AA@ 1008c5c0     libucrt:lcidtoname_downlevel.obj
 0002:0000b5c4       ??_C@_1M@OKAHONE@?$AAa?$AAr?$AA?9?$AAS?$AAA?$AA?$AA@ 1008c5c4     libucrt:lcidtoname_downlevel.obj
 0002:0000b5d4       ??_C@_1M@FFFIGIGK@?$AAb?$AAg?$AA?9?$AAB?$AAG?$AA?$AA@ 1008c5d4     libucrt:lcidtoname_downlevel.obj
 0002:0000b5e4       ??_C@_1M@BJNKEDC@?$AAc?$AAa?$AA?9?$AAE?$AAS?$AA?$AA@ 1008c5e4     libucrt:lcidtoname_downlevel.obj
 0002:0000b5f4       ??_C@_1M@IJJHFJHA@?$AAc?$AAs?$AA?9?$AAC?$AAZ?$AA?$AA@ 1008c5f4     libucrt:lcidtoname_downlevel.obj
 0002:0000b604       ??_C@_1M@CLPEOBGI@?$AAd?$AAa?$AA?9?$AAD?$AAK?$AA?$AA@ 1008c604     libucrt:lcidtoname_downlevel.obj
 0002:0000b614       ??_C@_1M@MCMADGCB@?$AAd?$AAe?$AA?9?$AAD?$AAE?$AA?$AA@ 1008c614     libucrt:lcidtoname_downlevel.obj
 0002:0000b624       ??_C@_1M@OOCKEMAM@?$AAe?$AAl?$AA?9?$AAG?$AAR?$AA?$AA@ 1008c624     libucrt:lcidtoname_downlevel.obj
 0002:0000b634       ??_C@_1M@DDNJFGID@?$AAf?$AAi?$AA?9?$AAF?$AAI?$AA?$AA@ 1008c634     libucrt:lcidtoname_downlevel.obj
 0002:0000b644       ??_C@_1M@GLIPPMAC@?$AAf?$AAr?$AA?9?$AAF?$AAR?$AA?$AA@ 1008c644     libucrt:lcidtoname_downlevel.obj
 0002:0000b654       ??_C@_1M@GFMCHPE@?$AAh?$AAe?$AA?9?$AAI?$AAL?$AA?$AA@ 1008c654     libucrt:lcidtoname_downlevel.obj
 0002:0000b664       ??_C@_1M@MHLPGNKM@?$AAh?$AAu?$AA?9?$AAH?$AAU?$AA?$AA@ 1008c664     libucrt:lcidtoname_downlevel.obj
 0002:0000b674       ??_C@_1M@LPDDNNPN@?$AAi?$AAs?$AA?9?$AAI?$AAS?$AA?$AA@ 1008c674     libucrt:lcidtoname_downlevel.obj
 0002:0000b684       ??_C@_1M@MADIPODN@?$AAi?$AAt?$AA?9?$AAI?$AAT?$AA?$AA@ 1008c684     libucrt:lcidtoname_downlevel.obj
 0002:0000b694       ??_C@_1M@IHBJJGG@?$AAn?$AAl?$AA?9?$AAN?$AAL?$AA?$AA@ 1008c694     libucrt:lcidtoname_downlevel.obj
 0002:0000b6a4       ??_C@_1M@EANAGDL@?$AAn?$AAb?$AA?9?$AAN?$AAO?$AA?$AA@ 1008c6a4     libucrt:lcidtoname_downlevel.obj
 0002:0000b6b4       ??_C@_1M@NEIEMEGP@?$AAp?$AAl?$AA?9?$AAP?$AAL?$AA?$AA@ 1008c6b4     libucrt:lcidtoname_downlevel.obj
 0002:0000b6c4       ??_C@_1M@BOCFIGEP@?$AAp?$AAt?$AA?9?$AAB?$AAR?$AA?$AA@ 1008c6c4     libucrt:lcidtoname_downlevel.obj
 0002:0000b6d4       ??_C@_1M@IMPFOPBG@?$AAr?$AAo?$AA?9?$AAR?$AAO?$AA?$AA@ 1008c6d4     libucrt:lcidtoname_downlevel.obj
 0002:0000b6e4       ??_C@_1M@IDNNEJMM@?$AAr?$AAu?$AA?9?$AAR?$AAU?$AA?$AA@ 1008c6e4     libucrt:lcidtoname_downlevel.obj
 0002:0000b6f4       ??_C@_1M@LILEEOGM@?$AAh?$AAr?$AA?9?$AAH?$AAR?$AA?$AA@ 1008c6f4     libucrt:lcidtoname_downlevel.obj
 0002:0000b704       ??_C@_1M@FKIFEHPB@?$AAs?$AAk?$AA?9?$AAS?$AAK?$AA?$AA@ 1008c704     libucrt:lcidtoname_downlevel.obj
 0002:0000b714       ??_C@_1M@LJMAMNPJ@?$AAs?$AAq?$AA?9?$AAA?$AAL?$AA?$AA@ 1008c714     libucrt:lcidtoname_downlevel.obj
 0002:0000b724       ??_C@_1M@GIAKDKJK@?$AAs?$AAv?$AA?9?$AAS?$AAE?$AA?$AA@ 1008c724     libucrt:lcidtoname_downlevel.obj
 0002:0000b734       ??_C@_1M@MKJKIKCL@?$AAt?$AAh?$AA?9?$AAT?$AAH?$AA?$AA@ 1008c734     libucrt:lcidtoname_downlevel.obj
 0002:0000b744       ??_C@_1M@MFLCCMPB@?$AAt?$AAr?$AA?9?$AAT?$AAR?$AA?$AA@ 1008c744     libucrt:lcidtoname_downlevel.obj
 0002:0000b754       ??_C@_1M@OIJHDKJN@?$AAu?$AAr?$AA?9?$AAP?$AAK?$AA?$AA@ 1008c754     libucrt:lcidtoname_downlevel.obj
 0002:0000b764       ??_C@_1M@LHIPCIEK@?$AAi?$AAd?$AA?9?$AAI?$AAD?$AA?$AA@ 1008c764     libucrt:lcidtoname_downlevel.obj
 0002:0000b774       ??_C@_1M@MFMOBGI@?$AAu?$AAk?$AA?9?$AAU?$AAA?$AA?$AA@ 1008c774     libucrt:lcidtoname_downlevel.obj
 0002:0000b784       ??_C@_1M@OBGLJIPL@?$AAb?$AAe?$AA?9?$AAB?$AAY?$AA?$AA@ 1008c784     libucrt:lcidtoname_downlevel.obj
 0002:0000b794       ??_C@_1M@BCFAJEAD@?$AAs?$AAl?$AA?9?$AAS?$AAI?$AA?$AA@ 1008c794     libucrt:lcidtoname_downlevel.obj
 0002:0000b7a4       ??_C@_1M@FKFFEDDN@?$AAe?$AAt?$AA?9?$AAE?$AAE?$AA?$AA@ 1008c7a4     libucrt:lcidtoname_downlevel.obj
 0002:0000b7b4       ??_C@_1M@KGKKAACI@?$AAl?$AAv?$AA?9?$AAL?$AAV?$AA?$AA@ 1008c7b4     libucrt:lcidtoname_downlevel.obj
 0002:0000b7c4       ??_C@_1M@IFGBIJO@?$AAl?$AAt?$AA?9?$AAL?$AAT?$AA?$AA@ 1008c7c4     libucrt:lcidtoname_downlevel.obj
 0002:0000b7d4       ??_C@_1M@FGEAHEDM@?$AAf?$AAa?$AA?9?$AAI?$AAR?$AA?$AA@ 1008c7d4     libucrt:lcidtoname_downlevel.obj
 0002:0000b7e4       ??_C@_1M@KBMAIBFN@?$AAv?$AAi?$AA?9?$AAV?$AAN?$AA?$AA@ 1008c7e4     libucrt:lcidtoname_downlevel.obj
 0002:0000b7f4       ??_C@_1M@GPCBKDJK@?$AAh?$AAy?$AA?9?$AAA?$AAM?$AA?$AA@ 1008c7f4     libucrt:lcidtoname_downlevel.obj
 0002:0000b804       ??_C@_1BG@BECMDDJB@?$AAa?$AAz?$AA?9?$AAA?$AAZ?$AA?9?$AAL?$AAa?$AAt?$AAn?$AA?$AA@ 1008c804     libucrt:lcidtoname_downlevel.obj
 0002:0000b820       ??_C@_1M@MAOFCAEA@?$AAe?$AAu?$AA?9?$AAE?$AAS?$AA?$AA@ 1008c820     libucrt:lcidtoname_downlevel.obj
 0002:0000b830       ??_C@_1M@IGHABKPI@?$AAm?$AAk?$AA?9?$AAM?$AAK?$AA?$AA@ 1008c830     libucrt:lcidtoname_downlevel.obj
 0002:0000b840       ??_C@_1M@IAIGNEJG@?$AAt?$AAn?$AA?9?$AAZ?$AAA?$AA?$AA@ 1008c840     libucrt:lcidtoname_downlevel.obj
 0002:0000b850       ??_C@_1M@IIJCOJFA@?$AAx?$AAh?$AA?9?$AAZ?$AAA?$AA?$AA@ 1008c850     libucrt:lcidtoname_downlevel.obj
 0002:0000b860       ??_C@_1M@LGPJHNJH@?$AAz?$AAu?$AA?9?$AAZ?$AAA?$AA?$AA@ 1008c860     libucrt:lcidtoname_downlevel.obj
 0002:0000b870       ??_C@_1M@HOKAOIO@?$AAa?$AAf?$AA?9?$AAZ?$AAA?$AA?$AA@ 1008c870     libucrt:lcidtoname_downlevel.obj
 0002:0000b880       ??_C@_1M@DPCLHLIE@?$AAk?$AAa?$AA?9?$AAG?$AAE?$AA?$AA@ 1008c880     libucrt:lcidtoname_downlevel.obj
 0002:0000b890       ??_C@_1M@BLKMHJBI@?$AAf?$AAo?$AA?9?$AAF?$AAO?$AA?$AA@ 1008c890     libucrt:lcidtoname_downlevel.obj
 0002:0000b8a0       ??_C@_1M@LGGJAPPB@?$AAh?$AAi?$AA?9?$AAI?$AAN?$AA?$AA@ 1008c8a0     libucrt:lcidtoname_downlevel.obj
 0002:0000b8b0       ??_C@_1M@FIKPIHFE@?$AAm?$AAt?$AA?9?$AAM?$AAT?$AA?$AA@ 1008c8b0     libucrt:lcidtoname_downlevel.obj
 0002:0000b8c0       ??_C@_1M@HEGGPBFA@?$AAs?$AAe?$AA?9?$AAN?$AAO?$AA?$AA@ 1008c8c0     libucrt:lcidtoname_downlevel.obj
 0002:0000b8d0       ??_C@_1M@EIBJEEPA@?$AAm?$AAs?$AA?9?$AAM?$AAY?$AA?$AA@ 1008c8d0     libucrt:lcidtoname_downlevel.obj
 0002:0000b8e0       ??_C@_1M@FHLBGMPP@?$AAk?$AAk?$AA?9?$AAK?$AAZ?$AA?$AA@ 1008c8e0     libucrt:lcidtoname_downlevel.obj
 0002:0000b8f0       ??_C@_1M@NGJJLCGI@?$AAk?$AAy?$AA?9?$AAK?$AAG?$AA?$AA@ 1008c8f0     libucrt:lcidtoname_downlevel.obj
 0002:0000b900       ??_C@_1M@GIENNBFC@?$AAs?$AAw?$AA?9?$AAK?$AAE?$AA?$AA@ 1008c900     libucrt:lcidtoname_downlevel.obj
 0002:0000b910       ??_C@_1BG@NDGMJIMJ@?$AAu?$AAz?$AA?9?$AAU?$AAZ?$AA?9?$AAL?$AAa?$AAt?$AAn?$AA?$AA@ 1008c910     libucrt:lcidtoname_downlevel.obj
 0002:0000b92c       ??_C@_1M@IDCCIHBC@?$AAt?$AAt?$AA?9?$AAR?$AAU?$AA?$AA@ 1008c92c     libucrt:lcidtoname_downlevel.obj
 0002:0000b93c       ??_C@_1M@LOICPMOJ@?$AAb?$AAn?$AA?9?$AAI?$AAN?$AA?$AA@ 1008c93c     libucrt:lcidtoname_downlevel.obj
 0002:0000b94c       ??_C@_1M@KPKKNEAH@?$AAp?$AAa?$AA?9?$AAI?$AAN?$AA?$AA@ 1008c94c     libucrt:lcidtoname_downlevel.obj
 0002:0000b95c       ??_C@_1M@PJGPPBOG@?$AAg?$AAu?$AA?9?$AAI?$AAN?$AA?$AA@ 1008c95c     libucrt:lcidtoname_downlevel.obj
 0002:0000b96c       ??_C@_1M@KMKMOPHI@?$AAt?$AAa?$AA?9?$AAI?$AAN?$AA?$AA@ 1008c96c     libucrt:lcidtoname_downlevel.obj
 0002:0000b97c       ??_C@_1M@KFEHEPAC@?$AAt?$AAe?$AA?9?$AAI?$AAN?$AA?$AA@ 1008c97c     libucrt:lcidtoname_downlevel.obj
 0002:0000b98c       ??_C@_1M@CDCLMGHI@?$AAk?$AAn?$AA?9?$AAI?$AAN?$AA?$AA@ 1008c98c     libucrt:lcidtoname_downlevel.obj
 0002:0000b99c       ??_C@_1M@MIODLDKF@?$AAm?$AAl?$AA?9?$AAI?$AAN?$AA?$AA@ 1008c99c     libucrt:lcidtoname_downlevel.obj
 0002:0000b9ac       ??_C@_1M@PBIEACPO@?$AAm?$AAr?$AA?9?$AAI?$AAN?$AA?$AA@ 1008c9ac     libucrt:lcidtoname_downlevel.obj
 0002:0000b9bc       ??_C@_1M@NIDEAGPH@?$AAs?$AAa?$AA?9?$AAI?$AAN?$AA?$AA@ 1008c9bc     libucrt:lcidtoname_downlevel.obj
 0002:0000b9cc       ??_C@_1M@FHIHCBIO@?$AAm?$AAn?$AA?9?$AAM?$AAN?$AA?$AA@ 1008c9cc     libucrt:lcidtoname_downlevel.obj
 0002:0000b9dc       ??_C@_1M@JAIJPENP@?$AAc?$AAy?$AA?9?$AAG?$AAB?$AA?$AA@ 1008c9dc     libucrt:lcidtoname_downlevel.obj
 0002:0000b9ec       ??_C@_1M@PHGFBEPN@?$AAg?$AAl?$AA?9?$AAE?$AAS?$AA?$AA@ 1008c9ec     libucrt:lcidtoname_downlevel.obj
 0002:0000b9fc       ??_C@_1O@KPIPDNCP@?$AAk?$AAo?$AAk?$AA?9?$AAI?$AAN?$AA?$AA@ 1008c9fc     libucrt:lcidtoname_downlevel.obj
 0002:0000ba0c       ??_C@_1O@KNHJLDJA@?$AAs?$AAy?$AAr?$AA?9?$AAS?$AAY?$AA?$AA@ 1008ca0c     libucrt:lcidtoname_downlevel.obj
 0002:0000ba1c       ??_C@_1O@MKEKBLAH@?$AAd?$AAi?$AAv?$AA?9?$AAM?$AAV?$AA?$AA@ 1008ca1c     libucrt:lcidtoname_downlevel.obj
 0002:0000ba2c       ??_C@_1O@OHDCKDDF@?$AAq?$AAu?$AAz?$AA?9?$AAB?$AAO?$AA?$AA@ 1008ca2c     libucrt:lcidtoname_downlevel.obj
 0002:0000ba3c       ??_C@_1M@LEPJNLFD@?$AAn?$AAs?$AA?9?$AAZ?$AAA?$AA?$AA@ 1008ca3c     libucrt:lcidtoname_downlevel.obj
 0002:0000ba4c       ??_C@_1M@OMLEIIJB@?$AAm?$AAi?$AA?9?$AAN?$AAZ?$AA?$AA@ 1008ca4c     libucrt:lcidtoname_downlevel.obj
 0002:0000ba5c       ??_C@_1M@PMPEAILG@?$AAa?$AAr?$AA?9?$AAI?$AAQ?$AA?$AA@ 1008ca5c     libucrt:lcidtoname_downlevel.obj
 0002:0000ba6c       ??_C@_1M@CNKPNOEE@?$AAd?$AAe?$AA?9?$AAC?$AAH?$AA?$AA@ 1008ca6c     libucrt:lcidtoname_downlevel.obj
 0002:0000ba7c       ??_C@_1M@LKMGMLKO@?$AAe?$AAn?$AA?9?$AAG?$AAB?$AA?$AA@ 1008ca7c     libucrt:lcidtoname_downlevel.obj
 0002:0000ba8c       ??_C@_1M@PGKJFFGL@?$AAe?$AAs?$AA?9?$AAM?$AAX?$AA?$AA@ 1008ca8c     libucrt:lcidtoname_downlevel.obj
 0002:0000ba9c       ??_C@_1M@DNNANBDC@?$AAf?$AAr?$AA?9?$AAB?$AAE?$AA?$AA@ 1008ca9c     libucrt:lcidtoname_downlevel.obj
 0002:0000baac       ??_C@_1M@HLGMDFHM@?$AAi?$AAt?$AA?9?$AAC?$AAH?$AA?$AA@ 1008caac     libucrt:lcidtoname_downlevel.obj
 0002:0000babc       ??_C@_1M@CLLBGJH@?$AAn?$AAl?$AA?9?$AAB?$AAE?$AA?$AA@ 1008cabc     libucrt:lcidtoname_downlevel.obj
 0002:0000bacc       ??_C@_1M@BODBOGLF@?$AAn?$AAn?$AA?9?$AAN?$AAO?$AA?$AA@ 1008cacc     libucrt:lcidtoname_downlevel.obj
 0002:0000badc       ??_C@_1M@HFFAHKAD@?$AAp?$AAt?$AA?9?$AAP?$AAT?$AA?$AA@ 1008cadc     libucrt:lcidtoname_downlevel.obj
 0002:0000baec       ??_C@_1BG@LNOAKHIE@?$AAs?$AAr?$AA?9?$AAS?$AAP?$AA?9?$AAL?$AAa?$AAt?$AAn?$AA?$AA@ 1008caec     libucrt:lcidtoname_downlevel.obj
 0002:0000bb08       ??_C@_1M@HBMHBGAK@?$AAs?$AAv?$AA?9?$AAF?$AAI?$AA?$AA@ 1008cb08     libucrt:lcidtoname_downlevel.obj
 0002:0000bb18       ??_C@_1BG@DGCJGJBE@?$AAa?$AAz?$AA?9?$AAA?$AAZ?$AA?9?$AAC?$AAy?$AAr?$AAl?$AA?$AA@ 1008cb18     libucrt:lcidtoname_downlevel.obj
 0002:0000bb34       ??_C@_1M@KEJDAAHB@?$AAs?$AAe?$AA?9?$AAS?$AAE?$AA?$AA@ 1008cb34     libucrt:lcidtoname_downlevel.obj
 0002:0000bb44       ??_C@_1M@HEIBJJAD@?$AAm?$AAs?$AA?9?$AAB?$AAN?$AA?$AA@ 1008cb44     libucrt:lcidtoname_downlevel.obj
 0002:0000bb54       ??_C@_1BG@PBGJMCEM@?$AAu?$AAz?$AA?9?$AAU?$AAZ?$AA?9?$AAC?$AAy?$AAr?$AAl?$AA?$AA@ 1008cb54     libucrt:lcidtoname_downlevel.obj
 0002:0000bb70       ??_C@_1O@LAOBCMDF@?$AAq?$AAu?$AAz?$AA?9?$AAE?$AAC?$AA?$AA@ 1008cb70     libucrt:lcidtoname_downlevel.obj
 0002:0000bb80       ??_C@_1M@POEEMAIO@?$AAa?$AAr?$AA?9?$AAE?$AAG?$AA?$AA@ 1008cb80     libucrt:lcidtoname_downlevel.obj
 0002:0000bb90       ??_C@_1M@EFAKDEDL@?$AAz?$AAh?$AA?9?$AAH?$AAK?$AA?$AA@ 1008cb90     libucrt:lcidtoname_downlevel.obj
 0002:0000bba0       ??_C@_1M@HKKIJHGI@?$AAd?$AAe?$AA?9?$AAA?$AAT?$AA?$AA@ 1008cba0     libucrt:lcidtoname_downlevel.obj
 0002:0000bbb0       ??_C@_1M@KBFBEHJF@?$AAe?$AAn?$AA?9?$AAA?$AAU?$AA?$AA@ 1008cbb0     libucrt:lcidtoname_downlevel.obj
 0002:0000bbc0       ??_C@_1M@MNPLFAAH@?$AAe?$AAs?$AA?9?$AAE?$AAS?$AA?$AA@ 1008cbc0     libucrt:lcidtoname_downlevel.obj
 0002:0000bbd0       ??_C@_1M@HJOOJFMA@?$AAf?$AAr?$AA?9?$AAC?$AAA?$AA?$AA@ 1008cbd0     libucrt:lcidtoname_downlevel.obj
 0002:0000bbe0       ??_C@_1BG@JPOFPNAB@?$AAs?$AAr?$AA?9?$AAS?$AAP?$AA?9?$AAC?$AAy?$AAr?$AAl?$AA?$AA@ 1008cbe0     libucrt:lcidtoname_downlevel.obj
 0002:0000bbfc       ??_C@_1M@LNFOCMOB@?$AAs?$AAe?$AA?9?$AAF?$AAI?$AA?$AA@ 1008cbfc     libucrt:lcidtoname_downlevel.obj
 0002:0000bc0c       ??_C@_1O@MGJBOAMB@?$AAq?$AAu?$AAz?$AA?9?$AAP?$AAE?$AA?$AA@ 1008cc0c     libucrt:lcidtoname_downlevel.obj
 0002:0000bc1c       ??_C@_1M@GJINLBOK@?$AAa?$AAr?$AA?9?$AAL?$AAY?$AA?$AA@ 1008cc1c     libucrt:lcidtoname_downlevel.obj
 0002:0000bc2c       ??_C@_1M@GGMNHJNL@?$AAz?$AAh?$AA?9?$AAS?$AAG?$AA?$AA@ 1008cc2c     libucrt:lcidtoname_downlevel.obj
 0002:0000bc3c       ??_C@_1M@HOIKODND@?$AAd?$AAe?$AA?9?$AAL?$AAU?$AA?$AA@ 1008cc3c     libucrt:lcidtoname_downlevel.obj
 0002:0000bc4c       ??_C@_1M@DDOCCGFG@?$AAe?$AAn?$AA?9?$AAC?$AAA?$AA?$AA@ 1008cc4c     libucrt:lcidtoname_downlevel.obj
 0002:0000bc5c       ??_C@_1M@BNOEMJLF@?$AAe?$AAs?$AA?9?$AAG?$AAT?$AA?$AA@ 1008cc5c     libucrt:lcidtoname_downlevel.obj
 0002:0000bc6c       ??_C@_1M@EOGNKEK@?$AAf?$AAr?$AA?9?$AAC?$AAH?$AA?$AA@ 1008cc6c     libucrt:lcidtoname_downlevel.obj
 0002:0000bc7c       ??_C@_1M@FLIDJFHL@?$AAh?$AAr?$AA?9?$AAB?$AAA?$AA?$AA@ 1008cc7c     libucrt:lcidtoname_downlevel.obj
 0002:0000bc8c       ??_C@_1O@FMCELNAJ@?$AAs?$AAm?$AAj?$AA?9?$AAN?$AAO?$AA?$AA@ 1008cc8c     libucrt:lcidtoname_downlevel.obj
 0002:0000bc9c       ??_C@_1M@JHGLJMGJ@?$AAa?$AAr?$AA?9?$AAD?$AAZ?$AA?$AA@ 1008cc9c     libucrt:lcidtoname_downlevel.obj
 0002:0000bcac       ??_C@_1M@JKKFDCNP@?$AAz?$AAh?$AA?9?$AAM?$AAO?$AA?$AA@ 1008ccac     libucrt:lcidtoname_downlevel.obj
 0002:0000bcbc       ??_C@_1M@GEEFALPE@?$AAd?$AAe?$AA?9?$AAL?$AAI?$AA?$AA@ 1008ccbc     libucrt:lcidtoname_downlevel.obj
 0002:0000bccc       ??_C@_1M@IGEOFBG@?$AAe?$AAn?$AA?9?$AAN?$AAZ?$AA?$AA@ 1008cccc     libucrt:lcidtoname_downlevel.obj
 0002:0000bcdc       ??_C@_1M@KDBONEHP@?$AAe?$AAs?$AA?9?$AAC?$AAR?$AA?$AA@ 1008ccdc     libucrt:lcidtoname_downlevel.obj
 0002:0000bcec       ??_C@_1M@FHMDOHNN@?$AAf?$AAr?$AA?9?$AAL?$AAU?$AA?$AA@ 1008ccec     libucrt:lcidtoname_downlevel.obj
 0002:0000bcfc       ??_C@_1BG@NFKKMAFG@?$AAb?$AAs?$AA?9?$AAB?$AAA?$AA?9?$AAL?$AAa?$AAt?$AAn?$AA?$AA@ 1008ccfc     libucrt:lcidtoname_downlevel.obj
 0002:0000bd18       ??_C@_1O@IMNBEMCI@?$AAs?$AAm?$AAj?$AA?9?$AAS?$AAE?$AA?$AA@ 1008cd18     libucrt:lcidtoname_downlevel.obj
 0002:0000bd28       ??_C@_1M@DHHMBNDP@?$AAa?$AAr?$AA?9?$AAM?$AAA?$AA?$AA@ 1008cd28     libucrt:lcidtoname_downlevel.obj
 0002:0000bd38       ??_C@_1M@BNBLJCGH@?$AAe?$AAn?$AA?9?$AAI?$AAE?$AA?$AA@ 1008cd38     libucrt:lcidtoname_downlevel.obj
 0002:0000bd48       ??_C@_1M@GEPAFMDL@?$AAe?$AAs?$AA?9?$AAP?$AAA?$AA?$AA@ 1008cd48     libucrt:lcidtoname_downlevel.obj
 0002:0000bd58       ??_C@_1M@OJONDMDL@?$AAf?$AAr?$AA?9?$AAM?$AAC?$AA?$AA@ 1008cd58     libucrt:lcidtoname_downlevel.obj
 0002:0000bd68       ??_C@_1BG@OBCNFJB@?$AAs?$AAr?$AA?9?$AAB?$AAA?$AA?9?$AAL?$AAa?$AAt?$AAn?$AA?$AA@ 1008cd68     libucrt:lcidtoname_downlevel.obj
 0002:0000bd84       ??_C@_1O@KEMEEGPO@?$AAs?$AAm?$AAa?$AA?9?$AAN?$AAO?$AA?$AA@ 1008cd84     libucrt:lcidtoname_downlevel.obj
 0002:0000bd94       ??_C@_1M@ELMGFODK@?$AAa?$AAr?$AA?9?$AAT?$AAN?$AA?$AA@ 1008cd94     libucrt:lcidtoname_downlevel.obj
 0002:0000bda4       ??_C@_1M@BHDLHFAF@?$AAe?$AAn?$AA?9?$AAZ?$AAA?$AA?$AA@ 1008cda4     libucrt:lcidtoname_downlevel.obj
 0002:0000bdb4       ??_C@_1M@BMGIGLIF@?$AAe?$AAs?$AA?9?$AAD?$AAO?$AA?$AA@ 1008cdb4     libucrt:lcidtoname_downlevel.obj
 0002:0000bdc4       ??_C@_1BG@CMBHIPBE@?$AAs?$AAr?$AA?9?$AAB?$AAA?$AA?9?$AAC?$AAy?$AAr?$AAl?$AA?$AA@ 1008cdc4     libucrt:lcidtoname_downlevel.obj
 0002:0000bde0       ??_C@_1O@HEDBLHNP@?$AAs?$AAm?$AAa?$AA?9?$AAS?$AAE?$AA?$AA@ 1008cde0     libucrt:lcidtoname_downlevel.obj
 0002:0000bdf0       ??_C@_1M@DAGCADIM@?$AAa?$AAr?$AA?9?$AAO?$AAM?$AA?$AA@ 1008cdf0     libucrt:lcidtoname_downlevel.obj
 0002:0000be00       ??_C@_1M@FODLMICG@?$AAe?$AAn?$AA?9?$AAJ?$AAM?$AA?$AA@ 1008ce00     libucrt:lcidtoname_downlevel.obj
 0002:0000be10       ??_C@_1M@DNMLCIHB@?$AAe?$AAs?$AA?9?$AAV?$AAE?$AA?$AA@ 1008ce10     libucrt:lcidtoname_downlevel.obj
 0002:0000be20       ??_C@_1O@EOKHMKJK@?$AAs?$AAm?$AAs?$AA?9?$AAF?$AAI?$AA?$AA@ 1008ce20     libucrt:lcidtoname_downlevel.obj
 0002:0000be30       ??_C@_1M@CAFJMKOF@?$AAa?$AAr?$AA?9?$AAY?$AAE?$AA?$AA@ 1008ce30     libucrt:lcidtoname_downlevel.obj
 0002:0000be40       ??_C@_1M@CBFHIJLI@?$AAe?$AAn?$AA?9?$AAC?$AAB?$AA?$AA@ 1008ce40     libucrt:lcidtoname_downlevel.obj
 0002:0000be50       ??_C@_1M@BGNFLDN@?$AAe?$AAs?$AA?9?$AAC?$AAO?$AA?$AA@ 1008ce50     libucrt:lcidtoname_downlevel.obj
 0002:0000be60       ??_C@_1O@JMPHMAMC@?$AAs?$AAm?$AAn?$AA?9?$AAF?$AAI?$AA?$AA@ 1008ce60     libucrt:lcidtoname_downlevel.obj
 0002:0000be70       ??_C@_1M@JLANABKE@?$AAa?$AAr?$AA?9?$AAS?$AAY?$AA?$AA@ 1008ce70     libucrt:lcidtoname_downlevel.obj
 0002:0000be80       ??_C@_1M@HPKGCFGN@?$AAe?$AAn?$AA?9?$AAB?$AAZ?$AA?$AA@ 1008ce80     libucrt:lcidtoname_downlevel.obj
 0002:0000be90       ??_C@_1M@OLJCMLGM@?$AAe?$AAs?$AA?9?$AAP?$AAE?$AA?$AA@ 1008ce90     libucrt:lcidtoname_downlevel.obj
 0002:0000bea0       ??_C@_1M@MKKGFKLE@?$AAa?$AAr?$AA?9?$AAJ?$AAO?$AA?$AA@ 1008cea0     libucrt:lcidtoname_downlevel.obj
 0002:0000beb0       ??_C@_1M@EKPGLDNI@?$AAe?$AAn?$AA?9?$AAT?$AAT?$AA?$AA@ 1008ceb0     libucrt:lcidtoname_downlevel.obj
 0002:0000bec0       ??_C@_1M@OONGHFHE@?$AAe?$AAs?$AA?9?$AAA?$AAR?$AA?$AA@ 1008cec0     libucrt:lcidtoname_downlevel.obj
 0002:0000bed0       ??_C@_1M@OOJFGBHE@?$AAa?$AAr?$AA?9?$AAL?$AAB?$AA?$AA@ 1008ced0     libucrt:lcidtoname_downlevel.obj
 0002:0000bee0       ??_C@_1M@GCEJHNEG@?$AAe?$AAn?$AA?9?$AAZ?$AAW?$AA?$AA@ 1008cee0     libucrt:lcidtoname_downlevel.obj
 0002:0000bef0       ??_C@_1M@JNOCAHJI@?$AAe?$AAs?$AA?9?$AAE?$AAC?$AA?$AA@ 1008cef0     libucrt:lcidtoname_downlevel.obj
 0002:0000bf00       ??_C@_1M@JEFHPGGB@?$AAa?$AAr?$AA?9?$AAK?$AAW?$AA?$AA@ 1008cf00     libucrt:lcidtoname_downlevel.obj
 0002:0000bf10       ??_C@_1M@MLKIBJOJ@?$AAe?$AAn?$AA?9?$AAP?$AAH?$AA?$AA@ 1008cf10     libucrt:lcidtoname_downlevel.obj
 0002:0000bf20       ??_C@_1M@BDNIPEND@?$AAe?$AAs?$AA?9?$AAC?$AAL?$AA?$AA@ 1008cf20     libucrt:lcidtoname_downlevel.obj
 0002:0000bf30       ??_C@_1M@MPNMEKBD@?$AAa?$AAr?$AA?9?$AAA?$AAE?$AA?$AA@ 1008cf30     libucrt:lcidtoname_downlevel.obj
 0002:0000bf40       ??_C@_1M@KBJALCPI@?$AAe?$AAs?$AA?9?$AAU?$AAY?$AA?$AA@ 1008cf40     libucrt:lcidtoname_downlevel.obj
 0002:0000bf50       ??_C@_1M@LLCCOAGA@?$AAa?$AAr?$AA?9?$AAB?$AAH?$AA?$AA@ 1008cf50     libucrt:lcidtoname_downlevel.obj
 0002:0000bf60       ??_C@_1M@PBFNCDEL@?$AAe?$AAs?$AA?9?$AAP?$AAY?$AA?$AA@ 1008cf60     libucrt:lcidtoname_downlevel.obj
 0002:0000bf70       ??_C@_1M@EDGINPNP@?$AAa?$AAr?$AA?9?$AAQ?$AAA?$AA?$AA@ 1008cf70     libucrt:lcidtoname_downlevel.obj
 0002:0000bf80       ??_C@_1M@MKDBIIJI@?$AAe?$AAs?$AA?9?$AAB?$AAO?$AA?$AA@ 1008cf80     libucrt:lcidtoname_downlevel.obj
 0002:0000bf90       ??_C@_1M@CPKKEBLD@?$AAe?$AAs?$AA?9?$AAS?$AAV?$AA?$AA@ 1008cf90     libucrt:lcidtoname_downlevel.obj
 0002:0000bfa0       ??_C@_1M@NDBGMMJL@?$AAe?$AAs?$AA?9?$AAH?$AAN?$AA?$AA@ 1008cfa0     libucrt:lcidtoname_downlevel.obj
 0002:0000bfb0       ??_C@_1M@JIJIBHDP@?$AAe?$AAs?$AA?9?$AAN?$AAI?$AA?$AA@ 1008cfb0     libucrt:lcidtoname_downlevel.obj
 0002:0000bfc0       ??_C@_1M@CGFMKEEK@?$AAe?$AAs?$AA?9?$AAP?$AAR?$AA?$AA@ 1008cfc0     libucrt:lcidtoname_downlevel.obj
 0002:0000bfd0       ??_C@_1O@ICJHKIIK@?$AAz?$AAh?$AA?9?$AAC?$AAH?$AAT?$AA?$AA@ 1008cfd0     libucrt:lcidtoname_downlevel.obj
 0002:0000bfe0       ??_C@_15CLNEJCE@?$AAs?$AAr?$AA?$AA@ 1008cfe0     libucrt:lcidtoname_downlevel.obj
 0002:0000c874       ??_C@_1M@KAHEKEIG@?$AAa?$AAf?$AA?9?$AAz?$AAa?$AA?$AA@ 1008d874     libucrt:lcidtoname_downlevel.obj
 0002:0000c884       ??_C@_1M@GIECOABL@?$AAa?$AAr?$AA?9?$AAa?$AAe?$AA?$AA@ 1008d884     libucrt:lcidtoname_downlevel.obj
 0002:0000c894       ??_C@_1M@BMLMEKGI@?$AAa?$AAr?$AA?9?$AAb?$AAh?$AA?$AA@ 1008d894     libucrt:lcidtoname_downlevel.obj
 0002:0000c8a4       ??_C@_1M@DAPFDGGB@?$AAa?$AAr?$AA?9?$AAd?$AAz?$AA?$AA@ 1008d8a4     libucrt:lcidtoname_downlevel.obj
 0002:0000c8b4       ??_C@_1M@FJNKGKIG@?$AAa?$AAr?$AA?9?$AAe?$AAg?$AA?$AA@ 1008d8b4     libucrt:lcidtoname_downlevel.obj
 0002:0000c8c4       ??_C@_1M@FLGKKCLO@?$AAa?$AAr?$AA?9?$AAi?$AAq?$AA?$AA@ 1008d8c4     libucrt:lcidtoname_downlevel.obj
 0002:0000c8d4       ??_C@_1M@GNDIPALM@?$AAa?$AAr?$AA?9?$AAj?$AAo?$AA?$AA@ 1008d8d4     libucrt:lcidtoname_downlevel.obj
 0002:0000c8e4       ??_C@_1M@DDMJFMGJ@?$AAa?$AAr?$AA?9?$AAk?$AAw?$AA?$AA@ 1008d8e4     libucrt:lcidtoname_downlevel.obj
 0002:0000c8f4       ??_C@_1M@EJALMLHM@?$AAa?$AAr?$AA?9?$AAl?$AAb?$AA?$AA@ 1008d8f4     libucrt:lcidtoname_downlevel.obj
 0002:0000c904       ??_C@_1M@MOBDBLOC@?$AAa?$AAr?$AA?9?$AAl?$AAy?$AA?$AA@ 1008d904     libucrt:lcidtoname_downlevel.obj
 0002:0000c914       ??_C@_1M@JAOCLHDH@?$AAa?$AAr?$AA?9?$AAm?$AAa?$AA?$AA@ 1008d914     libucrt:lcidtoname_downlevel.obj
 0002:0000c924       ??_C@_1M@JHPMKJIE@?$AAa?$AAr?$AA?9?$AAo?$AAm?$AA?$AA@ 1008d924     libucrt:lcidtoname_downlevel.obj
 0002:0000c934       ??_C@_1M@OEPGHFNH@?$AAa?$AAr?$AA?9?$AAq?$AAa?$AA?$AA@ 1008d934     libucrt:lcidtoname_downlevel.obj
 0002:0000c944       ??_C@_1M@KJDONENM@?$AAa?$AAr?$AA?9?$AAs?$AAa?$AA?$AA@ 1008d944     libucrt:lcidtoname_downlevel.obj
 0002:0000c954       ??_C@_1M@DMJDKLKM@?$AAa?$AAr?$AA?9?$AAs?$AAy?$AA?$AA@ 1008d954     libucrt:lcidtoname_downlevel.obj
 0002:0000c964       ??_C@_1M@OMFIPEDC@?$AAa?$AAr?$AA?9?$AAt?$AAn?$AA?$AA@ 1008d964     libucrt:lcidtoname_downlevel.obj
 0002:0000c974       ??_C@_1M@IHMHGAON@?$AAa?$AAr?$AA?9?$AAy?$AAe?$AA?$AA@ 1008d974     libucrt:lcidtoname_downlevel.obj
 0002:0000c984       ??_C@_1BG@KDCPGJGB@?$AAa?$AAz?$AA?9?$AAa?$AAz?$AA?9?$AAc?$AAy?$AAr?$AAl?$AA?$AA@ 1008d984     libucrt:lcidtoname_downlevel.obj
 0002:0000c9a0       ??_C@_1BG@IBCKDDOE@?$AAa?$AAz?$AA?9?$AAa?$AAz?$AA?9?$AAl?$AAa?$AAt?$AAn?$AA?$AA@ 1008d9a0     libucrt:lcidtoname_downlevel.obj
 0002:0000c9bc       ??_C@_1M@EGPFDCPD@?$AAb?$AAe?$AA?9?$AAb?$AAy?$AA?$AA@ 1008d9bc     libucrt:lcidtoname_downlevel.obj
 0002:0000c9cc       ??_C@_1M@PCMGMCGC@?$AAb?$AAg?$AA?9?$AAb?$AAg?$AA?$AA@ 1008d9cc     libucrt:lcidtoname_downlevel.obj
 0002:0000c9dc       ??_C@_1M@BJBMFGOB@?$AAb?$AAn?$AA?9?$AAi?$AAn?$AA?$AA@ 1008d9dc     libucrt:lcidtoname_downlevel.obj
 0002:0000c9ec       ??_C@_1BG@EAKMMACD@?$AAb?$AAs?$AA?9?$AAb?$AAa?$AA?9?$AAl?$AAa?$AAt?$AAn?$AA?$AA@ 1008d9ec     libucrt:lcidtoname_downlevel.obj
 0002:0000ca08       ??_C@_1M@KGADAODK@?$AAc?$AAa?$AA?9?$AAe?$AAs?$AA?$AA@ 1008da08     libucrt:lcidtoname_downlevel.obj
 0002:0000ca18       ??_C@_1M@COAJPDHI@?$AAc?$AAs?$AA?9?$AAc?$AAz?$AA?$AA@ 1008da18     libucrt:lcidtoname_downlevel.obj
 0002:0000ca28       ??_C@_1M@DHBHFONH@?$AAc?$AAy?$AA?9?$AAg?$AAb?$AA?$AA@ 1008da28     libucrt:lcidtoname_downlevel.obj
 0002:0000ca38       ??_C@_1M@IMGKELGA@?$AAd?$AAa?$AA?9?$AAd?$AAk?$AA?$AA@ 1008da38     libucrt:lcidtoname_downlevel.obj
 0002:0000ca48       ??_C@_1M@NNDGDNGA@?$AAd?$AAe?$AA?9?$AAa?$AAt?$AA?$AA@ 1008da48     libucrt:lcidtoname_downlevel.obj
 0002:0000ca58       ??_C@_1M@IKDBHEEM@?$AAd?$AAe?$AA?9?$AAc?$AAh?$AA?$AA@ 1008da58     libucrt:lcidtoname_downlevel.obj
 0002:0000ca68       ??_C@_1M@GFFOJMCJ@?$AAd?$AAe?$AA?9?$AAd?$AAe?$AA?$AA@ 1008da68     libucrt:lcidtoname_downlevel.obj
 0002:0000ca78       ??_C@_1M@MDNLKBPM@?$AAd?$AAe?$AA?9?$AAl?$AAi?$AA?$AA@ 1008da78     libucrt:lcidtoname_downlevel.obj
 0002:0000ca88       ??_C@_1M@NJBEEJNL@?$AAd?$AAe?$AA?9?$AAl?$AAu?$AA?$AA@ 1008da88     libucrt:lcidtoname_downlevel.obj
 0002:0000ca98       ??_C@_1O@GNNELBAP@?$AAd?$AAi?$AAv?$AA?9?$AAm?$AAv?$AA?$AA@ 1008da98     libucrt:lcidtoname_downlevel.obj
 0002:0000caa8       ??_C@_1M@EJLEOGAE@?$AAe?$AAl?$AA?9?$AAg?$AAr?$AA?$AA@ 1008daa8     libucrt:lcidtoname_downlevel.obj
 0002:0000cab8       ??_C@_1M@GMPONJN@?$AAe?$AAn?$AA?9?$AAa?$AAu?$AA?$AA@ 1008dab8     libucrt:lcidtoname_downlevel.obj
 0002:0000cac8       ??_C@_1M@NIDIIPGF@?$AAe?$AAn?$AA?9?$AAb?$AAz?$AA?$AA@ 1008dac8     libucrt:lcidtoname_downlevel.obj
 0002:0000cad8       ??_C@_1M@JEHMIMFO@?$AAe?$AAn?$AA?9?$AAc?$AAa?$AA?$AA@ 1008dad8     libucrt:lcidtoname_downlevel.obj
 0002:0000cae8       ??_C@_1M@IGMJCDLA@?$AAe?$AAn?$AA?9?$AAc?$AAb?$AA?$AA@ 1008dae8     libucrt:lcidtoname_downlevel.obj
 0002:0000caf8       ??_C@_1M@BNFIGBKG@?$AAe?$AAn?$AA?9?$AAg?$AAb?$AA?$AA@ 1008daf8     libucrt:lcidtoname_downlevel.obj
 0002:0000cb08       ??_C@_1M@LKIFDIGP@?$AAe?$AAn?$AA?9?$AAi?$AAe?$AA?$AA@ 1008db08     libucrt:lcidtoname_downlevel.obj
 0002:0000cb18       ??_C@_1M@PJKFGCCO@?$AAe?$AAn?$AA?9?$AAj?$AAm?$AA?$AA@ 1008db18     libucrt:lcidtoname_downlevel.obj
 0002:0000cb28       ??_C@_1M@KPPKEPBO@?$AAe?$AAn?$AA?9?$AAn?$AAz?$AA?$AA@ 1008db28     libucrt:lcidtoname_downlevel.obj
 0002:0000cb38       ??_C@_1M@GMDGLDOB@?$AAe?$AAn?$AA?9?$AAp?$AAh?$AA?$AA@ 1008db38     libucrt:lcidtoname_downlevel.obj
 0002:0000cb48       ??_C@_1M@ONGIBJNA@?$AAe?$AAn?$AA?9?$AAt?$AAt?$AA?$AA@ 1008db48     libucrt:lcidtoname_downlevel.obj
 0002:0000cb58       ??_C@_1M@LLODPCMM@?$AAe?$AAn?$AA?9?$AAu?$AAs?$AA?$AA@ 1008db58     libucrt:lcidtoname_downlevel.obj
 0002:0000cb68       ??_C@_1M@LAKFNPAN@?$AAe?$AAn?$AA?9?$AAz?$AAa?$AA?$AA@ 1008db68     libucrt:lcidtoname_downlevel.obj
 0002:0000cb78       ??_C@_1M@MFNHNHEO@?$AAe?$AAn?$AA?9?$AAz?$AAw?$AA?$AA@ 1008db78     libucrt:lcidtoname_downlevel.obj
 0002:0000cb88       ??_C@_1M@EJEINPHM@?$AAe?$AAs?$AA?9?$AAa?$AAr?$AA?$AA@ 1008db88     libucrt:lcidtoname_downlevel.obj
 0002:0000cb98       ??_C@_1M@GNKPCCJA@?$AAe?$AAs?$AA?9?$AAb?$AAo?$AA?$AA@ 1008db98     libucrt:lcidtoname_downlevel.obj
 0002:0000cba8       ??_C@_1M@LEEGFONL@?$AAe?$AAs?$AA?9?$AAc?$AAl?$AA?$AA@ 1008dba8     libucrt:lcidtoname_downlevel.obj
 0002:0000cbb8       ??_C@_1M@KGPDPBDF@?$AAe?$AAs?$AA?9?$AAc?$AAo?$AA?$AA@ 1008dbb8     libucrt:lcidtoname_downlevel.obj
 0002:0000cbc8       ??_C@_1M@EIAHOHH@?$AAe?$AAs?$AA?9?$AAc?$AAr?$AA?$AA@ 1008dbc8     libucrt:lcidtoname_downlevel.obj
 0002:0000cbd8       ??_C@_1M@LLPGMBIN@?$AAe?$AAs?$AA?9?$AAd?$AAo?$AA?$AA@ 1008dbd8     libucrt:lcidtoname_downlevel.obj
 0002:0000cbe8       ??_C@_1M@DKHMKNJA@?$AAe?$AAs?$AA?9?$AAe?$AAc?$AA?$AA@ 1008dbe8     libucrt:lcidtoname_downlevel.obj
 0002:0000cbf8       ??_C@_1M@GKGFPKAP@?$AAe?$AAs?$AA?9?$AAe?$AAs?$AA?$AA@ 1008dbf8     libucrt:lcidtoname_downlevel.obj
 0002:0000cc08       ??_C@_1M@LKHKGDLN@?$AAe?$AAs?$AA?9?$AAg?$AAt?$AA?$AA@ 1008dc08     libucrt:lcidtoname_downlevel.obj
 0002:0000cc18       ??_C@_1M@HEIIGGJD@?$AAe?$AAs?$AA?9?$AAh?$AAn?$AA?$AA@ 1008dc18     libucrt:lcidtoname_downlevel.obj
 0002:0000cc28       ??_C@_1M@FBDHPPGD@?$AAe?$AAs?$AA?9?$AAm?$AAx?$AA?$AA@ 1008dc28     libucrt:lcidtoname_downlevel.obj
 0002:0000cc38       ??_C@_1M@DPAGLNDH@?$AAe?$AAs?$AA?9?$AAn?$AAi?$AA?$AA@ 1008dc38     libucrt:lcidtoname_downlevel.obj
 0002:0000cc48       ??_C@_1M@MDGOPGDD@?$AAe?$AAs?$AA?9?$AAp?$AAa?$AA?$AA@ 1008dc48     libucrt:lcidtoname_downlevel.obj
 0002:0000cc58       ??_C@_1M@EMAMGBGE@?$AAe?$AAs?$AA?9?$AAp?$AAe?$AA?$AA@ 1008dc58     libucrt:lcidtoname_downlevel.obj
 0002:0000cc68       ??_C@_1M@IBMCAOEC@?$AAe?$AAs?$AA?9?$AAp?$AAr?$AA?$AA@ 1008dc68     libucrt:lcidtoname_downlevel.obj
 0002:0000cc78       ??_C@_1M@FGMDIJED@?$AAe?$AAs?$AA?9?$AAp?$AAy?$AA?$AA@ 1008dc78     libucrt:lcidtoname_downlevel.obj
 0002:0000cc88       ??_C@_1M@IIDEOLLL@?$AAe?$AAs?$AA?9?$AAs?$AAv?$AA?$AA@ 1008dc88     libucrt:lcidtoname_downlevel.obj
 0002:0000cc98       ??_C@_1M@GAOBIPA@?$AAe?$AAs?$AA?9?$AAu?$AAy?$AA?$AA@ 1008dc98     libucrt:lcidtoname_downlevel.obj
 0002:0000cca8       ??_C@_1M@JKFFICHJ@?$AAe?$AAs?$AA?9?$AAv?$AAe?$AA?$AA@ 1008dca8     libucrt:lcidtoname_downlevel.obj
 0002:0000ccb8       ??_C@_1M@PNMLOJDF@?$AAe?$AAt?$AA?9?$AAe?$AAe?$AA?$AA@ 1008dcb8     libucrt:lcidtoname_downlevel.obj
 0002:0000ccc8       ??_C@_1M@GHHLIKEI@?$AAe?$AAu?$AA?9?$AAe?$AAs?$AA?$AA@ 1008dcc8     libucrt:lcidtoname_downlevel.obj
 0002:0000ccd8       ??_C@_1M@PBNONODE@?$AAf?$AAa?$AA?9?$AAi?$AAr?$AA?$AA@ 1008dcd8     libucrt:lcidtoname_downlevel.obj
 0002:0000cce8       ??_C@_1M@JEEHPMIL@?$AAf?$AAi?$AA?9?$AAf?$AAi?$AA?$AA@ 1008dce8     libucrt:lcidtoname_downlevel.obj
 0002:0000ccf8       ??_C@_1M@LMDCNDBA@?$AAf?$AAo?$AA?9?$AAf?$AAo?$AA?$AA@ 1008dcf8     libucrt:lcidtoname_downlevel.obj
 0002:0000cd08       ??_C@_1M@JKEOHLDK@?$AAf?$AAr?$AA?9?$AAb?$AAe?$AA?$AA@ 1008dd08     libucrt:lcidtoname_downlevel.obj
 0002:0000cd18       ??_C@_1M@NOHADPMI@?$AAf?$AAr?$AA?9?$AAc?$AAa?$AA?$AA@ 1008dd18     libucrt:lcidtoname_downlevel.obj
 0002:0000cd28       ??_C@_1M@KDHIHAEC@?$AAf?$AAr?$AA?9?$AAc?$AAh?$AA?$AA@ 1008dd28     libucrt:lcidtoname_downlevel.obj
 0002:0000cd38       ??_C@_1M@MMBBFGAK@?$AAf?$AAr?$AA?9?$AAf?$AAr?$AA?$AA@ 1008dd38     libucrt:lcidtoname_downlevel.obj
 0002:0000cd48       ??_C@_1M@PAFNENNF@?$AAf?$AAr?$AA?9?$AAl?$AAu?$AA?$AA@ 1008dd48     libucrt:lcidtoname_downlevel.obj
 0002:0000cd58       ??_C@_1M@EOHDJGDD@?$AAf?$AAr?$AA?9?$AAm?$AAc?$AA?$AA@ 1008dd58     libucrt:lcidtoname_downlevel.obj
 0002:0000cd68       ??_C@_1M@FAPLLOPF@?$AAg?$AAl?$AA?9?$AAe?$AAs?$AA?$AA@ 1008dd68     libucrt:lcidtoname_downlevel.obj
 0002:0000cd78       ??_C@_1M@FOPBFLOO@?$AAg?$AAu?$AA?9?$AAi?$AAn?$AA?$AA@ 1008dd78     libucrt:lcidtoname_downlevel.obj
 0002:0000cd88       ??_C@_1M@KBMCINPM@?$AAh?$AAe?$AA?9?$AAi?$AAl?$AA?$AA@ 1008dd88     libucrt:lcidtoname_downlevel.obj
 0002:0000cd98       ??_C@_1M@BBPHKFPJ@?$AAh?$AAi?$AA?9?$AAi?$AAn?$AA?$AA@ 1008dd98     libucrt:lcidtoname_downlevel.obj
 0002:0000cda8       ??_C@_1M@PMBNDPHD@?$AAh?$AAr?$AA?9?$AAb?$AAa?$AA?$AA@ 1008dda8     libucrt:lcidtoname_downlevel.obj
 0002:0000cdb8       ??_C@_1M@BPCKOEGE@?$AAh?$AAr?$AA?9?$AAh?$AAr?$AA?$AA@ 1008ddb8     libucrt:lcidtoname_downlevel.obj
 0002:0000cdc8       ??_C@_1M@GACBMHKE@?$AAh?$AAu?$AA?9?$AAh?$AAu?$AA?$AA@ 1008ddc8     libucrt:lcidtoname_downlevel.obj
 0002:0000cdd8       ??_C@_1M@MILPAJJC@?$AAh?$AAy?$AA?9?$AAa?$AAm?$AA?$AA@ 1008ddd8     libucrt:lcidtoname_downlevel.obj
 0002:0000cde8       ??_C@_1M@BABBICEC@?$AAi?$AAd?$AA?9?$AAi?$AAd?$AA?$AA@ 1008dde8     libucrt:lcidtoname_downlevel.obj
 0002:0000cdf8       ??_C@_1M@BIKNHHPF@?$AAi?$AAs?$AA?9?$AAi?$AAs?$AA?$AA@ 1008ddf8     libucrt:lcidtoname_downlevel.obj
 0002:0000ce08       ??_C@_1M@NMPCJPHE@?$AAi?$AAt?$AA?9?$AAc?$AAh?$AA?$AA@ 1008de08     libucrt:lcidtoname_downlevel.obj
 0002:0000ce18       ??_C@_1M@GHKGFEDF@?$AAi?$AAt?$AA?9?$AAi?$AAt?$AA?$AA@ 1008de18     libucrt:lcidtoname_downlevel.obj
 0002:0000ce28       ??_C@_1M@NIEJCJJA@?$AAj?$AAa?$AA?9?$AAj?$AAp?$AA?$AA@ 1008de28     libucrt:lcidtoname_downlevel.obj
 0002:0000ce38       ??_C@_1M@JILFNBIM@?$AAk?$AAa?$AA?9?$AAg?$AAe?$AA?$AA@ 1008de38     libucrt:lcidtoname_downlevel.obj
 0002:0000ce48       ??_C@_1M@PACPMGPH@?$AAk?$AAk?$AA?9?$AAk?$AAz?$AA?$AA@ 1008de48     libucrt:lcidtoname_downlevel.obj
 0002:0000ce58       ??_C@_1M@IELFGMHA@?$AAk?$AAn?$AA?9?$AAi?$AAn?$AA?$AA@ 1008de58     libucrt:lcidtoname_downlevel.obj
 0002:0000ce68       ??_C@_1O@IBBJHCH@?$AAk?$AAo?$AAk?$AA?9?$AAi?$AAn?$AA?$AA@ 1008de68     libucrt:lcidtoname_downlevel.obj
 0002:0000ce78       ??_C@_1M@DMHAEOGC@?$AAk?$AAo?$AA?9?$AAk?$AAr?$AA?$AA@ 1008de78     libucrt:lcidtoname_downlevel.obj
 0002:0000ce88       ??_C@_1M@HBAHBIGA@?$AAk?$AAy?$AA?9?$AAk?$AAg?$AA?$AA@ 1008de88     libucrt:lcidtoname_downlevel.obj
 0002:0000ce98       ??_C@_1M@KPMILCJG@?$AAl?$AAt?$AA?9?$AAl?$AAt?$AA?$AA@ 1008de98     libucrt:lcidtoname_downlevel.obj
 0002:0000cea8       ??_C@_1M@BDEKKCA@?$AAl?$AAv?$AA?9?$AAl?$AAv?$AA?$AA@ 1008dea8     libucrt:lcidtoname_downlevel.obj
 0002:0000ceb8       ??_C@_1M@ELCKCCJJ@?$AAm?$AAi?$AA?9?$AAn?$AAz?$AA?$AA@ 1008deb8     libucrt:lcidtoname_downlevel.obj
 0002:0000cec8       ??_C@_1M@CBOOLAPA@?$AAm?$AAk?$AA?9?$AAm?$AAk?$AA?$AA@ 1008dec8     libucrt:lcidtoname_downlevel.obj
 0002:0000ced8       ??_C@_1M@GPHNBJKN@?$AAm?$AAl?$AA?9?$AAi?$AAn?$AA?$AA@ 1008ded8     libucrt:lcidtoname_downlevel.obj
 0002:0000cee8       ??_C@_1M@PABJILIG@?$AAm?$AAn?$AA?9?$AAm?$AAn?$AA?$AA@ 1008dee8     libucrt:lcidtoname_downlevel.obj
 0002:0000cef8       ??_C@_1M@FGBKKIPG@?$AAm?$AAr?$AA?9?$AAi?$AAn?$AA?$AA@ 1008def8     libucrt:lcidtoname_downlevel.obj
 0002:0000cf08       ??_C@_1M@NDBPDDAL@?$AAm?$AAs?$AA?9?$AAb?$AAn?$AA?$AA@ 1008df08     libucrt:lcidtoname_downlevel.obj
 0002:0000cf18       ??_C@_1M@OPIHOOPI@?$AAm?$AAs?$AA?9?$AAm?$AAy?$AA?$AA@ 1008df18     libucrt:lcidtoname_downlevel.obj
 0002:0000cf28       ??_C@_1M@PPDBCNFM@?$AAm?$AAt?$AA?9?$AAm?$AAt?$AA?$AA@ 1008df28     libucrt:lcidtoname_downlevel.obj
 0002:0000cf38       ??_C@_1M@KDJDKMDD@?$AAn?$AAb?$AA?9?$AAn?$AAo?$AA?$AA@ 1008df38     libucrt:lcidtoname_downlevel.obj
 0002:0000cf48       ??_C@_1M@KFCFLMJP@?$AAn?$AAl?$AA?9?$AAb?$AAe?$AA?$AA@ 1008df48     libucrt:lcidtoname_downlevel.obj
 0002:0000cf58       ??_C@_1M@KPOPDDGO@?$AAn?$AAl?$AA?9?$AAn?$AAl?$AA?$AA@ 1008df58     libucrt:lcidtoname_downlevel.obj
 0002:0000cf68       ??_C@_1M@LJKPEMLN@?$AAn?$AAn?$AA?9?$AAn?$AAo?$AA?$AA@ 1008df68     libucrt:lcidtoname_downlevel.obj
 0002:0000cf78       ??_C@_1M@BDGHHBFL@?$AAn?$AAs?$AA?9?$AAz?$AAa?$AA?$AA@ 1008df78     libucrt:lcidtoname_downlevel.obj
 0002:0000cf88       ??_C@_1M@IDEHOAP@?$AAp?$AAa?$AA?9?$AAi?$AAn?$AA?$AA@ 1008df88     libucrt:lcidtoname_downlevel.obj
 0002:0000cf98       ??_C@_1M@HDBKGOGH@?$AAp?$AAl?$AA?9?$AAp?$AAl?$AA?$AA@ 1008df98     libucrt:lcidtoname_downlevel.obj
 0002:0000cfa8       ??_C@_1M@LJLLCMEH@?$AAp?$AAt?$AA?9?$AAb?$AAr?$AA?$AA@ 1008dfa8     libucrt:lcidtoname_downlevel.obj
 0002:0000cfb8       ??_C@_1M@NCMONAAL@?$AAp?$AAt?$AA?9?$AAp?$AAt?$AA?$AA@ 1008dfb8     libucrt:lcidtoname_downlevel.obj
 0002:0000cfc8       ??_C@_1O@EAKMAJDN@?$AAq?$AAu?$AAz?$AA?9?$AAb?$AAo?$AA?$AA@ 1008dfc8     libucrt:lcidtoname_downlevel.obj
 0002:0000cfd8       ??_C@_1O@BHHPIGDN@?$AAq?$AAu?$AAz?$AA?9?$AAe?$AAc?$AA?$AA@ 1008dfd8     libucrt:lcidtoname_downlevel.obj
 0002:0000cfe8       ??_C@_1O@GBAPEKMJ@?$AAq?$AAu?$AAz?$AA?9?$AAp?$AAe?$AA?$AA@ 1008dfe8     libucrt:lcidtoname_downlevel.obj
 0002:0000cff8       ??_C@_1M@CLGLEFBO@?$AAr?$AAo?$AA?9?$AAr?$AAo?$AA?$AA@ 1008dff8     libucrt:lcidtoname_downlevel.obj
 0002:0000d008       ??_C@_1M@CEEDODME@?$AAr?$AAu?$AA?9?$AAr?$AAu?$AA?$AA@ 1008e008     libucrt:lcidtoname_downlevel.obj
 0002:0000d018       ??_C@_1M@HPKKKMPP@?$AAs?$AAa?$AA?9?$AAi?$AAn?$AA?$AA@ 1008e018     libucrt:lcidtoname_downlevel.obj
 0002:0000d028       ??_C@_1M@BKMAIGOJ@?$AAs?$AAe?$AA?9?$AAf?$AAi?$AA?$AA@ 1008e028     libucrt:lcidtoname_downlevel.obj
 0002:0000d038       ??_C@_1M@NDPIFLFI@?$AAs?$AAe?$AA?9?$AAn?$AAo?$AA?$AA@ 1008e038     libucrt:lcidtoname_downlevel.obj
 0002:0000d048       ??_C@_1M@DANKKHJ@?$AAs?$AAe?$AA?9?$AAs?$AAe?$AA?$AA@ 1008e048     libucrt:lcidtoname_downlevel.obj
 0002:0000d058       ??_C@_1M@PNBLONPJ@?$AAs?$AAk?$AA?9?$AAs?$AAk?$AA?$AA@ 1008e058     libucrt:lcidtoname_downlevel.obj
 0002:0000d068       ??_C@_1M@LFMODOAL@?$AAs?$AAl?$AA?9?$AAs?$AAi?$AA?$AA@ 1008e068     libucrt:lcidtoname_downlevel.obj
 0002:0000d078       ??_C@_1O@DFKOMPG@?$AAs?$AAm?$AAa?$AA?9?$AAn?$AAo?$AA?$AA@ 1008e078     libucrt:lcidtoname_downlevel.obj
 0002:0000d088       ??_C@_1O@NDKPBNNH@?$AAs?$AAm?$AAa?$AA?9?$AAs?$AAe?$AA?$AA@ 1008e088     libucrt:lcidtoname_downlevel.obj
 0002:0000d098       ??_C@_1O@PLLKBHAB@?$AAs?$AAm?$AAj?$AA?9?$AAn?$AAo?$AA?$AA@ 1008e098     libucrt:lcidtoname_downlevel.obj
 0002:0000d0a8       ??_C@_1O@CLEPOGCA@?$AAs?$AAm?$AAj?$AA?9?$AAs?$AAe?$AA?$AA@ 1008e0a8     libucrt:lcidtoname_downlevel.obj
 0002:0000d0b8       ??_C@_1O@DLGJGKMK@?$AAs?$AAm?$AAn?$AA?9?$AAf?$AAi?$AA?$AA@ 1008e0b8     libucrt:lcidtoname_downlevel.obj
 0002:0000d0c8       ??_C@_1O@OJDJGAJC@?$AAs?$AAm?$AAs?$AA?9?$AAf?$AAi?$AA?$AA@ 1008e0c8     libucrt:lcidtoname_downlevel.obj
 0002:0000d0d8       ??_C@_1M@BOFOGHPB@?$AAs?$AAq?$AA?9?$AAa?$AAl?$AA?$AA@ 1008e0d8     libucrt:lcidtoname_downlevel.obj
 0002:0000d0e8       ??_C@_1BG@LJBBIPGB@?$AAs?$AAr?$AA?9?$AAb?$AAa?$AA?9?$AAc?$AAy?$AAr?$AAl?$AA?$AA@ 1008e0e8     libucrt:lcidtoname_downlevel.obj
 0002:0000d104       ??_C@_1BG@JLBENFOE@?$AAs?$AAr?$AA?9?$AAb?$AAa?$AA?9?$AAl?$AAa?$AAt?$AAn?$AA?$AA@ 1008e104     libucrt:lcidtoname_downlevel.obj
 0002:0000d120       ??_C@_1BG@KODPNHE@?$AAs?$AAr?$AA?9?$AAs?$AAp?$AA?9?$AAc?$AAy?$AAr?$AAl?$AA?$AA@ 1008e120     libucrt:lcidtoname_downlevel.obj
 0002:0000d13c       ??_C@_1BG@CIOGKHPB@?$AAs?$AAr?$AA?9?$AAs?$AAp?$AA?9?$AAl?$AAa?$AAt?$AAn?$AA?$AA@ 1008e13c     libucrt:lcidtoname_downlevel.obj
 0002:0000d158       ??_C@_1M@NGFJLMAC@?$AAs?$AAv?$AA?9?$AAf?$AAi?$AA?$AA@ 1008e158     libucrt:lcidtoname_downlevel.obj
 0002:0000d168       ??_C@_1M@MPJEJAJC@?$AAs?$AAv?$AA?9?$AAs?$AAe?$AA?$AA@ 1008e168     libucrt:lcidtoname_downlevel.obj
 0002:0000d178       ??_C@_1M@MPNDHLFK@?$AAs?$AAw?$AA?9?$AAk?$AAe?$AA?$AA@ 1008e178     libucrt:lcidtoname_downlevel.obj
 0002:0000d188       ??_C@_1O@KOHBJJI@?$AAs?$AAy?$AAr?$AA?9?$AAs?$AAy?$AA?$AA@ 1008e188     libucrt:lcidtoname_downlevel.obj
 0002:0000d198       ??_C@_1M@LDCEFHA@?$AAt?$AAa?$AA?9?$AAi?$AAn?$AA?$AA@ 1008e198     libucrt:lcidtoname_downlevel.obj
 0002:0000d1a8       ??_C@_1M@CNJOFAK@?$AAt?$AAe?$AA?9?$AAi?$AAn?$AA?$AA@ 1008e1a8     libucrt:lcidtoname_downlevel.obj
 0002:0000d1b8       ??_C@_1M@GNAECACD@?$AAt?$AAh?$AA?9?$AAt?$AAh?$AA?$AA@ 1008e1b8     libucrt:lcidtoname_downlevel.obj
 0002:0000d1c8       ??_C@_1M@CHBIHOJO@?$AAt?$AAn?$AA?9?$AAz?$AAa?$AA?$AA@ 1008e1c8     libucrt:lcidtoname_downlevel.obj
 0002:0000d1d8       ??_C@_1M@GCCMIGPJ@?$AAt?$AAr?$AA?9?$AAt?$AAr?$AA?$AA@ 1008e1d8     libucrt:lcidtoname_downlevel.obj
 0002:0000d1e8       ??_C@_1M@CELMCNBK@?$AAt?$AAt?$AA?9?$AAr?$AAu?$AA?$AA@ 1008e1e8     libucrt:lcidtoname_downlevel.obj
 0002:0000d1f8       ??_C@_1M@KLMCELGA@?$AAu?$AAk?$AA?9?$AAu?$AAa?$AA?$AA@ 1008e1f8     libucrt:lcidtoname_downlevel.obj
 0002:0000d208       ??_C@_1M@EPAJJAJF@?$AAu?$AAr?$AA?9?$AAp?$AAk?$AA?$AA@ 1008e208     libucrt:lcidtoname_downlevel.obj
 0002:0000d218       ??_C@_1BG@GEGPMCDJ@?$AAu?$AAz?$AA?9?$AAu?$AAz?$AA?9?$AAc?$AAy?$AAr?$AAl?$AA?$AA@ 1008e218     libucrt:lcidtoname_downlevel.obj
 0002:0000d234       ??_C@_1BG@EGGKJILM@?$AAu?$AAz?$AA?9?$AAu?$AAz?$AA?9?$AAl?$AAa?$AAt?$AAn?$AA?$AA@ 1008e234     libucrt:lcidtoname_downlevel.obj
 0002:0000d250       ??_C@_1M@GFOCLFF@?$AAv?$AAi?$AA?9?$AAv?$AAn?$AA?$AA@ 1008e250     libucrt:lcidtoname_downlevel.obj
 0002:0000d260       ??_C@_1M@CPAMEDFI@?$AAx?$AAh?$AA?9?$AAz?$AAa?$AA?$AA@ 1008e260     libucrt:lcidtoname_downlevel.obj
 0002:0000d270       ??_C@_1O@EBKIFIGN@?$AAz?$AAh?$AA?9?$AAc?$AAh?$AAs?$AA?$AA@ 1008e270     libucrt:lcidtoname_downlevel.obj
 0002:0000d280       ??_C@_1O@NMHPGANE@?$AAz?$AAh?$AA?9?$AAc?$AAh?$AAt?$AA?$AA@ 1008e280     libucrt:lcidtoname_downlevel.obj
 0002:0000d290       ??_C@_1M@LPINJOMC@?$AAz?$AAh?$AA?9?$AAc?$AAn?$AA?$AA@ 1008e290     libucrt:lcidtoname_downlevel.obj
 0002:0000d2a0       ??_C@_1M@OCJEJODD@?$AAz?$AAh?$AA?9?$AAh?$AAk?$AA?$AA@ 1008e2a0     libucrt:lcidtoname_downlevel.obj
 0002:0000d2b0       ??_C@_1M@DNDLJINH@?$AAz?$AAh?$AA?9?$AAm?$AAo?$AA?$AA@ 1008e2b0     libucrt:lcidtoname_downlevel.obj
 0002:0000d2c0       ??_C@_1M@MBFDNDND@?$AAz?$AAh?$AA?9?$AAs?$AAg?$AA?$AA@ 1008e2c0     libucrt:lcidtoname_downlevel.obj
 0002:0000d2d0       ??_C@_1M@IMEPLEPE@?$AAz?$AAh?$AA?9?$AAt?$AAw?$AA?$AA@ 1008e2d0     libucrt:lcidtoname_downlevel.obj
 0002:0000d2e0       ??_C@_1M@BBGHNHJP@?$AAz?$AAu?$AA?9?$AAz?$AAa?$AA?$AA@ 1008e2e0     libucrt:lcidtoname_downlevel.obj
 0002:0000d2ee       ??_C@_00CNPNBAHC@?$AA@     1008e2ee     libucrt:mbrtowc.obj
 0002:0000d2f0       ??_C@_01GBGANLPD@0?$AA@    1008e2f0     libucrt:cfout.obj
 0002:0000d2f4       ??_C@_05DNEBIAHO@1?$CDINF?$AA@ 1008e2f4     libucrt:cfout.obj
 0002:0000d2fc       ??_C@_06IMKFLFPG@1?$CDQNAN?$AA@ 1008e2fc     libucrt:cfout.obj
 0002:0000d304       ??_C@_06PGGFOGJG@1?$CDSNAN?$AA@ 1008e304     libucrt:cfout.obj
 0002:0000d30c       ??_C@_05PHHOCPM@1?$CDIND?$AA@ 1008e30c     libucrt:cfout.obj
 0002:0000d318       ___acrt_rg_language        1008e318     libucrt:get_qualified_locale.obj
 0002:0000d6c0       ___acrt_rg_language_count  1008e6c0     libucrt:get_qualified_locale.obj
 0002:0000d6c8       ___acrt_rg_country         1008e6c8     libucrt:get_qualified_locale.obj
 0002:0000d814       ___acrt_rg_country_count   1008e814     libucrt:get_qualified_locale.obj
 0002:0000d818       ??_C@_1BC@LLOKLNP@?$AAa?$AAm?$AAe?$AAr?$AAi?$AAc?$AAa?$AAn?$AA?$AA@ 1008e818     libucrt:get_qualified_locale.obj
 0002:0000d830       ??_C@_1CC@HEIGCDGG@?$AAa?$AAm?$AAe?$AAr?$AAi?$AAc?$AAa?$AAn?$AA?5?$AAe?$AAn?$AAg?$AAl?$AAi?$AAs?$AAh?$AA?$AA@ 1008e830     libucrt:get_qualified_locale.obj
 0002:0000d858       ??_C@_1CC@IHCNOMIN@?$AAa?$AAm?$AAe?$AAr?$AAi?$AAc?$AAa?$AAn?$AA?9?$AAe?$AAn?$AAg?$AAl?$AAi?$AAs?$AAh?$AA?$AA@ 1008e858     libucrt:get_qualified_locale.obj
 0002:0000d880       ??_C@_1BG@GKAGPCGG@?$AAa?$AAu?$AAs?$AAt?$AAr?$AAa?$AAl?$AAi?$AAa?$AAn?$AA?$AA@ 1008e880     libucrt:get_qualified_locale.obj
 0002:0000d89c       ??_C@_1BA@GMENCENF@?$AAb?$AAe?$AAl?$AAg?$AAi?$AAa?$AAn?$AA?$AA@ 1008e89c     libucrt:get_qualified_locale.obj
 0002:0000d8b0       ??_C@_1BC@PJMIIAAN@?$AAc?$AAa?$AAn?$AAa?$AAd?$AAi?$AAa?$AAn?$AA?$AA@ 1008e8b0     libucrt:get_qualified_locale.obj
 0002:0000d8c8       ??_C@_17NOIMNFBF@?$AAc?$AAh?$AAh?$AA?$AA@ 1008e8c8     libucrt:get_qualified_locale.obj
 0002:0000d8d4       ??_C@_17GGDALCHA@?$AAc?$AAh?$AAi?$AA?$AA@ 1008e8d4     libucrt:get_qualified_locale.obj
 0002:0000d8e0       ??_C@_1BA@NPNJKIBL@?$AAc?$AAh?$AAi?$AAn?$AAe?$AAs?$AAe?$AA?$AA@ 1008e8e0     libucrt:get_qualified_locale.obj
 0002:0000d8f4       ??_C@_1CC@DINBAMMJ@?$AAc?$AAh?$AAi?$AAn?$AAe?$AAs?$AAe?$AA?9?$AAh?$AAo?$AAn?$AAg?$AAk?$AAo?$AAn?$AAg?$AA?$AA@ 1008e8f4     libucrt:get_qualified_locale.obj
 0002:0000d91c       ??_C@_1CG@IOBJPACO@?$AAc?$AAh?$AAi?$AAn?$AAe?$AAs?$AAe?$AA?9?$AAs?$AAi?$AAm?$AAp?$AAl?$AAi?$AAf?$AAi?$AAe?$AAd?$AA?$AA@ 1008e91c     libucrt:get_qualified_locale.obj
 0002:0000d94c       ??_C@_1CE@GAJNDCKG@?$AAc?$AAh?$AAi?$AAn?$AAe?$AAs?$AAe?$AA?9?$AAs?$AAi?$AAn?$AAg?$AAa?$AAp?$AAo?$AAr?$AAe?$AA?$AA@ 1008e94c     libucrt:get_qualified_locale.obj
 0002:0000d978       ??_C@_1CI@PAJPIOOD@?$AAc?$AAh?$AAi?$AAn?$AAe?$AAs?$AAe?$AA?9?$AAt?$AAr?$AAa?$AAd?$AAi?$AAt?$AAi?$AAo?$AAn?$AAa?$AAl?$AA?$AA@ 1008e978     libucrt:get_qualified_locale.obj
 0002:0000d9a8       ??_C@_1BM@NILJBMMD@?$AAd?$AAu?$AAt?$AAc?$AAh?$AA?9?$AAb?$AAe?$AAl?$AAg?$AAi?$AAa?$AAn?$AA?$AA@ 1008e9a8     libucrt:get_qualified_locale.obj
 0002:0000d9cc       ??_C@_1CC@OOJPJNEJ@?$AAe?$AAn?$AAg?$AAl?$AAi?$AAs?$AAh?$AA?9?$AAa?$AAm?$AAe?$AAr?$AAi?$AAc?$AAa?$AAn?$AA?$AA@ 1008e9cc     libucrt:get_qualified_locale.obj
 0002:0000d9f4       ??_C@_1BI@IOLFEEM@?$AAe?$AAn?$AAg?$AAl?$AAi?$AAs?$AAh?$AA?9?$AAa?$AAu?$AAs?$AA?$AA@ 1008e9f4     libucrt:get_qualified_locale.obj
 0002:0000da10       ??_C@_1BO@HFFNLENJ@?$AAe?$AAn?$AAg?$AAl?$AAi?$AAs?$AAh?$AA?9?$AAb?$AAe?$AAl?$AAi?$AAz?$AAe?$AA?$AA@ 1008ea10     libucrt:get_qualified_locale.obj
 0002:0000da34       ??_C@_1BI@HAPKJMPO@?$AAe?$AAn?$AAg?$AAl?$AAi?$AAs?$AAh?$AA?9?$AAc?$AAa?$AAn?$AA?$AA@ 1008ea34     libucrt:get_qualified_locale.obj
 0002:0000da50       ??_C@_1CE@HLNDMIOJ@?$AAe?$AAn?$AAg?$AAl?$AAi?$AAs?$AAh?$AA?9?$AAc?$AAa?$AAr?$AAi?$AAb?$AAb?$AAe?$AAa?$AAn?$AA?$AA@ 1008ea50     libucrt:get_qualified_locale.obj
 0002:0000da7c       ??_C@_1BI@LDHJHHAC@?$AAe?$AAn?$AAg?$AAl?$AAi?$AAs?$AAh?$AA?9?$AAi?$AAr?$AAe?$AA?$AA@ 1008ea7c     libucrt:get_qualified_locale.obj
 0002:0000da98       ??_C@_1CA@NJMMCFOC@?$AAe?$AAn?$AAg?$AAl?$AAi?$AAs?$AAh?$AA?9?$AAj?$AAa?$AAm?$AAa?$AAi?$AAc?$AAa?$AA?$AA@ 1008ea98     libucrt:get_qualified_locale.obj
 0002:0000dac0       ??_C@_1BG@BHJEBBGG@?$AAe?$AAn?$AAg?$AAl?$AAi?$AAs?$AAh?$AA?9?$AAn?$AAz?$AA?$AA@ 1008eac0     libucrt:get_qualified_locale.obj
 0002:0000dadc       ??_C@_1CK@FGOEJJCO@?$AAe?$AAn?$AAg?$AAl?$AAi?$AAs?$AAh?$AA?9?$AAs?$AAo?$AAu?$AAt?$AAh?$AA?5?$AAa?$AAf?$AAr?$AAi?$AAc?$AAa?$AA?$AA@ 1008eadc     libucrt:get_qualified_locale.obj
 0002:0000db10       ??_C@_1DE@PDBJPCJ@?$AAe?$AAn?$AAg?$AAl?$AAi?$AAs?$AAh?$AA?9?$AAt?$AAr?$AAi?$AAn?$AAi?$AAd?$AAa?$AAd?$AA?5?$AAy?$AA?5?$AAt?$AAo?$AAb?$AAa?$AAg?$AAo?$AA?$AA@ 1008eb10     libucrt:get_qualified_locale.obj
 0002:0000db50       ??_C@_1BG@JGCANDME@?$AAe?$AAn?$AAg?$AAl?$AAi?$AAs?$AAh?$AA?9?$AAu?$AAk?$AA?$AA@ 1008eb50     libucrt:get_qualified_locale.obj
 0002:0000db6c       ??_C@_1BG@DINKMLE@?$AAe?$AAn?$AAg?$AAl?$AAi?$AAs?$AAh?$AA?9?$AAu?$AAs?$AA?$AA@ 1008eb6c     libucrt:get_qualified_locale.obj
 0002:0000db88       ??_C@_1BI@NMFDBHJE@?$AAe?$AAn?$AAg?$AAl?$AAi?$AAs?$AAh?$AA?9?$AAu?$AAs?$AAa?$AA?$AA@ 1008eb88     libucrt:get_qualified_locale.obj
 0002:0000dba4       ??_C@_1BO@OIHKJKII@?$AAf?$AAr?$AAe?$AAn?$AAc?$AAh?$AA?9?$AAb?$AAe?$AAl?$AAg?$AAi?$AAa?$AAn?$AA?$AA@ 1008eba4     libucrt:get_qualified_locale.obj
 0002:0000dbc8       ??_C@_1CA@NKAELJKI@?$AAf?$AAr?$AAe?$AAn?$AAc?$AAh?$AA?9?$AAc?$AAa?$AAn?$AAa?$AAd?$AAi?$AAa?$AAn?$AA?$AA@ 1008ebc8     libucrt:get_qualified_locale.obj
 0002:0000dbf0       ??_C@_1CE@MGKCNLGN@?$AAf?$AAr?$AAe?$AAn?$AAc?$AAh?$AA?9?$AAl?$AAu?$AAx?$AAe?$AAm?$AAb?$AAo?$AAu?$AAr?$AAg?$AA?$AA@ 1008ebf0     libucrt:get_qualified_locale.obj
 0002:0000dc1c       ??_C@_1BK@CEGEAILM@?$AAf?$AAr?$AAe?$AAn?$AAc?$AAh?$AA?9?$AAs?$AAw?$AAi?$AAs?$AAs?$AA?$AA@ 1008ec1c     libucrt:get_qualified_locale.obj
 0002:0000dc3c       ??_C@_1CA@PAFKEOCC@?$AAg?$AAe?$AAr?$AAm?$AAa?$AAn?$AA?9?$AAa?$AAu?$AAs?$AAt?$AAr?$AAi?$AAa?$AAn?$AA?$AA@ 1008ec3c     libucrt:get_qualified_locale.obj
 0002:0000dc64       ??_C@_1CI@HCFHGOFD@?$AAg?$AAe?$AAr?$AAm?$AAa?$AAn?$AA?9?$AAl?$AAi?$AAc?$AAh?$AAt?$AAe?$AAn?$AAs?$AAt?$AAe?$AAi?$AAn?$AA?$AA@ 1008ec64     libucrt:get_qualified_locale.obj
 0002:0000dc94       ??_C@_1CE@FEDDNPDG@?$AAg?$AAe?$AAr?$AAm?$AAa?$AAn?$AA?9?$AAl?$AAu?$AAx?$AAe?$AAm?$AAb?$AAo?$AAu?$AAr?$AAg?$AA?$AA@ 1008ec94     libucrt:get_qualified_locale.obj
 0002:0000dcc0       ??_C@_1BK@LIMINNMN@?$AAg?$AAe?$AAr?$AAm?$AAa?$AAn?$AA?9?$AAs?$AAw?$AAi?$AAs?$AAs?$AA?$AA@ 1008ecc0     libucrt:get_qualified_locale.obj
 0002:0000dce0       ??_C@_1BM@LGMDBEPD@?$AAi?$AAr?$AAi?$AAs?$AAh?$AA?9?$AAe?$AAn?$AAg?$AAl?$AAi?$AAs?$AAh?$AA?$AA@ 1008ece0     libucrt:get_qualified_locale.obj
 0002:0000dd04       ??_C@_1BM@NNCFBAEE@?$AAi?$AAt?$AAa?$AAl?$AAi?$AAa?$AAn?$AA?9?$AAs?$AAw?$AAi?$AAs?$AAs?$AA?$AA@ 1008ed04     libucrt:get_qualified_locale.obj
 0002:0000dd28       ??_C@_1BE@FEDJNPIB@?$AAn?$AAo?$AAr?$AAw?$AAe?$AAg?$AAi?$AAa?$AAn?$AA?$AA@ 1008ed28     libucrt:get_qualified_locale.obj
 0002:0000dd40       ??_C@_1CC@CILKDEIE@?$AAn?$AAo?$AAr?$AAw?$AAe?$AAg?$AAi?$AAa?$AAn?$AA?9?$AAb?$AAo?$AAk?$AAm?$AAa?$AAl?$AA?$AA@ 1008ed40     libucrt:get_qualified_locale.obj
 0002:0000dd68       ??_C@_1CE@DHMMHEPL@?$AAn?$AAo?$AAr?$AAw?$AAe?$AAg?$AAi?$AAa?$AAn?$AA?9?$AAn?$AAy?$AAn?$AAo?$AAr?$AAs?$AAk?$AA?$AA@ 1008ed68     libucrt:get_qualified_locale.obj
 0002:0000dd94       ??_C@_1CK@OPNMHECD@?$AAp?$AAo?$AAr?$AAt?$AAu?$AAg?$AAu?$AAe?$AAs?$AAe?$AA?9?$AAb?$AAr?$AAa?$AAz?$AAi?$AAl?$AAi?$AAa?$AAn?$AA?$AA@ 1008ed94     libucrt:get_qualified_locale.obj
 0002:0000ddc8       ??_C@_1CE@KEEHCDB@?$AAs?$AAp?$AAa?$AAn?$AAi?$AAs?$AAh?$AA?9?$AAa?$AAr?$AAg?$AAe?$AAn?$AAt?$AAi?$AAn?$AAa?$AA?$AA@ 1008edc8     libucrt:get_qualified_locale.obj
 0002:0000ddf4       ??_C@_1CA@GIAOLHJD@?$AAs?$AAp?$AAa?$AAn?$AAi?$AAs?$AAh?$AA?9?$AAb?$AAo?$AAl?$AAi?$AAv?$AAi?$AAa?$AA?$AA@ 1008edf4     libucrt:get_qualified_locale.obj
 0002:0000de1c       ??_C@_1BM@OJNDFNPD@?$AAs?$AAp?$AAa?$AAn?$AAi?$AAs?$AAh?$AA?9?$AAc?$AAh?$AAi?$AAl?$AAe?$AA?$AA@ 1008ee1c     libucrt:get_qualified_locale.obj
 0002:0000de40       ??_C@_1CC@OCOLPALL@?$AAs?$AAp?$AAa?$AAn?$AAi?$AAs?$AAh?$AA?9?$AAc?$AAo?$AAl?$AAo?$AAm?$AAb?$AAi?$AAa?$AA?$AA@ 1008ee40     libucrt:get_qualified_locale.obj
 0002:0000de68       ??_C@_1CG@BPOFMKBB@?$AAs?$AAp?$AAa?$AAn?$AAi?$AAs?$AAh?$AA?9?$AAc?$AAo?$AAs?$AAt?$AAa?$AA?5?$AAr?$AAi?$AAc?$AAa?$AA?$AA@ 1008ee68     libucrt:get_qualified_locale.obj
 0002:0000de98       ??_C@_1DG@IGOBAPBB@?$AAs?$AAp?$AAa?$AAn?$AAi?$AAs?$AAh?$AA?9?$AAd?$AAo?$AAm?$AAi?$AAn?$AAi?$AAc?$AAa?$AAn?$AA?5?$AAr?$AAe?$AAp?$AAu?$AAb?$AAl?$AAi?$AAc?$AA?$AA@ 1008ee98     libucrt:get_qualified_locale.obj
 0002:0000ded8       ??_C@_1CA@JHAPGEGI@?$AAs?$AAp?$AAa?$AAn?$AAi?$AAs?$AAh?$AA?9?$AAe?$AAc?$AAu?$AAa?$AAd?$AAo?$AAr?$AA?$AA@ 1008eed8     libucrt:get_qualified_locale.obj
 0002:0000df00       ??_C@_1CI@LAPALJPP@?$AAs?$AAp?$AAa?$AAn?$AAi?$AAs?$AAh?$AA?9?$AAe?$AAl?$AA?5?$AAs?$AAa?$AAl?$AAv?$AAa?$AAd?$AAo?$AAr?$AA?$AA@ 1008ef00     libucrt:get_qualified_locale.obj
 0002:0000df30       ??_C@_1CE@PDGBOFOM@?$AAs?$AAp?$AAa?$AAn?$AAi?$AAs?$AAh?$AA?9?$AAg?$AAu?$AAa?$AAt?$AAe?$AAm?$AAa?$AAl?$AAa?$AA?$AA@ 1008ef30     libucrt:get_qualified_locale.obj
 0002:0000df5c       ??_C@_1CC@NBEBAODI@?$AAs?$AAp?$AAa?$AAn?$AAi?$AAs?$AAh?$AA?9?$AAh?$AAo?$AAn?$AAd?$AAu?$AAr?$AAa?$AAs?$AA?$AA@ 1008ef5c     libucrt:get_qualified_locale.obj
 0002:0000df84       ??_C@_1CA@LLKGHBMF@?$AAs?$AAp?$AAa?$AAn?$AAi?$AAs?$AAh?$AA?9?$AAm?$AAe?$AAx?$AAi?$AAc?$AAa?$AAn?$AA?$AA@ 1008ef84     libucrt:get_qualified_locale.obj
 0002:0000dfac       ??_C@_1BO@LKNDOIGD@?$AAs?$AAp?$AAa?$AAn?$AAi?$AAs?$AAh?$AA?9?$AAm?$AAo?$AAd?$AAe?$AAr?$AAn?$AA?$AA@ 1008efac     libucrt:get_qualified_locale.obj
 0002:0000dfd0       ??_C@_1CE@NMDMOEEB@?$AAs?$AAp?$AAa?$AAn?$AAi?$AAs?$AAh?$AA?9?$AAn?$AAi?$AAc?$AAa?$AAr?$AAa?$AAg?$AAu?$AAa?$AA?$AA@ 1008efd0     libucrt:get_qualified_locale.obj
 0002:0000dffc       ??_C@_1BO@LLCBEJGB@?$AAs?$AAp?$AAa?$AAn?$AAi?$AAs?$AAh?$AA?9?$AAp?$AAa?$AAn?$AAa?$AAm?$AAa?$AA?$AA@ 1008effc     libucrt:get_qualified_locale.obj
 0002:0000e020       ??_C@_1CC@FKPGGIHO@?$AAs?$AAp?$AAa?$AAn?$AAi?$AAs?$AAh?$AA?9?$AAp?$AAa?$AAr?$AAa?$AAg?$AAu?$AAa?$AAy?$AA?$AA@ 1008f020     libucrt:get_qualified_locale.obj
 0002:0000e048       ??_C@_1BK@CDEIHOOP@?$AAs?$AAp?$AAa?$AAn?$AAi?$AAs?$AAh?$AA?9?$AAp?$AAe?$AAr?$AAu?$AA?$AA@ 1008f048     libucrt:get_qualified_locale.obj
 0002:0000e068       ??_C@_1CI@GAHAKKGP@?$AAs?$AAp?$AAa?$AAn?$AAi?$AAs?$AAh?$AA?9?$AAp?$AAu?$AAe?$AAr?$AAt?$AAo?$AA?5?$AAr?$AAi?$AAc?$AAo?$AA?$AA@ 1008f068     libucrt:get_qualified_locale.obj
 0002:0000e098       ??_C@_1CA@NKJBCAGP@?$AAs?$AAp?$AAa?$AAn?$AAi?$AAs?$AAh?$AA?9?$AAu?$AAr?$AAu?$AAg?$AAu?$AAa?$AAy?$AA?$AA@ 1008f098     libucrt:get_qualified_locale.obj
 0002:0000e0c0       ??_C@_1CE@ODILCONM@?$AAs?$AAp?$AAa?$AAn?$AAi?$AAs?$AAh?$AA?9?$AAv?$AAe?$AAn?$AAe?$AAz?$AAu?$AAe?$AAl?$AAa?$AA?$AA@ 1008f0c0     libucrt:get_qualified_locale.obj
 0002:0000e0ec       ??_C@_1CA@OBNMCGFO@?$AAs?$AAw?$AAe?$AAd?$AAi?$AAs?$AAh?$AA?9?$AAf?$AAi?$AAn?$AAl?$AAa?$AAn?$AAd?$AA?$AA@ 1008f0ec     libucrt:get_qualified_locale.obj
 0002:0000e114       ??_C@_1M@PIPDDPPI@?$AAs?$AAw?$AAi?$AAs?$AAs?$AA?$AA@ 1008f114     libucrt:get_qualified_locale.obj
 0002:0000e124       ??_C@_15GMFIMNFM@?$AAu?$AAs?$AA?$AA@ 1008f124     libucrt:get_qualified_locale.obj
 0002:0000e12c       ??_C@_17HAEBFAGL@?$AAu?$AAs?$AAa?$AA?$AA@ 1008f12c     libucrt:get_qualified_locale.obj
 0002:0000e138       ??_C@_1BA@DPFJEPHB@?$AAa?$AAm?$AAe?$AAr?$AAi?$AAc?$AAa?$AA?$AA@ 1008f138     libucrt:get_qualified_locale.obj
 0002:0000e14c       ??_C@_1BA@ELOGGFK@?$AAb?$AAr?$AAi?$AAt?$AAa?$AAi?$AAn?$AA?$AA@ 1008f14c     libucrt:get_qualified_locale.obj
 0002:0000e160       ??_C@_1M@GHBGIGDA@?$AAc?$AAh?$AAi?$AAn?$AAa?$AA?$AA@ 1008f160     libucrt:get_qualified_locale.obj
 0002:0000e170       ??_C@_1M@NCHEJOPO@?$AAc?$AAz?$AAe?$AAc?$AAh?$AA?$AA@ 1008f170     libucrt:get_qualified_locale.obj
 0002:0000e180       ??_C@_1BA@BKPAPBLA@?$AAe?$AAn?$AAg?$AAl?$AAa?$AAn?$AAd?$AA?$AA@ 1008f180     libucrt:get_qualified_locale.obj
 0002:0000e194       ??_C@_1BM@HKBCKIPC@?$AAg?$AAr?$AAe?$AAa?$AAt?$AA?5?$AAb?$AAr?$AAi?$AAt?$AAa?$AAi?$AAn?$AA?$AA@ 1008f194     libucrt:get_qualified_locale.obj
 0002:0000e1b8       ??_C@_1BA@PPCHPGJB@?$AAh?$AAo?$AAl?$AAl?$AAa?$AAn?$AAd?$AA?$AA@ 1008f1b8     libucrt:get_qualified_locale.obj
 0002:0000e1cc       ??_C@_1BE@JBMPEGDG@?$AAh?$AAo?$AAn?$AAg?$AA?9?$AAk?$AAo?$AAn?$AAg?$AA?$AA@ 1008f1cc     libucrt:get_qualified_locale.obj
 0002:0000e1e4       ??_C@_1BI@KOELBBPJ@?$AAn?$AAe?$AAw?$AA?9?$AAz?$AAe?$AAa?$AAl?$AAa?$AAn?$AAd?$AA?$AA@ 1008f1e4     libucrt:get_qualified_locale.obj
 0002:0000e200       ??_C@_15HIEBHAIO@?$AAn?$AAz?$AA?$AA@ 1008f200     libucrt:get_qualified_locale.obj
 0002:0000e208       ??_C@_1BC@CHBCPFPI@?$AAp?$AAr?$AA?5?$AAc?$AAh?$AAi?$AAn?$AAa?$AA?$AA@ 1008f208     libucrt:get_qualified_locale.obj
 0002:0000e220       ??_C@_1BC@JAOIIFKD@?$AAp?$AAr?$AA?9?$AAc?$AAh?$AAi?$AAn?$AAa?$AA?$AA@ 1008f220     libucrt:get_qualified_locale.obj
 0002:0000e238       ??_C@_1BI@BEHPPHKC@?$AAp?$AAu?$AAe?$AAr?$AAt?$AAo?$AA?9?$AAr?$AAi?$AAc?$AAo?$AA?$AA@ 1008f238     libucrt:get_qualified_locale.obj
 0002:0000e254       ??_C@_1O@PAEOFKDI@?$AAs?$AAl?$AAo?$AAv?$AAa?$AAk?$AA?$AA@ 1008f254     libucrt:get_qualified_locale.obj
 0002:0000e264       ??_C@_1BK@FIHMCKAM@?$AAs?$AAo?$AAu?$AAt?$AAh?$AA?5?$AAa?$AAf?$AAr?$AAi?$AAc?$AAa?$AA?$AA@ 1008f264     libucrt:get_qualified_locale.obj
 0002:0000e284       ??_C@_1BI@NAEOODKB@?$AAs?$AAo?$AAu?$AAt?$AAh?$AA?5?$AAk?$AAo?$AAr?$AAe?$AAa?$AA?$AA@ 1008f284     libucrt:get_qualified_locale.obj
 0002:0000e2a0       ??_C@_1BK@FBDGGIFF@?$AAs?$AAo?$AAu?$AAt?$AAh?$AA?9?$AAa?$AAf?$AAr?$AAi?$AAc?$AAa?$AA?$AA@ 1008f2a0     libucrt:get_qualified_locale.obj
 0002:0000e2c0       ??_C@_1BI@GHLEJDPK@?$AAs?$AAo?$AAu?$AAt?$AAh?$AA?9?$AAk?$AAo?$AAr?$AAe?$AAa?$AA?$AA@ 1008f2c0     libucrt:get_qualified_locale.obj
 0002:0000e2dc       ??_C@_1CE@PLHLOMJF@?$AAt?$AAr?$AAi?$AAn?$AAi?$AAd?$AAa?$AAd?$AA?5?$AA?$CG?$AA?5?$AAt?$AAo?$AAb?$AAa?$AAg?$AAo?$AA?$AA@ 1008f2dc     libucrt:get_qualified_locale.obj
 0002:0000e308       ??_C@_1BO@MODIMHHI@?$AAu?$AAn?$AAi?$AAt?$AAe?$AAd?$AA?9?$AAk?$AAi?$AAn?$AAg?$AAd?$AAo?$AAm?$AA?$AA@ 1008f308     libucrt:get_qualified_locale.obj
 0002:0000e32c       ??_C@_1BM@FFHJONBJ@?$AAu?$AAn?$AAi?$AAt?$AAe?$AAd?$AA?9?$AAs?$AAt?$AAa?$AAt?$AAe?$AAs?$AA?$AA@ 1008f32c     libucrt:get_qualified_locale.obj
 0002:0000e350       ??_C@_17DNCLJFIF@?$AAA?$AAC?$AAP?$AA?$AA@ 1008f350     libucrt:get_qualified_locale.obj
 0002:0000e35c       ??_C@_17CIKBIHLH@?$AAO?$AAC?$AAP?$AA?$AA@ 1008f35c     libucrt:get_qualified_locale.obj
 0002:0000e368       ___rglangidNotDefault      1008f368     libucrt:getqloc_downlevel.obj
 0002:0000e3e8       ??_C@_1BA@BALFACEM@?$AAC?$AAO?$AAN?$AAO?$AAU?$AAT?$AA$?$AA?$AA@ 1008f3e8     libucrt:initcon.obj
 0002:0000e540       __infinity                 1008f540     libucrt:87tran.obj
 0002:0000e54a       __minfinity                1008f54a     libucrt:87tran.obj
 0002:0000e554       __logemax                  1008f554     libucrt:87tran.obj
 0002:0000e57a       __OP_EXPjmptab             1008f57a     libucrt:87tran.obj
 0002:0000e5b0       __indefinite               1008f5b0     libucrt:87disp.obj
 0002:0000e5ba       __piby2                    1008f5ba     libucrt:87disp.obj
 0002:0000e5c4       __piby4                    1008f5c4     libucrt:87disp.obj
 0002:0000e608       __DEFAULT_CW_in_mem        1008f608     libucrt:common.obj
 0002:0000e60a       __pi_by_2_to_61            1008f60a     libucrt:common.obj
 0002:0000e760       ___acrt_log10_table_t      1008f760     libucrt:log10_tables.obj
 0002:0000ec40       ___acrt_log10_table_cb     1008fc40     libucrt:log10_tables.obj
 0002:0000f124       ??_7type_info@@6B@         10090124     LIBCMT:std_type_info_static.obj
 0002:0000f168       __load_config_used         10090168     LIBCMT:loadcfg.obj
 0002:0000f7cc       ??_R4DNameNode@@6B@        100907cc     libvcruntime:undname.obj
 0002:0000f7e4       ??_R3DNameNode@@8          100907e4     libvcruntime:undname.obj
 0002:0000f7f8       ??_R2DNameNode@@8          100907f8     libvcruntime:undname.obj
 0002:0000f800       ??_R1A@?0A@EA@DNameNode@@8 10090800     libvcruntime:undname.obj
 0002:0000f824       ??_R4charNode@@6B@         10090824     libvcruntime:undname.obj
 0002:0000f83c       ??_R3charNode@@8           1009083c     libvcruntime:undname.obj
 0002:0000f850       ??_R2charNode@@8           10090850     libvcruntime:undname.obj
 0002:0000f85c       ??_R1A@?0A@EA@charNode@@8  1009085c     libvcruntime:undname.obj
 0002:0000f880       ??_R4pcharNode@@6B@        10090880     libvcruntime:undname.obj
 0002:0000f898       ??_R3pcharNode@@8          10090898     libvcruntime:undname.obj
 0002:0000f8ac       ??_R2pcharNode@@8          100908ac     libvcruntime:undname.obj
 0002:0000f8b8       ??_R1A@?0A@EA@pcharNode@@8 100908b8     libvcruntime:undname.obj
 0002:0000f8dc       ??_R4pDNameNode@@6B@       100908dc     libvcruntime:undname.obj
 0002:0000f8f4       ??_R3pDNameNode@@8         100908f4     libvcruntime:undname.obj
 0002:0000f908       ??_R2pDNameNode@@8         10090908     libvcruntime:undname.obj
 0002:0000f914       ??_R1A@?0A@EA@pDNameNode@@8 10090914     libvcruntime:undname.obj
 0002:0000f938       ??_R4DNameStatusNode@@6B@  10090938     libvcruntime:undname.obj
 0002:0000f950       ??_R3DNameStatusNode@@8    10090950     libvcruntime:undname.obj
 0002:0000f964       ??_R2DNameStatusNode@@8    10090964     libvcruntime:undname.obj
 0002:0000f970       ??_R1A@?0A@EA@DNameStatusNode@@8 10090970     libvcruntime:undname.obj
 0002:0000f994       ??_R4pairNode@@6B@         10090994     libvcruntime:undname.obj
 0002:0000f9ac       ??_R3pairNode@@8           100909ac     libvcruntime:undname.obj
 0002:0000f9c0       ??_R2pairNode@@8           100909c0     libvcruntime:undname.obj
 0002:0000f9cc       ??_R1A@?0A@EA@pairNode@@8  100909cc     libvcruntime:undname.obj
 0002:0000f9f0       ??_R4exception@std@@6B@    100909f0     libvcruntime:frame.obj
 0002:0000fa08       ??_R3exception@std@@8      10090a08     libvcruntime:frame.obj
 0002:0000fa1c       ??_R2exception@std@@8      10090a1c     libvcruntime:frame.obj
 0002:0000fa24       ??_R1A@?0A@EA@exception@std@@8 10090a24     libvcruntime:frame.obj
 0002:0000fa48       ??_R4bad_exception@std@@6B@ 10090a48     libvcruntime:frame.obj
 0002:0000fa60       ??_R3bad_exception@std@@8  10090a60     libvcruntime:frame.obj
 0002:0000fa74       ??_R2bad_exception@std@@8  10090a74     libvcruntime:frame.obj
 0002:0000fa80       ??_R1A@?0A@EA@bad_exception@std@@8 10090a80     libvcruntime:frame.obj
 0002:0000faa4       ??_R4type_info@@6B@        10090aa4     LIBCMT:std_type_info_static.obj
 0002:0000fabc       ??_R3type_info@@8          10090abc     LIBCMT:std_type_info_static.obj
 0002:0000fad0       ??_R2type_info@@8          10090ad0     LIBCMT:std_type_info_static.obj
 0002:0000fad8       ??_R1A@?0A@EA@type_info@@8 10090ad8     LIBCMT:std_type_info_static.obj
 0002:0000fc10       ___safe_se_handler_table   10090c10     <linker-defined>
 0002:0000ff08       ___rtc_iaa                 10090f08     LIBCMT:initsect.obj
 0002:0001000c       ___rtc_izz                 1009100c     LIBCMT:initsect.obj
 0002:00010110       ___rtc_taa                 10091110     LIBCMT:initsect.obj
 0002:00010214       ___rtc_tzz                 10091214     LIBCMT:initsect.obj
 0002:000104e8       __TI2?AVbad_exception@std@@ 100914e8     libvcruntime:frame.obj
 0002:000104fc       __CTA2?AVbad_exception@std@@ 100914fc     libvcruntime:frame.obj
 0002:0001050c       __CT??_R0?AVbad_exception@std@@@8??0bad_exception@std@@QAE@ABV01@@Z12 1009150c     libvcruntime:frame.obj
 0002:0001052c       __CT??_R0?AVexception@std@@@8??0exception@std@@QAE@ABV01@@Z12 1009152c     libvcruntime:frame.obj
 0003:00000000       _pci20041digout            10093000     xpctarget.obj
 0003:00000004       _nipcdio24cnfg             10093004     xpctarget.obj
 0003:00000008       _rtddm6604cnfg             10093008     xpctarget.obj
 0003:00000308       _udp_comm_test_P           10093308     udp_comm_test_data.obj
 0003:00000c78       _DefaultCOMIOBase          10093c78     xpcruntime:xpcimports.obj
 0003:00000c88       _DefaultCOMIRQ             10093c88     xpcruntime:xpcimports.obj
 0003:00000ca0       __fltused                  10093ca0     LIBCMT:fltused.obj
 0003:00000cb0       ___isa_enabled             10093cb0     LIBCMT:cpu_disp.obj
 0003:00000cb4       ___security_cookie_complement 10093cb4     LIBCMT:gs_cookie.obj
 0003:00000cb8       ___security_cookie         10093cb8     LIBCMT:gs_cookie.obj
 0003:00000cc0       ___scrt_native_dllmain_reason 10093cc0     LIBCMT:utility.obj
 0003:00000ce0       __NLG_Destination          10093ce0     libvcruntime:exsup.obj
 0003:00000d00       __iob                      10093d00     libucrt:_file.obj
 0003:00000dd0       ___abort_behavior          10093dd0     libucrt:abort.obj
 0003:00000de0       ___badioinfo               10093de0     libucrt:ioinit.obj
 0003:00000e28       ___acrt_initial_locale_data 10093e28     libucrt:nlsdata.obj
 0003:00000f04       ___acrt_initial_locale_pointers 10093f04     libucrt:nlsdata.obj
 0003:00000f10       ___acrt_wide_c_locale_string 10093f10     libucrt:nlsdata.obj
 0003:00000f14       ___mb_cur_max              10093f14     libucrt:nlsdata.obj
 0003:00000f18       __lookuptrailbytes         10093f18     libucrt:read.obj
 0003:00001050       __pctype                   10094050     libucrt:ctype.obj
 0003:00001054       __pwctype                  10094054     libucrt:ctype.obj
 0003:00001058       ___acrt_initial_multibyte_data 10094058     libucrt:mbctype.obj
 0003:00001678       ___globallocalestatus      10094678     libucrt:glstatus.obj
 0003:00001680       ___acrt_lconv_c            10094680     libucrt:localeconv.obj
 0003:000016e0       ___acrt_lconv              100946e0     libucrt:localeconv.obj
 0003:000016e4       ___acrt_lconv_static_decimal 100946e4     libucrt:localeconv.obj
 0003:000016e8       ___acrt_lconv_static_W_decimal 100946e8     libucrt:localeconv.obj
 0003:00001830       ??_R0?AVDNameNode@@@8      10094830     libvcruntime:undname.obj
 0003:0000184c       ??_R0?AVcharNode@@@8       1009484c     libvcruntime:undname.obj
 0003:00001868       ??_R0?AVpcharNode@@@8      10094868     libvcruntime:undname.obj
 0003:00001884       ??_R0?AVpDNameNode@@@8     10094884     libvcruntime:undname.obj
 0003:000018a4       ??_R0?AVDNameStatusNode@@@8 100948a4     libvcruntime:undname.obj
 0003:000018c8       ??_R0?AVpairNode@@@8       100948c8     libvcruntime:undname.obj
 0003:000018e4       ??_R0?AVbad_exception@std@@@8 100948e4     libvcruntime:frame.obj
 0003:0000190c       ??_R0?AVexception@std@@@8  1009490c     libvcruntime:frame.obj
 0003:00001930       ??_R0?AVbad_alloc@std@@@8  10094930     libvcruntime:ehhelpers.obj
 0003:00001954       ??_R0?AVtype_info@@@8      10094954     LIBCMT:std_type_info_static.obj
 0003:00001a80       _pci20098PortA             10094a80     xpctarget.obj
 0003:00001a84       _pci20098PortB             10094a84     xpctarget.obj
 0003:00001a88       _siepowercan_firmware_initialized 10094a88     xpctarget.obj
 0003:00001a8c       _siepowercan_port1_configured 10094a8c     xpctarget.obj
 0003:00001a90       _siepowercan_port2_configured 10094a90     xpctarget.obj
 0003:00001a94       _CANAC2_FIRMWARE_LOADED    10094a94     xpctarget.obj
 0003:00001a98       _rs232ports                10094a98     xpctarget.obj
 0003:00001aa8       _NI_AT_MIO_16F_5_commreg2  10094aa8     xpctarget.obj
 0003:00001aac       _RTD_DM6430_init           10094aac     xpctarget.obj
 0003:00001ab0       _RTD_DM6420_init           10094ab0     xpctarget.obj
 0003:00001ab4       _CANAC2_FIRMWARE_LOADED_mb1 10094ab4     xpctarget.obj
 0003:00001ab8       _CANAC2_FIRMWARE_LOADED_mb2 10094ab8     xpctarget.obj
 0003:00001abc       _CANAC2_FIRMWARE_LOADED_mb3 10094abc     xpctarget.obj
 0003:00001ac0       _xmlsize                   10094ac0     xpctarget.obj
 0003:00001ae4       ___isa_available_default   10094ae4     rt_logging.obj
 0003:00001b44       _mxi                       10094b44     udp_comm_test_xcp.obj
 0003:0000254c       ___isa_available           1009554c     LIBCMT:cpu_disp.obj
 0003:00002550       ___favor                   10095550     LIBCMT:cpu_disp.obj
 0003:00002560       ?__type_info_root_node@@3U__type_info_node@@A 10095560     LIBCMT:tncleanup.obj
 0003:00002570       ?_OptionsStorage@?1??__local_stdio_printf_options@@9@4_KA 10095570     LIBCMT:default_local_stdio_options.obj
 0003:00002580       ?_OptionsStorage@?1??__local_stdio_scanf_options@@9@4_KA 10095580     LIBCMT:default_local_stdio_options.obj
 0003:0000258c       ___scrt_current_native_startup_state 1009558c     LIBCMT:utility.obj
 0003:00002590       ___scrt_native_startup_lock 10095590     LIBCMT:utility.obj
 0003:000025b8       ___scrt_debugger_hook_flag 100955b8     LIBCMT:utility_desktop.obj
 0003:000025bc       ?pArgList@UnDecorator@@0PAVReplicator@@A 100955bc     libvcruntime:undname.obj
 0003:000025c0       ?pZNameList@UnDecorator@@0PAVReplicator@@A 100955c0     libvcruntime:undname.obj
 0003:000025c4       ?pTemplateArgList@UnDecorator@@0PAVReplicator@@A 100955c4     libvcruntime:undname.obj
 0003:000025c8       ?gName@UnDecorator@@0PBDB  100955c8     libvcruntime:undname.obj
 0003:000025cc       ?name@UnDecorator@@0PBDB   100955cc     libvcruntime:undname.obj
 0003:000025d0       ?disableFlags@UnDecorator@@0KA 100955d0     libvcruntime:undname.obj
 0003:000025d4       ?fExplicitTemplateParams@UnDecorator@@0_NA 100955d4     libvcruntime:undname.obj
 0003:000025d5       ?fGetTemplateArgumentList@UnDecorator@@0_NA 100955d5     libvcruntime:undname.obj
 0003:000025d8       ?m_pGetParameter@UnDecorator@@0P6APADJ@ZA 100955d8     libvcruntime:undname.obj
 0003:000025dc       ?m_CHPENameOffset@UnDecorator@@0KA 100955dc     libvcruntime:undname.obj
 0003:000025e0       ?m_recursionLevel@UnDecorator@@0KA 100955e0     libvcruntime:undname.obj
 0003:00002680       ___pPurecall               10095680     libvcruntime:purevirt_data.obj
 0003:00002684       ?__WinRTOutOfMemoryExceptionCallback@@3P6GPAXXZA 10095684     libvcruntime:ehhelpers.obj
 0003:00002688       __nstream                  10095688     libucrt:_file.obj
 0003:0000268c       ___piob                    1009568c     libucrt:_file.obj
 0003:00002694       __cflush                   10095694     libucrt:_file.obj
 0003:000026a0       ?c_exit_complete@?1???R<lambda_6e4b09c48022b2350581041d5f6b0c4c>@@QBE@XZ@4_NA 100956a0     libucrt:exit.obj
 0003:00002a5c       __environ_table            10095a5c     libucrt:environment_initialization.obj
 0003:00002a60       __wenviron_table           10095a60     libucrt:environment_initialization.obj
 0003:00002a68       ___dcrt_initial_wide_environment 10095a68     libucrt:environment_initialization.obj
 0003:00002a6c       ___dcrt_initial_narrow_environment 10095a6c     libucrt:environment_initialization.obj
 0003:00002a70       ___acrt_atexit_table       10095a70     libucrt:onexit.obj
 0003:00002a80       ___acrt_at_quick_exit_table 10095a80     libucrt:onexit.obj
 0003:00002ba0       ___pioinfo                 10095ba0     libucrt:ioinit.obj
 0003:00002e08       __nhandle                  10095e08     libucrt:ioinit.obj
 0003:00002e1c       ___acrt_stdout_buffer      10095e1c     libucrt:_sftbuf.obj
 0003:00002e20       ___acrt_stderr_buffer      10095e20     libucrt:_sftbuf.obj
 0003:00002e24       ___acrt_locale_changed_data 10095e24     libucrt:wsetlocale.obj
 0003:00002e28       ___acrt_current_locale_data 10095e28     libucrt:nlsdata.obj
 0003:0000375c       ___acrt_current_multibyte_data 1009675c     libucrt:mbctype.obj
 0003:00003760       __mbctype                  10096760     libucrt:mbctype.obj
 0003:00003764       __mbcasemap                10096764     libucrt:mbctype.obj
 0003:00003770       ___argc                    10096770     libucrt:argv_data.obj
 0003:00003774       ___argv                    10096774     libucrt:argv_data.obj
 0003:00003778       ___wargv                   10096778     libucrt:argv_data.obj
 0003:0000377c       __acmdln                   1009677c     libucrt:argv_data.obj
 0003:00003780       __wcmdln                   10096780     libucrt:argv_data.obj
 0003:00003784       __pgmptr                   10096784     libucrt:argv_data.obj
 0003:00003788       __wpgmptr                  10096788     libucrt:argv_data.obj
 0003:0000378c       ___acrt_heap               1009678c     libucrt:heap_handle.obj
 0003:000037b9       ___acrt_lconv_static_null  100967b9     libucrt:localeconv.obj
 0003:000037bc       ___acrt_lconv_static_W_null 100967bc     libucrt:localeconv.obj
 0003:000037c0       __commode                  100967c0     libucrt:ncommode.obj
 0003:000037d0       __umaskval                 100967d0     libucrt:umask.obj
 0003:000037d4       ___fastflag                100967d4     libucrt:fp_flags.obj
 0003:000037dc       __fmode                    100967dc     libucrt:txtmode.obj
 0003:000037ec       _inet_addr                 100967ec     <common>
 0003:00003804       _getlasterror              10096804     <common>
 0003:00003808       _socket                    10096808     <common>
 0003:0000380c       _sendto                    1009680c     <common>
 0003:00003810       _recvfrom                  10096810     <common>
 0003:00003814       _recv                      10096814     <common>
 0003:00003818       _listen                    10096818     <common>
 0003:0000381c       _ioctlsocket               1009681c     <common>
 0003:00003820       _connect                   10096820     <common>
 0003:00003824       _closesocket               10096824     <common>
 0003:00003828       _bind                      10096828     <common>
 0003:0000382c       _accept                    1009682c     <common>
 0003:00003830       _setsockopt                10096830     <common>
 0003:00003838       ?_OptionsStorage@?1??__local_stdio_scanf_options@@9@9 10096838     <common>
 0003:00003860       _slrtTETViaXCP             10096860     <common>
 0003:000038a0       _udp_comm_test_M_          100968a0     <common>
 0003:000060e0       _udp_comm_test_DW          100990e0     <common>
 0003:00006180       _udp_comm_test_B           10099180     <common>
 0003:000062f0       _rtNaNF                    100992f0     <common>
 0003:00006304       _rtMinusInfF               10099304     <common>
 0003:00006308       _rtInfF                    10099308     <common>
 0003:00006310       _rtNaN                     10099310     <common>
 0003:00006318       _rtMinusInf                10099318     <common>
 0003:00006320       _rtInf                     10099320     <common>
 0003:00006328       ?_OptionsStorage@?1??__local_stdio_printf_options@@9@9 10099328     <common>
 0003:00006340       _CANAC2_2_receiveindex_mb3 10099340     <common>
 0003:00009414       _CANAC2_2_receivemaxindex_mb3 1009c414     <common>
 0003:00009420       _CANAC2_2_sendindex_mb3    1009c420     <common>
 0003:00009740       _CANAC2_2_sendmaxindex_mb3 1009c740     <common>
 0003:00009760       _CANAC2_1_receiveindex_mb3 1009c760     <common>
 0003:00009a80       _CANAC2_1_receivemaxindex_mb3 1009ca80     <common>
 0003:00009aa0       _CANAC2_1_sendindex_mb3    1009caa0     <common>
 0003:00009dc0       _CANAC2_1_sendmaxindex_mb3 1009cdc0     <common>
 0003:00009de0       _CANAC2_2_receive_mb3      1009cde0     <common>
 0003:0000a100       _CANAC2_2_send_mb3         1009d100     <common>
 0003:0000a420       _CANAC2_1_receive_mb3      1009d420     <common>
 0003:0000a740       _CANAC2_1_send_mb3         1009d740     <common>
 0003:0000aa60       _CANAC2_2_receiveindex_mb2 1009da60     <common>
 0003:0000ad80       _CANAC2_2_receivemaxindex_mb2 1009dd80     <common>
 0003:0000ada0       _CANAC2_2_sendindex_mb2    1009dda0     <common>
 0003:0000b0c0       _CANAC2_2_sendmaxindex_mb2 1009e0c0     <common>
 0003:0000b0e0       _CANAC2_1_receiveindex_mb2 1009e0e0     <common>
 0003:0000b400       _CANAC2_1_receivemaxindex_mb2 1009e400     <common>
 0003:0000b420       _CANAC2_1_sendindex_mb2    1009e420     <common>
 0003:0000b740       _CANAC2_1_sendmaxindex_mb2 1009e740     <common>
 0003:0000b760       _CANAC2_2_receive_mb2      1009e760     <common>
 0003:0000ba80       _CANAC2_2_send_mb2         1009ea80     <common>
 0003:0000bda0       _CANAC2_1_receive_mb2      1009eda0     <common>
 0003:0000c0c0       _CANAC2_1_send_mb2         1009f0c0     <common>
 0003:0000c3e0       _CANAC2_2_receiveindex_mb1 1009f3e0     <common>
 0003:0000c700       _CANAC2_2_receivemaxindex_mb1 1009f700     <common>
 0003:0000c720       _CANAC2_2_sendindex_mb1    1009f720     <common>
 0003:0000ca40       _CANAC2_2_sendmaxindex_mb1 1009fa40     <common>
 0003:0000ca60       _CANAC2_1_receiveindex_mb1 1009fa60     <common>
 0003:0000cd80       _CANAC2_1_receivemaxindex_mb1 1009fd80     <common>
 0003:0000cda0       _CANAC2_1_sendindex_mb1    1009fda0     <common>
 0003:0000d0c0       _CANAC2_1_sendmaxindex_mb1 100a00c0     <common>
 0003:0000d0e0       _CANAC2_2_receive_mb1      100a00e0     <common>
 0003:0000d400       _CANAC2_2_send_mb1         100a0400     <common>
 0003:0000d720       _CANAC2_1_receive_mb1      100a0720     <common>
 0003:0000da40       _CANAC2_1_send_mb1         100a0a40     <common>
 0003:0000dd60       _CANAC2_2_receiveindex     100a0d60     <common>
 0003:0000e080       _CANAC2_2_receivemaxindex  100a1080     <common>
 0003:0000e0a0       _CANAC2_2_sendindex        100a10a0     <common>
 0003:0000e3c0       _CANAC2_2_sendmaxindex     100a13c0     <common>
 0003:0000e3e0       _CANAC2_1_receiveindex     100a13e0     <common>
 0003:0000e700       _CANAC2_1_receivemaxindex  100a1700     <common>
 0003:0000e720       _CANAC2_1_sendindex        100a1720     <common>
 0003:0000ea40       _CANAC2_1_sendmaxindex     100a1a40     <common>
 0003:0000ea60       _CANAC2_2_receive          100a1a60     <common>
 0003:0000ed80       _CANAC2_2_send             100a1d80     <common>
 0003:0000f0a0       _CANAC2_1_receive          100a20a0     <common>
 0003:0000f3c0       _CANAC2_1_send             100a23c0     <common>
 0003:0000f6e0       _siepowercan_can_object_buffer_port2 100a26e0     <common>
 0003:00013700       _siepowercan_can_object_buffer_port1 100a6700     <common>
 0003:00017700       _waitForDFTask             100aa700     <common>
 0003:00017770       _triggerDFTask             100aa770     <common>
 0003:00017774       _deregisterDFTask          100aa774     <common>
 0003:00017778       _registerDFTask            100aa778     <common>
 0003:0001777c       _UDPCloseReceive           100aa77c     <common>
 0003:00017780       _UDPCloseSend              100aa780     <common>
 0003:00017784       _UDPAddMulticastMembership 100aa784     <common>
 0003:00017788       _UDPOpenReceive            100aa788     <common>
 0003:0001778c       _UDPOpenSend               100aa78c     <common>
 0003:00017790       _ResetClientSocket         100aa790     <common>
 0003:00017794       _CloseClientSocket         100aa794     <common>
 0003:00017798       _ConnectClientSocket       100aa798     <common>
 0003:0001779c       _BindClientSocket          100aa79c     <common>
 0003:000177a0       _CreateClientSocket        100aa7a0     <common>
 0003:000177a4       _ResetServerSocket         100aa7a4     <common>
 0003:000177a8       _CloseServerSocket         100aa7a8     <common>
 0003:000177ac       _ConnectServerSocket       100aa7ac     <common>
 0003:000177b0       _OpenServerListen          100aa7b0     <common>
 0003:000177b4       _CreateServerSocket        100aa7b4     <common>
 0003:000177b8       _SocketReceive             100aa7b8     <common>
 0003:000177bc       _SocketSend                100aa7bc     <common>
 0003:000177c0       _GetSocketState            100aa7c0     <common>
 0003:000177c4       _GetSocket                 100aa7c4     <common>
 0003:000177c8       _GetHostTarIPAdd           100aa7c8     <common>
 0003:000177cc       _GetDCUUsage               100aa7cc     <common>
 0003:000177d0       _DeleteRoute               100aa7d0     <common>
 0003:000177d4       _AddMulticastRoute         100aa7d4     <common>
 0003:000177d8       _AddGatewayRoute           100aa7d8     <common>
 0003:000177dc       _SetIP                     100aa7dc     <common>
 0003:000177e0       _CloseInterface            100aa7e0     <common>
 0003:000177e4       _OpenInterface             100aa7e4     <common>
 0003:000177e8       _SetIPTASKPriority         100aa7e8     <common>
 0003:000177ec       _releaseNIC                100aa7ec     <common>
 0003:000177f0       _NICGetIface               100aa7f0     <common>
 0003:000177f4       _NICSetIface               100aa7f4     <common>
 0003:000177f8       _registerNIC               100aa7f8     <common>
 0003:000177fc       _slrtWarning               100aa7fc     <common>
 0003:00017800       _slrtGetCPUTCelsius        100aa800     <common>
 0003:00017804       _geterrorstring            100aa804     <common>
 0003:00017808       _slrtGetProfilerState      100aa808     <common>
 0003:0001780c       _slrtStopProfiler          100aa80c     <common>
 0003:00017810       _slrtStartProfiler         100aa810     <common>
 0003:00017814       _slrtLogEvent              100aa814     <common>
 0003:00017818       _slrtGetDefaultDrive       100aa818     <common>
 0003:0001781c       _slrtfsFread               100aa81c     <common>
 0003:00017820       _slrtfsGetFileStatus       100aa820     <common>
 0003:00017824       _slrtfsOpenFileAsync       100aa824     <common>
 0003:00017828       _slrtfsCloseFileAsync      100aa828     <common>
 0003:0001782c       _slrtfsGetFileErrorMessage 100aa82c     <common>
 0003:00017830       _slrtfsGetFileError        100aa830     <common>
 0003:00017834       _slrtfsWriteToFile         100aa834     <common>
 0003:00017838       _slrtfsCloseFile           100aa838     <common>
 0003:0001783c       _slrtfsOpenFile            100aa83c     <common>
 0003:00017840       _slrtGetSgCRBSpace         100aa840     <common>
 0003:00017844       _slrtGetCRBScratchSpace    100aa844     <common>
 0003:00017848       _slrteSetupMSI             100aa848     <common>
 0003:0001784c       _slTestRegAssessment       100aa84c     <common>
 0003:00017850       _slTestTerminate           100aa850     <common>
 0003:00017854       _slTestEvalOnFail          100aa854     <common>
 0003:00017858       _slTestLogAssessments      100aa858     <common>
 0003:0001785c       _slTestInitialize          100aa85c     <common>
 0003:00017860       _unRegisterPTPTimeRead     100aa860     <common>
 0003:00017864       _registerPTPTimeRead       100aa864     <common>
 0003:00017868       _slrteGetCurrentStepSize   100aa868     <common>
 0003:0001786c       _slrteSetStepSizeDelta     100aa86c     <common>
 0003:00017870       _slrtLogSignal             100aa870     <common>
 0003:00017874       _slrtRegisterSignal        100aa874     <common>
 0003:00017878       _xpceDAQUpdateTimeStamp    100aa878     <common>
 0003:0001787c       _xpceDAQPostEvent          100aa87c     <common>
 0003:00017880       _StreamVideo               100aa880     <common>
 0003:00017884       _StopVideoDisplay          100aa884     <common>
 0003:00017888       _StartVideoDisplay         100aa888     <common>
 0003:0001788c       _DestroyVideoDisplay       100aa88c     <common>
 0003:00017890       _CreateVideoDisplay        100aa890     <common>
 0003:00017894       _ConvertUImage             100aa894     <common>
 0003:00017898       _StopVideo                 100aa898     <common>
 0003:0001789c       _ReadFrameBuffer           100aa89c     <common>
 0003:000178a0       _StartVideo                100aa8a0     <common>
 0003:000178a4       _GetVideoConfigs           100aa8a4     <common>
 0003:000178a8       _FindUsbVideoDevice        100aa8a8     <common>
 0003:000178ac       _xpceDeleteSemaphore       100aa8ac     <common>
 0003:000178b0       _xpceSignalSemaphore       100aa8b0     <common>
 0003:000178b4       _xpceWaitSemaphore         100aa8b4     <common>
 0003:000178b8       _xpceCreateSemaphore       100aa8b8     <common>
 0003:000178bc       _xpceScopeAcqOK            100aa8bc     <common>
 0003:000178c0       _rl32eRestartAcquisition   100aa8c0     <common>
 0003:000178c4       _rl32eSetTargetScopeSigFt  100aa8c4     <common>
 0003:000178c8       _rl32eSetTargetScope       100aa8c8     <common>
 0003:000178cc       _xpceFSScopeSet            100aa8cc     <common>
 0003:000178d0       _rl32eSetScope             100aa8d0     <common>
 0003:000178d4       _rl32eAddSignal            100aa8d4     <common>
 0003:000178d8       _rl32eGetSignalNo          100aa8d8     <common>
 0003:000178dc       _rl32eDefScope             100aa8dc     <common>
 0003:000178e0       _rl32eScopeExists          100aa8e0     <common>
 0003:000178e4       _TBGiveSpinFast            100aa8e4     <common>
 0003:000178e8       _TBTakeSpinFast            100aa8e8     <common>
 0003:000178ec       _TBDeleteSpin              100aa8ec     <common>
 0003:000178f0       _TBCreateSpin              100aa8f0     <common>
 0003:000178f4       _xpceGetParamDims          100aa8f4     <common>
 0003:000178f8       _xpceGetParameter          100aa8f8     <common>
 0003:000178fc       _xpceSetParameter          100aa8fc     <common>
 0003:00017900       _xpceGetSignalValue        100aa900     <common>
 0003:00017904       _xpceAssignPCIInterrupt    100aa904     <common>
 0003:00017908       _rl32eGetPCIInfoAtSlot     100aa908     <common>
 0003:0001790c       _rl32eGetPCIInfo           100aa90c     <common>
 0003:00017910       _rl32eShowPCIInfo          100aa910     <common>
 0003:00017914       _rl32eShowPCIDev           100aa914     <common>
 0003:00017918       _xpceGetTET                100aa918     <common>
 0003:0001791c       _xpceaddEvent              100aa91c     <common>
 0003:00017920       _xpceDeRegisterISR         100aa920     <common>
 0003:00017924       _xpceRegisterISR           100aa924     <common>
 0003:00017928       _xpcIsModelInit            100aa928     <common>
 0003:0001792c       _xpcGetElapsedTime         100aa92c     <common>
 0003:00017930       _xpcBusyWait               100aa930     <common>
 0003:00017934       _xpcFreePhysicalMemory     100aa934     <common>
 0003:00017938       _xpcAllocPhysicalMemory    100aa938     <common>
 0003:0001793c       _xpcReserveMemoryRegion    100aa93c     <common>
 0003:00017940       _xpcOutpB                  100aa940     <common>
 0003:00017944       _xpcOutpW                  100aa944     <common>
 0003:00017948       _xpcOutpDW                 100aa948     <common>
 0003:0001794c       _xpcInpB                   100aa94c     <common>
 0003:00017950       _xpcInpW                   100aa950     <common>
 0003:00017954       _xpcInpDW                  100aa954     <common>
 0003:00017958       ___scrt_ucrt_dll_is_in_use 100aa958     <common>
 0003:00017964       ___dyn_tls_init_callback   100aa964     <common>
 0003:00017970       __pmatherr                 100aa970     <common>
 0003:0001797c       ___use_sse2_mathfcns       100aa97c     <common>
 0004:00000000       __imp__GetModuleHandleA@4  100ab000     kernel32:KERNEL32.dll
 0004:00000004       __imp__GetProcAddress@8    100ab004     kernel32:KERNEL32.dll
 0004:00000008       __imp__UnhandledExceptionFilter@4 100ab008     kernel32:KERNEL32.dll
 0004:0000000c       __imp__SetUnhandledExceptionFilter@4 100ab00c     kernel32:KERNEL32.dll
 0004:00000010       __imp__GetCurrentProcess@0 100ab010     kernel32:KERNEL32.dll
 0004:00000014       __imp__TerminateProcess@8  100ab014     kernel32:KERNEL32.dll
 0004:00000018       __imp__IsProcessorFeaturePresent@4 100ab018     kernel32:KERNEL32.dll
 0004:0000001c       __imp__QueryPerformanceCounter@4 100ab01c     kernel32:KERNEL32.dll
 0004:00000020       __imp__GetCurrentProcessId@0 100ab020     kernel32:KERNEL32.dll
 0004:00000024       __imp__GetCurrentThreadId@0 100ab024     kernel32:KERNEL32.dll
 0004:00000028       __imp__GetSystemTimeAsFileTime@4 100ab028     kernel32:KERNEL32.dll
 0004:0000002c       __imp__InitializeSListHead@4 100ab02c     kernel32:KERNEL32.dll
 0004:00000030       __imp__IsDebuggerPresent@0 100ab030     kernel32:KERNEL32.dll
 0004:00000034       __imp__GetStartupInfoW@4   100ab034     kernel32:KERNEL32.dll
 0004:00000038       __imp__GetModuleHandleW@4  100ab038     kernel32:KERNEL32.dll
 0004:0000003c       __imp__SetEndOfFile@4      100ab03c     kernel32:KERNEL32.dll
 0004:00000040       __imp__InterlockedPushEntrySList@8 100ab040     kernel32:KERNEL32.dll
 0004:00000044       __imp__InterlockedFlushSList@4 100ab044     kernel32:KERNEL32.dll
 0004:00000048       __imp__RtlUnwind@16        100ab048     kernel32:KERNEL32.dll
 0004:0000004c       __imp__GetLastError@0      100ab04c     kernel32:KERNEL32.dll
 0004:00000050       __imp__SetLastError@4      100ab050     kernel32:KERNEL32.dll
 0004:00000054       __imp__EnterCriticalSection@4 100ab054     kernel32:KERNEL32.dll
 0004:00000058       __imp__LeaveCriticalSection@4 100ab058     kernel32:KERNEL32.dll
 0004:0000005c       __imp__DeleteCriticalSection@4 100ab05c     kernel32:KERNEL32.dll
 0004:00000060       __imp__InitializeCriticalSectionAndSpinCount@8 100ab060     kernel32:KERNEL32.dll
 0004:00000064       __imp__TlsAlloc@0          100ab064     kernel32:KERNEL32.dll
 0004:00000068       __imp__TlsGetValue@4       100ab068     kernel32:KERNEL32.dll
 0004:0000006c       __imp__TlsSetValue@8       100ab06c     kernel32:KERNEL32.dll
 0004:00000070       __imp__TlsFree@4           100ab070     kernel32:KERNEL32.dll
 0004:00000074       __imp__FreeLibrary@4       100ab074     kernel32:KERNEL32.dll
 0004:00000078       __imp__LoadLibraryExW@12   100ab078     kernel32:KERNEL32.dll
 0004:0000007c       __imp__EncodePointer@4     100ab07c     kernel32:KERNEL32.dll
 0004:00000080       __imp__RaiseException@16   100ab080     kernel32:KERNEL32.dll
 0004:00000084       __imp__ExitProcess@4       100ab084     kernel32:KERNEL32.dll
 0004:00000088       __imp__GetModuleHandleExW@12 100ab088     kernel32:KERNEL32.dll
 0004:0000008c       __imp__GetStdHandle@4      100ab08c     kernel32:KERNEL32.dll
 0004:00000090       __imp__GetFileType@4       100ab090     kernel32:KERNEL32.dll
 0004:00000094       __imp__GetModuleFileNameW@12 100ab094     kernel32:KERNEL32.dll
 0004:00000098       __imp__WriteConsoleW@20    100ab098     kernel32:KERNEL32.dll
 0004:0000009c       __imp__HeapAlloc@12        100ab09c     kernel32:KERNEL32.dll
 0004:000000a0       __imp__HeapFree@12         100ab0a0     kernel32:KERNEL32.dll
 0004:000000a4       __imp__GetDateFormatW@24   100ab0a4     kernel32:KERNEL32.dll
 0004:000000a8       __imp__GetTimeFormatW@24   100ab0a8     kernel32:KERNEL32.dll
 0004:000000ac       __imp__CompareStringW@24   100ab0ac     kernel32:KERNEL32.dll
 0004:000000b0       __imp__LCMapStringW@24     100ab0b0     kernel32:KERNEL32.dll
 0004:000000b4       __imp__GetLocaleInfoW@16   100ab0b4     kernel32:KERNEL32.dll
 0004:000000b8       __imp__IsValidLocale@8     100ab0b8     kernel32:KERNEL32.dll
 0004:000000bc       __imp__GetUserDefaultLCID@0 100ab0bc     kernel32:KERNEL32.dll
 0004:000000c0       __imp__EnumSystemLocalesW@8 100ab0c0     kernel32:KERNEL32.dll
 0004:000000c4       __imp__GetCurrentThread@0  100ab0c4     kernel32:KERNEL32.dll
 0004:000000c8       __imp__HeapReAlloc@16      100ab0c8     kernel32:KERNEL32.dll
 0004:000000cc       __imp__CloseHandle@4       100ab0cc     kernel32:KERNEL32.dll
 0004:000000d0       __imp__ReadFile@20         100ab0d0     kernel32:KERNEL32.dll
 0004:000000d4       __imp__GetConsoleMode@8    100ab0d4     kernel32:KERNEL32.dll
 0004:000000d8       __imp__ReadConsoleW@20     100ab0d8     kernel32:KERNEL32.dll
 0004:000000dc       __imp__WriteFile@20        100ab0dc     kernel32:KERNEL32.dll
 0004:000000e0       __imp__GetConsoleCP@0      100ab0e0     kernel32:KERNEL32.dll
 0004:000000e4       __imp__MultiByteToWideChar@24 100ab0e4     kernel32:KERNEL32.dll
 0004:000000e8       __imp__DeleteFileW@4       100ab0e8     kernel32:KERNEL32.dll
 0004:000000ec       __imp__SetFilePointerEx@20 100ab0ec     kernel32:KERNEL32.dll
 0004:000000f0       __imp__OutputDebugStringW@4 100ab0f0     kernel32:KERNEL32.dll
 0004:000000f4       __imp__SetConsoleCtrlHandler@8 100ab0f4     kernel32:KERNEL32.dll
 0004:000000f8       __imp__FindClose@4         100ab0f8     kernel32:KERNEL32.dll
 0004:000000fc       __imp__FindFirstFileExW@24 100ab0fc     kernel32:KERNEL32.dll
 0004:00000100       __imp__FindNextFileW@8     100ab100     kernel32:KERNEL32.dll
 0004:00000104       __imp__IsValidCodePage@4   100ab104     kernel32:KERNEL32.dll
 0004:00000108       __imp__GetACP@0            100ab108     kernel32:KERNEL32.dll
 0004:0000010c       __imp__GetOEMCP@0          100ab10c     kernel32:KERNEL32.dll
 0004:00000110       __imp__GetCPInfo@8         100ab110     kernel32:KERNEL32.dll
 0004:00000114       __imp__GetCommandLineA@0   100ab114     kernel32:KERNEL32.dll
 0004:00000118       __imp__GetCommandLineW@0   100ab118     kernel32:KERNEL32.dll
 0004:0000011c       __imp__WideCharToMultiByte@32 100ab11c     kernel32:KERNEL32.dll
 0004:00000120       __imp__GetEnvironmentStringsW@0 100ab120     kernel32:KERNEL32.dll
 0004:00000124       __imp__FreeEnvironmentStringsW@4 100ab124     kernel32:KERNEL32.dll
 0004:00000128       __imp__SetEnvironmentVariableW@8 100ab128     kernel32:KERNEL32.dll
 0004:0000012c       __imp__GetProcessHeap@0    100ab12c     kernel32:KERNEL32.dll
 0004:00000130       __imp__FlushFileBuffers@4  100ab130     kernel32:KERNEL32.dll
 0004:00000134       __imp__SetStdHandle@8      100ab134     kernel32:KERNEL32.dll
 0004:00000138       __imp__GetStringTypeW@16   100ab138     kernel32:KERNEL32.dll
 0004:0000013c       __imp__CreateFileW@28      100ab13c     kernel32:KERNEL32.dll
 0004:00000140       __imp__HeapSize@12         100ab140     kernel32:KERNEL32.dll
 0004:00000144       __imp__DecodePointer@4     100ab144     kernel32:KERNEL32.dll
 0004:00000148       \177KERNEL32_NULL_THUNK_DATA 100ab148     kernel32:KERNEL32.dll
 0004:000001b4       __IMPORT_DESCRIPTOR_KERNEL32 100ab1b4     kernel32:KERNEL32.dll
 0004:000001c8       __NULL_IMPORT_DESCRIPTOR   100ab1c8     kernel32:KERNEL32.dll
 0005:00000000       ___guard_check_icall_fptr  100ac000     LIBCMT:guard_support.obj

 entry point at        0001:00002125

 Static symbols

 0000:fff54000       __guard_fids__             10000000     LIBCMT:std_type_info_static.obj
 0000:fff54000       __guard_fids__             10000000     libucrt:multibyte_initializer.obj
 0000:fff54000       __guard_fids_??$__acrt_wcs_to_mbs@U__crt_win32_buffer_no_resizing@@@@YAHQB_WAAV?$__crt_win32_buffer@DU__crt_win32_buffer_no_resizing@@@@PAU__crt_locale_pointers@@@Z 10000000     libucrt:findnextfilea.obj
 0000:fff54000       __guard_fids____vcrt_initialize_ptd 10000000     libvcruntime:per_thread_data.obj
 0000:fff54000       __guard_fids__             10000000     libucrt:stdio_initializer.obj
 0000:fff54000       __guard_fids____acrt_FindNextFileA 10000000     libucrt:findnextfilea.obj
 0000:fff54000       __guard_fids_??$__acrt_mbs_to_wcs@U__crt_win32_buffer_internal_dynamic_resizing@@@@YAHQBDAAV?$__crt_win32_buffer@_WU__crt_win32_buffer_internal_dynamic_resizing@@@@PAU__crt_locale_pointers@@@Z 10000000     libucrt:findfirstfileexa.obj
 0000:fff54000       __guard_fids__             10000000     libvcruntime:frame.obj
 0000:fff54000       __guard_fids_??R<lambda_1f3ce6bd48e0aa2e72a71c02eee379d3>@@QBEHXZ 10000000     libucrt:winapi_thunks.obj
 0000:fff54000       __guard_fids__             10000000     libvcruntime:undname.obj
 0000:fff54000       __guard_fids_??B<lambda_29d3c280b90b41c2ae070ffca879996a>@@QBEP6GHPA_W@ZXZ 10000000     libucrt:winapi_thunks.obj
 0000:fff4f000       .debug$S                   10000000     udp_comm_test_slrt.exp
 0000:fff54000       __guard_fids_?enum_system_locales_ex_nolock@@YAHQ6GHPA_WKJ@Z@Z 10000000     libucrt:winapi_thunks.obj
 0000:fff54000       __guard_fids____acrt_initialize_ptd 10000000     libucrt:per_thread_data.obj
 0000:fff54000       __guard_fids__             10000000     libvcruntime:undname.obj
 0000:fff54000       __guard_fids__             10000000     libvcruntime:undname.obj
 0000:fff54000       __guard_fids__             10000000     libvcruntime:undname.obj
 0000:fff54000       __guard_fids__             10000000     libvcruntime:undname.obj
 0000:fff54000       __guard_fids__             10000000     libucrt:wsetlocale.obj
 0000:fff54000       __guard_fids__             10000000     libvcruntime:undname.obj
 0000:fff54000       __guard_fids__             10000000     libvcruntime:frame.obj
 0000:fff4f000       .debug$S                   10000000     kernel32:KERNEL32.dll
 0000:fff4f000       .debug$S                   10000000     kernel32:KERNEL32.dll
 0000:fff4f000       .debug$S                   10000000     kernel32:KERNEL32.dll
 0000:fff4f000       .debug$S                   10000000     kernel32:KERNEL32.dll
 0000:fff4f000       .debug$S                   10000000     kernel32:KERNEL32.dll
 0000:fff4f000       .debug$S                   10000000     kernel32:KERNEL32.dll
 0000:fff4f000       .debug$S                   10000000     kernel32:KERNEL32.dll
 0000:fff4f000       .debug$S                   10000000     kernel32:KERNEL32.dll
 0000:fff4f000       .debug$S                   10000000     kernel32:KERNEL32.dll
 0000:fff4f000       .debug$S                   10000000     kernel32:KERNEL32.dll
 0000:fff4f000       .debug$S                   10000000     kernel32:KERNEL32.dll
 0000:fff4f000       .debug$S                   10000000     kernel32:KERNEL32.dll
 0000:fff4f000       .debug$S                   10000000     kernel32:KERNEL32.dll
 0000:fff4f000       .debug$S                   10000000     kernel32:KERNEL32.dll
 0000:fff4f000       .debug$S                   10000000     kernel32:KERNEL32.dll
 0000:fff4f000       .debug$S                   10000000     kernel32:KERNEL32.dll
 0000:fff4f000       .debug$S                   10000000     kernel32:KERNEL32.dll
 0000:fff4f000       .debug$S                   10000000     kernel32:KERNEL32.dll
 0000:fff4f000       .debug$S                   10000000     kernel32:KERNEL32.dll
 0000:fff4f000       .debug$S                   10000000     kernel32:KERNEL32.dll
 0000:fff4f000       .debug$S                   10000000     kernel32:KERNEL32.dll
 0000:fff4f000       .debug$S                   10000000     kernel32:KERNEL32.dll
 0000:fff4f000       .debug$S                   10000000     kernel32:KERNEL32.dll
 0000:fff4f000       .debug$S                   10000000     kernel32:KERNEL32.dll
 0000:fff4f000       .debug$S                   10000000     kernel32:KERNEL32.dll
 0000:fff4f000       .debug$S                   10000000     kernel32:KERNEL32.dll
 0000:fff4f000       .debug$S                   10000000     kernel32:KERNEL32.dll
 0000:fff4f000       .debug$S                   10000000     kernel32:KERNEL32.dll
 0000:fff4f000       .debug$S                   10000000     kernel32:KERNEL32.dll
 0000:fff4f000       .debug$S                   10000000     kernel32:KERNEL32.dll
 0000:fff4f000       .debug$S                   10000000     kernel32:KERNEL32.dll
 0000:fff4f000       .debug$S                   10000000     kernel32:KERNEL32.dll
 0000:fff4f000       .debug$S                   10000000     kernel32:KERNEL32.dll
 0000:fff4f000       .debug$S                   10000000     kernel32:KERNEL32.dll
 0000:fff4f000       .debug$S                   10000000     kernel32:KERNEL32.dll
 0000:fff4f000       .debug$S                   10000000     kernel32:KERNEL32.dll
 0000:fff4f000       .debug$S                   10000000     kernel32:KERNEL32.dll
 0000:fff4f000       .debug$S                   10000000     kernel32:KERNEL32.dll
 0000:fff4f000       .debug$S                   10000000     kernel32:KERNEL32.dll
 0000:fff4f000       .debug$S                   10000000     kernel32:KERNEL32.dll
 0000:fff4f000       .debug$S                   10000000     kernel32:KERNEL32.dll
 0000:fff4f000       .debug$S                   10000000     kernel32:KERNEL32.dll
 0000:fff4f000       .debug$S                   10000000     kernel32:KERNEL32.dll
 0000:fff4f000       .debug$S                   10000000     kernel32:KERNEL32.dll
 0000:fff4f000       .debug$S                   10000000     kernel32:KERNEL32.dll
 0000:fff4f000       .debug$S                   10000000     kernel32:KERNEL32.dll
 0000:fff4f000       .debug$S                   10000000     kernel32:KERNEL32.dll
 0000:fff4f000       .debug$S                   10000000     kernel32:KERNEL32.dll
 0000:fff4f000       .debug$S                   10000000     kernel32:KERNEL32.dll
 0000:fff4f000       .debug$S                   10000000     kernel32:KERNEL32.dll
 0000:fff4f000       .debug$S                   10000000     kernel32:KERNEL32.dll
 0000:fff4f000       .debug$S                   10000000     kernel32:KERNEL32.dll
 0000:fff4f000       .debug$S                   10000000     kernel32:KERNEL32.dll
 0000:fff4f000       .debug$S                   10000000     kernel32:KERNEL32.dll
 0000:fff4f000       .debug$S                   10000000     kernel32:KERNEL32.dll
 0000:fff4f000       .debug$S                   10000000     kernel32:KERNEL32.dll
 0000:fff4f000       .debug$S                   10000000     kernel32:KERNEL32.dll
 0000:fff4f000       .debug$S                   10000000     kernel32:KERNEL32.dll
 0000:fff4f000       .debug$S                   10000000     kernel32:KERNEL32.dll
 0000:fff4f000       .debug$S                   10000000     kernel32:KERNEL32.dll
 0000:fff4f000       .debug$S                   10000000     kernel32:KERNEL32.dll
 0000:fff4f000       .debug$S                   10000000     kernel32:KERNEL32.dll
 0000:fff4f000       .debug$S                   10000000     kernel32:KERNEL32.dll
 0000:fff4f000       .debug$S                   10000000     kernel32:KERNEL32.dll
 0000:fff4f000       .debug$S                   10000000     kernel32:KERNEL32.dll
 0000:fff4f000       .debug$S                   10000000     kernel32:KERNEL32.dll
 0000:fff4f000       .debug$S                   10000000     kernel32:KERNEL32.dll
 0000:fff54000       __guard_fids__             10000000     libvcruntime:frame.obj
 0000:fff54000       __guard_fids_?get_terminate_or_default@@YAP6AXXZQBU__acrt_ptd@@@Z 10000000     libucrt:terminate.obj
 0000:fff54000       __guard_fids__             10000000     libvcruntime:frame.obj
 0000:fff54000       __guard_fids___get_terminate 10000000     libucrt:terminate.obj
 0000:fff54000       __guard_fids__set_terminate 10000000     libucrt:terminate.obj
 0000:fff54000       __guard_fids__             10000000     libucrt:initialization.obj
 0000:fff54000       __guard_fids__             10000000     libvcruntime:frame.obj
 0000:fff54000       __guard_fids__set_unexpected 10000000     libvcruntime:unexpected.obj
 0000:fff54000       __guard_fids_??$__acrt_mbs_to_wcs@U__crt_win32_buffer_internal_dynamic_resizing@@@@YAHQBDAAV?$__crt_win32_buffer@_WU__crt_win32_buffer_internal_dynamic_resizing@@@@PAU__crt_locale_pointers@@@Z 10000000     libucrt:setenvironmentvariablea.obj
 0000:fff54000       __guard_fids___get_unexpected 10000000     libvcruntime:unexpected.obj
 0000:fff54000       __guard_fids_?get_unexpected_or_default@@YAP6AXXZQBU__vcrt_ptd@@@Z 10000000     libvcruntime:unexpected.obj
 0000:fff54000       __guard_fids__             10000000     libvcruntime:ehhelpers.obj
 0000:fff54000       __guard_fids__             10000000     libucrt:locale_initializer.obj
 0000:fff54000       __guard_fids____dcrt_uninitialize_environments_nolock 10000000     libucrt:environment_initialization.obj
 0000:fff54000       __guard_fids__GetLcidFromCountry 10000000     libucrt:getqloc_downlevel.obj
 0000:fff54000       __guard_fids__GetLcidFromLanguage 10000000     libucrt:getqloc_downlevel.obj
 0000:fff54000       __guard_fids____except_validate_jump_buffer 10000000     libvcruntime:jbcxrval.obj
 0000:fff54000       __guard_fids__             10000000     libucrt:sse2_initializer.obj
 0000:fff54000       __guard_fids____except_validate_jump_buffer_common 10000000     libvcruntime:jbcxrval.obj
 0000:fff54000       __guard_fids____except_validate_context_record 10000000     libvcruntime:jbcxrval.obj
 0000:fff54000       __guard_fids___guard_icall_checks_enforced 10000000     libvcruntime:jbcxrval.obj
 0000:fff54000       __guard_fids__GetLcidFromLangCountry 10000000     libucrt:getqloc_downlevel.obj
 0000:fff54000       __guard_fids_?dllmain_dispatch@@YAHQAUHINSTANCE__@@KQAX@Z 10000000     LIBCMT:dll_dllmain.obj
 0000:fff54000       __guard_fids__             10000000     libvcruntime:jbcxrval.obj
 0000:fff54000       __guard_fids__signal       10000000     libucrt:signal.obj
 0000:fff54000       __guard_fids__GetLocaleNameFromLanguage 10000000     libucrt:get_qualified_locale.obj
 0000:fff54000       __guard_fids__             10000000     libucrt:console_output_initializer.obj
 0000:fff54000       __guard_fids__GetLocaleNameFromLangCountry 10000000     libucrt:get_qualified_locale.obj
 0000:fff54000       __guard_fids_??B<lambda_02a71323d951a238fa4826e9f186893b>@@QBEP6AXQAX@ZXZ 10000000     libvcruntime:std_type_info.obj
 0000:fff54000       __guard_fids____libm_error_support 10000000     libucrt:libm_error.obj
 0000:fff54000       __guard_fids_??B<lambda_cea3005bd909f0fdd45a57e92f4e3309>@@QBEP6APAXI@ZXZ 10000000     libvcruntime:std_type_info.obj
 0000:fff54000       __guard_fids____std_type_info_name 10000000     libvcruntime:std_type_info.obj
 0000:fff54000       __guard_fids_??B<lambda_601ce2808d07e6dd980fd6da59ab4158>@@QBEP6AHPBX0@ZXZ 10000000     libucrt:argv_wildcards.obj
 0000:fff54000       __guard_fids____scrt_set_unhandled_exception_filter 10000000     LIBCMT:utility_desktop.obj
 0000:fff54000       __guard_fids_??B<lambda_86056e3c024bff449830248dc1621ed2>@@QBEP6AHPBX0@ZXZ 10000000     libucrt:argv_wildcards.obj
 0000:fff54000       __guard_fids__             10000000     LIBCMT:guard_support.obj
 0000:fff54000       __guard_fids___guard_icall_checks_enforced 10000000     LIBCMT:guard_support.obj
 0000:fff4f000       .debug$S                   10000000     kernel32:KERNEL32.dll
 0000:fff4f000       .debug$S                   10000000     kernel32:KERNEL32.dll
 0000:fff4f000       .debug$S                   10000000     kernel32:KERNEL32.dll
 0000:fff4f000       .debug$S                   10000000     kernel32:KERNEL32.dll
 0000:fff4f000       .debug$S                   10000000     kernel32:KERNEL32.dll
 0000:fff4f000       .debug$S                   10000000     kernel32:KERNEL32.dll
 0000:fff4f000       .debug$S                   10000000     kernel32:KERNEL32.dll
 0000:fff4f000       .debug$S                   10000000     kernel32:KERNEL32.dll
 0000:fff4f000       .debug$S                   10000000     kernel32:KERNEL32.dll
 0000:fff4f000       .debug$S                   10000000     kernel32:KERNEL32.dll
 0000:fff4f000       .debug$S                   10000000     kernel32:KERNEL32.dll
 0000:fff4f000       .debug$S                   10000000     kernel32:KERNEL32.dll
 0000:fff4f000       .debug$S                   10000000     kernel32:KERNEL32.dll
 0000:fff4f000       .debug$S                   10000000     kernel32:KERNEL32.dll
 0000:fff4f000       .debug$S                   10000000     kernel32:KERNEL32.dll
 0000:fff54000       __guard_fids_??$expand_argument_wildcards@_W@@YAHQA_W0AAV?$argument_list@_W@?A0x5f5c8891@@@Z 10000000     libucrt:argv_wildcards.obj
 0000:fff54000       __guard_fids_??$expand_argument_wildcards@D@@YAHQAD0AAV?$argument_list@D@?A0x5f5c8891@@@Z 10000000     libucrt:argv_wildcards.obj
 0000:fff54004       __guard_fids__             10000004     libucrt:stdio_initializer.obj
 0001:00007cf0       _local_CreateStructLogVar  10008cf0 f   rt_logging.obj
 0001:00008c30       _rt_DestroyLogVar          10009c30 f   rt_logging.obj
 0001:00008d40       _rt_DestroyStructLogVar    10009d40 f   rt_logging.obj
 0001:00008f60       _rt_FixupLogVar            10009f60 f   rt_logging.obj
 0001:00009520       _rt_GetActualDTypeID       1000a520 f   rt_logging.obj
 0001:00009530       _rt_GetDataTypeConvertInfo 1000a530 f   rt_logging.obj
 0001:000095b0       _rt_GetDblValueFromOverSizedData 1000a5b0 f   rt_logging.obj
 0001:00009860       _rt_GetMatIdFromMxId       1000a860 f   rt_logging.obj
 0001:000098c4       $LN19                      1000a8c4     rt_logging.obj
 0001:000099a0       _rt_GetNonBoolMxIdFromDTypeId 1000a9a0 f   rt_logging.obj
 0001:000099f0       $LN27                      1000a9f0     rt_logging.obj
 0001:00009a30       _rt_GetSizeofComplexType   1000aa30 f   rt_logging.obj
 0001:00009a70       $LN15                      1000aa70     rt_logging.obj
 0001:00009ab0       _rt_GetSizeofDataType      1000aab0 f   rt_logging.obj
 0001:00009ae0       $LN16                      1000aae0     rt_logging.obj
 0001:00009b20       _rt_InitSignalsStruct      1000ab20 f   rt_logging.obj
 0001:0000b100       _rt_LoadModifiedLogVarName 1000c100 f   rt_logging.obj
 0001:0000b200       _rt_ProcessMatItem         1000c200 f   rt_logging.obj
 0001:0000be24       $LN413                     1000ce24     rt_logging.obj
 0001:0000be34       $LN414                     1000ce34     rt_logging.obj
 0001:0000c1a0       _rt_ReallocLogVar          1000d1a0 f   rt_logging.obj
 0001:0000c560       _rt_StartDataLoggingForOutput 1000d560 f   rt_logging.obj
 0001:0000deb0       $LN222                     1000eeb0     rt_logging.obj
 0001:0000ded4       $LN223                     1000eed4     rt_logging.obj
 0001:0000def8       $LN224                     1000eef8     rt_logging.obj
 0001:0000df1c       $LN225                     1000ef1c     rt_logging.obj
 0001:0000df40       $LN226                     1000ef40     rt_logging.obj
 0001:0000e2a0       _rt_UpdateLogVarWithDiscontiguousData 1000f2a0 f   rt_logging.obj
 0001:0000eb80       _rt_WriteItemToMatFile     1000fb80 f   rt_logging.obj
 0001:0000ecc0       _rt_WriteMat5FileHeader    1000fcc0 f   rt_logging.obj
 0001:000113d0       _udp_comm_test_initialize  100123d0 f   udp_comm_test.obj
 0001:000114c0       _udp_comm_test_output      100124c0 f   udp_comm_test.obj
 0001:00011650       _udp_comm_test_terminate   10012650 f   udp_comm_test.obj
 0001:000116c0       _udp_comm_test_update      100126c0 f   udp_comm_test.obj
 0001:000125bc       $LN20                      100135bc     rtw_modelmap_utils.obj
 0001:000132f0       _mdlInitializeSampleTimes  100142f0 f   asciidecode.obj
 0001:00013330       _mdlInitializeSizes        10014330 f   asciidecode.obj
 0001:00013500       _mdlOutputs                10014500 f   asciidecode.obj
 0001:000139d8       $LN116                     100149d8     asciidecode.obj
 0001:000139e8       $LN117                     100149e8     asciidecode.obj
 0001:000139f8       $LN106                     100149f8     asciidecode.obj
 0001:00013a30       $LN118                     10014a30     asciidecode.obj
 0001:00013a40       $LN108                     10014a40     asciidecode.obj
 0001:00013a64       $LN119                     10014a64     asciidecode.obj
 0001:00013a84       $LN120                     10014a84     asciidecode.obj
 0001:00013c10       _mdlStart                  10014c10 f   asciidecode.obj
 0001:00013d20       _mdlTerminate              10014d20 f   asciidecode.obj
 0001:00013de0       _mdlInitializeSampleTimes  10014de0 f   asciiencode.obj
 0001:00013e40       _mdlInitializeSizes        10014e40 f   asciiencode.obj
 0001:00013fd0       _mdlOutputs                10014fd0 f   asciiencode.obj
 0001:000143e0       $LN90                      100153e0     asciiencode.obj
 0001:000143ec       $LN70                      100153ec     asciiencode.obj
 0001:00014424       $LN91                      10015424     asciiencode.obj
 0001:00014444       $LN92                      10015444     asciiencode.obj
 0001:00014590       _mdlStart                  10015590 f   asciiencode.obj
 0001:00014600       _mdlTerminate              10015600 f   asciiencode.obj
 0001:00014630       _mdlInitializeSampleTimes  10015630 f   slrtIPConfig.obj
 0001:00014690       _mdlInitializeSizes        10015690 f   slrtIPConfig.obj
 0001:00014780       _mdlOutputs                10015780 f   slrtIPConfig.obj
 0001:000147c0       _mdlStart                  100157c0 f   slrtIPConfig.obj
 0001:00015110       _mdlTerminate              10016110 f   slrtIPConfig.obj
 0001:000153d0       _mdlInitializeSampleTimes  100163d0 f   slrtUDPReceive.obj
 0001:00015450       _mdlInitializeSizes        10016450 f   slrtUDPReceive.obj
 0001:00015530       _mdlOutputs                10016530 f   slrtUDPReceive.obj
 0001:00015700       _mdlStart                  10016700 f   slrtUDPReceive.obj
 0001:00015a40       _mdlTerminate              10016a40 f   slrtUDPReceive.obj
 0001:00015b00       _mdlInitializeSampleTimes  10016b00 f   slrtUDPSend.obj
 0001:00015b80       _mdlInitializeSizes        10016b80 f   slrtUDPSend.obj
 0001:00015c80       _mdlOutputs                10016c80 f   slrtUDPSend.obj
 0001:00015e10       _mdlStart                  10016e10 f   slrtUDPSend.obj
 0001:00016020       _mdlTerminate              10017020 f   slrtUDPSend.obj
 0001:00016490       _getPciDevice              10017490 f   xpcruntime:xpcimports.obj
 0001:000165c0       _getPciDeviceAtSlot        100175c0 f   xpcruntime:xpcimports.obj
 0001:00016940       _maxfunc                   10017940 f   xpcruntime:xpcimports.obj
 0001:000183f0       $$000000                   100193f0     LIBCMT:ftol3.obj
 0001:00018e27       ?dllmain_crt_dispatch@@YGHQAUHINSTANCE__@@KQAX@Z 10019e27 f   LIBCMT:dll_dllmain.obj
 0001:00018e8e       ?dllmain_crt_process_attach@@YAHQAUHINSTANCE__@@QAX@Z 10019e8e f   LIBCMT:dll_dllmain.obj
 0001:00018fda       ?dllmain_crt_process_detach@@YAH_N@Z 10019fda f   LIBCMT:dll_dllmain.obj
 0001:00019090       ?dllmain_dispatch@@YAHQAUHINSTANCE__@@KQAX@Z 1001a090 f   LIBCMT:dll_dllmain.obj
 0001:000191d7       ?dllmain_raw@@YGHQAUHINSTANCE__@@KQAX@Z 1001a1d7 f   LIBCMT:dll_dllmain.obj
 0001:00019242       ___get_entropy             1001a242 f   LIBCMT:gs_support.obj
 0001:0001939e       ?find_pe_section@@YAPAU_IMAGE_SECTION_HEADER@@QAEI@Z 1001a39e f   LIBCMT:utility.obj
 0001:000193f8       ?is_potentially_valid_image_base@@YA_NQAX@Z 1001a3f8 f   LIBCMT:utility.obj
 0001:00019b20       $$000000                   1001ab20     LIBCMT:sehprolg4.obj
 0001:00019c30       $$000000                   1001ac30     libvcruntime:memcpy.obj
 0001:00019e94       TrailingUpVec              1001ae94     libvcruntime:memcpy.obj
 0001:00019f40       TrailingDownVec            1001af40     libvcruntime:memcpy.obj
 0001:0001a310       $$000000                   1001b310     libvcruntime:strchr.obj
 0001:0001a490       $$000000                   1001b490     libvcruntime:memmove.obj
 0001:0001a6f4       TrailingUpVec              1001b6f4     libvcruntime:memmove.obj
 0001:0001a7a0       TrailingDownVec            1001b7a0     libvcruntime:memmove.obj
 0001:0001ab70       $$000000                   1001bb70     libvcruntime:memset.obj
 0001:0001ad20       _ValidateLocalCookies      1001bd20 f   libvcruntime:chandler4.obj
 0001:0001af0c       ?<lambda_invoker_cdecl>@<lambda_02a71323d951a238fa4826e9f186893b>@@CAXQAX@Z 1001bf0c f   libvcruntime:std_type_info.obj
 0001:0001af11       ?<lambda_invoker_cdecl>@<lambda_cea3005bd909f0fdd45a57e92f4e3309>@@CAPAXI@Z 1001bf11 f   libvcruntime:std_type_info.obj
 0001:0001afb0       ??B<lambda_02a71323d951a238fa4826e9f186893b>@@QBEP6AXQAX@ZXZ 1001bfb0 f   libvcruntime:std_type_info.obj
 0001:0001afb6       ??B<lambda_cea3005bd909f0fdd45a57e92f4e3309>@@QBEP6APAXI@ZXZ 1001bfb6 f   libvcruntime:std_type_info.obj
 0001:0001afca       ??R<lambda_02a71323d951a238fa4826e9f186893b>@@QBEXQAX@Z 1001bfca f   libvcruntime:std_type_info.obj
 0001:0001afde       ??R<lambda_cea3005bd909f0fdd45a57e92f4e3309>@@QBEPAXI@Z 1001bfde f   libvcruntime:std_type_info.obj
 0001:0001b255       _init_memcpy_functions     1001c255 f   libvcruntime:initialization.obj
 0001:0001b260       $$000000                   1001c260     libvcruntime:exsup4.obj
 0001:0001b2f0       __unwind_handler4          1001c2f0 f   libvcruntime:exsup4.obj
 0001:0001b420       ___except_get_jumpbuf_sp   1001c420 f   libvcruntime:jbcxrval.obj
 0001:0001b849       ??0TrackRecursion@?1??getDecoratedName@UnDecorator@@CA?AVDName@@XZ@QAE@XZ 1001c849 f   libvcruntime:undname.obj
 0001:0001b994       ??1TrackRecursion@?1??getDecoratedName@UnDecorator@@CA?AVDName@@XZ@QAE@XZ 1001c994 f   libvcruntime:undname.obj
 0001:0001da51       $LN116                     1001ea51     libvcruntime:undname.obj
 0001:0001da69       $LN107                     1001ea69     libvcruntime:undname.obj
 0001:0001ed36       $LN35                      1001fd36     libvcruntime:undname.obj
 0001:0001fdc6       $LN217                     10020dc6     libvcruntime:undname.obj
 0001:0001fdd2       $LN202                     10020dd2     libvcruntime:undname.obj
 0001:00021bbb       $LN129                     10022bbb     libvcruntime:undname.obj
 0001:0002258b       ?und_memcpy@@YAXPADPBDI@Z  1002358b f   libvcruntime:undname.obj
 0001:000225b4       ?und_strlen@@YAIPBD@Z      100235b4 f   libvcruntime:undname.obj
 0001:000225ce       ?und_strncmp@@YAIPBD0I@Z   100235ce f   libvcruntime:undname.obj
 0001:000227ef       ??0scoped_get_last_error_reset@?A0xac4cd7b7@@QAE@XZ 100237ef f   libvcruntime:per_thread_data.obj
 0001:00022815       ??1scoped_get_last_error_reset@?A0xac4cd7b7@@QAE@XZ 10023815 f   libvcruntime:per_thread_data.obj
 0001:0002284b       ?store_and_initialize_ptd@@YA_NQAU__vcrt_ptd@@@Z 1002384b f   libvcruntime:per_thread_data.obj
 0001:00022b8b       ?invalid_function_sentinel@@YAPAXXZ 10023b8b f   libvcruntime:winapi_downlevel.obj
 0001:00022b8f       ?try_get_FlsAlloc@@YAP6GKP6GXPAX@Z@ZXZ 10023b8f f   libvcruntime:winapi_downlevel.obj
 0001:00022baf       ?try_get_FlsFree@@YAP6GHK@ZXZ 10023baf f   libvcruntime:winapi_downlevel.obj
 0001:00022bcf       ?try_get_FlsGetValue@@YAP6GPAXK@ZXZ 10023bcf f   libvcruntime:winapi_downlevel.obj
 0001:00022bef       ?try_get_FlsSetValue@@YAP6GHKPAX@ZXZ 10023bef f   libvcruntime:winapi_downlevel.obj
 0001:00022c0f       ?try_get_InitializeCriticalSectionEx@@YAP6GHPAU_RTL_CRITICAL_SECTION@@KK@ZXZ 10023c0f f   libvcruntime:winapi_downlevel.obj
 0001:00022c2f       ?try_get_first_available_module@@YAPAUHINSTANCE__@@QBW4module_id@?A0x5d2a34d3@@0@Z 10023c2f f   libvcruntime:winapi_downlevel.obj
 0001:00022d24       ?try_get_function@@YAPAXW4function_id@?A0x5d2a34d3@@QBDQBW4module_id@2@2@Z 10023d24 f   libvcruntime:winapi_downlevel.obj
 0001:00022dae       ?try_get_module@@YAPAUHINSTANCE__@@W4module_id@?A0x5d2a34d3@@@Z 10023dae f   libvcruntime:winapi_downlevel.obj
 0001:00022e10       ?try_get_proc_address_from_first_available_module@@YAPAXQBDQBW4module_id@?A0x5d2a34d3@@1@Z 10023e10 f   libvcruntime:winapi_downlevel.obj
 0001:00022e3a       ?try_load_library_from_system_directory@@YAPAUHINSTANCE__@@QB_W@Z 10023e3a f   libvcruntime:winapi_downlevel.obj
 0001:000230e0       $$000000                   100240e0     libvcruntime:exsup.obj
 0001:00023101       __unwind_handler           10024101 f   libvcruntime:exsup.obj
 0001:000238a6       ??$BuildCatchObjectHelperInternal@V__FrameHandler3@@@@YAHPAUEHExceptionRecord@@PAXPBU_s_HandlerType@@PBU_s_CatchableType@@@Z 100248a6 f   libvcruntime:frame.obj
 0001:00023a34       ??$BuildCatchObjectInternal@V__FrameHandler3@@@@YAXPAUEHExceptionRecord@@PAXPBU_s_HandlerType@@PBU_s_CatchableType@@@Z 10024a34 f   libvcruntime:frame.obj
 0001:00023af3       ??$CatchIt@V__FrameHandler3@@@@YAXPAUEHExceptionRecord@@PAUEHRegistrationNode@@PAU_CONTEXT@@PAXPBU_s_FuncInfo@@PBU_s_HandlerType@@PBU_s_CatchableType@@PBU_s_TryBlockMapEntry@@H1E@Z 10024af3 f   libvcruntime:frame.obj
 0001:00023b93       ??$FindHandler@V__FrameHandler3@@@@YAXPAUEHExceptionRecord@@PAUEHRegistrationNode@@PAU_CONTEXT@@PAXPBU_s_FuncInfo@@EH1@Z 10024b93 f   libvcruntime:frame.obj
 0001:00024004       ??$FindHandlerForForeignException@V__FrameHandler3@@@@YAXPAUEHExceptionRecord@@PAUEHRegistrationNode@@PAU_CONTEXT@@PAXPBU_s_FuncInfo@@HH1@Z 10025004 f   libvcruntime:frame.obj
 0001:00024573       ?CallCatchBlock@@YAPAXPAUEHExceptionRecord@@PAUEHRegistrationNode@@PAU_CONTEXT@@PBU_s_FuncInfo@@PAXHK@Z 10025573 f   libvcruntime:frame.obj
 0001:000247a8       ?CallUnexpected@@YAXPBU_s_ESTypeList@@@Z 100257a8 f   libvcruntime:frame.obj
 0001:000247c8       __catch$?CallUnexpected@@YAXPBU_s_ESTypeList@@@Z$0 100257c8 f   libvcruntime:frame.obj
 0001:000247f0       ?ExFilterRethrow@@YAHPAU_EXCEPTION_POINTERS@@@Z 100257f0 f   libvcruntime:frame.obj
 0001:00024999       ?IsInExceptionSpec@@YAEPAUEHExceptionRecord@@PBU_s_ESTypeList@@@Z 10025999 f   libvcruntime:frame.obj
 0001:00024a59       ?Is_bad_exception_allowed@@YAEPBU_s_ESTypeList@@@Z 10025a59 f   libvcruntime:frame.obj
 0001:00024bd0       $$000000                   10025bd0     libvcruntime:lowhelpr.obj
 0001:00024c2f       ?get_unexpected_or_default@@YAP6AXXZQBU__vcrt_ptd@@@Z 10025c2f f   libvcruntime:unexpected.obj
 0001:00025710       ??$?RV<lambda_3a2a6cca1b0f7007a3db339dcecd1562>@@AAV<lambda_e38011a3ba6e07c7dbcef4d549f26102>@@V<lambda_b2332a2b562101f3c3c34baab19e0511>@@@?$__crt_seh_guarded_call@H@@QAEH$$QAV<lambda_3a2a6cca1b0f7007a3db339dcecd1562>@@AAV<lambda_e38011a3ba6e07c7dbcef4d549f26102>@@$$QAV<lambda_b2332a2b562101f3c3c34baab19e0511>@@@Z 10026710 f   libucrt:output.obj
 0001:00025775       ??$?RV<lambda_75d23329f2fb3d02b2e1cf5509bb1caf>@@AAV<lambda_c4f131f91cb4ec00a5b0a26aa161b8b4>@@V<lambda_114dc79c86b00c313cb0b6b3b001aaf8>@@@?$__crt_seh_guarded_call@H@@QAEH$$QAV<lambda_75d23329f2fb3d02b2e1cf5509bb1caf>@@AAV<lambda_c4f131f91cb4ec00a5b0a26aa161b8b4>@@$$QAV<lambda_114dc79c86b00c313cb0b6b3b001aaf8>@@@Z 10026775 f   libucrt:output.obj
 0001:000257da       ??$?RV<lambda_80d7abc6eae2375db70be92ccaaf9b57>@@AAV<lambda_df52180bf14694d51fdefd82613e8f07>@@V<lambda_4fa1155033dff2042363dba4e2dc3802>@@@?$__crt_seh_guarded_call@H@@QAEH$$QAV<lambda_80d7abc6eae2375db70be92ccaaf9b57>@@AAV<lambda_df52180bf14694d51fdefd82613e8f07>@@$$QAV<lambda_4fa1155033dff2042363dba4e2dc3802>@@@Z 100267da f   libucrt:output.obj
 0001:0002583f       ??$?RV<lambda_b4329732a1a72698597872ef534ad66d>@@AAV<lambda_96392db5b14a27f72535a2156da24b09>@@V<lambda_0f47277b42e3e84c3311fed419af0b3c>@@@?$__crt_seh_guarded_call@H@@QAEH$$QAV<lambda_b4329732a1a72698597872ef534ad66d>@@AAV<lambda_96392db5b14a27f72535a2156da24b09>@@$$QAV<lambda_0f47277b42e3e84c3311fed419af0b3c>@@@Z 1002683f f   libucrt:output.obj
 0001:000258a4       ??$?RV<lambda_b7f50223258ab9fcc98080d45d02b1a4>@@AAV<lambda_42506531d319a600ce771deb5a236a10>@@V<lambda_31f843250ba6188c6e1f35d2bec6db0e>@@@?$__crt_seh_guarded_call@H@@QAEH$$QAV<lambda_b7f50223258ab9fcc98080d45d02b1a4>@@AAV<lambda_42506531d319a600ce771deb5a236a10>@@$$QAV<lambda_31f843250ba6188c6e1f35d2bec6db0e>@@@Z 100268a4 f   libucrt:output.obj
 0001:00025909       ??$?RV<lambda_cc35d49d909def412005bd38ddc96b77>@@AAV<lambda_d6a382b8dd98a6801a8abd6c28bdff2d>@@V<lambda_148068cfb9786d9714740654406e93d5>@@@?$__crt_seh_guarded_call@H@@QAEH$$QAV<lambda_cc35d49d909def412005bd38ddc96b77>@@AAV<lambda_d6a382b8dd98a6801a8abd6c28bdff2d>@@$$QAV<lambda_148068cfb9786d9714740654406e93d5>@@@Z 10026909 f   libucrt:output.obj
 0001:0002596e       ??$__acrt_lock_stream_and_call@V<lambda_42506531d319a600ce771deb5a236a10>@@@@YAHQAU_iobuf@@$$QAV<lambda_42506531d319a600ce771deb5a236a10>@@@Z 1002696e f   libucrt:output.obj
 0001:000259a0       ??$__acrt_lock_stream_and_call@V<lambda_96392db5b14a27f72535a2156da24b09>@@@@YAHQAU_iobuf@@$$QAV<lambda_96392db5b14a27f72535a2156da24b09>@@@Z 100269a0 f   libucrt:output.obj
 0001:000259d2       ??$__acrt_lock_stream_and_call@V<lambda_c4f131f91cb4ec00a5b0a26aa161b8b4>@@@@YAHQAU_iobuf@@$$QAV<lambda_c4f131f91cb4ec00a5b0a26aa161b8b4>@@@Z 100269d2 f   libucrt:output.obj
 0001:00025a04       ??$__acrt_lock_stream_and_call@V<lambda_d6a382b8dd98a6801a8abd6c28bdff2d>@@@@YAHQAU_iobuf@@$$QAV<lambda_d6a382b8dd98a6801a8abd6c28bdff2d>@@@Z 10026a04 f   libucrt:output.obj
 0001:00025a36       ??$__acrt_lock_stream_and_call@V<lambda_df52180bf14694d51fdefd82613e8f07>@@@@YAHQAU_iobuf@@$$QAV<lambda_df52180bf14694d51fdefd82613e8f07>@@@Z 10026a36 f   libucrt:output.obj
 0001:00025a68       ??$__acrt_lock_stream_and_call@V<lambda_e38011a3ba6e07c7dbcef4d549f26102>@@@@YAHQAU_iobuf@@$$QAV<lambda_e38011a3ba6e07c7dbcef4d549f26102>@@@Z 10026a68 f   libucrt:output.obj
 0001:00025aa9       ??$common_vfprintf@Vformat_validation_base@__crt_stdio_output@@D@@YAH_KQAU_iobuf@@QBDQAU__crt_locale_pointers@@QAD@Z 10026aa9 f   libucrt:output.obj
 0001:00025b28       ??$common_vfprintf@Vformat_validation_base@__crt_stdio_output@@_W@@YAH_KQAU_iobuf@@QB_WQAU__crt_locale_pointers@@QAD@Z 10026b28 f   libucrt:output.obj
 0001:00025ba7       ??$common_vfprintf@Vpositional_parameter_base@__crt_stdio_output@@D@@YAH_KQAU_iobuf@@QBDQAU__crt_locale_pointers@@QAD@Z 10026ba7 f   libucrt:output.obj
 0001:00025c26       ??$common_vfprintf@Vpositional_parameter_base@__crt_stdio_output@@_W@@YAH_KQAU_iobuf@@QB_WQAU__crt_locale_pointers@@QAD@Z 10026c26 f   libucrt:output.obj
 0001:00025ca5       ??$common_vfprintf@Vstandard_base@__crt_stdio_output@@D@@YAH_KQAU_iobuf@@QBDQAU__crt_locale_pointers@@QAD@Z 10026ca5 f   libucrt:output.obj
 0001:00025d24       ??$common_vfprintf@Vstandard_base@__crt_stdio_output@@_W@@YAH_KQAU_iobuf@@QB_WQAU__crt_locale_pointers@@QAD@Z 10026d24 f   libucrt:output.obj
 0001:00025da3       ??$common_vsnprintf_s@D@@YAH_KQADIIQBDQAU__crt_locale_pointers@@1@Z 10026da3 f   libucrt:output.obj
 0001:00025ecb       ??$common_vsnprintf_s@_W@@YAH_KQA_WIIQB_WQAU__crt_locale_pointers@@QAD@Z 10026ecb f   libucrt:output.obj
 0001:00025ff8       ??$common_vsprintf@Vformat_validation_base@__crt_stdio_output@@D@@YAH_KQADIQBDQAU__crt_locale_pointers@@1@Z 10026ff8 f   libucrt:output.obj
 0001:000261d8       ??$common_vsprintf@Vformat_validation_base@__crt_stdio_output@@_W@@YAH_KQA_WIQB_WQAU__crt_locale_pointers@@QAD@Z 100271d8 f   libucrt:output.obj
 0001:000263c3       ??$common_vsprintf@Vpositional_parameter_base@__crt_stdio_output@@D@@YAH_KQADIQBDQAU__crt_locale_pointers@@1@Z 100273c3 f   libucrt:output.obj
 0001:000265e1       ??$common_vsprintf@Vpositional_parameter_base@__crt_stdio_output@@_W@@YAH_KQA_WIQB_WQAU__crt_locale_pointers@@QAD@Z 100275e1 f   libucrt:output.obj
 0001:0002680a       ??$common_vsprintf@Vstandard_base@__crt_stdio_output@@D@@YAH_KQADIQBDQAU__crt_locale_pointers@@1@Z 1002780a f   libucrt:output.obj
 0001:000269ea       ??$common_vsprintf@Vstandard_base@__crt_stdio_output@@_W@@YAH_KQA_WIQB_WQAU__crt_locale_pointers@@QAD@Z 100279ea f   libucrt:output.obj
 0001:00026bd5       ??$common_vsprintf_s@D@@YAH_KQADIQBDQAU__crt_locale_pointers@@1@Z 10027bd5 f   libucrt:output.obj
 0001:00026c6b       ??$common_vsprintf_s@_W@@YAH_KQA_WIQB_WQAU__crt_locale_pointers@@QAD@Z 10027c6b f   libucrt:output.obj
 0001:000284aa       ??$extract_argument_from_va_list@PAUansi_string@?1??type_case_Z@?$output_processor@DV?$stream_output_adapter@D@__crt_stdio_output@@V?$format_validation_base@DV?$stream_output_adapter@D@__crt_stdio_output@@@2@@__crt_stdio_output@@AAE_NXZ@PAU1?1??234@AAE_NXZ@@?$standard_base@DV?$stream_output_adapter@D@__crt_stdio_output@@@__crt_stdio_output@@IAE_NAAPAUansi_string@?1??type_case_Z@?$output_processor@DV?$stream_output_adapter@D@__crt_stdio_output@@V?$format_validation_base@DV?$stream_output_adapter@D@__crt_stdio_output@@@2@@1@AAE_NXZ@@Z 100294aa f   libucrt:output.obj
 0001:000284ca       ??$extract_argument_from_va_list@PAUansi_string@?1??type_case_Z@?$output_processor@DV?$stream_output_adapter@D@__crt_stdio_output@@V?$positional_parameter_base@DV?$stream_output_adapter@D@__crt_stdio_output@@@2@@__crt_stdio_output@@AAE_NXZ@PAU1?1??234@AAE_NXZ@@?$positional_parameter_base@DV?$stream_output_adapter@D@__crt_stdio_output@@@__crt_stdio_output@@IAE_NAAPAUansi_string@?1??type_case_Z@?$output_processor@DV?$stream_output_adapter@D@__crt_stdio_output@@V?$positional_parameter_base@DV?$stream_output_adapter@D@__crt_stdio_output@@@2@@1@AAE_NXZ@@Z 100294ca f   libucrt:output.obj
 0001:00028560       ??$extract_argument_from_va_list@PAUansi_string@?1??type_case_Z@?$output_processor@DV?$stream_output_adapter@D@__crt_stdio_output@@V?$positional_parameter_base@DV?$stream_output_adapter@D@__crt_stdio_output@@@2@@__crt_stdio_output@@AAE_NXZ@PAU1?1??234@AAE_NXZ@@?$standard_base@DV?$stream_output_adapter@D@__crt_stdio_output@@@__crt_stdio_output@@IAE_NAAPAUansi_string@?1??type_case_Z@?$output_processor@DV?$stream_output_adapter@D@__crt_stdio_output@@V?$positional_parameter_base@DV?$stream_output_adapter@D@__crt_stdio_output@@@2@@1@AAE_NXZ@@Z 10029560 f   libucrt:output.obj
 0001:00028580       ??$extract_argument_from_va_list@PAUansi_string@?1??type_case_Z@?$output_processor@DV?$stream_output_adapter@D@__crt_stdio_output@@V?$standard_base@DV?$stream_output_adapter@D@__crt_stdio_output@@@2@@__crt_stdio_output@@AAE_NXZ@PAU1?1??234@AAE_NXZ@@?$standard_base@DV?$stream_output_adapter@D@__crt_stdio_output@@@__crt_stdio_output@@IAE_NAAPAUansi_string@?1??type_case_Z@?$output_processor@DV?$stream_output_adapter@D@__crt_stdio_output@@V?$standard_base@DV?$stream_output_adapter@D@__crt_stdio_output@@@2@@1@AAE_NXZ@@Z 10029580 f   libucrt:output.obj
 0001:000285a0       ??$extract_argument_from_va_list@PAUansi_string@?1??type_case_Z@?$output_processor@DV?$string_output_adapter@D@__crt_stdio_output@@V?$format_validation_base@DV?$string_output_adapter@D@__crt_stdio_output@@@2@@__crt_stdio_output@@AAE_NXZ@PAU1?1??234@AAE_NXZ@@?$standard_base@DV?$string_output_adapter@D@__crt_stdio_output@@@__crt_stdio_output@@IAE_NAAPAUansi_string@?1??type_case_Z@?$output_processor@DV?$string_output_adapter@D@__crt_stdio_output@@V?$format_validation_base@DV?$string_output_adapter@D@__crt_stdio_output@@@2@@1@AAE_NXZ@@Z 100295a0 f   libucrt:output.obj
 0001:000285c0       ??$extract_argument_from_va_list@PAUansi_string@?1??type_case_Z@?$output_processor@DV?$string_output_adapter@D@__crt_stdio_output@@V?$positional_parameter_base@DV?$string_output_adapter@D@__crt_stdio_output@@@2@@__crt_stdio_output@@AAE_NXZ@PAU1?1??234@AAE_NXZ@@?$positional_parameter_base@DV?$string_output_adapter@D@__crt_stdio_output@@@__crt_stdio_output@@IAE_NAAPAUansi_string@?1??type_case_Z@?$output_processor@DV?$string_output_adapter@D@__crt_stdio_output@@V?$positional_parameter_base@DV?$string_output_adapter@D@__crt_stdio_output@@@2@@1@AAE_NXZ@@Z 100295c0 f   libucrt:output.obj
 0001:00028656       ??$extract_argument_from_va_list@PAUansi_string@?1??type_case_Z@?$output_processor@DV?$string_output_adapter@D@__crt_stdio_output@@V?$positional_parameter_base@DV?$string_output_adapter@D@__crt_stdio_output@@@2@@__crt_stdio_output@@AAE_NXZ@PAU1?1??234@AAE_NXZ@@?$standard_base@DV?$string_output_adapter@D@__crt_stdio_output@@@__crt_stdio_output@@IAE_NAAPAUansi_string@?1??type_case_Z@?$output_processor@DV?$string_output_adapter@D@__crt_stdio_output@@V?$positional_parameter_base@DV?$string_output_adapter@D@__crt_stdio_output@@@2@@1@AAE_NXZ@@Z 10029656 f   libucrt:output.obj
 0001:00028676       ??$extract_argument_from_va_list@PAUansi_string@?1??type_case_Z@?$output_processor@DV?$string_output_adapter@D@__crt_stdio_output@@V?$standard_base@DV?$string_output_adapter@D@__crt_stdio_output@@@2@@__crt_stdio_output@@AAE_NXZ@PAU1?1??234@AAE_NXZ@@?$standard_base@DV?$string_output_adapter@D@__crt_stdio_output@@@__crt_stdio_output@@IAE_NAAPAUansi_string@?1??type_case_Z@?$output_processor@DV?$string_output_adapter@D@__crt_stdio_output@@V?$standard_base@DV?$string_output_adapter@D@__crt_stdio_output@@@2@@1@AAE_NXZ@@Z 10029676 f   libucrt:output.obj
 0001:00028696       ??$extract_argument_from_va_list@PAUansi_string@?1??type_case_Z@?$output_processor@_WV?$stream_output_adapter@_W@__crt_stdio_output@@V?$format_validation_base@_WV?$stream_output_adapter@_W@__crt_stdio_output@@@2@@__crt_stdio_output@@AAE_NXZ@PAU1?1??234@AAE_NXZ@@?$standard_base@_WV?$stream_output_adapter@_W@__crt_stdio_output@@@__crt_stdio_output@@IAE_NAAPAUansi_string@?1??type_case_Z@?$output_processor@_WV?$stream_output_adapter@_W@__crt_stdio_output@@V?$format_validation_base@_WV?$stream_output_adapter@_W@__crt_stdio_output@@@2@@1@AAE_NXZ@@Z 10029696 f   libucrt:output.obj
 0001:000286b6       ??$extract_argument_from_va_list@PAUansi_string@?1??type_case_Z@?$output_processor@_WV?$stream_output_adapter@_W@__crt_stdio_output@@V?$positional_parameter_base@_WV?$stream_output_adapter@_W@__crt_stdio_output@@@2@@__crt_stdio_output@@AAE_NXZ@PAU1?1??234@AAE_NXZ@@?$positional_parameter_base@_WV?$stream_output_adapter@_W@__crt_stdio_output@@@__crt_stdio_output@@IAE_NAAPAUansi_string@?1??type_case_Z@?$output_processor@_WV?$stream_output_adapter@_W@__crt_stdio_output@@V?$positional_parameter_base@_WV?$stream_output_adapter@_W@__crt_stdio_output@@@2@@1@AAE_NXZ@@Z 100296b6 f   libucrt:output.obj
 0001:0002874c       ??$extract_argument_from_va_list@PAUansi_string@?1??type_case_Z@?$output_processor@_WV?$stream_output_adapter@_W@__crt_stdio_output@@V?$positional_parameter_base@_WV?$stream_output_adapter@_W@__crt_stdio_output@@@2@@__crt_stdio_output@@AAE_NXZ@PAU1?1??234@AAE_NXZ@@?$standard_base@_WV?$stream_output_adapter@_W@__crt_stdio_output@@@__crt_stdio_output@@IAE_NAAPAUansi_string@?1??type_case_Z@?$output_processor@_WV?$stream_output_adapter@_W@__crt_stdio_output@@V?$positional_parameter_base@_WV?$stream_output_adapter@_W@__crt_stdio_output@@@2@@1@AAE_NXZ@@Z 1002974c f   libucrt:output.obj
 0001:0002876c       ??$extract_argument_from_va_list@PAUansi_string@?1??type_case_Z@?$output_processor@_WV?$stream_output_adapter@_W@__crt_stdio_output@@V?$standard_base@_WV?$stream_output_adapter@_W@__crt_stdio_output@@@2@@__crt_stdio_output@@AAE_NXZ@PAU1?1??234@AAE_NXZ@@?$standard_base@_WV?$stream_output_adapter@_W@__crt_stdio_output@@@__crt_stdio_output@@IAE_NAAPAUansi_string@?1??type_case_Z@?$output_processor@_WV?$stream_output_adapter@_W@__crt_stdio_output@@V?$standard_base@_WV?$stream_output_adapter@_W@__crt_stdio_output@@@2@@1@AAE_NXZ@@Z 1002976c f   libucrt:output.obj
 0001:0002878c       ??$extract_argument_from_va_list@PAUansi_string@?1??type_case_Z@?$output_processor@_WV?$string_output_adapter@_W@__crt_stdio_output@@V?$format_validation_base@_WV?$string_output_adapter@_W@__crt_stdio_output@@@2@@__crt_stdio_output@@AAE_NXZ@PAU1?1??234@AAE_NXZ@@?$standard_base@_WV?$string_output_adapter@_W@__crt_stdio_output@@@__crt_stdio_output@@IAE_NAAPAUansi_string@?1??type_case_Z@?$output_processor@_WV?$string_output_adapter@_W@__crt_stdio_output@@V?$format_validation_base@_WV?$string_output_adapter@_W@__crt_stdio_output@@@2@@1@AAE_NXZ@@Z 1002978c f   libucrt:output.obj
 0001:000287ac       ??$extract_argument_from_va_list@PAUansi_string@?1??type_case_Z@?$output_processor@_WV?$string_output_adapter@_W@__crt_stdio_output@@V?$positional_parameter_base@_WV?$string_output_adapter@_W@__crt_stdio_output@@@2@@__crt_stdio_output@@AAE_NXZ@PAU1?1??234@AAE_NXZ@@?$positional_parameter_base@_WV?$string_output_adapter@_W@__crt_stdio_output@@@__crt_stdio_output@@IAE_NAAPAUansi_string@?1??type_case_Z@?$output_processor@_WV?$string_output_adapter@_W@__crt_stdio_output@@V?$positional_parameter_base@_WV?$string_output_adapter@_W@__crt_stdio_output@@@2@@1@AAE_NXZ@@Z 100297ac f   libucrt:output.obj
 0001:00028842       ??$extract_argument_from_va_list@PAUansi_string@?1??type_case_Z@?$output_processor@_WV?$string_output_adapter@_W@__crt_stdio_output@@V?$positional_parameter_base@_WV?$string_output_adapter@_W@__crt_stdio_output@@@2@@__crt_stdio_output@@AAE_NXZ@PAU1?1??234@AAE_NXZ@@?$standard_base@_WV?$string_output_adapter@_W@__crt_stdio_output@@@__crt_stdio_output@@IAE_NAAPAUansi_string@?1??type_case_Z@?$output_processor@_WV?$string_output_adapter@_W@__crt_stdio_output@@V?$positional_parameter_base@_WV?$string_output_adapter@_W@__crt_stdio_output@@@2@@1@AAE_NXZ@@Z 10029842 f   libucrt:output.obj
 0001:00028862       ??$extract_argument_from_va_list@PAUansi_string@?1??type_case_Z@?$output_processor@_WV?$string_output_adapter@_W@__crt_stdio_output@@V?$standard_base@_WV?$string_output_adapter@_W@__crt_stdio_output@@@2@@__crt_stdio_output@@AAE_NXZ@PAU1?1??234@AAE_NXZ@@?$standard_base@_WV?$string_output_adapter@_W@__crt_stdio_output@@@__crt_stdio_output@@IAE_NAAPAUansi_string@?1??type_case_Z@?$output_processor@_WV?$string_output_adapter@_W@__crt_stdio_output@@V?$standard_base@_WV?$string_output_adapter@_W@__crt_stdio_output@@@2@@1@AAE_NXZ@@Z 10029862 f   libucrt:output.obj
 0001:00029816       ??$get_parameter_type@Uansi_string@?1??type_case_Z@?$output_processor@DV?$stream_output_adapter@D@__crt_stdio_output@@V?$positional_parameter_base@DV?$stream_output_adapter@D@__crt_stdio_output@@@2@@__crt_stdio_output@@AAE_NXZ@@?$positional_parameter_base@DV?$stream_output_adapter@D@__crt_stdio_output@@@__crt_stdio_output@@CA?AW4parameter_type@01@PAUansi_string@?1??type_case_Z@?$output_processor@DV?$stream_output_adapter@D@__crt_stdio_output@@V?$positional_parameter_base@DV?$stream_output_adapter@D@__crt_stdio_output@@@2@@1@AAE_NXZ@@Z 1002a816 f   libucrt:output.obj
 0001:0002981a       ??$get_parameter_type@Uansi_string@?1??type_case_Z@?$output_processor@DV?$string_output_adapter@D@__crt_stdio_output@@V?$positional_parameter_base@DV?$string_output_adapter@D@__crt_stdio_output@@@2@@__crt_stdio_output@@AAE_NXZ@@?$positional_parameter_base@DV?$string_output_adapter@D@__crt_stdio_output@@@__crt_stdio_output@@CA?AW4parameter_type@01@PAUansi_string@?1??type_case_Z@?$output_processor@DV?$string_output_adapter@D@__crt_stdio_output@@V?$positional_parameter_base@DV?$string_output_adapter@D@__crt_stdio_output@@@2@@1@AAE_NXZ@@Z 1002a81a f   libucrt:output.obj
 0001:0002981e       ??$get_parameter_type@Uansi_string@?1??type_case_Z@?$output_processor@_WV?$stream_output_adapter@_W@__crt_stdio_output@@V?$positional_parameter_base@_WV?$stream_output_adapter@_W@__crt_stdio_output@@@2@@__crt_stdio_output@@AAE_NXZ@@?$positional_parameter_base@_WV?$stream_output_adapter@_W@__crt_stdio_output@@@__crt_stdio_output@@CA?AW4parameter_type@01@PAUansi_string@?1??type_case_Z@?$output_processor@_WV?$stream_output_adapter@_W@__crt_stdio_output@@V?$positional_parameter_base@_WV?$stream_output_adapter@_W@__crt_stdio_output@@@2@@1@AAE_NXZ@@Z 1002a81e f   libucrt:output.obj
 0001:00029822       ??$get_parameter_type@Uansi_string@?1??type_case_Z@?$output_processor@_WV?$string_output_adapter@_W@__crt_stdio_output@@V?$positional_parameter_base@_WV?$string_output_adapter@_W@__crt_stdio_output@@@2@@__crt_stdio_output@@AAE_NXZ@@?$positional_parameter_base@_WV?$string_output_adapter@_W@__crt_stdio_output@@@__crt_stdio_output@@CA?AW4parameter_type@01@PAUansi_string@?1??type_case_Z@?$output_processor@_WV?$string_output_adapter@_W@__crt_stdio_output@@V?$positional_parameter_base@_WV?$string_output_adapter@_W@__crt_stdio_output@@@2@@1@AAE_NXZ@@Z 1002a822 f   libucrt:output.obj
 0001:00029b81       ??$peek_va_arg@PAUansi_string@?1??type_case_Z@?$output_processor@DV?$stream_output_adapter@D@__crt_stdio_output@@V?$positional_parameter_base@DV?$stream_output_adapter@D@__crt_stdio_output@@@2@@__crt_stdio_output@@AAE_NXZ@@__crt_stdio_output@@YAPAUansi_string@?1??type_case_Z@?$output_processor@DV?$stream_output_adapter@D@__crt_stdio_output@@V?$positional_parameter_base@DV?$stream_output_adapter@D@__crt_stdio_output@@@2@@0@AAE_NXZ@PAD@Z 1002ab81 f   libucrt:output.obj
 0001:00029b90       ??$peek_va_arg@PAUansi_string@?1??type_case_Z@?$output_processor@DV?$string_output_adapter@D@__crt_stdio_output@@V?$positional_parameter_base@DV?$string_output_adapter@D@__crt_stdio_output@@@2@@__crt_stdio_output@@AAE_NXZ@@__crt_stdio_output@@YAPAUansi_string@?1??type_case_Z@?$output_processor@DV?$string_output_adapter@D@__crt_stdio_output@@V?$positional_parameter_base@DV?$string_output_adapter@D@__crt_stdio_output@@@2@@0@AAE_NXZ@PAD@Z 1002ab90 f   libucrt:output.obj
 0001:00029b9f       ??$peek_va_arg@PAUansi_string@?1??type_case_Z@?$output_processor@_WV?$stream_output_adapter@_W@__crt_stdio_output@@V?$positional_parameter_base@_WV?$stream_output_adapter@_W@__crt_stdio_output@@@2@@__crt_stdio_output@@AAE_NXZ@@__crt_stdio_output@@YAPAUansi_string@?1??type_case_Z@?$output_processor@_WV?$stream_output_adapter@_W@__crt_stdio_output@@V?$positional_parameter_base@_WV?$stream_output_adapter@_W@__crt_stdio_output@@@2@@0@AAE_NXZ@PAD@Z 1002ab9f f   libucrt:output.obj
 0001:00029bae       ??$peek_va_arg@PAUansi_string@?1??type_case_Z@?$output_processor@_WV?$string_output_adapter@_W@__crt_stdio_output@@V?$positional_parameter_base@_WV?$string_output_adapter@_W@__crt_stdio_output@@@2@@__crt_stdio_output@@AAE_NXZ@@__crt_stdio_output@@YAPAUansi_string@?1??type_case_Z@?$output_processor@_WV?$string_output_adapter@_W@__crt_stdio_output@@V?$positional_parameter_base@_WV?$string_output_adapter@_W@__crt_stdio_output@@@2@@0@AAE_NXZ@PAD@Z 1002abae f   libucrt:output.obj
 0001:00029cee       ??$read_va_arg@PAUansi_string@?1??type_case_Z@?$output_processor@DV?$stream_output_adapter@D@__crt_stdio_output@@V?$format_validation_base@DV?$stream_output_adapter@D@__crt_stdio_output@@@2@@__crt_stdio_output@@AAE_NXZ@@__crt_stdio_output@@YAPAUansi_string@?1??type_case_Z@?$output_processor@DV?$stream_output_adapter@D@__crt_stdio_output@@V?$format_validation_base@DV?$stream_output_adapter@D@__crt_stdio_output@@@2@@0@AAE_NXZ@AAPAD@Z 1002acee f   libucrt:output.obj
 0001:00029d04       ??$read_va_arg@PAUansi_string@?1??type_case_Z@?$output_processor@DV?$stream_output_adapter@D@__crt_stdio_output@@V?$positional_parameter_base@DV?$stream_output_adapter@D@__crt_stdio_output@@@2@@__crt_stdio_output@@AAE_NXZ@@__crt_stdio_output@@YAPAUansi_string@?1??type_case_Z@?$output_processor@DV?$stream_output_adapter@D@__crt_stdio_output@@V?$positional_parameter_base@DV?$stream_output_adapter@D@__crt_stdio_output@@@2@@0@AAE_NXZ@AAPAD@Z 1002ad04 f   libucrt:output.obj
 0001:00029d1a       ??$read_va_arg@PAUansi_string@?1??type_case_Z@?$output_processor@DV?$stream_output_adapter@D@__crt_stdio_output@@V?$standard_base@DV?$stream_output_adapter@D@__crt_stdio_output@@@2@@__crt_stdio_output@@AAE_NXZ@@__crt_stdio_output@@YAPAUansi_string@?1??type_case_Z@?$output_processor@DV?$stream_output_adapter@D@__crt_stdio_output@@V?$standard_base@DV?$stream_output_adapter@D@__crt_stdio_output@@@2@@0@AAE_NXZ@AAPAD@Z 1002ad1a f   libucrt:output.obj
 0001:00029d30       ??$read_va_arg@PAUansi_string@?1??type_case_Z@?$output_processor@DV?$string_output_adapter@D@__crt_stdio_output@@V?$format_validation_base@DV?$string_output_adapter@D@__crt_stdio_output@@@2@@__crt_stdio_output@@AAE_NXZ@@__crt_stdio_output@@YAPAUansi_string@?1??type_case_Z@?$output_processor@DV?$string_output_adapter@D@__crt_stdio_output@@V?$format_validation_base@DV?$string_output_adapter@D@__crt_stdio_output@@@2@@0@AAE_NXZ@AAPAD@Z 1002ad30 f   libucrt:output.obj
 0001:00029d46       ??$read_va_arg@PAUansi_string@?1??type_case_Z@?$output_processor@DV?$string_output_adapter@D@__crt_stdio_output@@V?$positional_parameter_base@DV?$string_output_adapter@D@__crt_stdio_output@@@2@@__crt_stdio_output@@AAE_NXZ@@__crt_stdio_output@@YAPAUansi_string@?1??type_case_Z@?$output_processor@DV?$string_output_adapter@D@__crt_stdio_output@@V?$positional_parameter_base@DV?$string_output_adapter@D@__crt_stdio_output@@@2@@0@AAE_NXZ@AAPAD@Z 1002ad46 f   libucrt:output.obj
 0001:00029d5c       ??$read_va_arg@PAUansi_string@?1??type_case_Z@?$output_processor@DV?$string_output_adapter@D@__crt_stdio_output@@V?$standard_base@DV?$string_output_adapter@D@__crt_stdio_output@@@2@@__crt_stdio_output@@AAE_NXZ@@__crt_stdio_output@@YAPAUansi_string@?1??type_case_Z@?$output_processor@DV?$string_output_adapter@D@__crt_stdio_output@@V?$standard_base@DV?$string_output_adapter@D@__crt_stdio_output@@@2@@0@AAE_NXZ@AAPAD@Z 1002ad5c f   libucrt:output.obj
 0001:00029d72       ??$read_va_arg@PAUansi_string@?1??type_case_Z@?$output_processor@_WV?$stream_output_adapter@_W@__crt_stdio_output@@V?$format_validation_base@_WV?$stream_output_adapter@_W@__crt_stdio_output@@@2@@__crt_stdio_output@@AAE_NXZ@@__crt_stdio_output@@YAPAUansi_string@?1??type_case_Z@?$output_processor@_WV?$stream_output_adapter@_W@__crt_stdio_output@@V?$format_validation_base@_WV?$stream_output_adapter@_W@__crt_stdio_output@@@2@@0@AAE_NXZ@AAPAD@Z 1002ad72 f   libucrt:output.obj
 0001:00029d88       ??$read_va_arg@PAUansi_string@?1??type_case_Z@?$output_processor@_WV?$stream_output_adapter@_W@__crt_stdio_output@@V?$positional_parameter_base@_WV?$stream_output_adapter@_W@__crt_stdio_output@@@2@@__crt_stdio_output@@AAE_NXZ@@__crt_stdio_output@@YAPAUansi_string@?1??type_case_Z@?$output_processor@_WV?$stream_output_adapter@_W@__crt_stdio_output@@V?$positional_parameter_base@_WV?$stream_output_adapter@_W@__crt_stdio_output@@@2@@0@AAE_NXZ@AAPAD@Z 1002ad88 f   libucrt:output.obj
 0001:00029d9e       ??$read_va_arg@PAUansi_string@?1??type_case_Z@?$output_processor@_WV?$stream_output_adapter@_W@__crt_stdio_output@@V?$standard_base@_WV?$stream_output_adapter@_W@__crt_stdio_output@@@2@@__crt_stdio_output@@AAE_NXZ@@__crt_stdio_output@@YAPAUansi_string@?1??type_case_Z@?$output_processor@_WV?$stream_output_adapter@_W@__crt_stdio_output@@V?$standard_base@_WV?$stream_output_adapter@_W@__crt_stdio_output@@@2@@0@AAE_NXZ@AAPAD@Z 1002ad9e f   libucrt:output.obj
 0001:00029db4       ??$read_va_arg@PAUansi_string@?1??type_case_Z@?$output_processor@_WV?$string_output_adapter@_W@__crt_stdio_output@@V?$format_validation_base@_WV?$string_output_adapter@_W@__crt_stdio_output@@@2@@__crt_stdio_output@@AAE_NXZ@@__crt_stdio_output@@YAPAUansi_string@?1??type_case_Z@?$output_processor@_WV?$string_output_adapter@_W@__crt_stdio_output@@V?$format_validation_base@_WV?$string_output_adapter@_W@__crt_stdio_output@@@2@@0@AAE_NXZ@AAPAD@Z 1002adb4 f   libucrt:output.obj
 0001:00029dca       ??$read_va_arg@PAUansi_string@?1??type_case_Z@?$output_processor@_WV?$string_output_adapter@_W@__crt_stdio_output@@V?$positional_parameter_base@_WV?$string_output_adapter@_W@__crt_stdio_output@@@2@@__crt_stdio_output@@AAE_NXZ@@__crt_stdio_output@@YAPAUansi_string@?1??type_case_Z@?$output_processor@_WV?$string_output_adapter@_W@__crt_stdio_output@@V?$positional_parameter_base@_WV?$string_output_adapter@_W@__crt_stdio_output@@@2@@0@AAE_NXZ@AAPAD@Z 1002adca f   libucrt:output.obj
 0001:00029de0       ??$read_va_arg@PAUansi_string@?1??type_case_Z@?$output_processor@_WV?$string_output_adapter@_W@__crt_stdio_output@@V?$standard_base@_WV?$string_output_adapter@_W@__crt_stdio_output@@@2@@__crt_stdio_output@@AAE_NXZ@@__crt_stdio_output@@YAPAUansi_string@?1??type_case_Z@?$output_processor@_WV?$string_output_adapter@_W@__crt_stdio_output@@V?$standard_base@_WV?$string_output_adapter@_W@__crt_stdio_output@@@2@@0@AAE_NXZ@AAPAD@Z 1002ade0 f   libucrt:output.obj
 0001:0002b015       ??0<lambda_0f47277b42e3e84c3311fed419af0b3c>@@QAE@ABQAU_iobuf@@@Z 1002c015 f   libucrt:output.obj
 0001:0002b02b       ??0<lambda_114dc79c86b00c313cb0b6b3b001aaf8>@@QAE@ABQAU_iobuf@@@Z 1002c02b f   libucrt:output.obj
 0001:0002b041       ??0<lambda_148068cfb9786d9714740654406e93d5>@@QAE@ABQAU_iobuf@@@Z 1002c041 f   libucrt:output.obj
 0001:0002b057       ??0<lambda_31f843250ba6188c6e1f35d2bec6db0e>@@QAE@ABQAU_iobuf@@@Z 1002c057 f   libucrt:output.obj
 0001:0002b06d       ??0<lambda_3a2a6cca1b0f7007a3db339dcecd1562>@@QAE@ABQAU_iobuf@@@Z 1002c06d f   libucrt:output.obj
 0001:0002b083       ??0<lambda_42506531d319a600ce771deb5a236a10>@@QAE@ABQAU_iobuf@@ABQAU__crt_locale_pointers@@AB_KABQB_WABQAD@Z 1002c083 f   libucrt:output.obj
 0001:0002b0b5       ??0<lambda_4fa1155033dff2042363dba4e2dc3802>@@QAE@ABQAU_iobuf@@@Z 1002c0b5 f   libucrt:output.obj
 0001:0002b0cb       ??0<lambda_75d23329f2fb3d02b2e1cf5509bb1caf>@@QAE@ABQAU_iobuf@@@Z 1002c0cb f   libucrt:output.obj
 0001:0002b0e1       ??0<lambda_80d7abc6eae2375db70be92ccaaf9b57>@@QAE@ABQAU_iobuf@@@Z 1002c0e1 f   libucrt:output.obj
 0001:0002b0f7       ??0<lambda_96392db5b14a27f72535a2156da24b09>@@QAE@ABQAU_iobuf@@ABQAU__crt_locale_pointers@@AB_KABQB_WABQAD@Z 1002c0f7 f   libucrt:output.obj
 0001:0002b129       ??0<lambda_b2332a2b562101f3c3c34baab19e0511>@@QAE@ABQAU_iobuf@@@Z 1002c129 f   libucrt:output.obj
 0001:0002b13f       ??0<lambda_b4329732a1a72698597872ef534ad66d>@@QAE@ABQAU_iobuf@@@Z 1002c13f f   libucrt:output.obj
 0001:0002b155       ??0<lambda_b7f50223258ab9fcc98080d45d02b1a4>@@QAE@ABQAU_iobuf@@@Z 1002c155 f   libucrt:output.obj
 0001:0002b16b       ??0<lambda_c4f131f91cb4ec00a5b0a26aa161b8b4>@@QAE@ABQAU_iobuf@@ABQAU__crt_locale_pointers@@AB_KABQB_WABQAD@Z 1002c16b f   libucrt:output.obj
 0001:0002b19d       ??0<lambda_cc35d49d909def412005bd38ddc96b77>@@QAE@ABQAU_iobuf@@@Z 1002c19d f   libucrt:output.obj
 0001:0002b1b3       ??0<lambda_d6a382b8dd98a6801a8abd6c28bdff2d>@@QAE@ABQAU_iobuf@@ABQAU__crt_locale_pointers@@AB_KABQBDABQAD@Z 1002c1b3 f   libucrt:output.obj
 0001:0002b1e5       ??0<lambda_df52180bf14694d51fdefd82613e8f07>@@QAE@ABQAU_iobuf@@ABQAU__crt_locale_pointers@@AB_KABQBDABQAD@Z 1002c1e5 f   libucrt:output.obj
 0001:0002b217       ??0<lambda_e38011a3ba6e07c7dbcef4d549f26102>@@QAE@ABQAU_iobuf@@ABQAU__crt_locale_pointers@@AB_KABQBDABQAD@Z 1002c217 f   libucrt:output.obj
 0001:0002b9b1       ??R<lambda_0f47277b42e3e84c3311fed419af0b3c>@@QBEXXZ 1002c9b1 f   libucrt:output.obj
 0001:0002b9bc       ??R<lambda_114dc79c86b00c313cb0b6b3b001aaf8>@@QBEXXZ 1002c9bc f   libucrt:output.obj
 0001:0002b9c7       ??R<lambda_148068cfb9786d9714740654406e93d5>@@QBEXXZ 1002c9c7 f   libucrt:output.obj
 0001:0002b9d2       ??R<lambda_31f843250ba6188c6e1f35d2bec6db0e>@@QBEXXZ 1002c9d2 f   libucrt:output.obj
 0001:0002b9dd       ??R<lambda_3a2a6cca1b0f7007a3db339dcecd1562>@@QBEXXZ 1002c9dd f   libucrt:output.obj
 0001:0002b9e8       ??R<lambda_42506531d319a600ce771deb5a236a10>@@QBEHXZ 1002c9e8 f   libucrt:output.obj
 0001:0002bad9       ??R<lambda_4fa1155033dff2042363dba4e2dc3802>@@QBEXXZ 1002cad9 f   libucrt:output.obj
 0001:0002bae4       ??R<lambda_75d23329f2fb3d02b2e1cf5509bb1caf>@@QBEXXZ 1002cae4 f   libucrt:output.obj
 0001:0002baef       ??R<lambda_80d7abc6eae2375db70be92ccaaf9b57>@@QBEXXZ 1002caef f   libucrt:output.obj
 0001:0002bafa       ??R<lambda_96392db5b14a27f72535a2156da24b09>@@QBEHXZ 1002cafa f   libucrt:output.obj
 0001:0002bc2d       ??R<lambda_b2332a2b562101f3c3c34baab19e0511>@@QBEXXZ 1002cc2d f   libucrt:output.obj
 0001:0002bc38       ??R<lambda_b4329732a1a72698597872ef534ad66d>@@QBEXXZ 1002cc38 f   libucrt:output.obj
 0001:0002bc43       ??R<lambda_b7f50223258ab9fcc98080d45d02b1a4>@@QBEXXZ 1002cc43 f   libucrt:output.obj
 0001:0002bc4e       ??R<lambda_c4f131f91cb4ec00a5b0a26aa161b8b4>@@QBEHXZ 1002cc4e f   libucrt:output.obj
 0001:0002bd3f       ??R<lambda_cc35d49d909def412005bd38ddc96b77>@@QBEXXZ 1002cd3f f   libucrt:output.obj
 0001:0002bd4a       ??R<lambda_d6a382b8dd98a6801a8abd6c28bdff2d>@@QBEHXZ 1002cd4a f   libucrt:output.obj
 0001:0002be3b       ??R<lambda_df52180bf14694d51fdefd82613e8f07>@@QBEHXZ 1002ce3b f   libucrt:output.obj
 0001:0002bf2c       ??R<lambda_e38011a3ba6e07c7dbcef4d549f26102>@@QBEHXZ 1002cf2c f   libucrt:output.obj
 0001:0002d79c       $LN52                      1002e79c     libucrt:output.obj
 0001:0002d942       $LN48                      1002e942     libucrt:output.obj
 0001:0002dab5       $LN54                      1002eab5     libucrt:output.obj
 0001:0002dc24       $LN52                      1002ec24     libucrt:output.obj
 0001:0002ddca       $LN48                      1002edca     libucrt:output.obj
 0001:0002df3d       $LN54                      1002ef3d     libucrt:output.obj
 0001:0002e0b4       $LN52                      1002f0b4     libucrt:output.obj
 0001:0002e260       $LN48                      1002f260     libucrt:output.obj
 0001:0002e3d8       $LN54                      1002f3d8     libucrt:output.obj
 0001:0002e550       $LN52                      1002f550     libucrt:output.obj
 0001:0002e6fc       $LN48                      1002f6fc     libucrt:output.obj
 0001:0002e874       $LN54                      1002f874     libucrt:output.obj
 0001:000335cc       $LN19                      100345cc     libucrt:output.obj
 0001:0003b206       ??$?RV<lambda_03b1d95aef87969028cfba75ccab2455>@@AAV<lambda_6e4b09c48022b2350581041d5f6b0c4c>@@V<lambda_22bdf7517842c4b3e53723af5aa32b9e>@@@?$__crt_seh_guarded_call@X@@QAEX$$QAV<lambda_03b1d95aef87969028cfba75ccab2455>@@AAV<lambda_6e4b09c48022b2350581041d5f6b0c4c>@@$$QAV<lambda_22bdf7517842c4b3e53723af5aa32b9e>@@@Z 1003c206 f   libucrt:exit.obj
 0001:0003b259       ??$__acrt_lock_and_call@V<lambda_6e4b09c48022b2350581041d5f6b0c4c>@@@@YAXW4__acrt_lock_id@@$$QAV<lambda_6e4b09c48022b2350581041d5f6b0c4c>@@@Z 1003c259 f   libucrt:exit.obj
 0001:0003b2e3       ??0<lambda_03b1d95aef87969028cfba75ccab2455>@@QAE@ABW4__acrt_lock_id@@@Z 1003c2e3 f   libucrt:exit.obj
 0001:0003b2f9       ??0<lambda_22bdf7517842c4b3e53723af5aa32b9e>@@QAE@ABW4__acrt_lock_id@@@Z 1003c2f9 f   libucrt:exit.obj
 0001:0003b30f       ??0<lambda_6e4b09c48022b2350581041d5f6b0c4c>@@QAE@ABW4_crt_exit_cleanup_mode@@ABW4_crt_exit_return_mode@@AA_N@Z 1003c30f f   libucrt:exit.obj
 0001:0003b362       ??R<lambda_03b1d95aef87969028cfba75ccab2455>@@QBEXXZ 1003c362 f   libucrt:exit.obj
 0001:0003b36d       ??R<lambda_22bdf7517842c4b3e53723af5aa32b9e>@@QBEXXZ 1003c36d f   libucrt:exit.obj
 0001:0003b378       ??R<lambda_6e4b09c48022b2350581041d5f6b0c4c>@@QBE@XZ 1003c378 f   libucrt:exit.obj
 0001:0003b48f       ?atexit_exception_filter@@YAHK@Z 1003c48f f   libucrt:exit.obj
 0001:0003b4dc       ?common_exit@@YAXHW4_crt_exit_cleanup_mode@@W4_crt_exit_return_mode@@@Z 1003c4dc f   libucrt:exit.obj
 0001:0003b55b       ?exit_or_terminate_process@@YAXI@Z 1003c55b f   libucrt:exit.obj
 0001:0003b5b6       ?is_managed_app@@YA_NXZ    1003c5b6 f   libucrt:exit.obj
 0001:0003b60b       ?should_call_terminate_process@@YA_NXZ 1003c60b f   libucrt:exit.obj
 0001:0003b630       ?try_cor_exit_process@@YAXI@Z 1003c630 f   libucrt:exit.obj
 0001:0003b7b0       $$000000                   1003c7b0     libucrt:strncat.obj
 0001:0003b940       $$000000                   1003c940     libucrt:strncpy.obj
 0001:0003bbe4       ??$common_fopen_s@D@@YAHQAPAU_iobuf@@QBD1@Z 1003cbe4 f   libucrt:fopen.obj
 0001:0003bc3c       ??$common_fopen_s@_W@@YAHQAPAU_iobuf@@QB_W1@Z 1003cc3c f   libucrt:fopen.obj
 0001:0003bc94       ??$common_fsopen@D@@YAPAU_iobuf@@QBD0H@Z 1003cc94 f   libucrt:fopen.obj
 0001:0003bd6c       ??$common_fsopen@_W@@YAPAU_iobuf@@QB_W0H@Z 1003cd6c f   libucrt:fopen.obj
 0001:0003c366       _memcpy_s                  1003d366 f   libucrt:fread.obj
 0001:0003c407       ??$?RV<lambda_cd3bfd923e8d1349099e544c97b1bd8e>@@AAV<lambda_54dcfcba6f8e0c549fa430f4d53fb7dd>@@V<lambda_5e1d0fa2aa2b73b187bf8b7e1d30c7f8>@@@?$__crt_seh_guarded_call@I@@QAEI$$QAV<lambda_cd3bfd923e8d1349099e544c97b1bd8e>@@AAV<lambda_54dcfcba6f8e0c549fa430f4d53fb7dd>@@$$QAV<lambda_5e1d0fa2aa2b73b187bf8b7e1d30c7f8>@@@Z 1003d407 f   libucrt:fwrite.obj
 0001:0003c46c       ??$__acrt_lock_stream_and_call@V<lambda_54dcfcba6f8e0c549fa430f4d53fb7dd>@@@@YAIQAU_iobuf@@$$QAV<lambda_54dcfcba6f8e0c549fa430f4d53fb7dd>@@@Z 1003d46c f   libucrt:fwrite.obj
 0001:0003c49e       ??0<lambda_54dcfcba6f8e0c549fa430f4d53fb7dd>@@QAE@ABQAU_iobuf@@ABQBXABI2@Z 1003d49e f   libucrt:fwrite.obj
 0001:0003c4c8       ??0<lambda_5e1d0fa2aa2b73b187bf8b7e1d30c7f8>@@QAE@ABQAU_iobuf@@@Z 1003d4c8 f   libucrt:fwrite.obj
 0001:0003c4de       ??0<lambda_cd3bfd923e8d1349099e544c97b1bd8e>@@QAE@ABQAU_iobuf@@@Z 1003d4de f   libucrt:fwrite.obj
 0001:0003c4f4       ??R<lambda_54dcfcba6f8e0c549fa430f4d53fb7dd>@@QBEIXZ 1003d4f4 f   libucrt:fwrite.obj
 0001:0003c54a       ??R<lambda_5e1d0fa2aa2b73b187bf8b7e1d30c7f8>@@QBEXXZ 1003d54a f   libucrt:fwrite.obj
 0001:0003c555       ??R<lambda_cd3bfd923e8d1349099e544c97b1bd8e>@@QBEXXZ 1003d555 f   libucrt:fwrite.obj
 0001:0003c7c4       ??$__acrt_convert_wcs_mbs_cp@D_WV<lambda_62f6974d9771e494a5ea317cc32e971c>@@U__crt_win32_buffer_internal_dynamic_resizing@@@@YAHQBDAAV?$__crt_win32_buffer@_WU__crt_win32_buffer_internal_dynamic_resizing@@@@ABV<lambda_62f6974d9771e494a5ea317cc32e971c>@@I@Z 1003d7c4 f   libucrt:unlink.obj
 0001:0003c8af       ??R<lambda_62f6974d9771e494a5ea317cc32e971c>@@QBEHIQBDQA_WI@Z 1003d8af f   libucrt:unlink.obj
 0001:0003ce3e       ??$common_assert@D@@YAXQBD0IQAX@Z 1003de3e f   libucrt:assert.obj
 0001:0003ce80       ??$common_assert@_W@@YAXQB_W0IQAX@Z 1003de80 f   libucrt:assert.obj
 0001:0003cec2       ??$common_assert_to_message_box@D@@YAXQBD0IQAX@Z 1003dec2 f   libucrt:assert.obj
 0001:0003cf85       ??$common_assert_to_message_box@_W@@YAXQB_W0IQAX@Z 1003df85 f   libucrt:assert.obj
 0001:0003d048       ??$common_assert_to_message_box_build_string@D@@YAXQADIQBD1IQAX@Z 1003e048 f   libucrt:assert.obj
 0001:0003d61f       ??$common_assert_to_message_box_build_string@_W@@YAXQA_WIQB_W1IQAX@Z 1003e61f f   libucrt:assert.obj
 0001:0003dcad       ??$common_assert_to_stderr@D@@YAXQBD0I@Z 1003ecad f   libucrt:assert.obj
 0001:0003dd3c       ??$common_assert_to_stderr@_W@@YAXQB_W0I@Z 1003ed3c f   libucrt:assert.obj
 0001:0003e256       ?common_assert_to_stderr_direct@@YAXPBD0I@Z 1003f256 f   libucrt:assert.obj
 0001:0003e257       ?common_assert_to_stderr_direct@@YAXQB_W0I@Z 1003f257 f   libucrt:assert.obj
 0001:0003e334       ?get_assert_format@@YAPBDD@Z 1003f334 f   libucrt:assert.obj
 0001:0003e33a       ?get_assert_format@@YAPB_W_W@Z 1003f33a f   libucrt:assert.obj
 0001:0003e340       ?get_banner_text@@YAPBDD@Z 1003f340 f   libucrt:assert.obj
 0001:0003e346       ?get_banner_text@@YAPB_W_W@Z 1003f346 f   libucrt:assert.obj
 0001:0003e34c       ?get_box_intro@@YAPBDD@Z   1003f34c f   libucrt:assert.obj
 0001:0003e352       ?get_box_intro@@YAPB_W_W@Z 1003f352 f   libucrt:assert.obj
 0001:0003e358       ?get_dot_dot_dot@@YAPBDD@Z 1003f358 f   libucrt:assert.obj
 0001:0003e35e       ?get_dot_dot_dot@@YAPB_W_W@Z 1003f35e f   libucrt:assert.obj
 0001:0003e364       ?get_double_newline@@YAPBDD@Z 1003f364 f   libucrt:assert.obj
 0001:0003e36a       ?get_double_newline@@YAPB_W_W@Z 1003f36a f   libucrt:assert.obj
 0001:0003e370       ?get_expression_intro@@YAPBDD@Z 1003f370 f   libucrt:assert.obj
 0001:0003e376       ?get_expression_intro@@YAPB_W_W@Z 1003f376 f   libucrt:assert.obj
 0001:0003e37c       ?get_file_intro@@YAPBDD@Z  1003f37c f   libucrt:assert.obj
 0001:0003e382       ?get_file_intro@@YAPB_W_W@Z 1003f382 f   libucrt:assert.obj
 0001:0003e388       ?get_help_intro@@YAPBDD@Z  1003f388 f   libucrt:assert.obj
 0001:0003e38e       ?get_help_intro@@YAPB_W_W@Z 1003f38e f   libucrt:assert.obj
 0001:0003e394       ?get_info_intro@@YAPBDD@Z  1003f394 f   libucrt:assert.obj
 0001:0003e39a       ?get_info_intro@@YAPB_W_W@Z 1003f39a f   libucrt:assert.obj
 0001:0003e3a0       ?get_line_intro@@YAPBDD@Z  1003f3a0 f   libucrt:assert.obj
 0001:0003e3a6       ?get_line_intro@@YAPB_W_W@Z 1003f3a6 f   libucrt:assert.obj
 0001:0003e3ac       ?get_newline@@YAPBDD@Z     1003f3ac f   libucrt:assert.obj
 0001:0003e3b2       ?get_newline@@YAPB_W_W@Z   1003f3b2 f   libucrt:assert.obj
 0001:0003e3b8       ?get_program_intro@@YAPBDD@Z 1003f3b8 f   libucrt:assert.obj
 0001:0003e3be       ?get_program_intro@@YAPB_W_W@Z 1003f3be f   libucrt:assert.obj
 0001:0003e3c4       ?get_program_name_unknown_text@@YAPBDD@Z 1003f3c4 f   libucrt:assert.obj
 0001:0003e3ca       ?get_program_name_unknown_text@@YAPB_W_W@Z 1003f3ca f   libucrt:assert.obj
 0001:0003e537       _memcpy_s                  1003f537 f   libucrt:assert.obj
 0001:0003e613       ??$?RV<lambda_274ecf0a8038e561263518ab346655e8>@@AAV<lambda_21448eb78dd3c4a522ed7c65a98d88e6>@@V<lambda_0ca1de2171e49cefb1e8dc85c06db622>@@@?$__crt_seh_guarded_call@H@@QAEH$$QAV<lambda_274ecf0a8038e561263518ab346655e8>@@AAV<lambda_21448eb78dd3c4a522ed7c65a98d88e6>@@$$QAV<lambda_0ca1de2171e49cefb1e8dc85c06db622>@@@Z 1003f613 f   libucrt:input.obj
 0001:0003e678       ??$?RV<lambda_df226acf18ffe7c576684f1d3093a96e>@@AAV<lambda_2e1cf6ed1c07646757a0128817e0c201>@@V<lambda_b939e5933951b38cfbce0ac7ba09f070>@@@?$__crt_seh_guarded_call@H@@QAEH$$QAV<lambda_df226acf18ffe7c576684f1d3093a96e>@@AAV<lambda_2e1cf6ed1c07646757a0128817e0c201>@@$$QAV<lambda_b939e5933951b38cfbce0ac7ba09f070>@@@Z 1003f678 f   libucrt:input.obj
 0001:0003e6dd       ??$__acrt_lock_stream_and_call@V<lambda_21448eb78dd3c4a522ed7c65a98d88e6>@@@@YAHQAU_iobuf@@$$QAV<lambda_21448eb78dd3c4a522ed7c65a98d88e6>@@@Z 1003f6dd f   libucrt:input.obj
 0001:0003e70f       ??$__acrt_lock_stream_and_call@V<lambda_2e1cf6ed1c07646757a0128817e0c201>@@@@YAHQAU_iobuf@@$$QAV<lambda_2e1cf6ed1c07646757a0128817e0c201>@@@Z 1003f70f f   libucrt:input.obj
 0001:0003e8ff       ??$common_vfscanf@D@@YAH_KQAU_iobuf@@QBDQAU__crt_locale_pointers@@QAD@Z 1003f8ff f   libucrt:input.obj
 0001:0003e97e       ??$common_vfscanf@_W@@YAH_KQAU_iobuf@@QB_WQAU__crt_locale_pointers@@QAD@Z 1003f97e f   libucrt:input.obj
 0001:0003e9fd       ??$common_vsscanf@D@@YAH_KQBDI1QAU__crt_locale_pointers@@QAD@Z 1003f9fd f   libucrt:input.obj
 0001:0003eae0       ??$common_vsscanf@_W@@YAH_KQB_WI1QAU__crt_locale_pointers@@QAD@Z 1003fae0 f   libucrt:input.obj
 0001:00042e3b       $LN38                      10043e3b     libucrt:input.obj
 0001:00042fba       $LN37                      10043fba     libucrt:input.obj
 0001:00045e65       ??0<lambda_0b87716a0b73cdfba1cd37fcaaa20711>@@QAE@AAV?$input_adapter_character_source@V?$stream_input_adapter@D@__crt_stdio_input@@@__crt_strtox@@AADAA_K@Z 10046e65 f   libucrt:input.obj
 0001:00045e88       ??0<lambda_0ca1de2171e49cefb1e8dc85c06db622>@@QAE@ABQAU_iobuf@@@Z 10046e88 f   libucrt:input.obj
 0001:00045e9e       ??0<lambda_21448eb78dd3c4a522ed7c65a98d88e6>@@QAE@ABQAU__crt_locale_pointers@@ABQAU_iobuf@@AB_KABQBDABQAD@Z 10046e9e f   libucrt:input.obj
 0001:00045ed0       ??0<lambda_274ecf0a8038e561263518ab346655e8>@@QAE@ABQAU_iobuf@@@Z 10046ed0 f   libucrt:input.obj
 0001:00045ee6       ??0<lambda_2e1cf6ed1c07646757a0128817e0c201>@@QAE@ABQAU__crt_locale_pointers@@ABQAU_iobuf@@AB_KABQB_WABQAD@Z 10046ee6 f   libucrt:input.obj
 0001:00045f18       ??0<lambda_448605b25275ab87d3c5d4aa7a38a0aa>@@QAE@AAV?$input_adapter_character_source@V?$string_input_adapter@_W@__crt_stdio_input@@@__crt_strtox@@AA_WAA_K@Z 10046f18 f   libucrt:input.obj
 0001:00045f3b       ??0<lambda_46698efe93618fff5274d84d009d2be1>@@QAE@AAV?$input_adapter_character_source@V?$stream_input_adapter@_W@__crt_stdio_input@@@__crt_strtox@@AA_WAA_K@Z 10046f3b f   libucrt:input.obj
 0001:00045f5e       ??0<lambda_5f3f4d49f9676d963a9a63518de6904a>@@QAE@AAV?$input_adapter_character_source@V?$stream_input_adapter@_W@__crt_stdio_input@@@__crt_strtox@@AA_WAA_K@Z 10046f5e f   libucrt:input.obj
 0001:00045f81       ??0<lambda_644f8ab42ed3fd1d660977a2364b3a7d>@@QAE@AAV?$input_adapter_character_source@V?$string_input_adapter@D@__crt_stdio_input@@@__crt_strtox@@AADAA_K@Z 10046f81 f   libucrt:input.obj
 0001:00045fa4       ??0<lambda_b939e5933951b38cfbce0ac7ba09f070>@@QAE@ABQAU_iobuf@@@Z 10046fa4 f   libucrt:input.obj
 0001:00045fba       ??0<lambda_c7c3f778895f47e7f4eff38a8fef279a>@@QAE@AAV?$input_adapter_character_source@V?$stream_input_adapter@D@__crt_stdio_input@@@__crt_strtox@@AADAA_K@Z 10046fba f   libucrt:input.obj
 0001:00045fdd       ??0<lambda_cbb29514201643ebc3996c8b1c7ae90c>@@QAE@AAV?$input_adapter_character_source@V?$stream_input_adapter@_W@__crt_stdio_input@@@__crt_strtox@@AA_WAA_K@Z 10046fdd f   libucrt:input.obj
 0001:00046000       ??0<lambda_df226acf18ffe7c576684f1d3093a96e>@@QAE@ABQAU_iobuf@@@Z 10047000 f   libucrt:input.obj
 0001:00046016       ??0<lambda_e41f1170c8800e4a6fed1afad60fab6f>@@QAE@AAV?$input_adapter_character_source@V?$stream_input_adapter@D@__crt_stdio_input@@@__crt_strtox@@AADAA_K@Z 10047016 f   libucrt:input.obj
 0001:00046039       ??0<lambda_e5165159ec566db3a71156c9b71536ca>@@QAE@AAV?$input_adapter_character_source@V?$string_input_adapter@_W@__crt_stdio_input@@@__crt_strtox@@AA_WAA_K@Z 10047039 f   libucrt:input.obj
 0001:0004605c       ??0<lambda_f1fa4c266c18b246f3ed9c36247dab4f>@@QAE@AAV?$input_adapter_character_source@V?$string_input_adapter@D@__crt_stdio_input@@@__crt_strtox@@AADAA_K@Z 1004705c f   libucrt:input.obj
 0001:0004607f       ??0<lambda_f765c90ab33e8386abf09c0f079d37e9>@@QAE@AAV?$input_adapter_character_source@V?$string_input_adapter@D@__crt_stdio_input@@@__crt_strtox@@AADAA_K@Z 1004707f f   libucrt:input.obj
 0001:000460a2       ??0<lambda_fd76cae15b6f790020ebaa7b78a868c2>@@QAE@AAV?$input_adapter_character_source@V?$string_input_adapter@_W@__crt_stdio_input@@@__crt_strtox@@AA_WAA_K@Z 100470a2 f   libucrt:input.obj
 0001:000466e8       ??R<lambda_0b87716a0b73cdfba1cd37fcaaa20711>@@QBE_NXZ 100476e8 f   libucrt:input.obj
 0001:0004671c       ??R<lambda_0ca1de2171e49cefb1e8dc85c06db622>@@QBEXXZ 1004771c f   libucrt:input.obj
 0001:00046727       ??R<lambda_21448eb78dd3c4a522ed7c65a98d88e6>@@QBEHXZ 10047727 f   libucrt:input.obj
 0001:000467c9       ??R<lambda_274ecf0a8038e561263518ab346655e8>@@QBEXXZ 100477c9 f   libucrt:input.obj
 0001:000467d4       ??R<lambda_2e1cf6ed1c07646757a0128817e0c201>@@QBEHXZ 100477d4 f   libucrt:input.obj
 0001:00046863       ??R<lambda_448605b25275ab87d3c5d4aa7a38a0aa>@@QBE_NXZ 10047863 f   libucrt:input.obj
 0001:0004689a       ??R<lambda_46698efe93618fff5274d84d009d2be1>@@QBE_NXZ 1004789a f   libucrt:input.obj
 0001:000468d1       ??R<lambda_5f3f4d49f9676d963a9a63518de6904a>@@QBE_NXZ 100478d1 f   libucrt:input.obj
 0001:00046908       ??R<lambda_644f8ab42ed3fd1d660977a2364b3a7d>@@QBE_NXZ 10047908 f   libucrt:input.obj
 0001:0004693c       ??R<lambda_b939e5933951b38cfbce0ac7ba09f070>@@QBEXXZ 1004793c f   libucrt:input.obj
 0001:00046947       ??R<lambda_c7c3f778895f47e7f4eff38a8fef279a>@@QBE_NXZ 10047947 f   libucrt:input.obj
 0001:0004697b       ??R<lambda_cbb29514201643ebc3996c8b1c7ae90c>@@QBE_NXZ 1004797b f   libucrt:input.obj
 0001:000469b2       ??R<lambda_df226acf18ffe7c576684f1d3093a96e>@@QBEXXZ 100479b2 f   libucrt:input.obj
 0001:000469bd       ??R<lambda_e41f1170c8800e4a6fed1afad60fab6f>@@QBE_NXZ 100479bd f   libucrt:input.obj
 0001:000469f1       ??R<lambda_e5165159ec566db3a71156c9b71536ca>@@QBE_NXZ 100479f1 f   libucrt:input.obj
 0001:00046a28       ??R<lambda_f1fa4c266c18b246f3ed9c36247dab4f>@@QBE_NXZ 10047a28 f   libucrt:input.obj
 0001:00046a5c       ??R<lambda_f765c90ab33e8386abf09c0f079d37e9>@@QBE_NXZ 10047a5c f   libucrt:input.obj
 0001:00046a90       ??R<lambda_fd76cae15b6f790020ebaa7b78a868c2>@@QBE_NXZ 10047a90 f   libucrt:input.obj
 0001:0004c239       $LN22                      1004d239     libucrt:input.obj
 0001:0004c2ca       $LN22                      1004d2ca     libucrt:input.obj
 0001:0004c35b       $LN22                      1004d35b     libucrt:input.obj
 0001:0004c3ec       $LN22                      1004d3ec     libucrt:input.obj
 0001:0004e157       $LN18                      1004f157     libucrt:input.obj
 0001:0004eecc       _memcpy_s                  1004fecc f   libucrt:input.obj
 0001:0004f1c9       __get_fname                100501c9 f   libucrt:fpexcept.obj
 0001:0004fa46       ?xcptlookup@@YAPAU__crt_signal_action_t@@KQAU1@@Z 10050a46 f   libucrt:exception_filter.obj
 0001:0004fc86       ??$common_configure_argv@D@@YAHW4_crt_argv_mode@@@Z 10050c86 f   libucrt:argv_parsing.obj
 0001:0004fe0c       ??$common_configure_argv@_W@@YAHW4_crt_argv_mode@@@Z 10050e0c f   libucrt:argv_parsing.obj
 0001:0004ffcc       ??$parse_command_line@D@@YAXPADPAPAD0PAI2@Z 10050fcc f   libucrt:argv_parsing.obj
 0001:000501a3       ??$parse_command_line@_W@@YAXPA_WPAPA_W0PAI2@Z 100511a3 f   libucrt:argv_parsing.obj
 0001:000503c9       ??0<lambda_a36aafc41185bea294aaaa3896c79ecc>@@QAE@AAV?$__crt_unique_heap_ptr@PA_WU__crt_internal_free_policy@@@@@Z 100513c9 f   libucrt:argv_parsing.obj
 0001:000503dd       ??0<lambda_df1553121bfa390f1154bd84936f2730>@@QAE@AAV?$__crt_unique_heap_ptr@PADU__crt_internal_free_policy@@@@@Z 100513dd f   libucrt:argv_parsing.obj
 0001:00050445       ??R<lambda_a36aafc41185bea294aaaa3896c79ecc>@@QBEHXZ 10051445 f   libucrt:argv_parsing.obj
 0001:00050460       ??R<lambda_df1553121bfa390f1154bd84936f2730>@@QBEHXZ 10051460 f   libucrt:argv_parsing.obj
 0001:0005048d       ?do_locale_initialization@@YAXD@Z 1005148d f   libucrt:argv_parsing.obj
 0001:00050492       ?do_locale_initialization@@YAX_W@Z 10051492 f   libucrt:argv_parsing.obj
 0001:00050493       ?expand_argv_wildcards@@YAHQAPADQAPAPAD@Z 10051493 f   libucrt:argv_parsing.obj
 0001:000504a0       ?expand_argv_wildcards@@YAHQAPA_WQAPAPA_W@Z 100514a0 f   libucrt:argv_parsing.obj
 0001:000504b9       ?get_argv@@YAAAPAPADD@Z    100514b9 f   libucrt:argv_parsing.obj
 0001:000504bf       ?get_argv@@YAAAPAPA_W_W@Z  100514bf f   libucrt:argv_parsing.obj
 0001:000504c5       ?get_command_line@@YAPADD@Z 100514c5 f   libucrt:argv_parsing.obj
 0001:000504cb       ?get_command_line@@YAPA_W_W@Z 100514cb f   libucrt:argv_parsing.obj
 0001:000504fd       ?should_copy_another_character@@YA_ND@Z 100514fd f   libucrt:argv_parsing.obj
 0001:00050519       ?should_copy_another_character@@YA_N_W@Z 10051519 f   libucrt:argv_parsing.obj
 0001:000505d2       ??$common_get_initial_environment@D@@YAPAPADXZ 100515d2 f   libucrt:environment_initialization.obj
 0001:000505eb       ??$common_get_initial_environment@_W@@YAPAPA_WXZ 100515eb f   libucrt:environment_initialization.obj
 0001:00050604       ??$common_get_or_create_environment_nolock@D@@YAPAPADXZ 10051604 f   libucrt:environment_initialization.obj
 0001:0005063b       ??$common_get_or_create_environment_nolock@_W@@YAPAPA_WXZ 1005163b f   libucrt:environment_initialization.obj
 0001:00050672       ??$common_initialize_environment_nolock@D@@YAHXZ 10051672 f   libucrt:environment_initialization.obj
 0001:000506d9       ??$common_initialize_environment_nolock@_W@@YAHXZ 100516d9 f   libucrt:environment_initialization.obj
 0001:0005073a       ??$count_variables_in_environment_block@D@@YA?BIQAD@Z 1005173a f   libucrt:environment_initialization.obj
 0001:0005077b       ??$count_variables_in_environment_block@_W@@YA?BIQA_W@Z 1005177b f   libucrt:environment_initialization.obj
 0001:000507d6       ??$create_environment@D@@YAQAPADQAD@Z 100517d6 f   libucrt:environment_initialization.obj
 0001:000508dc       ??$create_environment@_W@@YAQAPA_WQA_W@Z 100518dc f   libucrt:environment_initialization.obj
 0001:00050a2e       ??$free_environment@D@@YAXQAPAD@Z 10051a2e f   libucrt:environment_initialization.obj
 0001:00050a68       ??$free_environment@_W@@YAXQAPA_W@Z 10051a68 f   libucrt:environment_initialization.obj
 0001:00050aac       ??$initialize_environment_by_cloning_nolock@D@@YAHXZ 10051aac f   libucrt:environment_initialization.obj
 0001:00050b56       ??$initialize_environment_by_cloning_nolock@_W@@YAHXZ 10051b56 f   libucrt:environment_initialization.obj
 0001:00050d61       ??$uninitialize_environment_internal@D@@YAXAAPAPAD@Z 10051d61 f   libucrt:environment_initialization.obj
 0001:00050d82       ??$uninitialize_environment_internal@_W@@YAXAAPAPA_W@Z 10051d82 f   libucrt:environment_initialization.obj
 0001:00050e8c       ?get_dual_state_environment_nolock@@YAAAV?$dual_state_global@PAPAD@__crt_state_management@@D@Z 10051e8c f   libucrt:environment_initialization.obj
 0001:00050e92       ?get_dual_state_environment_nolock@@YAAAV?$dual_state_global@PAPA_W@__crt_state_management@@_W@Z 10051e92 f   libucrt:environment_initialization.obj
 0001:00050e98       ?get_environment_nolock@@YAAAPAPADD@Z 10051e98 f   libucrt:environment_initialization.obj
 0001:00050e9e       ?get_environment_nolock@@YAAAPAPA_W_W@Z 10051e9e f   libucrt:environment_initialization.obj
 0001:00050ea4       ?get_initial_environment@@YAAAPAPADD@Z 10051ea4 f   libucrt:environment_initialization.obj
 0001:00050eaa       ?get_initial_environment@@YAAAPAPA_W_W@Z 10051eaa f   libucrt:environment_initialization.obj
 0001:00050f23       ?pre_initialize@@YAXD@Z    10051f23 f   libucrt:environment_initialization.obj
 0001:00050f28       ?pre_initialize@@YAX_W@Z   10051f28 f   libucrt:environment_initialization.obj
 0001:0005100f       ??$?RV<lambda_69a2805e680e0e292e8ba93315fe43a8>@@AAV<lambda_f03950bc5685219e0bcd2087efbe011e>@@V<lambda_03fcd07e894ec930e3f35da366ca99d6>@@@?$__crt_seh_guarded_call@H@@QAEH$$QAV<lambda_69a2805e680e0e292e8ba93315fe43a8>@@AAV<lambda_f03950bc5685219e0bcd2087efbe011e>@@$$QAV<lambda_03fcd07e894ec930e3f35da366ca99d6>@@@Z 1005200f f   libucrt:onexit.obj
 0001:00051074       ??$?RV<lambda_7ac4055421038abea736e08bd20712a4>@@AAV<lambda_a10e4b102d4a2c3aac6f4f48bbdf488f>@@V<lambda_1da61822885009acd1bf848af4f9644b>@@@?$__crt_seh_guarded_call@H@@QAEH$$QAV<lambda_7ac4055421038abea736e08bd20712a4>@@AAV<lambda_a10e4b102d4a2c3aac6f4f48bbdf488f>@@$$QAV<lambda_1da61822885009acd1bf848af4f9644b>@@@Z 10052074 f   libucrt:onexit.obj
 0001:000510d9       ??$__acrt_lock_and_call@V<lambda_a10e4b102d4a2c3aac6f4f48bbdf488f>@@@@YAHW4__acrt_lock_id@@$$QAV<lambda_a10e4b102d4a2c3aac6f4f48bbdf488f>@@@Z 100520d9 f   libucrt:onexit.obj
 0001:0005110b       ??$__acrt_lock_and_call@V<lambda_f03950bc5685219e0bcd2087efbe011e>@@@@YAHW4__acrt_lock_id@@$$QAV<lambda_f03950bc5685219e0bcd2087efbe011e>@@@Z 1005210b f   libucrt:onexit.obj
 0001:00051163       ??0<lambda_03fcd07e894ec930e3f35da366ca99d6>@@QAE@ABW4__acrt_lock_id@@@Z 10052163 f   libucrt:onexit.obj
 0001:00051179       ??0<lambda_1da61822885009acd1bf848af4f9644b>@@QAE@ABW4__acrt_lock_id@@@Z 10052179 f   libucrt:onexit.obj
 0001:0005118f       ??0<lambda_69a2805e680e0e292e8ba93315fe43a8>@@QAE@ABW4__acrt_lock_id@@@Z 1005218f f   libucrt:onexit.obj
 0001:000511a5       ??0<lambda_7ac4055421038abea736e08bd20712a4>@@QAE@ABW4__acrt_lock_id@@@Z 100521a5 f   libucrt:onexit.obj
 0001:000511bb       ??0<lambda_a10e4b102d4a2c3aac6f4f48bbdf488f>@@QAE@ABQAU_onexit_table_t@@ABQ6AHXZ@Z 100521bb f   libucrt:onexit.obj
 0001:000511d6       ??0<lambda_f03950bc5685219e0bcd2087efbe011e>@@QAE@ABQAU_onexit_table_t@@@Z 100521d6 f   libucrt:onexit.obj
 0001:00051215       ??R<lambda_03fcd07e894ec930e3f35da366ca99d6>@@QBEXXZ 10052215 f   libucrt:onexit.obj
 0001:00051220       ??R<lambda_1da61822885009acd1bf848af4f9644b>@@QBEXXZ 10052220 f   libucrt:onexit.obj
 0001:0005122b       ??R<lambda_69a2805e680e0e292e8ba93315fe43a8>@@QBEXXZ 1005222b f   libucrt:onexit.obj
 0001:00051236       ??R<lambda_7ac4055421038abea736e08bd20712a4>@@QBEXXZ 10052236 f   libucrt:onexit.obj
 0001:00051241       ??R<lambda_a10e4b102d4a2c3aac6f4f48bbdf488f>@@QBEHXZ 10052241 f   libucrt:onexit.obj
 0001:000513d2       ??R<lambda_f03950bc5685219e0bcd2087efbe011e>@@QBEHXZ 100523d2 f   libucrt:onexit.obj
 0001:00051659       _initialize_global_variables 10052659 f   libucrt:initialization.obj
 0001:00051669       _initialize_c              10052669 f   libucrt:initialization.obj
 0001:00051689       _uninitialize_c            10052689 f   libucrt:initialization.obj
 0001:0005168c       _initialize_environment    1005268c f   libucrt:initialization.obj
 0001:0005168f       _uninitialize_environment  1005268f f   libucrt:initialization.obj
 0001:00051699       _initialize_global_state_isolation 10052699 f   libucrt:initialization.obj
 0001:0005169c       _uninitialize_global_state_isolation 1005269c f   libucrt:initialization.obj
 0001:0005169f       _initialize_pointers       1005269f f   libucrt:initialization.obj
 0001:000516eb       _uninitialize_vcruntime    100526eb f   libucrt:initialization.obj
 0001:000516f6       _uninitialize_allocated_memory 100526f6 f   libucrt:initialization.obj
 0001:00051715       _uninitialize_allocated_io_buffers 10052715 f   libucrt:initialization.obj
 0001:00051779       _report_memory_leaks       10052779 f   libucrt:initialization.obj
 0001:0005177c       ??$uninitialize@V<lambda_af42a3ee9806e9a7305d451646e05244>@@@?$dual_state_global@PAU__crt_multibyte_data@@@__crt_state_management@@QAEX$$QAV<lambda_af42a3ee9806e9a7305d451646e05244>@@@Z 1005277c f   libucrt:initialization.obj
 0001:000517a9       ??R<lambda_af42a3ee9806e9a7305d451646e05244>@@QBEXAAPAU__crt_multibyte_data@@@Z 100527a9 f   libucrt:initialization.obj
 0001:0005189d       ?get_terminate_or_default@@YAP6AXXZQBU__acrt_ptd@@@Z 1005289d f   libucrt:terminate.obj
 0001:00051941       ??$common_tcscpy_s@D@@YAHQADIQBD@Z 10052941 f   libucrt:strcpy_s.obj
 0001:00053670       $$000000                   10054670     libucrt:strncmp.obj
 0001:0005382d       ?select_heap@@YAPAXQAX@Z   1005482d f   libucrt:free_base.obj
 0001:00053dde       ?<lambda_invoker_stdcall>@<lambda_29d3c280b90b41c2ae070ffca879996a>@@CGHPA_W@Z 10054dde f   libucrt:winapi_thunks.obj
 0001:00053e0c       ??$?RV<lambda_93797fb4802c957ba6a7f08e1250235b>@@AAV<lambda_1f3ce6bd48e0aa2e72a71c02eee379d3>@@V<lambda_56cae30c9364c9b6c15aeaac05d0418e>@@@?$__crt_seh_guarded_call@H@@QAEH$$QAV<lambda_93797fb4802c957ba6a7f08e1250235b>@@AAV<lambda_1f3ce6bd48e0aa2e72a71c02eee379d3>@@$$QAV<lambda_56cae30c9364c9b6c15aeaac05d0418e>@@@Z 10054e0c f   libucrt:winapi_thunks.obj
 0001:00053eb6       ??$__acrt_lock_and_call@V<lambda_1f3ce6bd48e0aa2e72a71c02eee379d3>@@@@YAHW4__acrt_lock_id@@$$QAV<lambda_1f3ce6bd48e0aa2e72a71c02eee379d3>@@@Z 10054eb6 f   libucrt:winapi_thunks.obj
 0001:00053f29       ??0<lambda_1f3ce6bd48e0aa2e72a71c02eee379d3>@@QAE@ABQ6GHPA_WKJ@Z@Z 10054f29 f   libucrt:winapi_thunks.obj
 0001:00053f3d       ??0<lambda_56cae30c9364c9b6c15aeaac05d0418e>@@QAE@ABW4__acrt_lock_id@@@Z 10054f3d f   libucrt:winapi_thunks.obj
 0001:00053f53       ??0<lambda_93797fb4802c957ba6a7f08e1250235b>@@QAE@ABW4__acrt_lock_id@@@Z 10054f53 f   libucrt:winapi_thunks.obj
 0001:00053f69       ??B<lambda_29d3c280b90b41c2ae070ffca879996a>@@QBEP6GHPA_W@ZXZ 10054f69 f   libucrt:winapi_thunks.obj
 0001:00053f6f       ??R<lambda_1f3ce6bd48e0aa2e72a71c02eee379d3>@@QBEHXZ 10054f6f f   libucrt:winapi_thunks.obj
 0001:00053fb8       ??R<lambda_29d3c280b90b41c2ae070ffca879996a>@@QBEHPA_W@Z 10054fb8 f   libucrt:winapi_thunks.obj
 0001:0005400f       ??R<lambda_56cae30c9364c9b6c15aeaac05d0418e>@@QBEXXZ 1005500f f   libucrt:winapi_thunks.obj
 0001:0005401a       ??R<lambda_93797fb4802c957ba6a7f08e1250235b>@@QBEXXZ 1005501a f   libucrt:winapi_thunks.obj
 0001:00054025       ?enum_system_locales_ex_nolock@@YAHQ6GHPA_WKJ@Z@Z 10055025 f   libucrt:winapi_thunks.obj
 0001:00054075       ?invalid_function_sentinel@@YAPAXXZ 10055075 f   libucrt:winapi_thunks.obj
 0001:00054079       ?try_get_AppPolicyGetProcessTerminationMethod@@YAP6GJPAXPAW4AppPolicyProcessTerminationMethod@@@ZXZ 10055079 f   libucrt:winapi_thunks.obj
 0001:00054099       ?try_get_AppPolicyGetShowDeveloperDiagnostic@@YAP6GJPAXPAW4AppPolicyShowDeveloperDiagnostic@@@ZXZ 10055099 f   libucrt:winapi_thunks.obj
 0001:000540b9       ?try_get_AppPolicyGetThreadInitializationType@@YAP6GJPAXPAW4AppPolicyThreadInitializationType@@@ZXZ 100550b9 f   libucrt:winapi_thunks.obj
 0001:000540d9       ?try_get_AppPolicyGetWindowingModel@@YAP6GJPAXPAW4AppPolicyWindowingModel@@@ZXZ 100550d9 f   libucrt:winapi_thunks.obj
 0001:000540f9       ?try_get_AreFileApisANSI@@YAP6GHXZXZ 100550f9 f   libucrt:winapi_thunks.obj
 0001:00054119       ?try_get_CompareStringEx@@YAP6GHPB_WK0H0HPAU_nlsversioninfo@@PAXJ@ZXZ 10055119 f   libucrt:winapi_thunks.obj
 0001:00054139       ?try_get_EnumSystemLocalesEx@@YAP6GHP6GHPA_WKJ@ZKJPAX@ZXZ 10055139 f   libucrt:winapi_thunks.obj
 0001:00054159       ?try_get_FlsAlloc@@YAP6GKP6GXPAX@Z@ZXZ 10055159 f   libucrt:winapi_thunks.obj
 0001:00054179       ?try_get_FlsFree@@YAP6GHK@ZXZ 10055179 f   libucrt:winapi_thunks.obj
 0001:00054199       ?try_get_FlsGetValue@@YAP6GPAXK@ZXZ 10055199 f   libucrt:winapi_thunks.obj
 0001:000541b9       ?try_get_FlsSetValue@@YAP6GHKPAX@ZXZ 100551b9 f   libucrt:winapi_thunks.obj
 0001:000541d9       ?try_get_GetActiveWindow@@YAP6GPAUHWND__@@XZXZ 100551d9 f   libucrt:winapi_thunks.obj
 0001:000541f9       ?try_get_GetDateFormatEx@@YAP6GHPB_WKPBU_SYSTEMTIME@@0PA_WH0@ZXZ 100551f9 f   libucrt:winapi_thunks.obj
 0001:00054219       ?try_get_GetEnabledXStateFeatures@@YAP6G_KXZXZ 10055219 f   libucrt:winapi_thunks.obj
 0001:00054239       ?try_get_GetLastActivePopup@@YAP6GPAUHWND__@@PAU1@@ZXZ 10055239 f   libucrt:winapi_thunks.obj
 0001:00054259       ?try_get_GetLocaleInfoEx@@YAP6GHPB_WKPA_WH@ZXZ 10055259 f   libucrt:winapi_thunks.obj
 0001:00054279       ?try_get_GetProcessWindowStation@@YAP6GPAUHWINSTA__@@XZXZ 10055279 f   libucrt:winapi_thunks.obj
 0001:00054299       ?try_get_GetSystemTimePreciseAsFileTime@@YAP6GXPAU_FILETIME@@@ZXZ 10055299 f   libucrt:winapi_thunks.obj
 0001:000542b9       ?try_get_GetTimeFormatEx@@YAP6GHPB_WKPBU_SYSTEMTIME@@0PA_WH@ZXZ 100552b9 f   libucrt:winapi_thunks.obj
 0001:000542d9       ?try_get_GetUserDefaultLocaleName@@YAP6GHPA_WH@ZXZ 100552d9 f   libucrt:winapi_thunks.obj
 0001:000542f9       ?try_get_GetUserObjectInformationW@@YAP6GHPAXH0KPAK@ZXZ 100552f9 f   libucrt:winapi_thunks.obj
 0001:00054319       ?try_get_GetXStateFeaturesMask@@YAP6GHPAU_CONTEXT@@PA_K@ZXZ 10055319 f   libucrt:winapi_thunks.obj
 0001:00054339       ?try_get_InitializeCriticalSectionEx@@YAP6GHPAU_RTL_CRITICAL_SECTION@@KK@ZXZ 10055339 f   libucrt:winapi_thunks.obj
 0001:00054359       ?try_get_IsValidLocaleName@@YAP6GHPB_W@ZXZ 10055359 f   libucrt:winapi_thunks.obj
 0001:00054379       ?try_get_LCIDToLocaleName@@YAP6GHKPA_WHK@ZXZ 10055379 f   libucrt:winapi_thunks.obj
 0001:00054399       ?try_get_LCMapStringEx@@YAP6GHPB_WK0HPA_WHPAU_nlsversioninfo@@PAXJ@ZXZ 10055399 f   libucrt:winapi_thunks.obj
 0001:000543b9       ?try_get_LocaleNameToLCID@@YAP6GKPB_WK@ZXZ 100553b9 f   libucrt:winapi_thunks.obj
 0001:000543d9       ?try_get_LocateXStateFeature@@YAP6GPAXPAU_CONTEXT@@KPAK@ZXZ 100553d9 f   libucrt:winapi_thunks.obj
 0001:000543f9       ?try_get_MessageBoxA@@YAP6GHPAUHWND__@@PBD1I@ZXZ 100553f9 f   libucrt:winapi_thunks.obj
 0001:00054419       ?try_get_MessageBoxW@@YAP6GHPAUHWND__@@PB_W1I@ZXZ 10055419 f   libucrt:winapi_thunks.obj
 0001:00054439       ?try_get_RoInitialize@@YAP6GJW4RO_INIT_TYPE@@@ZXZ 10055439 f   libucrt:winapi_thunks.obj
 0001:00054459       ?try_get_RoUninitialize@@YAP6GXXZXZ 10055459 f   libucrt:winapi_thunks.obj
 0001:00054479       ?try_get_SetThreadStackGuarantee@@YAP6GHPAK@ZXZ 10055479 f   libucrt:winapi_thunks.obj
 0001:00054499       ?try_get_SystemFunction036@@YAP6GEPAXK@ZXZ 10055499 f   libucrt:winapi_thunks.obj
 0001:000544b9       ?try_get_first_available_module@@YAPAUHINSTANCE__@@QBW4module_id@?A0x391cf84c@@0@Z 100554b9 f   libucrt:winapi_thunks.obj
 0001:000545b3       ?try_get_function@@YAPAXW4function_id@?A0x391cf84c@@QBDQBW4module_id@2@2@Z 100555b3 f   libucrt:winapi_thunks.obj
 0001:00054655       ?try_get_module@@YAPAUHINSTANCE__@@W4module_id@?A0x391cf84c@@@Z 10055655 f   libucrt:winapi_thunks.obj
 0001:000546ba       ?try_get_proc_address_from_first_available_module@@YAPAXQBDQBW4module_id@?A0x391cf84c@@1@Z 100556ba f   libucrt:winapi_thunks.obj
 0001:000546e7       ?try_load_library_from_system_directory@@YAPAUHINSTANCE__@@QB_W@Z 100556e7 f   libucrt:winapi_thunks.obj
 0001:00055761       ??$?RV<lambda_2866be3712abc81a800a822484c830d8>@@AAV<lambda_39ca0ed439415581b5b15c265174cece>@@V<lambda_2b24c74d71094a6cd0cb82e44167d71b>@@@?$__crt_seh_guarded_call@X@@QAEX$$QAV<lambda_2866be3712abc81a800a822484c830d8>@@AAV<lambda_39ca0ed439415581b5b15c265174cece>@@$$QAV<lambda_2b24c74d71094a6cd0cb82e44167d71b>@@@Z 10056761 f   libucrt:fflush.obj
 0001:00055802       ??$?RV<lambda_2cc53f568c5a2bb6f192f930a45d44ea>@@AAV<lambda_ab61a845afdef5b7c387490eaf3616ee>@@V<lambda_c2ffc0b7726aa6be21d5f0026187e748>@@@?$__crt_seh_guarded_call@X@@QAEX$$QAV<lambda_2cc53f568c5a2bb6f192f930a45d44ea>@@AAV<lambda_ab61a845afdef5b7c387490eaf3616ee>@@$$QAV<lambda_c2ffc0b7726aa6be21d5f0026187e748>@@@Z 10056802 f   libucrt:fflush.obj
 0001:000558cc       ??$?RV<lambda_6d20deecaf4856105ebacbad442d1079>@@AAV<lambda_9a32fed5bf61b6b509b2d3f6003082a1>@@V<lambda_63ea2239ed67c638ddbae41947fdf875>@@@?$__crt_seh_guarded_call@H@@QAEH$$QAV<lambda_6d20deecaf4856105ebacbad442d1079>@@AAV<lambda_9a32fed5bf61b6b509b2d3f6003082a1>@@$$QAV<lambda_63ea2239ed67c638ddbae41947fdf875>@@@Z 100568cc f   libucrt:fflush.obj
 0001:00055937       ??$__acrt_lock_and_call@V<lambda_ab61a845afdef5b7c387490eaf3616ee>@@@@YAXW4__acrt_lock_id@@$$QAV<lambda_ab61a845afdef5b7c387490eaf3616ee>@@@Z 10056937 f   libucrt:fflush.obj
 0001:00055969       ??$__acrt_lock_stream_and_call@V<lambda_39ca0ed439415581b5b15c265174cece>@@@@YAXQAU_iobuf@@$$QAV<lambda_39ca0ed439415581b5b15c265174cece>@@@Z 10056969 f   libucrt:fflush.obj
 0001:0005599b       ??$__acrt_lock_stream_and_call@V<lambda_9a32fed5bf61b6b509b2d3f6003082a1>@@@@YAHQAU_iobuf@@$$QAV<lambda_9a32fed5bf61b6b509b2d3f6003082a1>@@@Z 1005699b f   libucrt:fflush.obj
 0001:000559cd       ??0<lambda_2866be3712abc81a800a822484c830d8>@@QAE@ABQAU_iobuf@@@Z 100569cd f   libucrt:fflush.obj
 0001:000559e3       ??0<lambda_2b24c74d71094a6cd0cb82e44167d71b>@@QAE@ABQAU_iobuf@@@Z 100569e3 f   libucrt:fflush.obj
 0001:000559f9       ??0<lambda_2cc53f568c5a2bb6f192f930a45d44ea>@@QAE@ABW4__acrt_lock_id@@@Z 100569f9 f   libucrt:fflush.obj
 0001:00055a0f       ??0<lambda_39ca0ed439415581b5b15c265174cece>@@QAE@ABV__crt_stdio_stream@@AAHAB_N1@Z 10056a0f f   libucrt:fflush.obj
 0001:00055a39       ??0<lambda_63ea2239ed67c638ddbae41947fdf875>@@QAE@ABQAU_iobuf@@@Z 10056a39 f   libucrt:fflush.obj
 0001:00055a4f       ??0<lambda_6d20deecaf4856105ebacbad442d1079>@@QAE@ABQAU_iobuf@@@Z 10056a4f f   libucrt:fflush.obj
 0001:00055a65       ??0<lambda_9a32fed5bf61b6b509b2d3f6003082a1>@@QAE@ABV__crt_stdio_stream@@@Z 10056a65 f   libucrt:fflush.obj
 0001:00055a79       ??0<lambda_ab61a845afdef5b7c387490eaf3616ee>@@QAE@AAHAB_N0@Z 10056a79 f   libucrt:fflush.obj
 0001:00055a9c       ??0<lambda_c2ffc0b7726aa6be21d5f0026187e748>@@QAE@ABW4__acrt_lock_id@@@Z 10056a9c f   libucrt:fflush.obj
 0001:00055ab2       ??R<lambda_2866be3712abc81a800a822484c830d8>@@QBEXXZ 10056ab2 f   libucrt:fflush.obj
 0001:00055abd       ??R<lambda_2b24c74d71094a6cd0cb82e44167d71b>@@QBEXXZ 10056abd f   libucrt:fflush.obj
 0001:00055ac8       ??R<lambda_2cc53f568c5a2bb6f192f930a45d44ea>@@QBEXXZ 10056ac8 f   libucrt:fflush.obj
 0001:00055ad3       ??R<lambda_39ca0ed439415581b5b15c265174cece>@@QBEXXZ 10056ad3 f   libucrt:fflush.obj
 0001:00055b2f       ??R<lambda_63ea2239ed67c638ddbae41947fdf875>@@QBEXXZ 10056b2f f   libucrt:fflush.obj
 0001:00055b3a       ??R<lambda_6d20deecaf4856105ebacbad442d1079>@@QBEXXZ 10056b3a f   libucrt:fflush.obj
 0001:00055b45       ??R<lambda_9a32fed5bf61b6b509b2d3f6003082a1>@@QBEHXZ 10056b45 f   libucrt:fflush.obj
 0001:00055b52       ??R<lambda_ab61a845afdef5b7c387490eaf3616ee>@@QBE@XZ 10056b52 f   libucrt:fflush.obj
 0001:00055bfe       ??R<lambda_c2ffc0b7726aa6be21d5f0026187e748>@@QBEXXZ 10056bfe f   libucrt:fflush.obj
 0001:00055c09       ?common_flush_all@@YAH_N@Z 10056c09 f   libucrt:fflush.obj
 0001:00055c6b       ?common_flush_all_should_try_to_flush_stream@@YA_NV__crt_stdio_stream@@QAH@Z 10056c6b f   libucrt:fflush.obj
 0001:00055ca9       ?is_stream_allocated@@YA_NJ@Z 10056ca9 f   libucrt:fflush.obj
 0001:00055cbb       ?is_stream_flushable@@YA_NJ@Z 10056cbb f   libucrt:fflush.obj
 0001:00055cdc       ?is_stream_flushable_or_commitable@@YA_NJ@Z 10056cdc f   libucrt:fflush.obj
 0001:00055ea8       ?get_std_handle_id@@YAKH@Z 10056ea8 f   libucrt:ioinit.obj
 0001:00055ed2       ?initialize_inherited_file_handles_nolock@@YAXXZ 10056ed2 f   libucrt:ioinit.obj
 0001:00055fb8       ?initialize_stdio_handles_nolock@@YAXXZ 10056fb8 f   libucrt:ioinit.obj
 0001:0005613b       ?fast_check@@YAHHH@Z       1005713b f   libucrt:_ctype.obj
 0001:00056851       ??$common_tox_l@$1?internal_islower_l@@YA_NHQAU__crt_locale_pointers@@@Z$1?internal_map_upper@@YAHH0@Z@@YAHHKQAU__crt_locale_pointers@@@Z 10057851 f   libucrt:tolower_toupper.obj
 0001:000569ed       ??$common_tox_l@$1?internal_isupper_l@@YA_NHQAU__crt_locale_pointers@@@Z$1?internal_map_lower@@YAHH0@Z@@YAHHKQAU__crt_locale_pointers@@@Z 100579ed f   libucrt:tolower_toupper.obj
 0001:00056b89       ?internal_islower_l@@YA_NHQAU__crt_locale_pointers@@@Z 10057b89 f   libucrt:tolower_toupper.obj
 0001:00056bac       ?internal_isupper_l@@YA_NHQAU__crt_locale_pointers@@@Z 10057bac f   libucrt:tolower_toupper.obj
 0001:00056bcf       ?internal_map_lower@@YAHHQAU__crt_locale_pointers@@@Z 10057bcf f   libucrt:tolower_toupper.obj
 0001:00056bee       ?internal_map_upper@@YAHHQAU__crt_locale_pointers@@@Z 10057bee f   libucrt:tolower_toupper.obj
 0001:000579c3       ??$common_strnlen@$00G@@YAIQBGI@Z 100589c3 f   libucrt:strnlen.obj
 0001:00057b46       ??$common_strnlen@$0A@E@@YAIQBEI@Z 10058b46 f   libucrt:strnlen.obj
 0001:00057cab       ??$common_strnlen@$0A@G@@YAIQBGI@Z 10058cab f   libucrt:strnlen.obj
 0001:00057ebe       ??$common_strnlen_c@$00G@@YAIQBGI@Z 10058ebe f   libucrt:strnlen.obj
 0001:00057ede       ??$common_strnlen_c@$0A@E@@YAIQBEI@Z 10058ede f   libucrt:strnlen.obj
 0001:00057f07       ??$common_strnlen_c@$0A@G@@YAIQBGI@Z 10058f07 f   libucrt:strnlen.obj
 0001:00057f37       ??$common_strnlen_simd@$00$00G@@YAIQBGI@Z 10058f37 f   libucrt:strnlen.obj
 0001:00057fe6       ??$common_strnlen_simd@$00$0A@G@@YAIQBGI@Z 10058fe6 f   libucrt:strnlen.obj
 0001:00058093       ??$common_strnlen_simd@$0A@$00E@@YAIQBEI@Z 10059093 f   libucrt:strnlen.obj
 0001:0005812b       ??$common_strnlen_simd@$0A@$00G@@YAIQBGI@Z 1005912b f   libucrt:strnlen.obj
 0001:0005821d       ??$common_strnlen_simd@$0A@$0A@E@@YAIQBEI@Z 1005921d f   libucrt:strnlen.obj
 0001:000582b4       ??$common_strnlen_simd@$0A@$0A@G@@YAIQBGI@Z 100592b4 f   libucrt:strnlen.obj
 0001:000583a5       ??$last_reached@$00@@YA_NQBX0@Z 100593a5 f   libucrt:strnlen.obj
 0001:000583a8       ??$last_reached@$0A@@@YA_NQBX0@Z 100593a8 f   libucrt:strnlen.obj
 0001:000588f6       ??$?RV<lambda_15ade71b0218206bbe3333a0c9b79046>@@AAV<lambda_da44e0f8b0f19ba52fefafb335991732>@@V<lambda_207f2d024fc103971653565357d6cd41>@@@?$__crt_seh_guarded_call@X@@QAEX$$QAV<lambda_15ade71b0218206bbe3333a0c9b79046>@@AAV<lambda_da44e0f8b0f19ba52fefafb335991732>@@$$QAV<lambda_207f2d024fc103971653565357d6cd41>@@@Z 100598f6 f   libucrt:per_thread_data.obj
 0001:00058950       ??$?RV<lambda_38edbb1296d33220d7e4dd0ed76b244a>@@AAV<lambda_5ce1d447e08cb34b2473517608e21441>@@V<lambda_fb385d3da700c9147fc39e65dd577a8c>@@@?$__crt_seh_guarded_call@X@@QAEX$$QAV<lambda_38edbb1296d33220d7e4dd0ed76b244a>@@AAV<lambda_5ce1d447e08cb34b2473517608e21441>@@$$QAV<lambda_fb385d3da700c9147fc39e65dd577a8c>@@@Z 10059950 f   libucrt:per_thread_data.obj
 0001:000589c9       ??$?RV<lambda_6affb1475c98b40b75cdec977db92e3c>@@AAV<lambda_b8d4b9c228a6ecc3f80208dbb4b4a104>@@V<lambda_608742c3c92a14382c1684fc64f96c88>@@@?$__crt_seh_guarded_call@X@@QAEX$$QAV<lambda_6affb1475c98b40b75cdec977db92e3c>@@AAV<lambda_b8d4b9c228a6ecc3f80208dbb4b4a104>@@$$QAV<lambda_608742c3c92a14382c1684fc64f96c88>@@@Z 100599c9 f   libucrt:per_thread_data.obj
 0001:00058a26       ??$?RV<lambda_a7e850c220f1c8d1e6efeecdedd162c6>@@AAV<lambda_46720907175c18b6c9d2717bc0d2d362>@@V<lambda_9048902d66e8d99359bc9897bbb930a8>@@@?$__crt_seh_guarded_call@X@@QAEX$$QAV<lambda_a7e850c220f1c8d1e6efeecdedd162c6>@@AAV<lambda_46720907175c18b6c9d2717bc0d2d362>@@$$QAV<lambda_9048902d66e8d99359bc9897bbb930a8>@@@Z 10059a26 f   libucrt:per_thread_data.obj
 0001:00058a8a       ??$__acrt_lock_and_call@V<lambda_46720907175c18b6c9d2717bc0d2d362>@@@@YAXW4__acrt_lock_id@@$$QAV<lambda_46720907175c18b6c9d2717bc0d2d362>@@@Z 10059a8a f   libucrt:per_thread_data.obj
 0001:00058abc       ??$__acrt_lock_and_call@V<lambda_5ce1d447e08cb34b2473517608e21441>@@@@YAXW4__acrt_lock_id@@$$QAV<lambda_5ce1d447e08cb34b2473517608e21441>@@@Z 10059abc f   libucrt:per_thread_data.obj
 0001:00058aee       ??$__acrt_lock_and_call@V<lambda_b8d4b9c228a6ecc3f80208dbb4b4a104>@@@@YAXW4__acrt_lock_id@@$$QAV<lambda_b8d4b9c228a6ecc3f80208dbb4b4a104>@@@Z 10059aee f   libucrt:per_thread_data.obj
 0001:00058b20       ??$__acrt_lock_and_call@V<lambda_da44e0f8b0f19ba52fefafb335991732>@@@@YAXW4__acrt_lock_id@@$$QAV<lambda_da44e0f8b0f19ba52fefafb335991732>@@@Z 10059b20 f   libucrt:per_thread_data.obj
 0001:00058b52       ??0<lambda_15ade71b0218206bbe3333a0c9b79046>@@QAE@ABW4__acrt_lock_id@@@Z 10059b52 f   libucrt:per_thread_data.obj
 0001:00058b68       ??0<lambda_207f2d024fc103971653565357d6cd41>@@QAE@ABW4__acrt_lock_id@@@Z 10059b68 f   libucrt:per_thread_data.obj
 0001:00058b7e       ??0<lambda_38edbb1296d33220d7e4dd0ed76b244a>@@QAE@ABW4__acrt_lock_id@@@Z 10059b7e f   libucrt:per_thread_data.obj
 0001:00058b94       ??0<lambda_46720907175c18b6c9d2717bc0d2d362>@@QAE@ABQAU__acrt_ptd@@ABQAPAU__crt_locale_data@@@Z 10059b94 f   libucrt:per_thread_data.obj
 0001:00058baf       ??0<lambda_5ce1d447e08cb34b2473517608e21441>@@QAE@ABQAU__acrt_ptd@@@Z 10059baf f   libucrt:per_thread_data.obj
 0001:00058bc3       ??0<lambda_608742c3c92a14382c1684fc64f96c88>@@QAE@ABW4__acrt_lock_id@@@Z 10059bc3 f   libucrt:per_thread_data.obj
 0001:00058bd9       ??0<lambda_6affb1475c98b40b75cdec977db92e3c>@@QAE@ABW4__acrt_lock_id@@@Z 10059bd9 f   libucrt:per_thread_data.obj
 0001:00058bef       ??0<lambda_9048902d66e8d99359bc9897bbb930a8>@@QAE@ABW4__acrt_lock_id@@@Z 10059bef f   libucrt:per_thread_data.obj
 0001:00058c05       ??0<lambda_a7e850c220f1c8d1e6efeecdedd162c6>@@QAE@ABW4__acrt_lock_id@@@Z 10059c05 f   libucrt:per_thread_data.obj
 0001:00058c1b       ??0<lambda_b8d4b9c228a6ecc3f80208dbb4b4a104>@@QAE@ABQAU__acrt_ptd@@@Z 10059c1b f   libucrt:per_thread_data.obj
 0001:00058c2f       ??0<lambda_da44e0f8b0f19ba52fefafb335991732>@@QAE@ABQAU__acrt_ptd@@@Z 10059c2f f   libucrt:per_thread_data.obj
 0001:00058c43       ??0<lambda_fb385d3da700c9147fc39e65dd577a8c>@@QAE@ABW4__acrt_lock_id@@@Z 10059c43 f   libucrt:per_thread_data.obj
 0001:00058caa       ??R<lambda_15ade71b0218206bbe3333a0c9b79046>@@QBEXXZ 10059caa f   libucrt:per_thread_data.obj
 0001:00058cb5       ??R<lambda_207f2d024fc103971653565357d6cd41>@@QBEXXZ 10059cb5 f   libucrt:per_thread_data.obj
 0001:00058cc0       ??R<lambda_38edbb1296d33220d7e4dd0ed76b244a>@@QBEXXZ 10059cc0 f   libucrt:per_thread_data.obj
 0001:00058ccb       ??R<lambda_46720907175c18b6c9d2717bc0d2d362>@@QBEXXZ 10059ccb f   libucrt:per_thread_data.obj
 0001:00058ce2       ??R<lambda_5ce1d447e08cb34b2473517608e21441>@@QBEXXZ 10059ce2 f   libucrt:per_thread_data.obj
 0001:00058d0f       ??R<lambda_608742c3c92a14382c1684fc64f96c88>@@QBEXXZ 10059d0f f   libucrt:per_thread_data.obj
 0001:00058d1a       ??R<lambda_6affb1475c98b40b75cdec977db92e3c>@@QBEXXZ 10059d1a f   libucrt:per_thread_data.obj
 0001:00058d25       ??R<lambda_9048902d66e8d99359bc9897bbb930a8>@@QBEXXZ 10059d25 f   libucrt:per_thread_data.obj
 0001:00058d30       ??R<lambda_a7e850c220f1c8d1e6efeecdedd162c6>@@QBEXXZ 10059d30 f   libucrt:per_thread_data.obj
 0001:00058d3b       ??R<lambda_b8d4b9c228a6ecc3f80208dbb4b4a104>@@QBEXXZ 10059d3b f   libucrt:per_thread_data.obj
 0001:00058d4c       ??R<lambda_da44e0f8b0f19ba52fefafb335991732>@@QBEXXZ 10059d4c f   libucrt:per_thread_data.obj
 0001:00058d59       ??R<lambda_fb385d3da700c9147fc39e65dd577a8c>@@QBEXXZ 10059d59 f   libucrt:per_thread_data.obj
 0001:00058d64       ?construct_ptd@@YAXQAU__acrt_ptd@@QAPAU__crt_locale_data@@@Z 10059d64 f   libucrt:per_thread_data.obj
 0001:00058e25       ?construct_ptd_array@@YAXQAU__acrt_ptd@@@Z 10059e25 f   libucrt:per_thread_data.obj
 0001:00058e43       ?destroy_fls@@YGXPAX@Z     10059e43 f   libucrt:per_thread_data.obj
 0001:00058e6c       ?destroy_ptd@@YAXQAU__acrt_ptd@@@Z 10059e6c f   libucrt:per_thread_data.obj
 0001:00058f6e       ?destroy_ptd_array@@YAXQAU__acrt_ptd@@@Z 10059f6e f   libucrt:per_thread_data.obj
 0001:00058f7f       ?internal_get_ptd_head@@YAPAU__acrt_ptd@@XZ 10059f7f f   libucrt:per_thread_data.obj
 0001:00059025       ?internal_getptd_noexit@@YAPAU__acrt_ptd@@XZ 1005a025 f   libucrt:per_thread_data.obj
 0001:0005911f       ?replace_current_thread_locale_nolock@@YAXQAU__acrt_ptd@@QAU__crt_locale_data@@@Z 1005a11f f   libucrt:per_thread_data.obj
 0001:0005917c       ?try_get_ptd_head@@YAPAU__acrt_ptd@@XZ 1005a17c f   libucrt:per_thread_data.obj
 0001:000595ba       ?fp_format_a@@YAHQBNPADIQADIH_NIQAU__crt_locale_pointers@@@Z 1005a5ba f   libucrt:cvt.obj
 0001:0005999a       ?fp_format_e@@YAHQBNQADI1IH_NIQAU__crt_locale_pointers@@@Z 1005a99a f   libucrt:cvt.obj
 0001:00059a67       ?fp_format_e_internal@@YAHQADIH_NIQAU_strflt@@1QAU__crt_locale_pointers@@@Z 1005aa67 f   libucrt:cvt.obj
 0001:00059c03       ?fp_format_f@@YAHQBNQADI1IHQAU__crt_locale_pointers@@@Z 1005ac03 f   libucrt:cvt.obj
 0001:00059cb3       ?fp_format_f_internal@@YAHQADIHQAU_strflt@@_NQAU__crt_locale_pointers@@@Z 1005acb3 f   libucrt:cvt.obj
 0001:00059dba       ?fp_format_g@@YAHQBNQADI1IH_NIQAU__crt_locale_pointers@@@Z 1005adba f   libucrt:cvt.obj
 0001:00059ead       ?fp_format_nan_or_infinity@@YAHW4__acrt_fp_class@@_NPADI1@Z 1005aead f   libucrt:cvt.obj
 0001:00059fdf       ?shift_bytes@@YAXQADI0H@Z  1005afdf f   libucrt:cvt.obj
 0001:0005a1b9       ?fputwc_binary_nolock@@YAG_WV__crt_stdio_stream@@@Z 1005b1b9 f   libucrt:fputwc.obj
 0001:0005a7b2       _no_op_initialize          1005b7b2 f   libucrt:wsetlocale.obj
 0001:0005a7f7       ??$?RV<lambda_135d2772fca65dc1248eeaa1b56e886a>@@AAV<lambda_2a444430fde8c29194d880d93eed5e8f>@@AAV<lambda_8dff2cf36a5417162780cd64fa2883ef>@@@?$__crt_seh_guarded_call@X@@QAEX$$QAV<lambda_135d2772fca65dc1248eeaa1b56e886a>@@AAV<lambda_2a444430fde8c29194d880d93eed5e8f>@@AAV<lambda_8dff2cf36a5417162780cd64fa2883ef>@@@Z 1005b7f7 f   libucrt:wsetlocale.obj
 0001:0005a840       ??$?RV<lambda_4fdada1b837b2abbf20876fac97688ad>@@AAV<lambda_b57350f2640456a0859d250846f69caf>@@V<lambda_eed5e4f92b5b7d55fa22c48c484aaa54>@@@?$__crt_seh_guarded_call@X@@QAEX$$QAV<lambda_4fdada1b837b2abbf20876fac97688ad>@@AAV<lambda_b57350f2640456a0859d250846f69caf>@@$$QAV<lambda_eed5e4f92b5b7d55fa22c48c484aaa54>@@@Z 1005b840 f   libucrt:wsetlocale.obj
 0001:0005a893       ??$?RV<lambda_6673f7c4c09a5d469d0c27ae364621ce>@@AAV<lambda_ebab98244f73a74f49db879bf13fa982>@@V<lambda_be20789b7a146653eab82509ec35b419>@@@?$__crt_seh_guarded_call@X@@QAEX$$QAV<lambda_6673f7c4c09a5d469d0c27ae364621ce>@@AAV<lambda_ebab98244f73a74f49db879bf13fa982>@@$$QAV<lambda_be20789b7a146653eab82509ec35b419>@@@Z 1005b893 f   libucrt:wsetlocale.obj
 0001:0005a8ed       ??$?RV<lambda_82aef432098b982f9ede325b418aa67a>@@AAV<lambda_862e9a3f04921db6ca1ce3faa2bf3edf>@@V<lambda_ffabc152e504b53d7492b9889b10c020>@@@?$__crt_seh_guarded_call@X@@QAEX$$QAV<lambda_82aef432098b982f9ede325b418aa67a>@@AAV<lambda_862e9a3f04921db6ca1ce3faa2bf3edf>@@$$QAV<lambda_ffabc152e504b53d7492b9889b10c020>@@@Z 1005b8ed f   libucrt:wsetlocale.obj
 0001:0005a949       ??$?RV<lambda_e5124f882df8998aaf41531e079ba474>@@AAV<lambda_3e16ef9562a7dcce91392c22ab16ea36>@@V<lambda_e25ca0880e6ef98be67edffd8c599615>@@@?$__crt_seh_guarded_call@X@@QAEX$$QAV<lambda_e5124f882df8998aaf41531e079ba474>@@AAV<lambda_3e16ef9562a7dcce91392c22ab16ea36>@@$$QAV<lambda_e25ca0880e6ef98be67edffd8c599615>@@@Z 1005b949 f   libucrt:wsetlocale.obj
 0001:0005a9c6       ??$__acrt_lock_and_call@V<lambda_3e16ef9562a7dcce91392c22ab16ea36>@@@@YAXW4__acrt_lock_id@@$$QAV<lambda_3e16ef9562a7dcce91392c22ab16ea36>@@@Z 1005b9c6 f   libucrt:wsetlocale.obj
 0001:0005a9f8       ??$__acrt_lock_and_call@V<lambda_862e9a3f04921db6ca1ce3faa2bf3edf>@@@@YAXW4__acrt_lock_id@@$$QAV<lambda_862e9a3f04921db6ca1ce3faa2bf3edf>@@@Z 1005b9f8 f   libucrt:wsetlocale.obj
 0001:0005aa2a       ??$__acrt_lock_and_call@V<lambda_b57350f2640456a0859d250846f69caf>@@@@YAXW4__acrt_lock_id@@$$QAV<lambda_b57350f2640456a0859d250846f69caf>@@@Z 1005ba2a f   libucrt:wsetlocale.obj
 0001:0005aa5c       ??$__acrt_lock_and_call@V<lambda_ebab98244f73a74f49db879bf13fa982>@@@@YAXW4__acrt_lock_id@@$$QAV<lambda_ebab98244f73a74f49db879bf13fa982>@@@Z 1005ba5c f   libucrt:wsetlocale.obj
 0001:0005aa8e       ??$__crt_call_and_cleanup@V<lambda_2a444430fde8c29194d880d93eed5e8f>@@V<lambda_8dff2cf36a5417162780cd64fa2883ef>@@@@YAX$$QAV<lambda_2a444430fde8c29194d880d93eed5e8f>@@$$QAV<lambda_8dff2cf36a5417162780cd64fa2883ef>@@@Z 1005ba8e f   libucrt:wsetlocale.obj
 0001:0005aab2       ??$uninitialize@V<lambda_88ce03f932007f29bf8b8056cbaba4f3>@@@?$dual_state_global@PAU__crt_locale_data@@@__crt_state_management@@QAEX$$QAV<lambda_88ce03f932007f29bf8b8056cbaba4f3>@@@Z 1005bab2 f   libucrt:wsetlocale.obj
 0001:0005aaec       ??0<lambda_2a444430fde8c29194d880d93eed5e8f>@@QAE@AAPAU__crt_locale_data@@ABQAU__acrt_ptd@@AAPA_WAAHAAPB_W@Z 1005baec f   libucrt:wsetlocale.obj
 0001:0005ab1e       ??0<lambda_4fdada1b837b2abbf20876fac97688ad>@@QAE@ABW4__acrt_lock_id@@@Z 1005bb1e f   libucrt:wsetlocale.obj
 0001:0005ab34       ??0<lambda_6673f7c4c09a5d469d0c27ae364621ce>@@QAE@ABW4__acrt_lock_id@@@Z 1005bb34 f   libucrt:wsetlocale.obj
 0001:0005ab4a       ??0<lambda_82aef432098b982f9ede325b418aa67a>@@QAE@ABW4__acrt_lock_id@@@Z 1005bb4a f   libucrt:wsetlocale.obj
 0001:0005ab60       ??0<lambda_862e9a3f04921db6ca1ce3faa2bf3edf>@@QAE@AAV?$__crt_unique_heap_ptr@U__crt_locale_pointers@@U__crt_internal_free_policy@@@@@Z 1005bb60 f   libucrt:wsetlocale.obj
 0001:0005ab74       ??0<lambda_8dff2cf36a5417162780cd64fa2883ef>@@QAE@ABQAU__acrt_ptd@@@Z 1005bb74 f   libucrt:wsetlocale.obj
 0001:0005ab88       ??0<lambda_b57350f2640456a0859d250846f69caf>@@QAE@AAPAU__crt_locale_data@@ABQAU__acrt_ptd@@AAPA_WAAHAAPB_W@Z 1005bb88 f   libucrt:wsetlocale.obj
 0001:0005abba       ??0<lambda_be20789b7a146653eab82509ec35b419>@@QAE@ABW4__acrt_lock_id@@@Z 1005bbba f   libucrt:wsetlocale.obj
 0001:0005abd0       ??0<lambda_e25ca0880e6ef98be67edffd8c599615>@@QAE@ABW4__acrt_lock_id@@@Z 1005bbd0 f   libucrt:wsetlocale.obj
 0001:0005abe6       ??0<lambda_e5124f882df8998aaf41531e079ba474>@@QAE@ABW4__acrt_lock_id@@@Z 1005bbe6 f   libucrt:wsetlocale.obj
 0001:0005abfc       ??0<lambda_ebab98244f73a74f49db879bf13fa982>@@QAE@AAV?$__crt_unique_heap_ptr@U__crt_locale_pointers@@U__crt_internal_free_policy@@@@@Z 1005bbfc f   libucrt:wsetlocale.obj
 0001:0005ac10       ??0<lambda_eed5e4f92b5b7d55fa22c48c484aaa54>@@QAE@ABW4__acrt_lock_id@@@Z 1005bc10 f   libucrt:wsetlocale.obj
 0001:0005ac26       ??0<lambda_ffabc152e504b53d7492b9889b10c020>@@QAE@ABW4__acrt_lock_id@@@Z 1005bc26 f   libucrt:wsetlocale.obj
 0001:0005accf       ??R<lambda_135d2772fca65dc1248eeaa1b56e886a>@@QBEXXZ 1005bccf f   libucrt:wsetlocale.obj
 0001:0005acd0       ??R<lambda_2a444430fde8c29194d880d93eed5e8f>@@QBE@XZ 1005bcd0 f   libucrt:wsetlocale.obj
 0001:0005ad57       ??R<lambda_3e16ef9562a7dcce91392c22ab16ea36>@@QBE@XZ 1005bd57 f   libucrt:wsetlocale.obj
 0001:0005ad7f       ??R<lambda_4fdada1b837b2abbf20876fac97688ad>@@QBEXXZ 1005bd7f f   libucrt:wsetlocale.obj
 0001:0005ad8a       ??R<lambda_6673f7c4c09a5d469d0c27ae364621ce>@@QBEXXZ 1005bd8a f   libucrt:wsetlocale.obj
 0001:0005ad95       ??R<lambda_82aef432098b982f9ede325b418aa67a>@@QBEXXZ 1005bd95 f   libucrt:wsetlocale.obj
 0001:0005ada0       ??R<lambda_862e9a3f04921db6ca1ce3faa2bf3edf>@@QBEXXZ 1005bda0 f   libucrt:wsetlocale.obj
 0001:0005adb0       ??R<lambda_88ce03f932007f29bf8b8056cbaba4f3>@@QBEXAAPAU__crt_locale_data@@@Z 1005bdb0 f   libucrt:wsetlocale.obj
 0001:0005adda       ??R<lambda_8dff2cf36a5417162780cd64fa2883ef>@@QBEXXZ 1005bdda f   libucrt:wsetlocale.obj
 0001:0005ade9       ??R<lambda_b57350f2640456a0859d250846f69caf>@@QBEXXZ 1005bde9 f   libucrt:wsetlocale.obj
 0001:0005af26       ??R<lambda_be20789b7a146653eab82509ec35b419>@@QBEXXZ 1005bf26 f   libucrt:wsetlocale.obj
 0001:0005af31       ??R<lambda_e25ca0880e6ef98be67edffd8c599615>@@QBEXXZ 1005bf31 f   libucrt:wsetlocale.obj
 0001:0005af3c       ??R<lambda_e5124f882df8998aaf41531e079ba474>@@QBEXXZ 1005bf3c f   libucrt:wsetlocale.obj
 0001:0005af47       ??R<lambda_ebab98244f73a74f49db879bf13fa982>@@QBEXXZ 1005bf47 f   libucrt:wsetlocale.obj
 0001:0005af54       ??R<lambda_eed5e4f92b5b7d55fa22c48c484aaa54>@@QBEXXZ 1005bf54 f   libucrt:wsetlocale.obj
 0001:0005af5f       ??R<lambda_ffabc152e504b53d7492b9889b10c020>@@QBEXXZ 1005bf5f f   libucrt:wsetlocale.obj
 0001:0005b341       __copytlocinfo_nolock      1005c341 f   libucrt:wsetlocale.obj
 0001:0005bcba       __wsetlocale_get_all       1005ccba f   libucrt:wsetlocale.obj
 0001:0005bebe       __wsetlocale_nolock        1005cebe f   libucrt:wsetlocale.obj
 0001:0005c265       __wsetlocale_set_cat       1005d265 f   libucrt:wsetlocale.obj
 0001:0005c721       _sync_legacy_variables_lk  1005d721 f   libucrt:wsetlocale.obj
 0001:0005c8e0       ??$get_cached_win_policy@Ubegin_thread_init_policy_properties@?1??__acrt_get_begin_thread_init_policy@@YA?AW4begin_thread_init_policy@@XZ@@@YA?AW4begin_thread_init_policy@@W4AppPolicyThreadInitializationType@@@Z 1005d8e0 f   libucrt:win_policies.obj
 0001:0005c935       ??$get_cached_win_policy@Udeveloper_information_policy_properties@?1??__acrt_get_developer_information_policy@@YA?AW4developer_information_policy@@XZ@@@YA?AW4developer_information_policy@@W4AppPolicyShowDeveloperDiagnostic@@@Z 1005d935 f   libucrt:win_policies.obj
 0001:0005c98a       ??$get_cached_win_policy@Uwindowing_model_policy_properties@?1??__acrt_get_windowing_model_policy@@YA?AW4windowing_model_policy@@XZ@@@YA?AW4windowing_model_policy@@W4AppPolicyWindowingModel@@@Z 1005d98a f   libucrt:win_policies.obj
 0001:0005c9fd       ??$get_win_policy@Uprocess_end_policy_properties@?1??__acrt_get_process_end_policy@@YA?AW4process_end_policy@@XZ@@@YA?AW4process_end_policy@@W4AppPolicyProcessTerminationMethod@@@Z 1005d9fd f   libucrt:win_policies.obj
 0001:0005ca3a       ?appmodel_get_policy@begin_thread_init_policy_properties@?1??__acrt_get_begin_thread_init_policy@@YA?AW4begin_thread_init_policy@@XZ@SAJPAW4AppPolicyThreadInitializationType@@@Z 1005da3a f   libucrt:win_policies.obj
 0001:0005ca4c       ?appmodel_get_policy@developer_information_policy_properties@?1??__acrt_get_developer_information_policy@@YA?AW4developer_information_policy@@XZ@SAJPAW4AppPolicyShowDeveloperDiagnostic@@@Z 1005da4c f   libucrt:win_policies.obj
 0001:0005ca5e       ?appmodel_get_policy@process_end_policy_properties@?1??__acrt_get_process_end_policy@@YA?AW4process_end_policy@@XZ@SAJPAW4AppPolicyProcessTerminationMethod@@@Z 1005da5e f   libucrt:win_policies.obj
 0001:0005ca70       ?appmodel_get_policy@windowing_model_policy_properties@?1??__acrt_get_windowing_model_policy@@YA?AW4windowing_model_policy@@XZ@SAJPAW4AppPolicyWindowingModel@@@Z 1005da70 f   libucrt:win_policies.obj
 0001:0005ca82       ?appmodel_policy_to_policy_type@begin_thread_init_policy_properties@?1??__acrt_get_begin_thread_init_policy@@YA?AW4begin_thread_init_policy@@XZ@SA?AW43@J@Z 1005da82 f   libucrt:win_policies.obj
 0001:0005ca97       ?appmodel_policy_to_policy_type@developer_information_policy_properties@?1??__acrt_get_developer_information_policy@@YA?AW4developer_information_policy@@XZ@SA?AW43@J@Z 1005da97 f   libucrt:win_policies.obj
 0001:0005caac       ?appmodel_policy_to_policy_type@process_end_policy_properties@?1??__acrt_get_process_end_policy@@YA?AW4process_end_policy@@XZ@SA?AW43@W4AppPolicyProcessTerminationMethod@@@Z 1005daac f   libucrt:win_policies.obj
 0001:0005cac0       ?appmodel_policy_to_policy_type@windowing_model_policy_properties@?1??__acrt_get_windowing_model_policy@@YA?AW4windowing_model_policy@@XZ@SA?AW43@J@Z 1005dac0 f   libucrt:win_policies.obj
 0001:0005cc52       ??$?RV<lambda_218ce3db14220d0be481dae8ef3383b6>@@AAV<lambda_628dfdc04ba53c8bfc02c9951375f3f5>@@V<lambda_57dc472bd5c9d5f3b2cbca59b8a843ae>@@@?$__crt_seh_guarded_call@H@@QAEH$$QAV<lambda_218ce3db14220d0be481dae8ef3383b6>@@AAV<lambda_628dfdc04ba53c8bfc02c9951375f3f5>@@$$QAV<lambda_57dc472bd5c9d5f3b2cbca59b8a843ae>@@@Z 1005dc52 f   libucrt:close.obj
 0001:0005ccf4       ??$__acrt_lowio_lock_fh_and_call@V<lambda_628dfdc04ba53c8bfc02c9951375f3f5>@@@@YAHH$$QAV<lambda_628dfdc04ba53c8bfc02c9951375f3f5>@@@Z 1005dcf4 f   libucrt:close.obj
 0001:0005cd26       ??0<lambda_218ce3db14220d0be481dae8ef3383b6>@@QAE@ABH@Z 1005dd26 f   libucrt:close.obj
 0001:0005cd3c       ??0<lambda_57dc472bd5c9d5f3b2cbca59b8a843ae>@@QAE@ABH@Z 1005dd3c f   libucrt:close.obj
 0001:0005cd52       ??0<lambda_628dfdc04ba53c8bfc02c9951375f3f5>@@QAE@ABH@Z 1005dd52 f   libucrt:close.obj
 0001:0005cd66       ??R<lambda_218ce3db14220d0be481dae8ef3383b6>@@QBEXXZ 1005dd66 f   libucrt:close.obj
 0001:0005cd71       ??R<lambda_57dc472bd5c9d5f3b2cbca59b8a843ae>@@QBEXXZ 1005dd71 f   libucrt:close.obj
 0001:0005cd7c       ??R<lambda_628dfdc04ba53c8bfc02c9951375f3f5>@@QBEHXZ 1005dd7c f   libucrt:close.obj
 0001:0005cdc3       ?close_os_handle_nolock@@YAKH@Z 1005ddc3 f   libucrt:close.obj
 0001:0005d0d3       ?find_or_allocate_unused_stream_nolock@@YA?AV__crt_stdio_stream@@XZ 1005e0d3 f   libucrt:stream.obj
 0001:0005d7d2       ??$common_openfile@D@@YAPAU_iobuf@@QBD0HV__crt_stdio_stream@@@Z 1005e7d2 f   libucrt:openfile.obj
 0001:0005d878       ??$common_openfile@_W@@YAPAU_iobuf@@QB_W0HV__crt_stdio_stream@@@Z 1005e878 f   libucrt:openfile.obj
 0001:0005dc69       ??$translate_text_mode_nolock@D@@YAHHQADI@Z 1005ec69 f   libucrt:read.obj
 0001:0005de24       ??$translate_text_mode_nolock@_W@@YAHHQA_WI@Z 1005ee24 f   libucrt:read.obj
 0001:0005e06b       ?store_lookahead@@YAXHD@Z  1005f06b f   libucrt:read.obj
 0001:0005e096       ?store_lookahead@@YAXH_W@Z 1005f096 f   libucrt:read.obj
 0001:0005e0e7       ?translate_ansi_or_utf8_nolock@@YAHHQADIQA_WI@Z 1005f0e7 f   libucrt:read.obj
 0001:0005e296       ?translate_utf16_from_console_nolock@@YAHHQA_WI@Z 1005f296 f   libucrt:read.obj
 0001:0005e92e       ??$common_refill_and_read_nolock@D@@YAHV__crt_stdio_stream@@@Z 1005f92e f   libucrt:_filbuf.obj
 0001:0005eb11       ??$common_refill_and_read_nolock@_W@@YAHV__crt_stdio_stream@@@Z 1005fb11 f   libucrt:_filbuf.obj
 0001:0005ed4b       ?get_context_nolock@@YA?AUfilwbuf_context@?A0x763516dc@@V__crt_stdio_stream@@_W@Z 1005fd4b f   libucrt:_filbuf.obj
 0001:0005ed7f       ?get_context_nolock@@YAHV__crt_stdio_stream@@D@Z 1005fd7f f   libucrt:_filbuf.obj
 0001:0005ed82       ?is_buffer_valid_nolock@@YA_NV__crt_stdio_stream@@D@Z 1005fd82 f   libucrt:_filbuf.obj
 0001:0005eda5       ?is_buffer_valid_nolock@@YA_NV__crt_stdio_stream@@_W@Z 1005fda5 f   libucrt:_filbuf.obj
 0001:0005edcb       ?read_character_nolock@@YAEV__crt_stdio_stream@@HD@Z 1005fdcb f   libucrt:_filbuf.obj
 0001:0005ede7       ?read_character_nolock@@YA_WV__crt_stdio_stream@@Ufilwbuf_context@?A0x763516dc@@_W@Z 1005fde7 f   libucrt:_filbuf.obj
 0001:0005ee52       ?write_binary_nolock@@YA?AUwrite_result@?A0x17268360@@HQBDI@Z 1005fe52 f   libucrt:write.obj
 0001:0005eeb4       ?write_double_translated_ansi_nolock@@YA?AUwrite_result@?A0x17268360@@HQBDI@Z 1005feb4 f   libucrt:write.obj
 0001:0005f0f6       ?write_double_translated_unicode_nolock@@YA?AUwrite_result@?A0x17268360@@QBDI@Z 100600f6 f   libucrt:write.obj
 0001:0005f17a       ?write_requires_double_translation_nolock@@YA_NH@Z 1006017a f   libucrt:write.obj
 0001:0005f20d       ?write_text_ansi_nolock@@YA?AUwrite_result@?A0x17268360@@HQBDI@Z 1006020d f   libucrt:write.obj
 0001:0005f321       ?write_text_utf16le_nolock@@YA?AUwrite_result@?A0x17268360@@HQBDI@Z 10060321 f   libucrt:write.obj
 0001:0005f446       ?write_text_utf8_nolock@@YA?AUwrite_result@?A0x17268360@@HQBDI@Z 10060446 f   libucrt:write.obj
 0001:0005f97f       ??$common_flush_and_write_nolock@D@@YAHHV__crt_stdio_stream@@@Z 1006097f f   libucrt:_flsbuf.obj
 0001:0005fad4       ??$common_flush_and_write_nolock@_W@@YAHHV__crt_stdio_stream@@@Z 10060ad4 f   libucrt:_flsbuf.obj
 0001:0005fc2e       ??$write_buffer_nolock@D@@YA_NDV__crt_stdio_stream@@@Z 10060c2e f   libucrt:_flsbuf.obj
 0001:0005fd2b       ??$write_buffer_nolock@_W@@YA_N_WV__crt_stdio_stream@@@Z 10060d2b f   libucrt:_flsbuf.obj
 0001:0005fe45       ?filter_mbtowcs_flags@@YAKIK@Z 10060e45 f   libucrt:multibytetowidechar.obj
 0001:0005ffa1       ??$common_lseek@J@@YAJHJH@Z 10060fa1 f   libucrt:lseek.obj
 0001:000600c3       ??$common_lseek@_J@@YA_JH_JH@Z 100610c3 f   libucrt:lseek.obj
 0001:00060205       ??$common_lseek_nolock@J@@YAJHJH@Z 10061205 f   libucrt:lseek.obj
 0001:00060271       ??$common_lseek_nolock@_J@@YA_JH_JH@Z 10061271 f   libucrt:lseek.obj
 0001:0006030e       ?common_lseek_do_seek_nolock@@YAJQAXJH@Z 1006130e f   libucrt:lseek.obj
 0001:000603b3       ?common_lseek_do_seek_nolock@@YA_JQAX_JH@Z 100613b3 f   libucrt:lseek.obj
 0001:00060c45       ?issue_debug_notification@@YA_NQB_W@Z 10061c45 f   libucrt:report_runtime_error.obj
 0001:00060c48       ?should_write_error_to_console@@YA_NXZ 10061c48 f   libucrt:report_runtime_error.obj
 0001:00060c70       ?write_string_to_console@@YAXQB_W@Z 10061c70 f   libucrt:report_runtime_error.obj
 0001:00060e7e       ??$common_xtox@KD@@YAHKQADII_N@Z 10061e7e f   libucrt:xtoa.obj
 0001:00060f5c       ??$common_xtox@K_W@@YAHKQA_WII_N@Z 10061f5c f   libucrt:xtoa.obj
 0001:00061033       ??$common_xtox@_KD@@YAH_KQADII_N@Z 10062033 f   libucrt:xtoa.obj
 0001:0006112d       ??$common_xtox@_K_W@@YAH_KQA_WII_N@Z 1006212d f   libucrt:xtoa.obj
 0001:00061248       ??$common_xtox_s@KD@@YAHKQADII_N@Z 10062248 f   libucrt:xtoa.obj
 0001:000612d4       ??$common_xtox_s@K_W@@YAHKQA_WII_N@Z 100622d4 f   libucrt:xtoa.obj
 0001:00061362       ??$common_xtox_s@_KD@@YAH_KQADII_N@Z 10062362 f   libucrt:xtoa.obj
 0001:000613f1       ??$common_xtox_s@_K_W@@YAH_KQA_WII_N@Z 100623f1 f   libucrt:xtoa.obj
 0001:00061969       ??$common_tcscat_s@_W@@YAHQA_WIQB_W@Z 10062969 f   libucrt:wcscat_s.obj
 0001:00061a89       ??$common_tcscpy_s@_W@@YAHQA_WIQB_W@Z 10062a89 f   libucrt:wcscpy_s.obj
 0001:00061b7e       ??$common_tcsncat_s@_W@@YAHQA_WIQB_WI@Z 10062b7e f   libucrt:wcsncat_s.obj
 0001:00061cae       ??$common_tcscat_s@D@@YAHQADIQBD@Z 10062cae f   libucrt:strcat_s.obj
 0001:00061db4       ??$common_tcsncat_s@D@@YAHQADIQBDI@Z 10062db4 f   libucrt:strncat_s.obj
 0001:00061f44       ??$common_show_message_box@D@@YAHQBD0I@Z 10062f44 f   libucrt:crtmbox.obj
 0001:00061fe0       ??$common_show_message_box@_W@@YAHQB_W0I@Z 10062fe0 f   libucrt:crtmbox.obj
 0001:00062162       ??$?RV<lambda_70c0770dcc4f6ec6272bb01dc82d3c91>@@AAV<lambda_ca71763b3c0644891230e4f79ea54fa6>@@V<lambda_ca266f0f09348b8765c113e3a39a2bc1>@@@?$__crt_seh_guarded_call@H@@QAEH$$QAV<lambda_70c0770dcc4f6ec6272bb01dc82d3c91>@@AAV<lambda_ca71763b3c0644891230e4f79ea54fa6>@@$$QAV<lambda_ca266f0f09348b8765c113e3a39a2bc1>@@@Z 10063162 f   libucrt:setvbuf.obj
 0001:000621c7       ??$__acrt_lock_stream_and_call@V<lambda_ca71763b3c0644891230e4f79ea54fa6>@@@@YAHQAU_iobuf@@$$QAV<lambda_ca71763b3c0644891230e4f79ea54fa6>@@@Z 100631c7 f   libucrt:setvbuf.obj
 0001:000621f9       ??0<lambda_70c0770dcc4f6ec6272bb01dc82d3c91>@@QAE@ABQAU_iobuf@@@Z 100631f9 f   libucrt:setvbuf.obj
 0001:0006220f       ??0<lambda_ca266f0f09348b8765c113e3a39a2bc1>@@QAE@ABQAU_iobuf@@@Z 1006320f f   libucrt:setvbuf.obj
 0001:00062225       ??0<lambda_ca71763b3c0644891230e4f79ea54fa6>@@QAE@ABIABV__crt_stdio_stream@@ABHABQAD@Z 10063225 f   libucrt:setvbuf.obj
 0001:0006224f       ??R<lambda_70c0770dcc4f6ec6272bb01dc82d3c91>@@QBEXXZ 1006324f f   libucrt:setvbuf.obj
 0001:0006225a       ??R<lambda_ca266f0f09348b8765c113e3a39a2bc1>@@QBEXXZ 1006325a f   libucrt:setvbuf.obj
 0001:00062265       ??R<lambda_ca71763b3c0644891230e4f79ea54fa6>@@QBEHXZ 10063265 f   libucrt:setvbuf.obj
 0001:00062325       ?set_buffer@@YAHV__crt_stdio_stream@@QADIH@Z 10063325 f   libucrt:setvbuf.obj
 0001:00062427       ??$?RV<lambda_cbab9ec6f41b0180b23cc171c22676b0>@@AAV<lambda_44731a7d0e6d81c3e6aa82d741081786>@@V<lambda_4b292cb8dd18144e164572427af410ab>@@@?$__crt_seh_guarded_call@P6AXH@Z@@QAEP6AXH@Z$$QAV<lambda_cbab9ec6f41b0180b23cc171c22676b0>@@AAV<lambda_44731a7d0e6d81c3e6aa82d741081786>@@$$QAV<lambda_4b292cb8dd18144e164572427af410ab>@@@Z 10063427 f   libucrt:signal.obj
 0001:00062497       ??$__acrt_lock_and_call@V<lambda_44731a7d0e6d81c3e6aa82d741081786>@@@@YAP6AXH@ZW4__acrt_lock_id@@$$QAV<lambda_44731a7d0e6d81c3e6aa82d741081786>@@@Z 10063497 f   libucrt:signal.obj
 0001:0006250a       ??0<lambda_4b292cb8dd18144e164572427af410ab>@@QAE@ABW4__acrt_lock_id@@@Z 1006350a f   libucrt:signal.obj
 0001:00062520       ??0<lambda_cbab9ec6f41b0180b23cc171c22676b0>@@QAE@ABW4__acrt_lock_id@@@Z 10063520 f   libucrt:signal.obj
 0001:00062536       ??R<lambda_44731a7d0e6d81c3e6aa82d741081786>@@QBEP6AXH@ZXZ 10063536 f   libucrt:signal.obj
 0001:0006254d       ??R<lambda_4b292cb8dd18144e164572427af410ab>@@QBEXXZ 1006354d f   libucrt:signal.obj
 0001:00062558       ??R<lambda_cbab9ec6f41b0180b23cc171c22676b0>@@QBEXXZ 10063558 f   libucrt:signal.obj
 0001:00062563       ?ctrlevent_capture@@YGHK@Z 10063563 f   libucrt:signal.obj
 0001:0006263c       ?get_global_action_nolock@@YAPAP6AXH@ZH@Z 1006363c f   libucrt:signal.obj
 0001:000626bd       ?is_console_signal@@YAHH@Z 100636bd f   libucrt:signal.obj
 0001:000626dd       ?is_unsupported_signal@@YAHHQ6AXH@Z@Z 100636dd f   libucrt:signal.obj
 0001:000626fd       ?siglookup@@YAPAU__crt_signal_action_t@@HQAU1@@Z 100636fd f   libucrt:signal.obj
 0001:0006272f       ?signal_failed@@YAP6AXH@ZH@Z 1006372f f   libucrt:signal.obj
 0001:00063124       ?ungetwc_binary_mode_nolock@@YAGGV__crt_stdio_stream@@@Z 10064124 f   libucrt:ungetwc.obj
 0001:000631bb       ?ungetwc_text_mode_nolock@@YAGGV__crt_stdio_stream@@@Z 100641bb f   libucrt:ungetwc.obj
 0001:00063955       ?<lambda_invoker_cdecl>@<lambda_601ce2808d07e6dd980fd6da59ab4158>@@CAHPBX0@Z 10064955 f   libucrt:argv_wildcards.obj
 0001:00063973       ?<lambda_invoker_cdecl>@<lambda_86056e3c024bff449830248dc1621ed2>@@CAHPBX0@Z 10064973 f   libucrt:argv_wildcards.obj
 0001:00063991       ??$common_expand_argv_wildcards@D@@YAHQAPADQAPAPAD@Z 10064991 f   libucrt:argv_wildcards.obj
 0001:00063bfe       ??$common_expand_argv_wildcards@_W@@YAHQAPA_WQAPAPA_W@Z 10064bfe f   libucrt:argv_wildcards.obj
 0001:00063eb7       ??$copy_and_add_argument_to_buffer@D@@YAHQBD0IAAV?$argument_list@D@?A0x5f5c8891@@@Z 10064eb7 f   libucrt:argv_wildcards.obj
 0001:00063f96       ??$copy_and_add_argument_to_buffer@_W@@YAHQB_W0IAAV?$argument_list@_W@?A0x5f5c8891@@@Z 10064f96 f   libucrt:argv_wildcards.obj
 0001:00064079       ??$expand_argument_wildcards@D@@YAHQAD0AAV?$argument_list@D@?A0x5f5c8891@@@Z 10065079 f   libucrt:argv_wildcards.obj
 0001:00064259       ??$expand_argument_wildcards@_W@@YAHQA_W0AAV?$argument_list@_W@?A0x5f5c8891@@@Z 10065259 f   libucrt:argv_wildcards.obj
 0001:00064639       ??0?$argument_list@D@?A0x5f5c8891@@QAE@XZ 10065639 f   libucrt:argv_wildcards.obj
 0001:00064649       ??0?$argument_list@_W@?A0x5f5c8891@@QAE@XZ 10065649 f   libucrt:argv_wildcards.obj
 0001:00064675       ??1?$argument_list@D@?A0x5f5c8891@@QAE@XZ 10065675 f   libucrt:argv_wildcards.obj
 0001:000646a8       ??1?$argument_list@_W@?A0x5f5c8891@@QAE@XZ 100656a8 f   libucrt:argv_wildcards.obj
 0001:000646db       ??B<lambda_601ce2808d07e6dd980fd6da59ab4158>@@QBEP6AHPBX0@ZXZ 100656db f   libucrt:argv_wildcards.obj
 0001:000646e1       ??B<lambda_86056e3c024bff449830248dc1621ed2>@@QBEP6AHPBX0@ZXZ 100656e1 f   libucrt:argv_wildcards.obj
 0001:000646e7       ??R<lambda_594f614a8947934b886943aa86a6498d>@@QBE_ND@Z 100656e7 f   libucrt:argv_wildcards.obj
 0001:0006470c       ??R<lambda_601ce2808d07e6dd980fd6da59ab4158>@@QBEHPBX0@Z 1006570c f   libucrt:argv_wildcards.obj
 0001:0006472c       ??R<lambda_86056e3c024bff449830248dc1621ed2>@@QBEHPBX0@Z 1006572c f   libucrt:argv_wildcards.obj
 0001:0006474c       ??R<lambda_d734a73e0f649ebd9d9b0eca0b8ca86a>@@QBE_N_W@Z 1006574c f   libucrt:argv_wildcards.obj
 0001:00064779       ?append@?$argument_list@D@?A0x5f5c8891@@QAEHQAD@Z 10065779 f   libucrt:argv_wildcards.obj
 0001:000647bb       ?append@?$argument_list@_W@?A0x5f5c8891@@QAEHQA_W@Z 100657bb f   libucrt:argv_wildcards.obj
 0001:000647fd       ?begin@?$argument_list@D@?A0x5f5c8891@@QBEPAPADXZ 100657fd f   libucrt:argv_wildcards.obj
 0001:00064800       ?begin@?$argument_list@_W@?A0x5f5c8891@@QBEPAPA_WXZ 10065800 f   libucrt:argv_wildcards.obj
 0001:00064839       ?end@?$argument_list@D@?A0x5f5c8891@@QBEPAPADXZ 10065839 f   libucrt:argv_wildcards.obj
 0001:0006483d       ?end@?$argument_list@_W@?A0x5f5c8891@@QBEPAPA_WXZ 1006583d f   libucrt:argv_wildcards.obj
 0001:00064841       ?expand_if_necessary@?$argument_list@D@?A0x5f5c8891@@AAEHXZ 10065841 f   libucrt:argv_wildcards.obj
 0001:000648e9       ?expand_if_necessary@?$argument_list@_W@?A0x5f5c8891@@AAEHXZ 100658e9 f   libucrt:argv_wildcards.obj
 0001:00064998       ?previous_character@@YAPADQAD0@Z 10065998 f   libucrt:argv_wildcards.obj
 0001:000649a5       ?previous_character@@YAPA_WPA_WQA_W@Z 100659a5 f   libucrt:argv_wildcards.obj
 0001:000649b5       ?size@?$argument_list@D@?A0x5f5c8891@@QBEIXZ 100659b5 f   libucrt:argv_wildcards.obj
 0001:000649c0       ?size@?$argument_list@_W@?A0x5f5c8891@@QBEIXZ 100659c0 f   libucrt:argv_wildcards.obj
 0001:000649ff       ??$?RV<lambda_ceb1ee4838e85a9d631eb091e2fbe199>@@AAV<lambda_ae742caa10f662c28703da3d2ea5e57e>@@V<lambda_cd08b5d6af4937fe54fc07d0c9bf6b37>@@@?$__crt_seh_guarded_call@X@@QAEX$$QAV<lambda_ceb1ee4838e85a9d631eb091e2fbe199>@@AAV<lambda_ae742caa10f662c28703da3d2ea5e57e>@@$$QAV<lambda_cd08b5d6af4937fe54fc07d0c9bf6b37>@@@Z 100659ff f   libucrt:mbctype.obj
 0001:00064a52       ??$__acrt_lock_and_call@V<lambda_ae742caa10f662c28703da3d2ea5e57e>@@@@YAXW4__acrt_lock_id@@$$QAV<lambda_ae742caa10f662c28703da3d2ea5e57e>@@@Z 10065a52 f   libucrt:mbctype.obj
 0001:00064aa8       ??0<lambda_ae742caa10f662c28703da3d2ea5e57e>@@QAE@ABQAU__acrt_ptd@@ABQAPAU__crt_multibyte_data@@@Z 10065aa8 f   libucrt:mbctype.obj
 0001:00064ac3       ??0<lambda_cd08b5d6af4937fe54fc07d0c9bf6b37>@@QAE@ABW4__acrt_lock_id@@@Z 10065ac3 f   libucrt:mbctype.obj
 0001:00064ad9       ??0<lambda_ceb1ee4838e85a9d631eb091e2fbe199>@@QAE@ABW4__acrt_lock_id@@@Z 10065ad9 f   libucrt:mbctype.obj
 0001:00064aef       ??R<lambda_ae742caa10f662c28703da3d2ea5e57e>@@QBEXXZ 10065aef f   libucrt:mbctype.obj
 0001:00064b92       ??R<lambda_cd08b5d6af4937fe54fc07d0c9bf6b37>@@QBEXXZ 10065b92 f   libucrt:mbctype.obj
 0001:00064b9d       ??R<lambda_ceb1ee4838e85a9d631eb091e2fbe199>@@QBEXXZ 10065b9d f   libucrt:mbctype.obj
 0001:00064ba8       ?CPtoLocaleName@@YAPB_WH@Z 10065ba8 f   libucrt:mbctype.obj
 0001:00064bfb       ?getSystemCP@@YAHH@Z       10065bfb f   libucrt:mbctype.obj
 0001:00064cb9       ?setSBCS@@YAXPAU__crt_multibyte_data@@@Z 10065cb9 f   libucrt:mbctype.obj
 0001:00064d37       ?setSBUpLow@@YAXPAU__crt_multibyte_data@@@Z 10065d37 f   libucrt:mbctype.obj
 0001:00064f5d       ?setmbcp_internal@@YAHH_NQAU__acrt_ptd@@QAPAU__crt_multibyte_data@@@Z 10065f5d f   libucrt:mbctype.obj
 0001:000650be       ?update_thread_multibyte_data_internal@@YAPAU__crt_multibyte_data@@QAU__acrt_ptd@@QAPAU1@@Z 100660be f   libucrt:mbctype.obj
 0001:000654db       _memcpy_s                  100664db f   libucrt:mbctype.obj
 0001:0006557c       ?x_ismbbtype_l@@YAHPAU__crt_locale_pointers@@IHH@Z 1006657c f   libucrt:ismbbyte.obj
 0001:00065a03       ?filter_wcstomb_flags@@YAKIK@Z 10066a03 f   libucrt:widechartomultibyte.obj
 0001:00065b59       ??0?$__crt_unique_handle_t@Uenvironment_strings_traits@?A0x1bf47908@@@@QAE@QA_W@Z 10066b59 f   libucrt:get_environment_from_os.obj
 0001:00065b6d       ??1?$__crt_unique_handle_t@Uenvironment_strings_traits@?A0x1bf47908@@@@QAE@XZ 10066b6d f   libucrt:get_environment_from_os.obj
 0001:00065b89       ??B?$__crt_unique_handle_t@Uenvironment_strings_traits@?A0x1bf47908@@@@QBE_NXZ 10066b89 f   libucrt:get_environment_from_os.obj
 0001:00065b90       ?close@?$__crt_unique_handle_t@Uenvironment_strings_traits@?A0x1bf47908@@@@QAEXXZ 10066b90 f   libucrt:get_environment_from_os.obj
 0001:00065bac       ?close@environment_strings_traits@?A0x1bf47908@@SA_NPA_W@Z 10066bac f   libucrt:get_environment_from_os.obj
 0001:00065bc2       ?find_end_of_double_null_terminated_sequence@@YAPB_WQB_W@Z 10066bc2 f   libucrt:get_environment_from_os.obj
 0001:00065c06       ?get@?$__crt_unique_handle_t@Uenvironment_strings_traits@?A0x1bf47908@@@@QBEPA_WXZ 10066c06 f   libucrt:get_environment_from_os.obj
 0001:00065c09       ?get_invalid_value@environment_strings_traits@?A0x1bf47908@@SAPA_WXZ 10066c09 f   libucrt:get_environment_from_os.obj
 0001:00065c0c       ?is_valid@?$__crt_unique_handle_t@Uenvironment_strings_traits@?A0x1bf47908@@@@QBE_NXZ 10066c0c f   libucrt:get_environment_from_os.obj
 0001:00065d1e       ??$common_set_variable_in_environment_nolock@D@@YAHQADH@Z 10066d1e f   libucrt:setenv.obj
 0001:00065fee       ??$common_set_variable_in_environment_nolock@_W@@YAHQA_WH@Z 10066fee f   libucrt:setenv.obj
 0001:000662d8       ??$copy_environment@D@@YAPAPADQAPAD@Z 100672d8 f   libucrt:setenv.obj
 0001:000663b6       ??$copy_environment@_W@@YAPAPA_WQAPA_W@Z 100673b6 f   libucrt:setenv.obj
 0001:000664a6       ??$ensure_current_environment_is_not_initial_environment_nolock@D@@YAXXZ 100674a6 f   libucrt:setenv.obj
 0001:000664c6       ??$ensure_current_environment_is_not_initial_environment_nolock@_W@@YAXXZ 100674c6 f   libucrt:setenv.obj
 0001:000664e6       ??$find_in_environment_nolock@D@@YAHQBDI@Z 100674e6 f   libucrt:setenv.obj
 0001:00066550       ??$find_in_environment_nolock@_W@@YAHQB_WI@Z 10067550 f   libucrt:setenv.obj
 0001:00066725       ?get_environment@@YAAAPAPADD@Z 10067725 f   libucrt:setenv.obj
 0001:0006672b       ?get_environment@@YAAAPAPA_W_W@Z 1006772b f   libucrt:setenv.obj
 0001:00066731       ?get_initial_environment@@YAAAPAPADD@Z 10067731 f   libucrt:setenv.obj
 0001:00066737       ?get_initial_environment@@YAAAPAPA_W_W@Z 10067737 f   libucrt:setenv.obj
 0001:0006673d       ?get_other_environment@@YAAAPAPAD_W@Z 1006773d f   libucrt:setenv.obj
 0001:00066743       ?get_other_environment@@YAAAPAPA_WD@Z 10067743 f   libucrt:setenv.obj
 0001:00066b7b       ?GetTableIndexFromLcid@@YAHK@Z 10067b7b f   libucrt:lcidtoname_downlevel.obj
 0001:00066bbf       ?GetTableIndexFromLocaleName@@YAHPB_W@Z 10067bbf f   libucrt:lcidtoname_downlevel.obj
 0001:00066ca0       ?__wcsnicmp_ascii@@YAHPB_W0I@Z 10067ca0 f   libucrt:lcidtoname_downlevel.obj
 0001:00066e32       ??$?RV<lambda_9e9de3de5fa147e2223d7db92bc10aa6>@@AAV<lambda_38ce7e780aa69e748d6df282ebc68efe>@@V<lambda_8ca6da459f0f6780f1cff60fdc3d00e5>@@@?$__crt_seh_guarded_call@H@@QAEH$$QAV<lambda_9e9de3de5fa147e2223d7db92bc10aa6>@@AAV<lambda_38ce7e780aa69e748d6df282ebc68efe>@@$$QAV<lambda_8ca6da459f0f6780f1cff60fdc3d00e5>@@@Z 10067e32 f   libucrt:commit.obj
 0001:00066ef0       ??$__acrt_lowio_lock_fh_and_call@V<lambda_38ce7e780aa69e748d6df282ebc68efe>@@@@YAHH$$QAV<lambda_38ce7e780aa69e748d6df282ebc68efe>@@@Z 10067ef0 f   libucrt:commit.obj
 0001:00066f22       ??0<lambda_38ce7e780aa69e748d6df282ebc68efe>@@QAE@ABH@Z 10067f22 f   libucrt:commit.obj
 0001:00066f36       ??0<lambda_8ca6da459f0f6780f1cff60fdc3d00e5>@@QAE@ABH@Z 10067f36 f   libucrt:commit.obj
 0001:00066f4c       ??0<lambda_9e9de3de5fa147e2223d7db92bc10aa6>@@QAE@ABH@Z 10067f4c f   libucrt:commit.obj
 0001:00066f62       ??R<lambda_38ce7e780aa69e748d6df282ebc68efe>@@QBEHXZ 10067f62 f   libucrt:commit.obj
 0001:00066fcc       ??R<lambda_8ca6da459f0f6780f1cff60fdc3d00e5>@@QBEXXZ 10067fcc f   libucrt:commit.obj
 0001:00066fd7       ??R<lambda_9e9de3de5fa147e2223d7db92bc10aa6>@@QBEXXZ 10067fd7 f   libucrt:commit.obj
 0001:00067b39       ?__acrt_LCMapStringA_stat@@YAHPAU__crt_locale_pointers@@PB_WKPBDHPADHHH@Z 10068b39 f   libucrt:lcmapstringa.obj
 0001:00067e5a       ??R<lambda_0f007d4f94c691a9a85cf1869a09f0c3>@@QBEIPBD@Z 10068e5a f   libucrt:mbrtowc.obj
 0001:0006801f       ?_mbrtowc_s_l@@YAHPAHPA_WPBDIPAU_Mbstatet@@PAU__crt_locale_pointers@@@Z 1006901f f   libucrt:mbrtowc.obj
 0001:00068289       ?_mbsrtowcs_helper@@YAIPA_WPAPBDIPAU_Mbstatet@@@Z 10069289 f   libucrt:mbrtowc.obj
 0001:0006922e       ??$convert_to_fos_high_precision@N@@YAXNIQAHQADI@Z 1006a22e f   libucrt:cfout.obj
 0001:0006aa54       ??0scoped_fp_state_reset@?A0x71ca7cfb@@QAE@XZ 1006ba54 f   libucrt:cfout.obj
 0001:0006aa8b       ??1scoped_fp_state_reset@?A0x71ca7cfb@@QAE@XZ 1006ba8b f   libucrt:cfout.obj
 0001:0006c409       _memcpy_s                  1006d409 f   libucrt:cfout.obj
 0001:0006cb55       _fix_grouping              1006db55 f   libucrt:initmon.obj
 0001:0006ceb3       _fix_grouping              1006deb3 f   libucrt:initnum.obj
 0001:0006cf0f       ??$free_crt_array@D$01@@YAXAAY01PAD@Z 1006df0f f   libucrt:inittime.obj
 0001:0006cf26       ??$free_crt_array@D$06@@YAXAAY06PAD@Z 1006df26 f   libucrt:inittime.obj
 0001:0006cf3d       ??$free_crt_array@D$0M@@@YAXAAY0M@PAD@Z 1006df3d f   libucrt:inittime.obj
 0001:0006cf54       ??$free_crt_array@_W$01@@YAXAAY01PA_W@Z 1006df54 f   libucrt:inittime.obj
 0001:0006cf6b       ??$free_crt_array@_W$06@@YAXAAY06PA_W@Z 1006df6b f   libucrt:inittime.obj
 0001:0006cf82       ??$free_crt_array@_W$0M@@@YAXAAY0M@PA_W@Z 1006df82 f   libucrt:inittime.obj
 0001:0006cfd0       ?free_crt_array_internal@@YAXQAPBXI@Z 1006dfd0 f   libucrt:inittime.obj
 0001:0006d019       ?get_or_create_lc_time@@YAPBU__crt_lc_time_data@@QAU__crt_locale_data@@@Z 1006e019 f   libucrt:inittime.obj
 0001:0006d092       ?initialize_lc_time@@YA_NQAU__crt_lc_time_data@@QAU__crt_locale_data@@@Z 1006e092 f   libucrt:inittime.obj
 0001:0006d582       ??$common_tcsncpy_s@_W@@YAHQA_WIQB_WI@Z 1006e582 f   libucrt:wcsncpy_s.obj
 0001:0006da6b       _GetLocaleNameFromDefault  1006ea6b f   libucrt:get_qualified_locale.obj
 0001:0006db16       _GetLocaleNameFromLangCountry 1006eb16 f   libucrt:get_qualified_locale.obj
 0001:0006dbd6       _GetLocaleNameFromLanguage 1006ebd6 f   libucrt:get_qualified_locale.obj
 0001:0006dc47       _GetPrimaryLen             1006ec47 f   libucrt:get_qualified_locale.obj
 0001:0006dc88       _LangCountryEnumProcEx@12  1006ec88 f   libucrt:get_qualified_locale.obj
 0001:0006e035       _LanguageEnumProcEx@12     1006f035 f   libucrt:get_qualified_locale.obj
 0001:0006e126       _ProcessCodePage           1006f126 f   libucrt:get_qualified_locale.obj
 0001:0006e25c       _TestDefaultCountry        1006f25c f   libucrt:get_qualified_locale.obj
 0001:0006e2b9       _TestDefaultLanguage       1006f2b9 f   libucrt:get_qualified_locale.obj
 0001:0006e310       _TranslateName             1006f310 f   libucrt:get_qualified_locale.obj
 0001:0006e616       _CountryEnumProc@4         1006f616 f   libucrt:getqloc_downlevel.obj
 0001:0006e6e9       _GetLcidFromCountry        1006f6e9 f   libucrt:getqloc_downlevel.obj
 0001:0006e746       _GetLcidFromDefault        1006f746 f   libucrt:getqloc_downlevel.obj
 0001:0006e76b       _GetLcidFromLangCountry    1006f76b f   libucrt:getqloc_downlevel.obj
 0001:0006e82c       _GetLcidFromLanguage       1006f82c f   libucrt:getqloc_downlevel.obj
 0001:0006e8a5       _GetPrimaryLen             1006f8a5 f   libucrt:getqloc_downlevel.obj
 0001:0006e8dc       _LangCountryEnumProc@4     1006f8dc f   libucrt:getqloc_downlevel.obj
 0001:0006ebc7       _LanguageEnumProc@4        1006fbc7 f   libucrt:getqloc_downlevel.obj
 0001:0006ecd3       _LcidFromHexString         1006fcd3 f   libucrt:getqloc_downlevel.obj
 0001:0006ed38       _ProcessCodePage           1006fd38 f   libucrt:getqloc_downlevel.obj
 0001:0006ee53       _TestDefaultCountry        1006fe53 f   libucrt:getqloc_downlevel.obj
 0001:0006ee81       _TestDefaultLanguage       1006fe81 f   libucrt:getqloc_downlevel.obj
 0001:0006ef0d       _TranslateName             1006ff0d f   libucrt:getqloc_downlevel.obj
 0001:0006f5b5       ??$__acrt_convert_wcs_mbs_cp@D_WV<lambda_62f6974d9771e494a5ea317cc32e971c>@@U__crt_win32_buffer_internal_dynamic_resizing@@@@YAHQBDAAV?$__crt_win32_buffer@_WU__crt_win32_buffer_internal_dynamic_resizing@@@@ABV<lambda_62f6974d9771e494a5ea317cc32e971c>@@I@Z 100705b5 f   libucrt:open.obj
 0001:0006f65b       ??$common_open@D@@YAHQBDHH@Z 1007065b f   libucrt:open.obj
 0001:0006f72f       ??$common_open@_W@@YAHQB_WHH@Z 1007072f f   libucrt:open.obj
 0001:0006f803       ??$common_sopen_dispatch@D@@YAHQBDHHHQAHH@Z 10070803 f   libucrt:open.obj
 0001:0006f8e7       ??$common_sopen_dispatch@_W@@YAHQB_WHHHQAHH@Z 100708e7 f   libucrt:open.obj
 0001:0006fac3       ??R<lambda_62f6974d9771e494a5ea317cc32e971c>@@QBEHIQBDQA_WI@Z 10070ac3 f   libucrt:open.obj
 0001:0006faec       ?configure_text_mode@@YAHHUfile_options@?A0xa9d50aae@@HAAW4__crt_lowio_text_mode@@@Z 10070aec f   libucrt:open.obj
 0001:0006fdc7       ?create_file@@YAPAXQB_WQAU_SECURITY_ATTRIBUTES@@Ufile_options@?A0xa9d50aae@@@Z 10070dc7 f   libucrt:open.obj
 0001:0006fdf5       ?decode_access_flags@@YAKH@Z 10070df5 f   libucrt:open.obj
 0001:0006fe70       ?decode_open_create_flags@@YAKH@Z 10070e70 f   libucrt:open.obj
 0001:0006fefc       ?decode_options@@YA?AUfile_options@?A0xa9d50aae@@HHH@Z 10070efc f   libucrt:open.obj
 0001:000700d7       ?decode_sharing_flags@@YAKHH@Z 100710d7 f   libucrt:open.obj
 0001:00070141       ?is_text_mode@@YA_NH@Z     10071141 f   libucrt:open.obj
 0001:0007019b       ?truncate_ctrl_z_if_present@@YAHH@Z 1007119b f   libucrt:open.obj
 0001:00070899       ??$?RV<lambda_f828341fbe69b7c0d4c527b01f22877f>@@AAV<lambda_9e0b6ab72a5b3ae37ad997d08b519f50>@@V<lambda_f01deac0a8d65d6e0411edf7e0af5775>@@@?$__crt_seh_guarded_call@G@@QAEG$$QAV<lambda_f828341fbe69b7c0d4c527b01f22877f>@@AAV<lambda_9e0b6ab72a5b3ae37ad997d08b519f50>@@$$QAV<lambda_f01deac0a8d65d6e0411edf7e0af5775>@@@Z 10071899 f   libucrt:putwch.obj
 0001:0007090e       ??$__acrt_lock_and_call@V<lambda_9e0b6ab72a5b3ae37ad997d08b519f50>@@@@YAGW4__acrt_lock_id@@$$QAV<lambda_9e0b6ab72a5b3ae37ad997d08b519f50>@@@Z 1007190e f   libucrt:putwch.obj
 0001:00070940       ??0<lambda_9e0b6ab72a5b3ae37ad997d08b519f50>@@QAE@AB_W@Z 10071940 f   libucrt:putwch.obj
 0001:00070954       ??0<lambda_f01deac0a8d65d6e0411edf7e0af5775>@@QAE@ABW4__acrt_lock_id@@@Z 10071954 f   libucrt:putwch.obj
 0001:0007096a       ??0<lambda_f828341fbe69b7c0d4c527b01f22877f>@@QAE@ABW4__acrt_lock_id@@@Z 1007196a f   libucrt:putwch.obj
 0001:00070980       ??R<lambda_9e0b6ab72a5b3ae37ad997d08b519f50>@@QBEGXZ 10071980 f   libucrt:putwch.obj
 0001:00070990       ??R<lambda_f01deac0a8d65d6e0411edf7e0af5775>@@QBEXXZ 10071990 f   libucrt:putwch.obj
 0001:0007099b       ??R<lambda_f828341fbe69b7c0d4c527b01f22877f>@@QBEXXZ 1007199b f   libucrt:putwch.obj
 0001:00070a47       ?_mbstowcs_l_helper@@YAIPA_WPBDIPAU__crt_locale_pointers@@@Z 10071a47 f   libucrt:mbstowcs.obj
 0001:00070fb8       ??$to_abstract_status@W4__acrt_fenv_machine_sse_status@@@@YA?AW4__acrt_fenv_abstract_status@@W4__acrt_fenv_machine_sse_status@@@Z 10071fb8 f   libucrt:_fenvutils.obj
 0001:0007101c       ??$to_abstract_status@W4__acrt_fenv_machine_x87_status@@@@YA?AW4__acrt_fenv_abstract_status@@W4__acrt_fenv_machine_x87_status@@@Z 1007201c f   libucrt:_fenvutils.obj
 0001:00071080       ??$translate_control_exception_mask@W4__acrt_fenv_abstract_control@@W4__acrt_fenv_machine_sse_control@@@@YA?AW4__acrt_fenv_abstract_control@@W4__acrt_fenv_machine_sse_control@@@Z 10072080 f   libucrt:_fenvutils.obj
 0001:000710e5       ??$translate_control_exception_mask@W4__acrt_fenv_abstract_control@@W4__acrt_fenv_machine_x87_control@@@@YA?AW4__acrt_fenv_abstract_control@@W4__acrt_fenv_machine_x87_control@@@Z 100720e5 f   libucrt:_fenvutils.obj
 0001:00071149       ??$translate_control_exception_mask@W4__acrt_fenv_machine_sse_control@@W4__acrt_fenv_abstract_control@@@@YA?AW4__acrt_fenv_machine_sse_control@@W4__acrt_fenv_abstract_control@@@Z 10072149 f   libucrt:_fenvutils.obj
 0001:000711f4       ??$translate_control_exception_mask@W4__acrt_fenv_machine_x87_control@@W4__acrt_fenv_abstract_control@@@@YA?AW4__acrt_fenv_machine_x87_control@@W4__acrt_fenv_abstract_control@@@Z 100721f4 f   libucrt:_fenvutils.obj
 0001:00071277       ??$translate_control_infinity_control@W4__acrt_fenv_abstract_control@@W4__acrt_fenv_machine_x87_control@@@@YA?AW4__acrt_fenv_abstract_control@@W4__acrt_fenv_machine_x87_control@@@Z 10072277 f   libucrt:_fenvutils.obj
 0001:0007128e       ??$translate_control_infinity_control@W4__acrt_fenv_machine_x87_control@@W4__acrt_fenv_abstract_control@@@@YA?AW4__acrt_fenv_machine_x87_control@@W4__acrt_fenv_abstract_control@@@Z 1007228e f   libucrt:_fenvutils.obj
 0001:000712ad       ??$translate_control_precision_control@W4__acrt_fenv_abstract_control@@W4__acrt_fenv_machine_x87_control@@@@YA?AW4__acrt_fenv_abstract_control@@W4__acrt_fenv_machine_x87_control@@@Z 100722ad f   libucrt:_fenvutils.obj
 0001:000712df       ??$translate_control_precision_control@W4__acrt_fenv_machine_x87_control@@W4__acrt_fenv_abstract_control@@@@YA?AW4__acrt_fenv_machine_x87_control@@W4__acrt_fenv_abstract_control@@@Z 100722df f   libucrt:_fenvutils.obj
 0001:00071311       ??$translate_control_rounding_control@W4__acrt_fenv_abstract_control@@W4__acrt_fenv_machine_sse_control@@@@YA?AW4__acrt_fenv_abstract_control@@W4__acrt_fenv_machine_sse_control@@@Z 10072311 f   libucrt:_fenvutils.obj
 0001:0007135c       ??$translate_control_rounding_control@W4__acrt_fenv_abstract_control@@W4__acrt_fenv_machine_x87_control@@@@YA?AW4__acrt_fenv_abstract_control@@W4__acrt_fenv_machine_x87_control@@@Z 1007235c f   libucrt:_fenvutils.obj
 0001:000713a7       ??$translate_control_rounding_control@W4__acrt_fenv_machine_sse_control@@W4__acrt_fenv_abstract_control@@@@YA?AW4__acrt_fenv_machine_sse_control@@W4__acrt_fenv_abstract_control@@@Z 100723a7 f   libucrt:_fenvutils.obj
 0001:000713f2       ??$translate_control_rounding_control@W4__acrt_fenv_machine_x87_control@@W4__acrt_fenv_abstract_control@@@@YA?AW4__acrt_fenv_machine_x87_control@@W4__acrt_fenv_abstract_control@@@Z 100723f2 f   libucrt:_fenvutils.obj
 0001:0007143d       ??$translate_status@W4__acrt_fenv_abstract_status@@W4__acrt_fenv_machine_sse_status@@@@YA?AW4__acrt_fenv_abstract_status@@W4__acrt_fenv_machine_sse_status@@@Z 1007243d f   libucrt:_fenvutils.obj
 0001:000714a1       ??$translate_status@W4__acrt_fenv_abstract_status@@W4__acrt_fenv_machine_x87_status@@@@YA?AW4__acrt_fenv_abstract_status@@W4__acrt_fenv_machine_x87_status@@@Z 100724a1 f   libucrt:_fenvutils.obj
 0001:00071505       ??$translate_status@W4__acrt_fenv_machine_sse_status@@W4__acrt_fenv_abstract_status@@@@YA?AW4__acrt_fenv_machine_sse_status@@W4__acrt_fenv_abstract_status@@@Z 10072505 f   libucrt:_fenvutils.obj
 0001:00071569       ??$translate_status@W4__acrt_fenv_machine_x87_status@@W4__acrt_fenv_abstract_status@@@@YA?AW4__acrt_fenv_machine_x87_status@@W4__acrt_fenv_abstract_status@@@Z 10072569 f   libucrt:_fenvutils.obj
 0001:000717c3       ?get_machine_sse_control@@YA?AW4__acrt_fenv_machine_sse_control@@XZ 100727c3 f   libucrt:_fenvutils.obj
 0001:000717ee       ?get_machine_sse_status@@YA?AW4__acrt_fenv_machine_sse_status@@XZ 100727ee f   libucrt:_fenvutils.obj
 0001:00071817       ?get_machine_x87_control@@YA?AW4__acrt_fenv_machine_x87_control@@XZ 10072817 f   libucrt:_fenvutils.obj
 0001:00071846       ?get_machine_x87_status@@YA?AW4__acrt_fenv_machine_x87_status@@XZ 10072846 f   libucrt:_fenvutils.obj
 0001:00071866       ?set_machine_sse_control@@YAXW4__acrt_fenv_machine_sse_control@@@Z 10072866 f   libucrt:_fenvutils.obj
 0001:000718a3       ?set_machine_sse_status@@YAXW4__acrt_fenv_machine_sse_status@@@Z 100728a3 f   libucrt:_fenvutils.obj
 0001:000718da       ?set_machine_x87_control@@YAXW4__acrt_fenv_machine_x87_control@@@Z 100728da f   libucrt:_fenvutils.obj
 0001:00071916       ?set_machine_x87_status@@YAXW4__acrt_fenv_machine_x87_status@@@Z 10072916 f   libucrt:_fenvutils.obj
 0001:0007194f       ?to_abstract_control@@YA?AW4__acrt_fenv_abstract_control@@W4__acrt_fenv_machine_sse_control@@@Z 1007294f f   libucrt:_fenvutils.obj
 0001:00071a3a       ?to_abstract_control@@YA?AW4__acrt_fenv_abstract_control@@W4__acrt_fenv_machine_x87_control@@@Z 10072a3a f   libucrt:_fenvutils.obj
 0001:00071b26       ?to_machine_sse_control@@YA?AW4__acrt_fenv_machine_sse_control@@W4__acrt_fenv_abstract_control@@@Z 10072b26 f   libucrt:_fenvutils.obj
 0001:00071bdf       ?to_machine_sse_status@@YA?AW4__acrt_fenv_machine_sse_status@@W4__acrt_fenv_abstract_status@@@Z 10072bdf f   libucrt:_fenvutils.obj
 0001:00071c49       ?to_machine_x87_control@@YA?AW4__acrt_fenv_machine_x87_control@@W4__acrt_fenv_abstract_control@@@Z 10072c49 f   libucrt:_fenvutils.obj
 0001:00071d6d       ?to_machine_x87_status@@YA?AW4__acrt_fenv_machine_x87_status@@W4__acrt_fenv_abstract_status@@@Z 10072d6d f   libucrt:_fenvutils.obj
 0001:00071dd7       ?translate_control_denormal_control_from_sse@@YA?AW4__acrt_fenv_abstract_control@@W4__acrt_fenv_machine_sse_control@@@Z 10072dd7 f   libucrt:_fenvutils.obj
 0001:00071e20       ?translate_control_denormal_control_to_sse@@YA?AW4__acrt_fenv_machine_sse_control@@W4__acrt_fenv_abstract_control@@@Z 10072e20 f   libucrt:_fenvutils.obj
 0001:00072250       ?shortsort@@YAXPAD0IP6AHPBX1@Z@Z 10073250 f   libucrt:qsort.obj
 0001:00072310       ?swap@@YAXPAD0I@Z          10073310 f   libucrt:qsort.obj
 0001:000728b5       ??$common_tcsncpy_s@D@@YAHQADIQBDI@Z 100738b5 f   libucrt:strncpy_s.obj
 0001:000729a0       $$000000                   100739a0     libucrt:strpbrk.obj
 0001:00072fb2       ?initialize_multibyte@@YAHXZ 10073fb2 f   libucrt:multibyte_initializer.obj
 0001:000736fb       ?InternalGetLocaleInfoA@@YAHQAU__crt_locale_pointers@@QB_WKQADH@Z 100746fb f   libucrt:getlocaleinfoa.obj
 0001:00073b20       $$000000                   10074b20     libucrt:log10_impl.obj
 0001:00073c80       $$000000                   10074c80     libucrt:ceil_pentium4.obj
 0001:00073f00       $$000000                   10074f00     libucrt:_strnicm.obj
 0001:0007425b       ??$?RV<lambda_3b12a17125e8c5b5e6e6f6c6050db0c1>@@AAV<lambda_522ac1b1e1a1180d6f374a882b81d1c8>@@V<lambda_e92b96cac182f562f30acc9fb7872857>@@@?$__crt_seh_guarded_call@H@@QAEH$$QAV<lambda_3b12a17125e8c5b5e6e6f6c6050db0c1>@@AAV<lambda_522ac1b1e1a1180d6f374a882b81d1c8>@@$$QAV<lambda_e92b96cac182f562f30acc9fb7872857>@@@Z 1007525b f   libucrt:chsize.obj
 0001:00074305       ??$__acrt_lowio_lock_fh_and_call@V<lambda_522ac1b1e1a1180d6f374a882b81d1c8>@@@@YAHH$$QAV<lambda_522ac1b1e1a1180d6f374a882b81d1c8>@@@Z 10075305 f   libucrt:chsize.obj
 0001:00074337       ??0<lambda_3b12a17125e8c5b5e6e6f6c6050db0c1>@@QAE@ABH@Z 10075337 f   libucrt:chsize.obj
 0001:0007434d       ??0<lambda_522ac1b1e1a1180d6f374a882b81d1c8>@@QAE@ABHAB_J@Z 1007534d f   libucrt:chsize.obj
 0001:00074368       ??0<lambda_e92b96cac182f562f30acc9fb7872857>@@QAE@ABH@Z 10075368 f   libucrt:chsize.obj
 0001:0007437e       ??R<lambda_3b12a17125e8c5b5e6e6f6c6050db0c1>@@QBEXXZ 1007537e f   libucrt:chsize.obj
 0001:00074389       ??R<lambda_522ac1b1e1a1180d6f374a882b81d1c8>@@QBEHXZ 10075389 f   libucrt:chsize.obj
 0001:000743dc       ??R<lambda_e92b96cac182f562f30acc9fb7872857>@@QBEXXZ 100753dc f   libucrt:chsize.obj
 0001:0007474e       ??$console_output_reopen_and_retry@V<lambda_61c1b8a38cedca4df5fdc542e6ccae6d>@@@@YAHABV<lambda_61c1b8a38cedca4df5fdc542e6ccae6d>@@@Z 1007574e f   libucrt:initcon.obj
 0001:000747bc       ??0<lambda_61c1b8a38cedca4df5fdc542e6ccae6d>@@QAE@ABQBXABKABQAK@Z 100757bc f   libucrt:initcon.obj
 0001:000747e6       ??R<lambda_61c1b8a38cedca4df5fdc542e6ccae6d>@@QBEHXZ 100757e6 f   libucrt:initcon.obj
 0001:00074802       ?__dcrt_lowio_initialize_console_output@@YAXXZ 10075802 f   libucrt:initcon.obj
 0001:00074a85       ?_wcstombs_l_helper@@YAIPADPB_WIPAU__crt_locale_pointers@@@Z 10075a85 f   libucrt:wcstombs.obj
 0001:00074dd8       ?wcsncnt@@YAIPB_WI@Z       10075dd8 f   libucrt:wcstombs.obj
 0001:00074fef       ?InternalCompareStringA@@YAHPAU__crt_locale_pointers@@PB_WKPBDH2HH@Z 10075fef f   libucrt:comparestringa.obj
 0001:00075362       ___abstract_cw_sse2        10076362 f   libucrt:ieee87.obj
 0001:00075436       ___abstract_sw_sse2        10076436 f   libucrt:ieee87.obj
 0001:00075489       ___clearfp_sse2            10076489 f   libucrt:ieee87.obj
 0001:000758e1       ___control87_sse2          100768e1 f   libucrt:ieee87.obj
 0001:00075ad2       ___hw_cw_sse2              10076ad2 f   libucrt:ieee87.obj
 0001:00075ba2       ___statusfp_sse2           10076ba2 f   libucrt:ieee87.obj
 0001:00075bf3       __abstract_cw              10076bf3 f   libucrt:ieee87.obj
 0001:00075cb9       __abstract_sw              10076cb9 f   libucrt:ieee87.obj
 0001:00076240       __hw_cw                    10077240 f   libucrt:ieee87.obj
 0001:00076520       $$000000                   10077520     libucrt:log10_pentium4.obj
 0001:00076860       $$000000                   10077860     libucrt:87tran.obj
 0001:00076af0       $$000000                   10077af0     libucrt:87disp.obj
 0001:00076e00       $$000000                   10077e00     libucrt:common.obj
 0001:00076ff0       $$000000                   10077ff0     libucrt:genexcep.obj
 0001:0007745f       ?fperrraise_with@@YAXHK@Z  1007845f f   libucrt:_test.obj
 0001:000779a4       ?_wcrtomb_s_l@@YAHQAHQADI_WQAU_Mbstatet@@QAU__crt_locale_pointers@@@Z 100789a4 f   libucrt:wcrtomb.obj
 0001:00077a79       _internal_wcsrtombs        10078a79 f   libucrt:wcrtomb.obj
 0001:00077c6d       _memcpy_s                  10078c6d f   libucrt:wcrtomb.obj
 0001:0007848a       ?combine_second_surrogate@?A0xc60ee810@@YA_U_SPAU_Mbstatet@@@Z 1007948a f   libucrt:c16rtomb.obj
 0001:000784a4       ?has_surrogate@?A0xc60ee810@@YA_NPAU_Mbstatet@@@Z 100794a4 f   libucrt:c16rtomb.obj
 0001:000784b8       ?is_first_surrogate@?A0xc60ee810@@YA_N_S@Z 100794b8 f   libucrt:c16rtomb.obj
 0001:000784d9       ?is_second_surrogate@?A0xc60ee810@@YA_N_S@Z 100794d9 f   libucrt:c16rtomb.obj
 0001:000784fa       ?store_first_surrogate@?A0xc60ee810@@YAX_SPAU_Mbstatet@@@Z 100794fa f   libucrt:c16rtomb.obj
 0001:00078930       $$000000                   10079930     LIBCMT:ulldvrm.obj
 0001:00078a30       $$000000                   10079a30     LIBCMT:sehprolg4gs.obj
 0001:00078aa0       $$000000                   10079aa0     LIBCMT:llmul.obj
 0001:00078af0       $$000000                   10079af0     LIBCMT:llshl.obj
 0001:00078b20       $$000000                   10079b20     LIBCMT:ullshr.obj
 0001:00078b50       $$000000                   10079b50     LIBCMT:lldvrm.obj
 0001:00078c70       $$000000                   10079c70     LIBCMT:chkstk.obj
 0001:00078cb0       $$000000                   10079cb0     LIBCMT:alloca16.obj
 0001:00078cf0       $$000000                   10079cf0     LIBCMT:ftol2.obj
 0001:00078fa0       $$000000                   10079fa0     libvcruntime:strrchr.obj
 0001:00079124       _cmpBYTE                   1007a124 f   libvcruntime:memcmp.obj
 0001:00079152       _cmpDWORD                  1007a152 f   libvcruntime:memcmp.obj
 0001:000791d0       _cmpResult                 1007a1d0 f   libvcruntime:memcmp.obj
 0001:000791f3       _cmpWORD                   1007a1f3 f   libvcruntime:memcmp.obj
 0001:0007a179       $LN1285                    1007b179     libvcruntime:memcmp.obj
 0001:0007a5e2       _unaligned_memcmp          1007b5e2 f   libvcruntime:memcmp.obj
 0001:0007b342       $LN1243                    1007c342     libvcruntime:memcmp.obj
 0001:0007edc5       __unwindfunclet$?getDecoratedName@UnDecorator@@CA?AVDName@@XZ$0 1007fdc5 f   libvcruntime:undname.obj
 0001:0007edcd       __ehhandler$?getDecoratedName@UnDecorator@@CA?AVDName@@XZ 1007fdcd f   libvcruntime:undname.obj
 0001:0007edf0       __ehhandler$?CallUnexpected@@YAXPBU_s_ESTypeList@@@Z 1007fdf0 f   libvcruntime:frame.obj
 0001:0007ee11       __unwindfunclet$?_wcstombs_l_helper@@YAIPADPB_WIPAU__crt_locale_pointers@@@Z$0 1007fe11 f   libucrt:wcstombs.obj
 0001:0007ee19       __ehhandler$?_wcstombs_l_helper@@YAIPADPB_WIPAU__crt_locale_pointers@@@Z 1007fe19 f   libucrt:wcstombs.obj
 0002:00001718       _rtMemAllocError           10082718     rt_logging.obj
 0002:00001730       _rtStructLogVarFieldNames  10082730     rt_logging.obj
 0002:000017f8       _rtLocalLoggingSignalsStructFieldNames 100827f8     rt_logging.obj
 0002:00001980       _rtGlobalLoggingSignalsStructFieldNames 10082980     rt_logging.obj
 0002:00001b48       _rtLocalLoggingSignalsStructFieldNames_noValDims 10082b48     rt_logging.obj
 0002:00001c90       _rtGlobalLoggingSignalsStructFieldNames_noValDims 10082c90     rt_logging.obj
 0002:00002c28       _rtBlockSignals            10083c28     udp_comm_test_capi.obj
 0002:00002f54       _rtSampleTimeMap           10083f54     udp_comm_test_capi.obj
 0002:00002f60       _rtBlockParameters         10083f60     udp_comm_test_capi.obj
 0002:00003348       _rtModelParameters         10084348     udp_comm_test_capi.obj
 0002:00003358       _rtDataTypeMap             10084358     udp_comm_test_capi.obj
 0002:000033a8       _rtElementMap              100843a8     udp_comm_test_capi.obj
 0002:000033b8       _rtDimensionMap            100843b8     udp_comm_test_capi.obj
 0002:00003428       _rtDimensionArray          10084428     udp_comm_test_capi.obj
 0002:00003460       _rtcapiStoredFloats        10084460     udp_comm_test_capi.obj
 0002:00003470       _rtFixPtMap                10084470     udp_comm_test_capi.obj
 0002:00003a50       _rtMemAllocError           10084a50     rt_logging_mmi.obj
 0002:000062c0       _Int32ToUInt32             100872c0     LIBCMT:ftol3.obj
 0002:000062c8       _DP2to32                   100872c8     LIBCMT:ftol3.obj
 0002:000062d0       _MantissaMask              100872d0     LIBCMT:ftol3.obj
 0002:000062d8       _IntegerBit                100872d8     LIBCMT:ftol3.obj
 0002:000062e0       _SignBit64                 100872e0     LIBCMT:ftol3.obj
 0002:000062e8       _MinFP64                   100872e8     LIBCMT:ftol3.obj
 0002:000062f0       _MinInt64                  100872f0     LIBCMT:ftol3.obj
 0002:000062f8       _MaxInt64                  100872f8     LIBCMT:ftol3.obj
 0002:00006300       _MaxUInt64                 10087300     LIBCMT:ftol3.obj
 0002:00006308       _MaxFP32                   10087308     LIBCMT:ftol3.obj
 0002:00006310       _MinFP32                   10087310     LIBCMT:ftol3.obj
 0002:00006318       _MinSubInexact             10087318     LIBCMT:ftol3.obj
 0002:00006320       _FpExcptTable              10087320     LIBCMT:ftol3.obj
 0002:00006330       _i1075                     10087330     LIBCMT:ftol3.obj
 0002:00006334       _i1087                     10087334     LIBCMT:ftol3.obj
 0002:00006338       _x0800                     10087338     LIBCMT:ftol3.obj
 0002:0000633c       _x17FF                     1008733c     LIBCMT:ftol3.obj
 0002:00006340       _CWMask                    10087340     LIBCMT:ftol3.obj
 0002:0000635c       _GS_ExceptionPointers      1008735c     LIBCMT:gs_report.obj
 0002:00006370       ?tokenTable@@3QBQBDB       10087370     libvcruntime:undname.obj
 0002:000063b0       ?nameTable@@3QBQBDB        100873b0     libvcruntime:undname.obj
 0002:000064f8       ?rttiTable@@3QBQBDB        100874f8     libvcruntime:undname.obj
 0002:00007148       ?module_names@?A0x5d2a34d3@@3QBQB_WB 10088148     libvcruntime:winapi_downlevel.obj
 0002:00007228       ?candidate_modules@?1??try_get_FlsAlloc@@YAP6GKP6GXPAX@Z@ZXZ@4QBW4module_id@?A0x5d2a34d3@@B 10088228     libvcruntime:winapi_downlevel.obj
 0002:00007240       ?candidate_modules@?1??try_get_FlsFree@@YAP6GHK@ZXZ@4QBW4module_id@?A0x5d2a34d3@@B 10088240     libvcruntime:winapi_downlevel.obj
 0002:00007258       ?candidate_modules@?1??try_get_FlsGetValue@@YAP6GPAXK@ZXZ@4QBW4module_id@?A0x5d2a34d3@@B 10088258     libvcruntime:winapi_downlevel.obj
 0002:00007274       ?candidate_modules@?1??try_get_FlsSetValue@@YAP6GHKPAX@ZXZ@4QBW4module_id@?A0x5d2a34d3@@B 10088274     libvcruntime:winapi_downlevel.obj
 0002:00007290       ?candidate_modules@?1??try_get_InitializeCriticalSectionEx@@YAP6GHPAU_RTL_CRITICAL_SECTION@@KK@ZXZ@4QBW4module_id@?A0x5d2a34d3@@B 10088290     libvcruntime:winapi_downlevel.obj
 0002:0000730c       ?ExceptionTemplate@?1??_CxxThrowException@@9@8@4UEHExceptionRecord@@B 1008830c     libvcruntime:throw.obj
 0002:000088a8       ?_names@?1??_get_fname@@9@9 100898a8     libucrt:fpexcept.obj
 0002:00008b50       ___acrt_initializers       10089b50     libucrt:initialization.obj
 0002:00008bf0       ?errtable@@3QBUerrentry@?A0x31fdb9ec@@B 10089bf0     libucrt:errno.obj
 0002:00008d98       ?module_names@?A0x391cf84c@@3QBQB_WB 10089d98     libucrt:winapi_thunks.obj
 0002:000093ac       ?candidate_modules@?1??try_get_AreFileApisANSI@@YAP6GHXZXZ@4QBW4module_id@?A0x391cf84c@@B 1008a3ac     libucrt:winapi_thunks.obj
 0002:000093c4       ?candidate_modules@?1??try_get_CompareStringEx@@YAP6GHPB_WK0H0HPAU_nlsversioninfo@@PAXJ@ZXZ@4QBW4module_id@?A0x391cf84c@@B 1008a3c4     libucrt:winapi_thunks.obj
 0002:000093e4       ?candidate_modules@?1??try_get_EnumSystemLocalesEx@@YAP6GHP6GHPA_WKJ@ZKJPAX@ZXZ@4QBW4module_id@?A0x391cf84c@@B 1008a3e4     libucrt:winapi_thunks.obj
 0002:00009408       ?candidate_modules@?1??try_get_FlsAlloc@@YAP6GKP6GXPAX@Z@ZXZ@4QBW4module_id@?A0x391cf84c@@B 1008a408     libucrt:winapi_thunks.obj
 0002:00009420       ?candidate_modules@?1??try_get_FlsFree@@YAP6GHK@ZXZ@4QBW4module_id@?A0x391cf84c@@B 1008a420     libucrt:winapi_thunks.obj
 0002:00009438       ?candidate_modules@?1??try_get_FlsGetValue@@YAP6GPAXK@ZXZ@4QBW4module_id@?A0x391cf84c@@B 1008a438     libucrt:winapi_thunks.obj
 0002:00009454       ?candidate_modules@?1??try_get_FlsSetValue@@YAP6GHKPAX@ZXZ@4QBW4module_id@?A0x391cf84c@@B 1008a454     libucrt:winapi_thunks.obj
 0002:00009470       ?candidate_modules@?1??try_get_GetActiveWindow@@YAP6GPAUHWND__@@XZXZ@4QBW4module_id@?A0x391cf84c@@B 1008a470     libucrt:winapi_thunks.obj
 0002:00009490       ?candidate_modules@?1??try_get_GetDateFormatEx@@YAP6GHPB_WKPBU_SYSTEMTIME@@0PA_WH0@ZXZ@4QBW4module_id@?A0x391cf84c@@B 1008a490     libucrt:winapi_thunks.obj
 0002:000094b0       ?candidate_modules@?1??try_get_GetEnabledXStateFeatures@@YAP6G_KXZXZ@4QBW4module_id@?A0x391cf84c@@B 1008a4b0     libucrt:winapi_thunks.obj
 0002:000094dc       ?candidate_modules@?1??try_get_GetLastActivePopup@@YAP6GPAUHWND__@@PAU2@@ZXZ@4QBW4module_id@?A0x391cf84c@@B 1008a4dc     libucrt:winapi_thunks.obj
 0002:00009500       ?candidate_modules@?1??try_get_GetLocaleInfoEx@@YAP6GHPB_WKPA_WH@ZXZ@4QBW4module_id@?A0x391cf84c@@B 1008a500     libucrt:winapi_thunks.obj
 0002:00009520       ?candidate_modules@?1??try_get_GetProcessWindowStation@@YAP6GPAUHWINSTA__@@XZXZ@4QBW4module_id@?A0x391cf84c@@B 1008a520     libucrt:winapi_thunks.obj
 0002:00009548       ?candidate_modules@?1??try_get_GetSystemTimePreciseAsFileTime@@YAP6GXPAU_FILETIME@@@ZXZ@4QBW4module_id@?A0x391cf84c@@B 1008a548     libucrt:winapi_thunks.obj
 0002:00009574       ?candidate_modules@?1??try_get_GetTimeFormatEx@@YAP6GHPB_WKPBU_SYSTEMTIME@@0PA_WH@ZXZ@4QBW4module_id@?A0x391cf84c@@B 1008a574     libucrt:winapi_thunks.obj
 0002:00009594       ?candidate_modules@?1??try_get_GetUserDefaultLocaleName@@YAP6GHPA_WH@ZXZ@4QBW4module_id@?A0x391cf84c@@B 1008a594     libucrt:winapi_thunks.obj
 0002:000095c0       ?candidate_modules@?1??try_get_GetUserObjectInformationW@@YAP6GHPAXH0KPAK@ZXZ@4QBW4module_id@?A0x391cf84c@@B 1008a5c0     libucrt:winapi_thunks.obj
 0002:000095ec       ?candidate_modules@?1??try_get_GetXStateFeaturesMask@@YAP6GHPAU_CONTEXT@@PA_K@ZXZ@4QBW4module_id@?A0x391cf84c@@B 1008a5ec     libucrt:winapi_thunks.obj
 0002:00009614       ?candidate_modules@?1??try_get_InitializeCriticalSectionEx@@YAP6GHPAU_RTL_CRITICAL_SECTION@@KK@ZXZ@4QBW4module_id@?A0x391cf84c@@B 1008a614     libucrt:winapi_thunks.obj
 0002:00009644       ?candidate_modules@?1??try_get_IsValidLocaleName@@YAP6GHPB_W@ZXZ@4QBW4module_id@?A0x391cf84c@@B 1008a644     libucrt:winapi_thunks.obj
 0002:00009668       ?candidate_modules@?1??try_get_LCMapStringEx@@YAP6GHPB_WK0HPA_WHPAU_nlsversioninfo@@PAXJ@ZXZ@4QBW4module_id@?A0x391cf84c@@B 1008a668     libucrt:winapi_thunks.obj
 0002:00009684       ?candidate_modules@?1??try_get_LCIDToLocaleName@@YAP6GHKPA_WHK@ZXZ@4QBW4module_id@?A0x391cf84c@@B 1008a684     libucrt:winapi_thunks.obj
 0002:000096a4       ?candidate_modules@?1??try_get_LocaleNameToLCID@@YAP6GKPB_WK@ZXZ@4QBW4module_id@?A0x391cf84c@@B 1008a6a4     libucrt:winapi_thunks.obj
 0002:000096c4       ?candidate_modules@?1??try_get_LocateXStateFeature@@YAP6GPAXPAU_CONTEXT@@KPAK@ZXZ@4QBW4module_id@?A0x391cf84c@@B 1008a6c4     libucrt:winapi_thunks.obj
 0002:000096e8       ?candidate_modules@?1??try_get_MessageBoxA@@YAP6GHPAUHWND__@@PBD1I@ZXZ@4QBW4module_id@?A0x391cf84c@@B 1008a6e8     libucrt:winapi_thunks.obj
 0002:00009704       ?candidate_modules@?1??try_get_MessageBoxW@@YAP6GHPAUHWND__@@PB_W1I@ZXZ@4QBW4module_id@?A0x391cf84c@@B 1008a704     libucrt:winapi_thunks.obj
 0002:00009720       ?candidate_modules@?1??try_get_RoInitialize@@YAP6GJW4RO_INIT_TYPE@@@ZXZ@4QBW4module_id@?A0x391cf84c@@B 1008a720     libucrt:winapi_thunks.obj
 0002:00009734       ?candidate_modules@?1??try_get_RoUninitialize@@YAP6GXXZXZ@4QBW4module_id@?A0x391cf84c@@B 1008a734     libucrt:winapi_thunks.obj
 0002:0000974c       ?candidate_modules@?1??try_get_AppPolicyGetProcessTerminationMethod@@YAP6GJPAXPAW4AppPolicyProcessTerminationMethod@@@ZXZ@4QBW4module_id@?A0x391cf84c@@B 1008a74c     libucrt:winapi_thunks.obj
 0002:0000977c       ?candidate_modules@?1??try_get_AppPolicyGetThreadInitializationType@@YAP6GJPAXPAW4AppPolicyThreadInitializationType@@@ZXZ@4QBW4module_id@?A0x391cf84c@@B 1008a77c     libucrt:winapi_thunks.obj
 0002:000097ac       ?candidate_modules@?1??try_get_AppPolicyGetShowDeveloperDiagnostic@@YAP6GJPAXPAW4AppPolicyShowDeveloperDiagnostic@@@ZXZ@4QBW4module_id@?A0x391cf84c@@B 1008a7ac     libucrt:winapi_thunks.obj
 0002:000097dc       ?candidate_modules@?1??try_get_AppPolicyGetWindowingModel@@YAP6GJPAXPAW4AppPolicyWindowingModel@@@ZXZ@4QBW4module_id@?A0x391cf84c@@B 1008a7dc     libucrt:winapi_thunks.obj
 0002:00009800       ?candidate_modules@?1??try_get_SetThreadStackGuarantee@@YAP6GHPAK@ZXZ@4QBW4module_id@?A0x391cf84c@@B 1008a800     libucrt:winapi_thunks.obj
 0002:00009828       ?candidate_modules@?1??try_get_SystemFunction036@@YAP6GEPAXK@ZXZ@4QBW4module_id@?A0x391cf84c@@B 1008a828     libucrt:winapi_thunks.obj
 0002:00009898       __first_127char            1008a898     libucrt:wsetlocale.obj
 0002:0000a0ac       _over                      1008b0ac     libucrt:fpctrl.obj
 0002:0000a0bc       _under                     1008b0bc     libucrt:fpctrl.obj
 0002:0000aabc       ?_mb_locale_names@@3QBQB_WB 1008babc     libucrt:mbctype.obj
 0002:0000ab10       ?LcidToLocaleNameTable@?A0x881e4c05@@3QBULcidToLocaleName@1@B 1008bb10     libucrt:lcidtoname_downlevel.obj
 0002:0000bfe8       ?LocaleNameToIndexTable@?A0x881e4c05@@3QBULocaleNameIndex@1@B 1008cfe8     libucrt:lcidtoname_downlevel.obj
 0002:0000e380       LOG_name                   1008f380     libucrt:log10_impl.obj
 0002:0000e390       _One                       1008f390     libucrt:ceil_pentium4.obj
 0002:0000e3a0       _Bns                       1008f3a0     libucrt:ceil_pentium4.obj
 0002:0000e3b0       _Zero                      1008f3b0     libucrt:ceil_pentium4.obj
 0002:0000e3c0       _S                         1008f3c0     libucrt:ceil_pentium4.obj
 0002:0000e3d0       _NegZero                   1008f3d0     libucrt:ceil_pentium4.obj
 0002:0000e3fc       ?commonFlags@?1??_control87@@9@9 1008f3fc     libucrt:ieee87.obj
 0002:0000e400       emask                      1008f400     libucrt:log10_pentium4.obj
 0002:0000e410       CC                         1008f410     libucrt:log10_pentium4.obj
 0002:0000e420       Magic                      1008f420     libucrt:log10_pentium4.obj
 0002:0000e430       hi_mask                    1008f430     libucrt:log10_pentium4.obj
 0002:0000e440       LOG10_2                    1008f440     libucrt:log10_pentium4.obj
 0002:0000e450       place_L                    1008f450     libucrt:log10_pentium4.obj
 0002:0000e470       One                        1008f470     libucrt:log10_pentium4.obj
 0002:0000e480       Zero                       1008f480     libucrt:log10_pentium4.obj
 0002:0000e490       Two52                      1008f490     libucrt:log10_pentium4.obj
 0002:0000e4a0       Infs                       1008f4a0     libucrt:log10_pentium4.obj
 0002:0000e4b0       NaN                        1008f4b0     libucrt:log10_pentium4.obj
 0002:0000e4c0       coeff                      1008f4c0     libucrt:log10_pentium4.obj
 0002:0000e55e       _log2max                   1008f55e     libucrt:87tran.obj
 0002:0000e568       _smallarg                  1008f568     libucrt:87tran.obj
 0002:0000e572       _half                      1008f572     libucrt:87tran.obj
 0002:0000e5ce       One                        1008f5ce     libucrt:87disp.obj
 0002:0000e5d6       Three                      1008f5d6     libucrt:87disp.obj
 0002:0000e5de       XAMtoTagTab                1008f5de     libucrt:87disp.obj
 0002:0000e600       One                        1008f600     libucrt:common.obj
 0002:0000e614       DblMax                     1008f614     libucrt:common.obj
 0002:0000e61c       DblMin                     1008f61c     libucrt:common.obj
 0002:0000e624       IeeeAdjO                   1008f624     libucrt:common.obj
 0002:0000e62c       IeeeAdjU                   1008f62c     libucrt:common.obj
 0002:0000e634       _infinity                  1008f634     libucrt:common.obj
 0002:0000e63c       _zero                      1008f63c     libucrt:common.obj
 0002:0000e654       _INF                       1008f654     libucrt:libm_error.obj
 0002:0000e668       _BIG                       1008f668     libucrt:libm_error.obj
 0002:0000e67c       _ZERO                      1008f67c     libucrt:libm_error.obj
 0002:0000e690       _INF_32                    1008f690     libucrt:libm_error.obj
 0002:0000e69c       _NAN_32                    1008f69c     libucrt:libm_error.obj
 0002:0000e6a8       _ZERO_32                   1008f6a8     libucrt:libm_error.obj
 0002:0000e6b4       _libm_largef               1008f6b4     libucrt:libm_error.obj
 0002:0000e6c0       _libm_smallf               1008f6c0     libucrt:libm_error.obj
 0002:0000e6d0       _libm_small                1008f6d0     libucrt:libm_error.obj
 0002:0000e6e4       _newcw                     1008f6e4     libucrt:ceil.obj
 0002:0000e6e8       ?mask@?P@??_d_int@@9@4QBGB 1008f6e8     libucrt:_test.obj
 0002:0000e710       ?sub@?P@??_d_int@@9@4QBIB  1008f710     libucrt:_test.obj
 0002:0000e724       ?mask@?P@??_fd_int@@9@4QBGB 1008f724     libucrt:_test.obj
 0002:0000e74c       ?sub@?P@??_fd_int@@9@4QBIB 1008f74c     libucrt:_test.obj
 0002:00010318       __sehtable$?dllmain_crt_process_attach@@YAHQAUHINSTANCE__@@QAX@Z 10091318     LIBCMT:dll_dllmain.obj
 0002:00010338       __sehtable$?dllmain_crt_process_detach@@YAH_N@Z 10091338     LIBCMT:dll_dllmain.obj
 0002:00010358       __sehtable$?dllmain_dispatch@@YAHQAUHINSTANCE__@@KQAX@Z 10091358     LIBCMT:dll_dllmain.obj
 0002:00010378       __sehtable$___scrt_is_nonwritable_in_current_image 10091378     LIBCMT:utility.obj
 0002:00010398       __sehtable$___unDNameEx    10091398     libvcruntime:undname.obj
 0002:000103b8       __unwindtable$?getDecoratedName@UnDecorator@@CA?AVDName@@XZ 100913b8     libvcruntime:undname.obj
 0002:000103c0       __ehfuncinfo$?getDecoratedName@UnDecorator@@CA?AVDName@@XZ 100913c0     libvcruntime:undname.obj
 0002:000103e8       __sehtable$?FrameUnwindToState@__FrameHandler3@@SAXPAUEHRegistrationNode@@PAXPBU_s_FuncInfo@@H@Z 100913e8     libvcruntime:frame.obj
 0002:00010418       __sehtable$?CallCatchBlock@@YAPAXPAUEHExceptionRecord@@PAUEHRegistrationNode@@PAU_CONTEXT@@PBU_s_FuncInfo@@PAXHK@Z 10091418     libvcruntime:frame.obj
 0002:00010444       __catchsym$?CallUnexpected@@YAXPBU_s_ESTypeList@@@Z$2 10091444     libvcruntime:frame.obj
 0002:00010454       __unwindtable$?CallUnexpected@@YAXPBU_s_ESTypeList@@@Z 10091454     libvcruntime:frame.obj
 0002:00010464       __tryblocktable$?CallUnexpected@@YAXPBU_s_ESTypeList@@@Z 10091464     libvcruntime:frame.obj
 0002:00010478       __ehfuncinfo$?CallUnexpected@@YAXPBU_s_ESTypeList@@@Z 10091478     libvcruntime:frame.obj
 0002:000104a8       __sehtable$??$BuildCatchObjectHelperInternal@V__FrameHandler3@@@@YAHPAUEHExceptionRecord@@PAXPBU_s_HandlerType@@PBU_s_CatchableType@@@Z 100914a8     libvcruntime:frame.obj
 0002:000104c8       __sehtable$??$BuildCatchObjectInternal@V__FrameHandler3@@@@YAXPAUEHExceptionRecord@@PAXPBU_s_HandlerType@@PBU_s_CatchableType@@@Z 100914c8     libvcruntime:frame.obj
 0002:00010550       __sehtable$___DestructExceptionObject 10091550     libvcruntime:ehhelpers.obj
 0002:00010570       __sehtable$??$?RV<lambda_80d7abc6eae2375db70be92ccaaf9b57>@@AAV<lambda_df52180bf14694d51fdefd82613e8f07>@@V<lambda_4fa1155033dff2042363dba4e2dc3802>@@@?$__crt_seh_guarded_call@H@@QAEH$$QAV<lambda_80d7abc6eae2375db70be92ccaaf9b57>@@AAV<lambda_df52180bf14694d51fdefd82613e8f07>@@$$QAV<lambda_4fa1155033dff2042363dba4e2dc3802>@@@Z 10091570     libucrt:output.obj
 0002:00010590       __sehtable$??$?RV<lambda_75d23329f2fb3d02b2e1cf5509bb1caf>@@AAV<lambda_c4f131f91cb4ec00a5b0a26aa161b8b4>@@V<lambda_114dc79c86b00c313cb0b6b3b001aaf8>@@@?$__crt_seh_guarded_call@H@@QAEH$$QAV<lambda_75d23329f2fb3d02b2e1cf5509bb1caf>@@AAV<lambda_c4f131f91cb4ec00a5b0a26aa161b8b4>@@$$QAV<lambda_114dc79c86b00c313cb0b6b3b001aaf8>@@@Z 10091590     libucrt:output.obj
 0002:000105b0       __sehtable$??$?RV<lambda_cc35d49d909def412005bd38ddc96b77>@@AAV<lambda_d6a382b8dd98a6801a8abd6c28bdff2d>@@V<lambda_148068cfb9786d9714740654406e93d5>@@@?$__crt_seh_guarded_call@H@@QAEH$$QAV<lambda_cc35d49d909def412005bd38ddc96b77>@@AAV<lambda_d6a382b8dd98a6801a8abd6c28bdff2d>@@$$QAV<lambda_148068cfb9786d9714740654406e93d5>@@@Z 100915b0     libucrt:output.obj
 0002:000105d0       __sehtable$??$?RV<lambda_b7f50223258ab9fcc98080d45d02b1a4>@@AAV<lambda_42506531d319a600ce771deb5a236a10>@@V<lambda_31f843250ba6188c6e1f35d2bec6db0e>@@@?$__crt_seh_guarded_call@H@@QAEH$$QAV<lambda_b7f50223258ab9fcc98080d45d02b1a4>@@AAV<lambda_42506531d319a600ce771deb5a236a10>@@$$QAV<lambda_31f843250ba6188c6e1f35d2bec6db0e>@@@Z 100915d0     libucrt:output.obj
 0002:000105f0       __sehtable$??$?RV<lambda_3a2a6cca1b0f7007a3db339dcecd1562>@@AAV<lambda_e38011a3ba6e07c7dbcef4d549f26102>@@V<lambda_b2332a2b562101f3c3c34baab19e0511>@@@?$__crt_seh_guarded_call@H@@QAEH$$QAV<lambda_3a2a6cca1b0f7007a3db339dcecd1562>@@AAV<lambda_e38011a3ba6e07c7dbcef4d549f26102>@@$$QAV<lambda_b2332a2b562101f3c3c34baab19e0511>@@@Z 100915f0     libucrt:output.obj
 0002:00010610       __sehtable$??$?RV<lambda_b4329732a1a72698597872ef534ad66d>@@AAV<lambda_96392db5b14a27f72535a2156da24b09>@@V<lambda_0f47277b42e3e84c3311fed419af0b3c>@@@?$__crt_seh_guarded_call@H@@QAEH$$QAV<lambda_b4329732a1a72698597872ef534ad66d>@@AAV<lambda_96392db5b14a27f72535a2156da24b09>@@$$QAV<lambda_0f47277b42e3e84c3311fed419af0b3c>@@@Z 10091610     libucrt:output.obj
 0002:00010630       __sehtable$??R<lambda_6e4b09c48022b2350581041d5f6b0c4c>@@QBE@XZ 10091630     libucrt:exit.obj
 0002:00010650       __sehtable$??$?RV<lambda_03b1d95aef87969028cfba75ccab2455>@@AAV<lambda_6e4b09c48022b2350581041d5f6b0c4c>@@V<lambda_22bdf7517842c4b3e53723af5aa32b9e>@@@?$__crt_seh_guarded_call@X@@QAEX$$QAV<lambda_03b1d95aef87969028cfba75ccab2455>@@AAV<lambda_6e4b09c48022b2350581041d5f6b0c4c>@@$$QAV<lambda_22bdf7517842c4b3e53723af5aa32b9e>@@@Z 10091650     libucrt:exit.obj
 0002:00010670       __sehtable$_fclose         10091670     libucrt:fclose.obj
 0002:00010690       __sehtable$??$common_fsopen@D@@YAPAU_iobuf@@QBD0H@Z 10091690     libucrt:fopen.obj
 0002:000106b0       __sehtable$??$common_fsopen@_W@@YAPAU_iobuf@@QB_W0H@Z 100916b0     libucrt:fopen.obj
 0002:000106d0       __sehtable$_fread_s        100916d0     libucrt:fread.obj
 0002:000106f0       __sehtable$??$?RV<lambda_cd3bfd923e8d1349099e544c97b1bd8e>@@AAV<lambda_54dcfcba6f8e0c549fa430f4d53fb7dd>@@V<lambda_5e1d0fa2aa2b73b187bf8b7e1d30c7f8>@@@?$__crt_seh_guarded_call@I@@QAEI$$QAV<lambda_cd3bfd923e8d1349099e544c97b1bd8e>@@AAV<lambda_54dcfcba6f8e0c549fa430f4d53fb7dd>@@$$QAV<lambda_5e1d0fa2aa2b73b187bf8b7e1d30c7f8>@@@Z 100916f0     libucrt:fwrite.obj
 0002:00010710       __sehtable$_rewind         10091710     libucrt:rewind.obj
 0002:00010730       __sehtable$??$?RV<lambda_274ecf0a8038e561263518ab346655e8>@@AAV<lambda_21448eb78dd3c4a522ed7c65a98d88e6>@@V<lambda_0ca1de2171e49cefb1e8dc85c06db622>@@@?$__crt_seh_guarded_call@H@@QAEH$$QAV<lambda_274ecf0a8038e561263518ab346655e8>@@AAV<lambda_21448eb78dd3c4a522ed7c65a98d88e6>@@$$QAV<lambda_0ca1de2171e49cefb1e8dc85c06db622>@@@Z 10091730     libucrt:input.obj
 0002:00010750       __sehtable$??$?RV<lambda_df226acf18ffe7c576684f1d3093a96e>@@AAV<lambda_2e1cf6ed1c07646757a0128817e0c201>@@V<lambda_b939e5933951b38cfbce0ac7ba09f070>@@@?$__crt_seh_guarded_call@H@@QAEH$$QAV<lambda_df226acf18ffe7c576684f1d3093a96e>@@AAV<lambda_2e1cf6ed1c07646757a0128817e0c201>@@$$QAV<lambda_b939e5933951b38cfbce0ac7ba09f070>@@@Z 10091750     libucrt:input.obj
 0002:00010770       __sehtable$??$?RV<lambda_7ac4055421038abea736e08bd20712a4>@@AAV<lambda_a10e4b102d4a2c3aac6f4f48bbdf488f>@@V<lambda_1da61822885009acd1bf848af4f9644b>@@@?$__crt_seh_guarded_call@H@@QAEH$$QAV<lambda_7ac4055421038abea736e08bd20712a4>@@AAV<lambda_a10e4b102d4a2c3aac6f4f48bbdf488f>@@$$QAV<lambda_1da61822885009acd1bf848af4f9644b>@@@Z 10091770     libucrt:onexit.obj
 0002:00010790       __sehtable$??$?RV<lambda_69a2805e680e0e292e8ba93315fe43a8>@@AAV<lambda_f03950bc5685219e0bcd2087efbe011e>@@V<lambda_03fcd07e894ec930e3f35da366ca99d6>@@@?$__crt_seh_guarded_call@H@@QAEH$$QAV<lambda_69a2805e680e0e292e8ba93315fe43a8>@@AAV<lambda_f03950bc5685219e0bcd2087efbe011e>@@$$QAV<lambda_03fcd07e894ec930e3f35da366ca99d6>@@@Z 10091790     libucrt:onexit.obj
 0002:000107b0       __sehtable$_terminate      100917b0     libucrt:terminate.obj
 0002:000107d0       __sehtable$??$?RV<lambda_93797fb4802c957ba6a7f08e1250235b>@@AAV<lambda_1f3ce6bd48e0aa2e72a71c02eee379d3>@@V<lambda_56cae30c9364c9b6c15aeaac05d0418e>@@@?$__crt_seh_guarded_call@H@@QAEH$$QAV<lambda_93797fb4802c957ba6a7f08e1250235b>@@AAV<lambda_1f3ce6bd48e0aa2e72a71c02eee379d3>@@$$QAV<lambda_56cae30c9364c9b6c15aeaac05d0418e>@@@Z 100917d0     libucrt:winapi_thunks.obj
 0002:000107f0       __sehtable$__fcloseall     100917f0     libucrt:closeall.obj
 0002:00010810       __sehtable$??$?RV<lambda_2866be3712abc81a800a822484c830d8>@@AAV<lambda_39ca0ed439415581b5b15c265174cece>@@V<lambda_2b24c74d71094a6cd0cb82e44167d71b>@@@?$__crt_seh_guarded_call@X@@QAEX$$QAV<lambda_2866be3712abc81a800a822484c830d8>@@AAV<lambda_39ca0ed439415581b5b15c265174cece>@@$$QAV<lambda_2b24c74d71094a6cd0cb82e44167d71b>@@@Z 10091810     libucrt:fflush.obj
 0002:00010830       __sehtable$??$?RV<lambda_2cc53f568c5a2bb6f192f930a45d44ea>@@AAV<lambda_ab61a845afdef5b7c387490eaf3616ee>@@V<lambda_c2ffc0b7726aa6be21d5f0026187e748>@@@?$__crt_seh_guarded_call@X@@QAEX$$QAV<lambda_2cc53f568c5a2bb6f192f930a45d44ea>@@AAV<lambda_ab61a845afdef5b7c387490eaf3616ee>@@$$QAV<lambda_c2ffc0b7726aa6be21d5f0026187e748>@@@Z 10091830     libucrt:fflush.obj
 0002:00010850       __sehtable$??$?RV<lambda_6d20deecaf4856105ebacbad442d1079>@@AAV<lambda_9a32fed5bf61b6b509b2d3f6003082a1>@@V<lambda_63ea2239ed67c638ddbae41947fdf875>@@@?$__crt_seh_guarded_call@H@@QAEH$$QAV<lambda_6d20deecaf4856105ebacbad442d1079>@@AAV<lambda_9a32fed5bf61b6b509b2d3f6003082a1>@@$$QAV<lambda_63ea2239ed67c638ddbae41947fdf875>@@@Z 10091850     libucrt:fflush.obj
 0002:00010870       __sehtable$___acrt_initialize_lowio 10091870     libucrt:ioinit.obj
 0002:00010890       __sehtable$??$?RV<lambda_15ade71b0218206bbe3333a0c9b79046>@@AAV<lambda_da44e0f8b0f19ba52fefafb335991732>@@V<lambda_207f2d024fc103971653565357d6cd41>@@@?$__crt_seh_guarded_call@X@@QAEX$$QAV<lambda_15ade71b0218206bbe3333a0c9b79046>@@AAV<lambda_da44e0f8b0f19ba52fefafb335991732>@@$$QAV<lambda_207f2d024fc103971653565357d6cd41>@@@Z 10091890     libucrt:per_thread_data.obj
 0002:000108b0       __sehtable$??$?RV<lambda_a7e850c220f1c8d1e6efeecdedd162c6>@@AAV<lambda_46720907175c18b6c9d2717bc0d2d362>@@V<lambda_9048902d66e8d99359bc9897bbb930a8>@@@?$__crt_seh_guarded_call@X@@QAEX$$QAV<lambda_a7e850c220f1c8d1e6efeecdedd162c6>@@AAV<lambda_46720907175c18b6c9d2717bc0d2d362>@@$$QAV<lambda_9048902d66e8d99359bc9897bbb930a8>@@@Z 100918b0     libucrt:per_thread_data.obj
 0002:000108d0       __sehtable$??$?RV<lambda_38edbb1296d33220d7e4dd0ed76b244a>@@AAV<lambda_5ce1d447e08cb34b2473517608e21441>@@V<lambda_fb385d3da700c9147fc39e65dd577a8c>@@@?$__crt_seh_guarded_call@X@@QAEX$$QAV<lambda_38edbb1296d33220d7e4dd0ed76b244a>@@AAV<lambda_5ce1d447e08cb34b2473517608e21441>@@$$QAV<lambda_fb385d3da700c9147fc39e65dd577a8c>@@@Z 100918d0     libucrt:per_thread_data.obj
 0002:000108f0       __sehtable$??$?RV<lambda_6affb1475c98b40b75cdec977db92e3c>@@AAV<lambda_b8d4b9c228a6ecc3f80208dbb4b4a104>@@V<lambda_608742c3c92a14382c1684fc64f96c88>@@@?$__crt_seh_guarded_call@X@@QAEX$$QAV<lambda_6affb1475c98b40b75cdec977db92e3c>@@AAV<lambda_b8d4b9c228a6ecc3f80208dbb4b4a104>@@$$QAV<lambda_608742c3c92a14382c1684fc64f96c88>@@@Z 100918f0     libucrt:per_thread_data.obj
 0002:00010910       __sehtable$_fputwc         10091910     libucrt:fputwc.obj
 0002:00010930       __sehtable$_fputc          10091930     libucrt:fputc.obj
 0002:00010950       __sehtable$__free_locale   10091950     libucrt:wsetlocale.obj
 0002:00010980       __sehtable$??$?RV<lambda_e5124f882df8998aaf41531e079ba474>@@AAV<lambda_3e16ef9562a7dcce91392c22ab16ea36>@@V<lambda_e25ca0880e6ef98be67edffd8c599615>@@@?$__crt_seh_guarded_call@X@@QAEX$$QAV<lambda_e5124f882df8998aaf41531e079ba474>@@AAV<lambda_3e16ef9562a7dcce91392c22ab16ea36>@@$$QAV<lambda_e25ca0880e6ef98be67edffd8c599615>@@@Z 10091980     libucrt:wsetlocale.obj
 0002:000109a0       __sehtable$??$?RV<lambda_82aef432098b982f9ede325b418aa67a>@@AAV<lambda_862e9a3f04921db6ca1ce3faa2bf3edf>@@V<lambda_ffabc152e504b53d7492b9889b10c020>@@@?$__crt_seh_guarded_call@X@@QAEX$$QAV<lambda_82aef432098b982f9ede325b418aa67a>@@AAV<lambda_862e9a3f04921db6ca1ce3faa2bf3edf>@@$$QAV<lambda_ffabc152e504b53d7492b9889b10c020>@@@Z 100919a0     libucrt:wsetlocale.obj
 0002:000109c0       __sehtable$??$?RV<lambda_6673f7c4c09a5d469d0c27ae364621ce>@@AAV<lambda_ebab98244f73a74f49db879bf13fa982>@@V<lambda_be20789b7a146653eab82509ec35b419>@@@?$__crt_seh_guarded_call@X@@QAEX$$QAV<lambda_6673f7c4c09a5d469d0c27ae364621ce>@@AAV<lambda_ebab98244f73a74f49db879bf13fa982>@@$$QAV<lambda_be20789b7a146653eab82509ec35b419>@@@Z 100919c0     libucrt:wsetlocale.obj
 0002:000109e0       __sehtable$??$?RV<lambda_4fdada1b837b2abbf20876fac97688ad>@@AAV<lambda_b57350f2640456a0859d250846f69caf>@@V<lambda_eed5e4f92b5b7d55fa22c48c484aaa54>@@@?$__crt_seh_guarded_call@X@@QAEX$$QAV<lambda_4fdada1b837b2abbf20876fac97688ad>@@AAV<lambda_b57350f2640456a0859d250846f69caf>@@$$QAV<lambda_eed5e4f92b5b7d55fa22c48c484aaa54>@@@Z 100919e0     libucrt:wsetlocale.obj
 0002:00010a00       __sehtable$??$?RV<lambda_135d2772fca65dc1248eeaa1b56e886a>@@AAV<lambda_2a444430fde8c29194d880d93eed5e8f>@@AAV<lambda_8dff2cf36a5417162780cd64fa2883ef>@@@?$__crt_seh_guarded_call@X@@QAEX$$QAV<lambda_135d2772fca65dc1248eeaa1b56e886a>@@AAV<lambda_2a444430fde8c29194d880d93eed5e8f>@@AAV<lambda_8dff2cf36a5417162780cd64fa2883ef>@@@Z 10091a00     libucrt:wsetlocale.obj
 0002:00010a20       __sehtable$??$?RV<lambda_218ce3db14220d0be481dae8ef3383b6>@@AAV<lambda_628dfdc04ba53c8bfc02c9951375f3f5>@@V<lambda_57dc472bd5c9d5f3b2cbca59b8a843ae>@@@?$__crt_seh_guarded_call@H@@QAEH$$QAV<lambda_218ce3db14220d0be481dae8ef3383b6>@@AAV<lambda_628dfdc04ba53c8bfc02c9951375f3f5>@@$$QAV<lambda_57dc472bd5c9d5f3b2cbca59b8a843ae>@@@Z 10091a20     libucrt:close.obj
 0002:00010a40       __sehtable$?__acrt_stdio_allocate_stream@@YA?AV__crt_stdio_stream@@XZ 10091a40     libucrt:stream.obj
 0002:00010a60       __sehtable$__read          10091a60     libucrt:read.obj
 0002:00010a80       __sehtable$__write         10091a80     libucrt:write.obj
 0002:00010aa0       __sehtable$??$common_lseek@J@@YAJHJH@Z 10091aa0     libucrt:lseek.obj
 0002:00010ac0       __sehtable$??$common_lseek@_J@@YA_JH_JH@Z 10091ac0     libucrt:lseek.obj
 0002:00010ae0       __sehtable$___set_fpsr_sse2 10091ae0     libucrt:fpctrl.obj
 0002:00010b00       __sehtable$??$?RV<lambda_70c0770dcc4f6ec6272bb01dc82d3c91>@@AAV<lambda_ca71763b3c0644891230e4f79ea54fa6>@@V<lambda_ca266f0f09348b8765c113e3a39a2bc1>@@@?$__crt_seh_guarded_call@H@@QAEH$$QAV<lambda_70c0770dcc4f6ec6272bb01dc82d3c91>@@AAV<lambda_ca71763b3c0644891230e4f79ea54fa6>@@$$QAV<lambda_ca266f0f09348b8765c113e3a39a2bc1>@@@Z 10091b00     libucrt:setvbuf.obj
 0002:00010b20       __sehtable$_signal         10091b20     libucrt:signal.obj
 0002:00010b40       __sehtable$_raise          10091b40     libucrt:signal.obj
 0002:00010b60       __sehtable$?ctrlevent_capture@@YGHK@Z 10091b60     libucrt:signal.obj
 0002:00010b80       __sehtable$??$?RV<lambda_cbab9ec6f41b0180b23cc171c22676b0>@@AAV<lambda_44731a7d0e6d81c3e6aa82d741081786>@@V<lambda_4b292cb8dd18144e164572427af410ab>@@@?$__crt_seh_guarded_call@P6AXH@Z@@QAEP6AXH@Z$$QAV<lambda_cbab9ec6f41b0180b23cc171c22676b0>@@AAV<lambda_44731a7d0e6d81c3e6aa82d741081786>@@$$QAV<lambda_4b292cb8dd18144e164572427af410ab>@@@Z 10091b80     libucrt:signal.obj
 0002:00010ba0       __sehtable$_fgetwc         10091ba0     libucrt:fgetwc.obj
 0002:00010bc0       __sehtable$_ungetwc        10091bc0     libucrt:ungetwc.obj
 0002:00010be0       __sehtable$_fgetc          10091be0     libucrt:fgetc.obj
 0002:00010c00       __sehtable$_ungetc         10091c00     libucrt:ungetc.obj
 0002:00010c20       __sehtable$?update_thread_multibyte_data_internal@@YAPAU__crt_multibyte_data@@QAU__acrt_ptd@@QAPAU1@@Z 10091c20     libucrt:mbctype.obj
 0002:00010c40       __sehtable$??$?RV<lambda_ceb1ee4838e85a9d631eb091e2fbe199>@@AAV<lambda_ae742caa10f662c28703da3d2ea5e57e>@@V<lambda_cd08b5d6af4937fe54fc07d0c9bf6b37>@@@?$__crt_seh_guarded_call@X@@QAEX$$QAV<lambda_ceb1ee4838e85a9d631eb091e2fbe199>@@AAV<lambda_ae742caa10f662c28703da3d2ea5e57e>@@$$QAV<lambda_cd08b5d6af4937fe54fc07d0c9bf6b37>@@@Z 10091c40     libucrt:mbctype.obj
 0002:00010c60       __sehtable$__query_new_handler 10091c60     libucrt:new_handler.obj
 0002:00010c80       __sehtable$__set_new_handler 10091c80     libucrt:new_handler.obj
 0002:00010ca0       __sehtable$??$?RV<lambda_9e9de3de5fa147e2223d7db92bc10aa6>@@AAV<lambda_38ce7e780aa69e748d6df282ebc68efe>@@V<lambda_8ca6da459f0f6780f1cff60fdc3d00e5>@@@?$__crt_seh_guarded_call@H@@QAEH$$QAV<lambda_9e9de3de5fa147e2223d7db92bc10aa6>@@AAV<lambda_38ce7e780aa69e748d6df282ebc68efe>@@$$QAV<lambda_8ca6da459f0f6780f1cff60fdc3d00e5>@@@Z 10091ca0     libucrt:commit.obj
 0002:00010cc0       __sehtable$__open_osfhandle 10091cc0     libucrt:osfinfo.obj
 0002:00010ce0       __sehtable$__alloc_osfhnd  10091ce0     libucrt:osfinfo.obj
 0002:00010d00       __sehtable$___acrt_lowio_ensure_fh_exists 10091d00     libucrt:osfinfo.obj
 0002:00010d20       __sehtable$___acrt_update_thread_locale_data 10091d20     libucrt:locale_refcounting.obj
 0002:00010d40       __sehtable$??$common_open@D@@YAHQBDHH@Z 10091d40     libucrt:open.obj
 0002:00010d60       __sehtable$??$common_open@_W@@YAHQB_WHH@Z 10091d60     libucrt:open.obj
 0002:00010d80       __sehtable$??$common_sopen_dispatch@D@@YAHQBDHHHQAHH@Z 10091d80     libucrt:open.obj
 0002:00010da0       __sehtable$??$common_sopen_dispatch@_W@@YAHQB_WHHHQAHH@Z 10091da0     libucrt:open.obj
 0002:00010dc0       __sehtable$??$?RV<lambda_f828341fbe69b7c0d4c527b01f22877f>@@AAV<lambda_9e0b6ab72a5b3ae37ad997d08b519f50>@@V<lambda_f01deac0a8d65d6e0411edf7e0af5775>@@@?$__crt_seh_guarded_call@G@@QAEG$$QAV<lambda_f828341fbe69b7c0d4c527b01f22877f>@@AAV<lambda_9e0b6ab72a5b3ae37ad997d08b519f50>@@$$QAV<lambda_f01deac0a8d65d6e0411edf7e0af5775>@@@Z 10091dc0     libucrt:putwch.obj
 0002:00010de0       __sehtable$__setmode       10091de0     libucrt:setmode.obj
 0002:00010e00       __sehtable$??$?RV<lambda_3b12a17125e8c5b5e6e6f6c6050db0c1>@@AAV<lambda_522ac1b1e1a1180d6f374a882b81d1c8>@@V<lambda_e92b96cac182f562f30acc9fb7872857>@@@?$__crt_seh_guarded_call@H@@QAEH$$QAV<lambda_3b12a17125e8c5b5e6e6f6c6050db0c1>@@AAV<lambda_522ac1b1e1a1180d6f374a882b81d1c8>@@$$QAV<lambda_e92b96cac182f562f30acc9fb7872857>@@@Z 10091e00     libucrt:chsize.obj
 0002:00010e20       __unwindtable$?_wcstombs_l_helper@@YAIPADPB_WIPAU__crt_locale_pointers@@@Z 10091e20     libucrt:wcstombs.obj
 0002:00010e28       __ehfuncinfo$?_wcstombs_l_helper@@YAIPADPB_WIPAU__crt_locale_pointers@@@Z 10091e28     libucrt:wcstombs.obj
 0002:00010e50       __sehtable$__IsNonwritableInCurrentImage 10091e50     LIBCMT:pesect.obj
 0002:000110d0       .edata                     100920d0     udp_comm_test_slrt.exp
 0002:000110f8       rgpv                       100920f8     udp_comm_test_slrt.exp
 0002:00011114       rgszName                   10092114     udp_comm_test_slrt.exp
 0002:00011130       rgwOrd                     10092130     udp_comm_test_slrt.exp
 0002:0001113e       szName                     1009213e     udp_comm_test_slrt.exp
 0002:00011155       $N00001                    10092155     udp_comm_test_slrt.exp
 0002:00011160       $N00002                    10092160     udp_comm_test_slrt.exp
 0002:00011169       $N00003                    10092169     udp_comm_test_slrt.exp
 0002:00011176       $N00004                    10092176     udp_comm_test_slrt.exp
 0002:00011180       $N00005                    10092180     udp_comm_test_slrt.exp
 0002:00011190       $N00006                    10092190     udp_comm_test_slrt.exp
 0002:0001119e       $N00007                    1009219e     udp_comm_test_slrt.exp
 0003:00000010       _mdlInfo                   10093010     xpctarget.obj
 0003:00000110       _rtDataAddrMap             10093110     udp_comm_test_capi.obj
 0003:00000248       _mmiStatic                 10093248     udp_comm_test_capi.obj
 0003:00000c74       _rtwCAPI_mallocError       10093c74     rtw_modelmap_utils.obj
 0003:00000cd0       ?__vcrt_flsindex@@3KA      10093cd0     libvcruntime:per_thread_data.obj
 0003:00000dd4       ?errno_no_memory@@3HA      10093dd4     libucrt:errno.obj
 0003:00000dd8       ?doserrno_no_memory@@3KA   10093dd8     libucrt:errno.obj
 0003:00000e1c       ?__acrt_flsindex@@3KA      10093e1c     libucrt:per_thread_data.obj
 0003:00000e20       __ctype_loc_style          10093e20     libucrt:wsetlocale.obj
 0003:0000104c       ?__DAZ_ENABLED@?1??__set_fpsr_sse2@@9@9 1009404c     libucrt:fpctrl.obj
 0003:000012e8       __mbctypes                 100942e8     libucrt:mbctype.obj
 0003:00001420       __mbcasemaps               10094420     libucrt:mbctype.obj
 0003:00001554       ?__rgctypeflag@@3PADA      10094554     libucrt:mbctype.obj
 0003:00001558       ?__rgcode_page_info@@3PAUcode_page_info@@A 10094558     libucrt:mbctype.obj
 0003:000016f0       ?__dcrt_lowio_console_output_handle@@3PAXA 100946f0     libucrt:initcon.obj
 0003:00001ac4       _rtm                       10094ac4     xpctarget.obj
 0003:00001ad8       ?dims@?1??rt_mxGetDimensions@@9@9 10094ad8     rt_matrx.obj
 0003:00001ae8       ?rt_DataLoggingInfo@?4??udp_comm_test@@9@9 10094ae8     udp_comm_test.obj
 0003:00001b40       _rtVarDimsAddrMap          10094b40     udp_comm_test_capi.obj
 0003:00001b78       _msg                       10094b78     asciidecode.obj
 0003:00001cb0       _msg                       10094cb0     asciiencode.obj
 0003:00001de8       _msg                       10094de8     slrtIPConfig.obj
 0003:00001ee8       _modelInitErr              10094ee8     slrtIPConfig.obj
 0003:00001f20       _msg                       10094f20     slrtUDPReceive.obj
 0003:00002058       _msg                       10095058     slrtUDPSend.obj
 0003:00002190       _GS_ExceptionRecord        10095190     LIBCMT:gs_report.obj
 0003:000021e0       _GS_ContextRecord          100951e0     LIBCMT:gs_report.obj
 0003:00002558       ?__proc_attached@@3HA      10095558     LIBCMT:dll_dllmain.obj
 0003:00002594       ?is_initialized_as_dll@@3_NA 10095594     LIBCMT:utility.obj
 0003:00002595       ?module_local_atexit_table_initialized@@3_NA 10095595     LIBCMT:utility.obj
 0003:00002598       ?module_local_atexit_table@@3U_onexit_table_t@@A 10095598     LIBCMT:utility.obj
 0003:000025a4       ?module_local_at_quick_exit_table@@3U_onexit_table_t@@A 100955a4     LIBCMT:utility.obj
 0003:000025e4       ?heap@@3V_HeapManager@@A   100955e4     libvcruntime:undname.obj
 0003:00002604       ?__vcrt_startup_thread_ptd@@3U__vcrt_ptd@@A 10095604     libvcruntime:per_thread_data.obj
 0003:00002634       ___vcrt_lock_table         10095634     libvcruntime:locks.obj
 0003:0000264c       ___vcrt_locks_initialized  1009564c     libvcruntime:locks.obj
 0003:00002658       ?module_handles@@3PAPAUHINSTANCE__@@A 10095658     libvcruntime:winapi_downlevel.obj
 0003:00002664       ?encoded_function_pointers@@3PAPAXA 10095664     libvcruntime:winapi_downlevel.obj
 0003:00002698       ?c_termination_complete@@3JA 10095698     libucrt:exit.obj
 0003:0000269c       ?thread_local_exit_callback_func@@3P6GXPAXK0@ZA 1009569c     libucrt:exit.obj
 0003:000026a8       ?program_name@?1???$common_configure_argv@D@@YAHW4_crt_argv_mode@@@Z@4PADA 100956a8     libucrt:argv_parsing.obj
 0003:000027e8       ?program_name@?1???$common_configure_argv@_W@@YAHW4_crt_argv_mode@@@Z@4PA_WA 100957e8     libucrt:argv_parsing.obj
 0003:00002a90       ?__acrt_invalid_parameter_handler@@3V?$dual_state_global@P6AXPB_W00II@Z@__crt_state_management@@A 10095a90     libucrt:invalid_parameter.obj
 0003:00002a98       ?module_handles@@3PAPAUHINSTANCE__@@A 10095a98     libucrt:winapi_thunks.obj
 0003:00002ae8       ?encoded_function_pointers@@3PAPAXA 10095ae8     libucrt:winapi_thunks.obj
 0003:00002b9c       ?static_enum_proc@?1??enum_system_locales_ex_nolock@@YAHQ6GHPA_WKJ@Z@Z@4P6GH0KJ@ZA 10095b9c     libucrt:winapi_thunks.obj
 0003:00002e0c       ?internal_state@?1??_mbtowc_l@@9@4U_Mbstatet@@A 10095e0c     libucrt:mbtowc.obj
 0003:00002e18       ?enable_percent_n@@3IA     10095e18     libucrt:printf_count_output.obj
 0003:00002e30       ?__acrt_lock_table@@3PAU_RTL_CRITICAL_SECTION@@A 10095e30     libucrt:locks.obj
 0003:00002f80       ?__acrt_locks_initialized@@3IA 10095f80     libucrt:locks.obj
 0003:00002fc8       ?state_cache@?1???$get_cached_win_policy@Ubegin_thread_init_policy_properties@?1??__acrt_get_begin_thread_init_policy@@YA?AW4begin_thread_init_policy@@XZ@@@YA?AW4begin_thread_init_policy@@W4AppPolicyThreadInitializationType@@@Z@4JA 10095fc8     libucrt:win_policies.obj
 0003:00002fcc       ?state_cache@?1???$get_cached_win_policy@Udeveloper_information_policy_properties@?1??__acrt_get_developer_information_policy@@YA?AW4developer_information_policy@@XZ@@@YA?AW4developer_information_policy@@W4AppPolicyShowDeveloperDiagnostic@@@Z@4JA 10095fcc     libucrt:win_policies.obj
 0003:00002fd0       ?state_cache@?1???$get_cached_win_policy@Uwindowing_model_policy_properties@?1??__acrt_get_windowing_model_policy@@YA?AW4windowing_model_policy@@XZ@@@YA?AW4windowing_model_policy@@W4AppPolicyWindowingModel@@@Z@4JA 10095fd0     libucrt:win_policies.obj
 0003:00002fd4       ?__acrt_app_type@@3W4_crt_app_type@@A 10095fd4     libucrt:report_runtime_error.obj
 0003:00002fd8       ?outmsg@?9??__acrt_report_runtime_error@@9@4PA_WA 10095fd8     libucrt:report_runtime_error.obj
 0003:0000373c       ___acrt_error_mode         1009673c     libucrt:set_error_mode.obj
 0003:00003740       ?console_ctrl_handler_installed@@3_NA 10096740     libucrt:signal.obj
 0003:00003744       ?ctrlc_action@@3V?$dual_state_global@P6AXH@Z@__crt_state_management@@A 10096744     libucrt:signal.obj
 0003:00003748       ?ctrlbreak_action@@3V?$dual_state_global@P6AXH@Z@__crt_state_management@@A 10096748     libucrt:signal.obj
 0003:0000374c       ?abort_action@@3V?$dual_state_global@P6AXH@Z@__crt_state_management@@A 1009674c     libucrt:signal.obj
 0003:00003750       ?term_action@@3V?$dual_state_global@P6AXH@Z@__crt_state_management@@A 10096750     libucrt:signal.obj
 0003:00003758       ?user_matherr@@3V?$dual_state_global@P6AHPAU_exception@@@Z@__crt_state_management@@A 10096758     libucrt:matherr.obj
 0003:00003768       ?fSystemSet@@3HA           10096768     libucrt:mbctype.obj
 0003:0000376f       ?initialized@?1??__acrt_initialize_multibyte@@9@4_NA 1009676f     libucrt:mbctype.obj
 0003:00003790       ?__acrt_new_handler@@3V?$dual_state_global@P6AHI@Z@__crt_state_management@@A 10096790     libucrt:new_handler.obj
 0003:00003794       ?__acrt_global_new_mode@@3V?$dual_state_global@J@__crt_state_management@@A 10096794     libucrt:new_mode.obj
 0003:00003798       ?mbst@?1??mbrlen@@9@4U_Mbstatet@@A 10096798     libucrt:mbrtowc.obj
 0003:000037a4       ?mbst@?1??mbrtowc@@9@4U_Mbstatet@@A 100967a4     libucrt:mbrtowc.obj
 0003:000037b0       ?mbst@?1??_mbsrtowcs_helper@@YAIPA_WPAPBDIPAU_Mbstatet@@@Z@4U2@A 100967b0     libucrt:mbrtowc.obj
 0003:000037c4       ?internal_pst@?1??__mbrtoc32_utf8@__crt_mbstring@@YAIPA_UPBDIPAU_Mbstatet@@@Z@4U3@A 100967c4     libucrt:mbrtoc32.obj
 0003:000037d8       __pmatherr_set             100967d8     libucrt:libm_error.obj
 0003:000037e0       ?internal_pst@?1??__c16rtomb_utf8@__crt_mbstring@@YAIPAD_SPAU_Mbstatet@@@Z@4U3@A 100967e0     libucrt:c16rtomb.obj
 0004:000004e4       .idata$6                   100ab4e4     kernel32:KERNEL32.dll
