 test_slrt

 Timestamp is 5b9772da (Tue Sep 11 13:16:34 2018)

 Preferred load address is 10000000

 Start         Length     Name                   Class
 0001:00000000 00005f98H .text                   CODE
 0001:00005fa0 0005a773H .text$mn                CODE
 0002:00000000 00000104H .CRT$XCA                DATA
 0002:00000104 00000104H .CRT$XCZ                DATA
 0002:00000208 00000104H .CRT$XIA                DATA
 0002:0000030c 0000010eH .CRT$XIC                DATA
 0002:0000041c 00000104H .CRT$XIZ                DATA
 0002:00000520 00000104H .CRT$XPA                DATA
 0002:00000624 00000109H .CRT$XPX                DATA
 0002:00000730 00000104H .CRT$XPXA               DATA
 0002:00000834 00000104H .CRT$XPZ                DATA
 0002:00000938 00000104H .CRT$XTA                DATA
 0002:00000a3c 00000104H .CRT$XTZ                DATA
 0002:00000b40 0000caf9H .rdata                  DATA
 0002:0000d63c 0000038aH .rdata$r                DATA
 0002:0000d9d0 0000010eH .rdata$sxdata           DATA
 0002:0000dae0 00000113H .rdata$zETW0            DATA
 0002:0000dbf3 0000018eH .rdata$zETW1            DATA
 0002:0000dd81 00000134H .rdata$zETW2            DATA
 0002:0000deb5 00000101H .rdata$zETW9            DATA
 0002:0000dfb8 000001acH .rdata$zzzdbg           DATA
 0002:0000e164 00000104H .rtc$IAA                DATA
 0002:0000e268 00000104H .rtc$IZZ                DATA
 0002:0000e36c 00000104H .rtc$TAA                DATA
 0002:0000e470 00000104H .rtc$TZZ                DATA
 0002:0000e578 00000ac0H .xdata$x                DATA
 0002:0000f040 000001fcH .edata                  DATA
 0003:00000000 000010c1H .data                   DATA
 0003:000010c4 000001d4H .data$r                 DATA
 0003:000012a0 00012e0cH .bss                    DATA
 0004:00000000 000001ecH .idata$5                DATA
 0004:000001ec 00000028H .idata$2                DATA
 0004:00000214 00000014H .idata$3                DATA
 0004:00000228 000001ecH .idata$4                DATA
 0004:00000414 0000080cH .idata$6                DATA
 0005:00000000 00000104H .00cfg                  DATA

  Address         Publics by Value              Rva+Base       Lib:Object

 0000:00000000       __except_list              00000000     <absolute>
 0000:00000000       ___guard_fids_table        00000000     <absolute>
 0000:00000000       ___guard_fids_count        00000000     <absolute>
 0000:00000003       ___safe_se_handler_count   00000003     <absolute>
 0000:00000100       ___guard_flags             00000100     <absolute>
 0000:00000000       ___ImageBase               10000000     <linker-defined>
 0001:00005ca3       ?TraceLoggingRegister@__vcrt_trace_logging_provider@@YAJPBU_TlgProvider_t@1@PBU_GUID@@P6GX1KE_K2PAU_EVENT_FILTER_DESCRIPTOR@@PAX@Z4@Z 10006ca3 f i libvcruntime:telemetry.obj
 0001:00005d17       ?TraceLoggingSetInformation@__vcrt_trace_logging_provider@@YAJPBU_TlgProvider_t@1@W4_EVENT_INFO_CLASS@@PAXK@Z 10006d17 f i libvcruntime:telemetry.obj
 0001:00005d4c       ?TraceLoggingUnregister@__vcrt_trace_logging_provider@@YAXPBU_TlgProvider_t@1@@Z 10006d4c f i libvcruntime:telemetry.obj
 0001:00005d72       ?_TlgCreateSz@__vcrt_trace_logging_provider@@YAXPAU_EVENT_DATA_DESCRIPTOR@@PBD@Z 10006d72 f i libvcruntime:telemetry.obj
 0001:00005db8       ?_TlgCreateWsz@__vcrt_trace_logging_provider@@YAXPAU_EVENT_DATA_DESCRIPTOR@@PB_W@Z 10006db8 f i libvcruntime:telemetry.obj
 0001:00005e0d       ?_TlgEnableCallback@__vcrt_trace_logging_provider@@YGXPBU_GUID@@KE_K1PAU_EVENT_FILTER_DESCRIPTOR@@PAX@Z 10006e0d f i libvcruntime:telemetry.obj
 0001:00005ea3       ?_TlgKeywordOn@__vcrt_trace_logging_provider@@YAEPBU_TlgProvider_t@1@_K@Z 10006ea3 f i libvcruntime:telemetry.obj
 0001:00005eee       ?_TlgWrite@__vcrt_trace_logging_provider@@YAJPBU_TlgProvider_t@1@PBXPBU_GUID@@2IPAU_EVENT_DATA_DESCRIPTOR@@@Z 10006eee f i libvcruntime:telemetry.obj
 0001:00005fa0       _DllMain@12                10006fa0 f   xpctarget.obj
 0001:00005fb0       _SLRTSetErrorStatus        10006fb0 f   xpctarget.obj
 0001:00005fd0       _changeStepSize            10006fd0 f   xpctarget.obj
 0001:00006040       _getDLMVersion             10007040 f   xpctarget.obj
 0001:00006050       _getFullPathToRefMdl       10007050 f   xpctarget.obj
 0001:00006100       _getRefMdlPath             10007100 f   xpctarget.obj
 0001:00006180       _getRefMdlSignalNumber     10007180 f   xpctarget.obj
 0001:00006230       _getrlmdlinfo              10007230 f   xpctarget.obj
 0001:00006390       _slrtRegisterSignalToLoggingService 10007390 f   xpctarget.obj
 0001:000064e0       _test_ChangeStepSize       100074e0 f   xpctarget.obj
 0001:00006550       _updateDiscreteEvents      10007550 f   xpctarget.obj
 0001:00006560       _getNumRef                 10007560 f   appmappingData.obj
 0001:00006570       ___local_stdio_printf_options 10007570 f i legacy_stdio.obj
 0001:00006580       __vfprintf_l               10007580 f i legacy_stdio.obj
 0001:000065b0       _vprintf                   100075b0 f i legacy_stdio.obj
 0001:000065f0       __vsnprintf_l              100075f0 f i rt_logging.obj
 0001:00006630       __vsprintf_l               10007630 f i rt_logging.obj
 0001:00006670       _fprintf                   10007670 f i rt_logging.obj
 0001:00006f70       _printf                    10007f70 f i rt_logging.obj
 0001:00006fb0       _rt_CreateLogVar           10007fb0 f   rt_logging.obj
 0001:00007040       _rt_CreateLogVarWithConvert 10008040 f   rt_logging.obj
 0001:00007990       _rt_CreateStructLogVar     10008990 f   rt_logging.obj
 0001:000086f0       _rt_GetMxIdFromDTypeId     100096f0 f   rt_logging.obj
 0001:00008720       _rt_GetMxIdFromDTypeIdForRSim 10009720 f   rt_logging.obj
 0001:0000b000       _rt_StartDataLogging       1000c000 f   rt_logging.obj
 0001:0000b4c0       _rt_StartDataLoggingWithStartTime 1000c4c0 f   rt_logging.obj
 0001:0000be20       _rt_StopDataLogging        1000ce20 f   rt_logging.obj
 0001:0000be40       _rt_StopDataLoggingImpl    1000ce40 f   rt_logging.obj
 0001:0000c190       _rt_UpdateLogVar           1000d190 f   rt_logging.obj
 0001:0000d350       _rt_UpdateStructLogVar     1000e350 f   rt_logging.obj
 0001:0000d3e0       _rt_UpdateTXXFYLogVars     1000e3e0 f   rt_logging.obj
 0001:0000d9d0       _rt_UpdateTXYLogVars       1000e9d0 f   rt_logging.obj
 0001:0000dc20       _rt_getTempMemory          1000ec20 f   rt_logging.obj
 0001:0000dc70       _sprintf                   1000ec70 f i rt_logging.obj
 0001:0000dcb0       _rtGetInf                  1000ecb0 f   rtGetInf.obj
 0001:0000dce0       _rtGetInfF                 1000ece0 f   rtGetInf.obj
 0001:0000dd00       _rtGetMinusInf             1000ed00 f   rtGetInf.obj
 0001:0000dd30       _rtGetMinusInfF            1000ed30 f   rtGetInf.obj
 0001:0000dd50       _rtGetNaN                  1000ed50 f   rtGetNaN.obj
 0001:0000dd80       _rtGetNaNF                 1000ed80 f   rtGetNaN.obj
 0001:0000dda0       _rtIsInf                   1000eda0 f   rt_nonfinite.obj
 0001:0000dde0       _rtIsInfF                  1000ede0 f   rt_nonfinite.obj
 0001:0000de20       _rtIsNaN                   1000ee20 f   rt_nonfinite.obj
 0001:0000de40       _rtIsNaNF                  1000ee40 f   rt_nonfinite.obj
 0001:0000de60       _rt_InitInfAndNaN          1000ee60 f   rt_nonfinite.obj
 0001:0000dec0       _MdlInitialize             1000eec0 f   test.obj
 0001:0000ded0       _MdlInitializeSampleTimes  1000eed0 f   test.obj
 0001:0000dee0       _MdlInitializeSizes        1000eee0 f   test.obj
 0001:0000def0       _MdlOutputs                1000eef0 f   test.obj
 0001:0000df00       _MdlStart                  1000ef00 f   test.obj
 0001:0000df10       _MdlTerminate              1000ef10 f   test.obj
 0001:0000df20       _MdlUpdate                 1000ef20 f   test.obj
 0001:0000df30       _look1_binlxpw             1000ef30 f   test.obj
 0001:0000e010       _rt_remd_snf               1000f010 f   test.obj
 0001:0000e260       _test                      1000f260 f   test.obj
 0001:0000e790       _test_GetCAPIStaticMap     1000f790 f   test_capi.obj
 0001:0000e7a0       _test_InitializeDataMapInfo 1000f7a0 f   test_capi.obj
 0001:0000e870       _mdlXcp_GetMdlXcpInfo      1000f870 f   test_xcp.obj
 0001:0000e880       _SLRT_update_TET           1000f880 f   test_xcp_TET.obj
 0001:0000e950       _rt_CleanUpForStateLogWithMMI 1000f950 f   rt_logging_mmi.obj
 0001:0000ea60       _rt_FillStateSigInfoFromMMI 1000fa60 f   rt_logging_mmi.obj
 0001:0000ee30       _rtwCAPI_CountSysRan       1000fe30 f   rtw_modelmap_utils.obj
 0001:0000eed0       _rtwCAPI_EncodePath        1000fed0 f   rtw_modelmap_utils.obj
 0001:0000efd0       _rtwCAPI_FillSysRan        1000ffd0 f   rtw_modelmap_utils.obj
 0001:0000f0c0       _rtwCAPI_FreeFullPaths     100100c0 f   rtw_modelmap_utils.obj
 0001:0000f150       _rtwCAPI_GetFullStateBlockPath 10010150 f   rtw_modelmap_utils.obj
 0001:0000f300       _rtwCAPI_GetNumContStateRecords 10010300 f   rtw_modelmap_utils.obj
 0001:0000f3c0       _rtwCAPI_GetNumSigLogRecords 100103c0 f   rtw_modelmap_utils.obj
 0001:0000f410       _rtwCAPI_GetNumSigLogRecordsForRTWLogging 10010410 f   rtw_modelmap_utils.obj
 0001:0000f4a0       _rtwCAPI_GetNumStateRecords 100104a0 f   rtw_modelmap_utils.obj
 0001:0000f4f0       _rtwCAPI_GetNumStateRecordsForRTWLogging 100104f0 f   rtw_modelmap_utils.obj
 0001:0000f580       _rtwCAPI_GetSigAddrFromMap 10010580 f   rtw_modelmap_utils.obj
 0001:0000f640       _rtwCAPI_GetSigLogRecordInfo 10010640 f   rtw_modelmap_utils.obj
 0001:0000fa70       _rtwCAPI_GetStateRecordInfo 10010a70 f   rtw_modelmap_utils.obj
 0001:0000ff60       _rtwCAPI_GetStateWidth     10010f60 f   rtw_modelmap_utils.obj
 0001:0000ffc0       _rtwCAPI_HasStates         10010fc0 f   rtw_modelmap_utils.obj
 0001:00010030       _rtwCAPI_UpdateFullPaths   10011030 f   rtw_modelmap_utils.obj
 0001:00010210       _timestamp_x86             10011210 f   host_timer_x86.obj
 0001:00010220       _taskTimeEnd               10011220 f   xpc_code_profiling_utility_functions.obj
 0001:00010230       _taskTimeEnd_              10011230 f   xpc_code_profiling_utility_functions.obj
 0001:00010240       _taskTimeStart             10011240 f   xpc_code_profiling_utility_functions.obj
 0001:00010250       _taskTimeStart_            10011250 f   xpc_code_profiling_utility_functions.obj
 0001:00010260       _xilProfilingTimerFreeze   10011260 f   xpc_code_profiling_utility_functions.obj
 0001:00010270       _xilProfilingTimerUnFreeze 10011270 f   xpc_code_profiling_utility_functions.obj
 0001:00010280       _xilUploadProfilingData    10011280 f   xpc_code_profiling_utility_functions.obj
 0001:00010290       _GetPCIDeviceFull          10011290 f   xpcruntime:xpcimports.obj
 0001:000102e0       _GetPCIDeviceFunction      100112e0 f   xpcruntime:xpcimports.obj
 0001:00010320       _ShowPCIDevice             10011320 f   xpcruntime:xpcimports.obj
 0001:00010980       _slrtGetPciConfigAtFunction 10011980 f   xpcruntime:xpcimports.obj
 0001:00010d20       _xpcGetPciConfigAtSlot     10011d20 f   xpcruntime:xpcimports.obj
 0001:00010d40       _xpcInitProcs              10011d40 f   xpcruntime:xpcimports.obj
 0001:000123c0       _xpceuploadevent           100133c0 f   xpcruntime:xpcimports.obj
 0001:000123c1       ___raise_securityfailure   100133c1 f   LIBCMT:gs_report.obj
 0001:000123f3       ___report_gsfailure        100133f3 f   LIBCMT:gs_report.obj
 0001:0001252c       ___report_rangecheckfailure 1001352c f   LIBCMT:gs_report.obj
 0001:0001253b       ___report_securityfailure  1001353b f   LIBCMT:gs_report.obj
 0001:0001263f       ___report_securityfailureEx 1001363f f   LIBCMT:gs_report.obj
 0001:0001279a       @__security_check_cookie@4 1001379a f   LIBCMT:_secchk_.obj
 0001:000127b0       __ftoui3                   100137b0 f   LIBCMT:_ftol3_.obj
 0001:000127bf       __ftoul3                   100137bf f   LIBCMT:_ftol3_.obj
 0001:000127ce       __ftol3                    100137ce f   LIBCMT:_ftol3_.obj
 0001:000127db       __ftol3_NaN                100137db f   LIBCMT:_ftol3_.obj
 0001:000127f3       __ftol3_work               100137f3 f   LIBCMT:_ftol3_.obj
 0001:00012879       __ftol3_common             10013879 f   LIBCMT:_ftol3_.obj
 0001:0001293b       __ftol3_arg_error          1001393b f   LIBCMT:_ftol3_.obj
 0001:0001294d       __ftol3_except             1001394d f   LIBCMT:_ftol3_.obj
 0001:00012991       __dtoui3                   10013991 f   LIBCMT:_ftol3_.obj
 0001:000129a0       __dtoul3                   100139a0 f   LIBCMT:_ftol3_.obj
 0001:000129af       __dtol3                    100139af f   LIBCMT:_ftol3_.obj
 0001:000129bc       __dtol3_NaN                100139bc f   LIBCMT:_ftol3_.obj
 0001:000129d9       __dtol3_work               100139d9 f   LIBCMT:_ftol3_.obj
 0001:00012ac0       __ultod3                   10013ac0 f   LIBCMT:_ftol3_.obj
 0001:00012b00       __ltod3                    10013b00 f   LIBCMT:_ftol3_.obj
 0001:00012c04       ___isa_available_init      10013c04 f   LIBCMT:_cpu_disp_.obj
 0001:000131e5       __CRT_INIT@12              100141e5 f   LIBCMT:dll_dllmain.obj
 0001:000131f0       __DllMainCRTStartup@12     100141f0 f   LIBCMT:dll_dllmain.obj
 0001:0001321b       ??$__crt_fast_decode_pointer@PAP6AXXZ@@YAPAP6AXXZQAP6AXXZ@Z 1001421b f i LIBCMT:utility.obj
 0001:00013234       ??$__crt_fast_encode_pointer@PAP6AXXZ@@YAPAP6AXXZQAP6AXXZ@Z 10014234 f i LIBCMT:utility.obj
 0001:00013258       ?__crt_rotate_pointer_value@@YAIIH@Z 10014258 f i LIBCMT:utility.obj
 0001:000132fc       _NtCurrentTeb              100142fc f i LIBCMT:utility.obj
 0001:00013303       ___scrt_acquire_startup_lock 10014303 f   LIBCMT:utility.obj
 0001:00013345       ___scrt_dllmain_after_initialize_c 10014345 f   LIBCMT:utility.obj
 0001:00013363       ___scrt_dllmain_before_initialize_c 10014363 f   LIBCMT:utility.obj
 0001:00013374       ___scrt_dllmain_crt_thread_attach 10014374 f   LIBCMT:utility.obj
 0001:0001339a       ___scrt_dllmain_crt_thread_detach 1001439a f   LIBCMT:utility.obj
 0001:000133aa       ___scrt_dllmain_exception_filter 100143aa f   LIBCMT:utility.obj
 0001:000133e9       ___scrt_dllmain_uninitialize_c 100143e9 f   LIBCMT:utility.obj
 0001:00013414       ___scrt_dllmain_uninitialize_critical 10014414 f   LIBCMT:utility.obj
 0001:00013424       ___scrt_initialize_crt     10014424 f   LIBCMT:utility.obj
 0001:0001346b       ___scrt_initialize_onexit_tables 1001446b f   LIBCMT:utility.obj
 0001:00013527       ___scrt_is_nonwritable_in_current_image 10014527 f   LIBCMT:utility.obj
 0001:000135d7       ___scrt_release_startup_lock 100145d7 f   LIBCMT:utility.obj
 0001:000135fb       ___scrt_uninitialize_crt   100145fb f   LIBCMT:utility.obj
 0001:0001362d       __onexit                   1001462d f   LIBCMT:utility.obj
 0001:00013676       _at_quick_exit             10014676 f   LIBCMT:utility.obj
 0001:000136b3       _atexit                    100146b3 f   LIBCMT:utility.obj
 0001:000136cd       ___security_init_cookie    100146cd f   LIBCMT:gs_support.obj
 0001:00013790       ?__scrt_initialize_type_info@@YAXXZ 10014790 f   LIBCMT:tncleanup.obj
 0001:0001379f       ?__scrt_uninitialize_type_info@@YAXXZ 1001479f f   LIBCMT:tncleanup.obj
 0001:000137ae       ___local_stdio_scanf_options 100147ae f i LIBCMT:default_local_stdio_options.obj
 0001:000137b4       ___scrt_initialize_default_local_stdio_options 100147b4 f   LIBCMT:default_local_stdio_options.obj
 0001:000137d8       ___scrt_get_dyn_tls_init_callback 100147d8 f   LIBCMT:dyn_tls_init.obj
 0001:000137de       ___scrt_fastfail           100147de f   LIBCMT:utility_desktop.obj
 0001:0001393f       ___scrt_get_show_window_mode 1001493f f   LIBCMT:utility_desktop.obj
 0001:0001397e       ___scrt_initialize_winrt   1001497e f   LIBCMT:utility_desktop.obj
 0001:00013981       ___scrt_is_managed_app     10014981 f   LIBCMT:utility_desktop.obj
 0001:000139d6       ___scrt_set_unhandled_exception_filter 100149d6 f   LIBCMT:utility_desktop.obj
 0001:000139e5       ___scrt_unhandled_exception_filter@4 100149e5 f   LIBCMT:utility_desktop.obj
 0001:00013a36       __crt_debugger_hook        10014a36 f   LIBCMT:utility_desktop.obj
 0001:00013a40       __RTC_Initialize           10014a40 f   LIBCMT:_initsect_.obj
 0001:00013a75       __RTC_Terminate            10014a75 f   LIBCMT:_initsect_.obj
 0001:00013aaa       @_guard_check_icall@4      10014aaa f i LIBCMT:checkcfg.obj
 0001:00013ab0       __SEH_prolog4              10014ab0 f   LIBCMT:_sehprolg4_.obj
 0001:00013af6       __SEH_epilog4              10014af6 f   LIBCMT:_sehprolg4_.obj
 0001:00013b21       ___scrt_is_ucrt_dll_in_use 10014b21 f   LIBCMT:ucrt_detection.obj
 0001:00013b30       @_guard_check_icall_nop@4  10014b30 f i LIBCMT:guard_support.obj
 0001:00013b31       __guard_icall_checks_enforced 10014b31 f i LIBCMT:guard_support.obj
 0001:00013b48       _GetModuleHandleA@4        10014b48 f   kernel32:KERNEL32.dll
 0001:00013b4e       _GetProcAddress@8          10014b4e f   kernel32:KERNEL32.dll
 0001:00013b54       _UnhandledExceptionFilter@4 10014b54 f   kernel32:KERNEL32.dll
 0001:00013b5a       _SetUnhandledExceptionFilter@4 10014b5a f   kernel32:KERNEL32.dll
 0001:00013b60       _GetCurrentProcess@0       10014b60 f   kernel32:KERNEL32.dll
 0001:00013b66       _TerminateProcess@8        10014b66 f   kernel32:KERNEL32.dll
 0001:00013b6c       _IsProcessorFeaturePresent@4 10014b6c f   kernel32:KERNEL32.dll
 0001:00013b72       _QueryPerformanceCounter@4 10014b72 f   kernel32:KERNEL32.dll
 0001:00013b78       _GetCurrentProcessId@0     10014b78 f   kernel32:KERNEL32.dll
 0001:00013b7e       _GetCurrentThreadId@0      10014b7e f   kernel32:KERNEL32.dll
 0001:00013b84       _GetSystemTimeAsFileTime@4 10014b84 f   kernel32:KERNEL32.dll
 0001:00013b8a       _InitializeSListHead@4     10014b8a f   kernel32:KERNEL32.dll
 0001:00013b90       _IsDebuggerPresent@0       10014b90 f   kernel32:KERNEL32.dll
 0001:00013b96       _GetStartupInfoW@4         10014b96 f   kernel32:KERNEL32.dll
 0001:00013b9c       _GetModuleHandleW@4        10014b9c f   kernel32:KERNEL32.dll
 0001:00013bb0       _memmove                   10014bb0 f   libvcruntime:memmove.obj
 0001:00014290       _strchr                    10015290 f   libvcruntime:strchr.obj
 0001:000142fe       ___from_strstr_to_strchr   100152fe     libvcruntime:strchr.obj
 0001:00014410       _memcpy                    10015410 f   libvcruntime:memcpy.obj
 0001:00014af0       _memset                    10015af0 f   libvcruntime:memset.obj
 0001:00014ce9       _EventDataDescCreate       10015ce9 f i libvcruntime:telemetry.obj
 0001:00014d0a       _HRESULT_FROM_WIN32        10015d0a f i libvcruntime:telemetry.obj
 0001:00014d23       ___telemetry_main_invoke_trigger 10015d23 f   libvcruntime:telemetry.obj
 0001:00014de6       ___telemetry_main_return_trigger 10015de6 f   libvcruntime:telemetry.obj
 0001:00014ea9       ___vcrt_initialize_telemetry_provider 10015ea9 f   libvcruntime:telemetry.obj
 0001:00014ec0       ___vcrt_uninitialize_telemetry_provider 10015ec0 f   libvcruntime:telemetry.obj
 0001:00014f10       __except_handler4          10015f10 f   libvcruntime:_chandler4_.obj
 0001:000150c0       ___vcrt_initialize         100160c0 f   libvcruntime:initialization.obj
 0001:000150f9       ___vcrt_thread_attach      100160f9 f   libvcruntime:initialization.obj
 0001:00015106       ___vcrt_thread_detach      10016106 f   libvcruntime:initialization.obj
 0001:00015113       ___vcrt_uninitialize       10016113 f   libvcruntime:initialization.obj
 0001:00015140       ___vcrt_uninitialize_critical 10016140 f   libvcruntime:initialization.obj
 0001:0001515b       ??$?RD@__crt_internal_free_policy@@QBEXQBD@Z 1001615b f i libvcruntime:std_type_info.obj
 0001:0001516f       ??$?RX@__crt_internal_free_policy@@QBEXQBX@Z 1001616f f i libvcruntime:std_type_info.obj
 0001:00015183       ??$__crt_interlocked_compare_exchange_pointer@$$CBD$$T$$T@@YAPBDPDSBD$$T1@Z 10016183 f i libvcruntime:std_type_info.obj
 0001:00015199       ??$__crt_interlocked_compare_exchange_pointer@$$CBDPAD$$T@@YAPBDPDSBDQAD$$T@Z 10016199 f i libvcruntime:std_type_info.obj
 0001:000151af       ??$__crt_interlocked_read_pointer@$$CBD@@YAPBDPDSBD@Z 100161af f i libvcruntime:std_type_info.obj
 0001:000151c3       ??0?$__crt_unique_heap_ptr@DU__crt_internal_free_policy@@@@QAE@QAD@Z 100161c3 f i libvcruntime:std_type_info.obj
 0001:000151d4       ??0?$__crt_unique_heap_ptr@XU__crt_internal_free_policy@@@@QAE@QAX@Z 100161d4 f i libvcruntime:std_type_info.obj
 0001:000151e5       ??1?$__crt_unique_heap_ptr@DU__crt_internal_free_policy@@@@QAE@XZ 100161e5 f i libvcruntime:std_type_info.obj
 0001:000151f9       ??1?$__crt_unique_heap_ptr@XU__crt_internal_free_policy@@@@QAE@XZ 100161f9 f i libvcruntime:std_type_info.obj
 0001:00015219       ??B?$__crt_unique_heap_ptr@DU__crt_internal_free_policy@@@@QBE_NXZ 10016219 f i libvcruntime:std_type_info.obj
 0001:00015223       ??B?$__crt_unique_heap_ptr@XU__crt_internal_free_policy@@@@QBE_NXZ 10016223 f i libvcruntime:std_type_info.obj
 0001:00015255       ?detach@?$__crt_unique_heap_ptr@XU__crt_internal_free_policy@@@@QAEPAXXZ 10016255 f i libvcruntime:std_type_info.obj
 0001:0001525b       ?get@?$__crt_unique_heap_ptr@DU__crt_internal_free_policy@@@@QBEPADXZ 1001625b f i libvcruntime:std_type_info.obj
 0001:0001525e       ?get@?$__crt_unique_heap_ptr@XU__crt_internal_free_policy@@@@QBEPAXXZ 1001625e f i libvcruntime:std_type_info.obj
 0001:00015261       ?is_valid@?$__crt_unique_heap_ptr@DU__crt_internal_free_policy@@@@QBE_NXZ 10016261 f i libvcruntime:std_type_info.obj
 0001:0001526b       ?is_valid@?$__crt_unique_heap_ptr@XU__crt_internal_free_policy@@@@QBE_NXZ 1001626b f i libvcruntime:std_type_info.obj
 0001:00015275       ?release@?$__crt_unique_heap_ptr@DU__crt_internal_free_policy@@@@QAEXXZ 10016275 f i libvcruntime:std_type_info.obj
 0001:00015289       ?release@?$__crt_unique_heap_ptr@XU__crt_internal_free_policy@@@@QAEXXZ 10016289 f i libvcruntime:std_type_info.obj
 0001:0001529d       ___std_type_info_compare   1001629d f   libvcruntime:std_type_info.obj
 0001:000152e8       ___std_type_info_destroy_list 100162e8 f   libvcruntime:std_type_info.obj
 0001:00015313       ___std_type_info_hash      10016313 f   libvcruntime:std_type_info.obj
 0001:00015342       ___std_type_info_name      10016342 f   libvcruntime:std_type_info.obj
 0001:0001543f       ??$?BX@__crt_fast_encoded_nullptr_t@@QBEPAXXZ 1001643f f i libvcruntime:winapi_downlevel.obj
 0001:0001545d       ??$__crt_fast_decode_pointer@PAX@@YAPAXQAX@Z 1001645d f i libvcruntime:winapi_downlevel.obj
 0001:00015476       ??$__crt_fast_encode_pointer@PAX@@YAPAXQAX@Z 10016476 f i libvcruntime:winapi_downlevel.obj
 0001:0001549a       ??$__crt_interlocked_compare_exchange_pointer@UHINSTANCE__@@$$T$$T@@YAPAUHINSTANCE__@@PDSAU0@$$T1@Z 1001649a f i libvcruntime:winapi_downlevel.obj
 0001:000154b0       ??$__crt_interlocked_compare_exchange_pointer@X$$T$$T@@YAPAXPDSAX$$T1@Z 100164b0 f i libvcruntime:winapi_downlevel.obj
 0001:000154c6       ??$__crt_interlocked_exchange_pointer@UHINSTANCE__@@PAU1@@@YAPAUHINSTANCE__@@PDSAU0@QAU0@@Z 100164c6 f i libvcruntime:winapi_downlevel.obj
 0001:000154d6       ??$__crt_interlocked_exchange_pointer@UHINSTANCE__@@PAX@@YAPAUHINSTANCE__@@PDSAU0@QAX@Z 100164d6 f i libvcruntime:winapi_downlevel.obj
 0001:000154e6       ??$__crt_interlocked_exchange_pointer@XPAX@@YAPAXPDSAXQAX@Z 100164e6 f i libvcruntime:winapi_downlevel.obj
 0001:000154f6       ??$__crt_interlocked_read_pointer@UHINSTANCE__@@@@YAPAUHINSTANCE__@@PDSAU0@@Z 100164f6 f i libvcruntime:winapi_downlevel.obj
 0001:0001550a       ??$__crt_interlocked_read_pointer@X@@YAPAXPDSAX@Z 1001650a f i libvcruntime:winapi_downlevel.obj
 0001:0001551e       ?__crt_fast_encode_pointer@@YA?AU__crt_fast_encoded_nullptr_t@@$$T@Z 1001651e f i libvcruntime:winapi_downlevel.obj
 0001:00015862       ___vcrt_EventRegister      10016862 f   libvcruntime:winapi_downlevel.obj
 0001:000158b2       ___vcrt_EventSetInformation 100168b2 f   libvcruntime:winapi_downlevel.obj
 0001:00015905       ___vcrt_EventUnregister    10016905 f   libvcruntime:winapi_downlevel.obj
 0001:0001594d       ___vcrt_EventWriteTransfer 1001694d f   libvcruntime:winapi_downlevel.obj
 0001:000159a8       ___vcrt_FlsAlloc           100169a8 f   libvcruntime:winapi_downlevel.obj
 0001:000159f0       ___vcrt_FlsFree            100169f0 f   libvcruntime:winapi_downlevel.obj
 0001:00015a38       ___vcrt_FlsGetValue        10016a38 f   libvcruntime:winapi_downlevel.obj
 0001:00015a80       ___vcrt_FlsSetValue        10016a80 f   libvcruntime:winapi_downlevel.obj
 0001:00015acc       ___vcrt_InitializeCriticalSectionEx 10016acc f   libvcruntime:winapi_downlevel.obj
 0001:00015b23       ___vcrt_initialize_winapi_thunks 10016b23 f   libvcruntime:winapi_downlevel.obj
 0001:00015b50       ___vcrt_uninitialize_winapi_thunks 10016b50 f   libvcruntime:winapi_downlevel.obj
 0001:00015b90       __local_unwind4            10016b90 f   libvcruntime:_exsup4_.obj
 0001:00015c66       __seh_longjmp_unwind4@4    10016c66 f   libvcruntime:_exsup4_.obj
 0001:00015c8e       @_EH4_CallFilterFunc@8     10016c8e f   libvcruntime:_exsup4_.obj
 0001:00015ca5       @_EH4_TransferToHandler@8  10016ca5 f   libvcruntime:_exsup4_.obj
 0001:00015cbe       @_EH4_GlobalUnwind2@8      10016cbe f   libvcruntime:_exsup4_.obj
 0001:00015cd7       @_EH4_LocalUnwind@16       10016cd7 f   libvcruntime:_exsup4_.obj
 0001:00015d45       ___except_validate_context_record 10016d45 f   libvcruntime:jbcxrval.obj
 0001:00015d46       ___except_validate_jump_buffer 10016d46 f   libvcruntime:jbcxrval.obj
 0001:00015d47       ??$?RU__vcrt_ptd@@@__crt_internal_free_policy@@QBEXQBU__vcrt_ptd@@@Z 10016d47 f i libvcruntime:per_thread_data.obj
 0001:00015d5b       ??0?$__crt_unique_heap_ptr@U__vcrt_ptd@@U__crt_internal_free_policy@@@@QAE@QAU__vcrt_ptd@@@Z 10016d5b f i libvcruntime:per_thread_data.obj
 0001:00015d6c       ??1?$__crt_unique_heap_ptr@U__vcrt_ptd@@U__crt_internal_free_policy@@@@QAE@XZ 10016d6c f i libvcruntime:per_thread_data.obj
 0001:00015d80       ??B?$__crt_unique_heap_ptr@U__vcrt_ptd@@U__crt_internal_free_policy@@@@QBE_NXZ 10016d80 f i libvcruntime:per_thread_data.obj
 0001:00015d8a       ?detach@?$__crt_unique_heap_ptr@U__vcrt_ptd@@U__crt_internal_free_policy@@@@QAEPAU__vcrt_ptd@@XZ 10016d8a f i libvcruntime:per_thread_data.obj
 0001:00015d90       ?get@?$__crt_unique_heap_ptr@U__vcrt_ptd@@U__crt_internal_free_policy@@@@QBEPAU__vcrt_ptd@@XZ 10016d90 f i libvcruntime:per_thread_data.obj
 0001:00015d93       ?is_valid@?$__crt_unique_heap_ptr@U__vcrt_ptd@@U__crt_internal_free_policy@@@@QBE_NXZ 10016d93 f i libvcruntime:per_thread_data.obj
 0001:00015d9d       ?release@?$__crt_unique_heap_ptr@U__vcrt_ptd@@U__crt_internal_free_policy@@@@QAEXXZ 10016d9d f i libvcruntime:per_thread_data.obj
 0001:00015dd1       ___vcrt_freefls@4          10016dd1 f   libvcruntime:per_thread_data.obj
 0001:00015df4       ___vcrt_freeptd            10016df4 f   libvcruntime:per_thread_data.obj
 0001:00015e37       ___vcrt_getptd             10016e37 f   libvcruntime:per_thread_data.obj
 0001:00015e48       ___vcrt_getptd_noexit      10016e48 f   libvcruntime:per_thread_data.obj
 0001:00015ede       ___vcrt_initialize_ptd     10016ede f   libvcruntime:per_thread_data.obj
 0001:00015f1d       ___vcrt_uninitialize_ptd   10016f1d f   libvcruntime:per_thread_data.obj
 0001:00015f3e       ___vcrt_initialize_locks   10016f3e f   libvcruntime:locks.obj
 0001:00015f89       ___vcrt_lock               10016f89 f   libvcruntime:locks.obj
 0001:00015fa3       ___vcrt_uninitialize_locks 10016fa3 f   libvcruntime:locks.obj
 0001:00015fdd       ___vcrt_unlock             10016fdd f   libvcruntime:locks.obj
 0001:00015ff7       ??$?B$$A6AXXZ@__crt_fast_encoded_nullptr_t@@QBEP6AXXZXZ 10016ff7 f i libvcruntime:purevirt_data.obj
 0001:00016015       ??$__crt_fast_encode_pointer@P6AXXZ@@YAP6AXXZQ6AXXZ@Z 10017015 f i libvcruntime:purevirt_data.obj
 0001:00016039       ___vcrt_initialize_pure_virtual_call_handler 10017039 f   libvcruntime:purevirt_data.obj
 0001:0001605d       ??$__vcrt_va_start_verify_argument_type@QBD@@YAXXZ 1001705d f i libvcruntime:undname.obj
 0001:0001605e       ??0Block@_HeapManager@@QAE@XZ 1001705e f i libvcruntime:undname.obj
 0001:00016064       ??0DName@@QAE@AAPBDD@Z     10017064 f   libvcruntime:undname.obj
 0001:0001614b       ??0DName@@QAE@ABV0@@Z      1001714b f i libvcruntime:undname.obj
 0001:00016166       ??0DName@@QAE@D@Z          10017166 f   libvcruntime:undname.obj
 0001:0001619d       ??0DName@@QAE@PAV0@@Z      1001719d f   libvcruntime:undname.obj
 0001:000161fd       ??0DName@@QAE@PBD@Z        100171fd f   libvcruntime:undname.obj
 0001:00016245       ??0DName@@QAE@W4DNameStatus@@@Z 10017245 f   libvcruntime:undname.obj
 0001:00016298       ??0DName@@QAE@XZ           10017298 f i libvcruntime:undname.obj
 0001:000162ad       ??0DName@@QAE@_J@Z         100172ad f   libvcruntime:undname.obj
 0001:00016367       ??0DName@@QAE@_K@Z         10017367 f   libvcruntime:undname.obj
 0001:000163f1       ??0DNameNode@@IAE@XZ       100173f1 f   libvcruntime:undname.obj
 0001:000163fc       ??0DNameStatusNode@@AAE@W4DNameStatus@@@Z 100173fc f   libvcruntime:undname.obj
 0001:00016427       ??0Replicator@@QAE@XZ      10017427 f i libvcruntime:undname.obj
 0001:0001642d       ??0UnDecorator@@QAE@PADPBDHP6APADJ@ZK@Z 1001742d f i libvcruntime:undname.obj
 0001:000164b0       ??0charNode@@QAE@D@Z       100174b0 f   libvcruntime:undname.obj
 0001:000164ca       ??0pDNameNode@@QAE@PAVDName@@@Z 100174ca f   libvcruntime:undname.obj
 0001:000164fc       ??0pairNode@@QAE@PAVDNameNode@@0@Z 100174fc f   libvcruntime:undname.obj
 0001:00016522       ??0pcharNode@@QAE@PBDH@Z   10017522 f   libvcruntime:undname.obj
 0001:00016591       ??2@YAPAXIAAV_HeapManager@@H@Z 10017591 f i libvcruntime:undname.obj
 0001:000165ab       ??4DName@@QAEAAV0@ABV0@@Z  100175ab f   libvcruntime:undname.obj
 0001:000165c6       ??4DName@@QAEAAV0@D@Z      100175c6 f i libvcruntime:undname.obj
 0001:000165fd       ??4DName@@QAEAAV0@PAV0@@Z  100175fd f   libvcruntime:undname.obj
 0001:00016658       ??4DName@@QAEAAV0@PBD@Z    10017658 f   libvcruntime:undname.obj
 0001:00016696       ??4DName@@QAEAAV0@W4DNameStatus@@@Z 10017696 f   libvcruntime:undname.obj
 0001:000166d8       ??AReplicator@@QBE?AVDName@@H@Z 100176d8 f   libvcruntime:undname.obj
 0001:00016723       ??BUnDecorator@@QAEPADXZ   10017723 f i libvcruntime:undname.obj
 0001:000168fc       ??H@YA?AVDName@@DABV0@@Z   100178fc f i libvcruntime:undname.obj
 0001:00016929       ??H@YA?AVDName@@PBDABV0@@Z 10017929 f i libvcruntime:undname.obj
 0001:00016956       ??H@YA?AVDName@@W4DNameStatus@@ABV0@@Z 10017956 f i libvcruntime:undname.obj
 0001:00016983       ??HDName@@QBE?AV0@ABV0@@Z  10017983 f   libvcruntime:undname.obj
 0001:000169ad       ??HDName@@QBE?AV0@D@Z      100179ad f   libvcruntime:undname.obj
 0001:000169d7       ??HDName@@QBE?AV0@PAV0@@Z  100179d7 f   libvcruntime:undname.obj
 0001:00016a01       ??HDName@@QBE?AV0@PBD@Z    10017a01 f   libvcruntime:undname.obj
 0001:00016a2b       ??HDName@@QBE?AV0@W4DNameStatus@@@Z 10017a2b f   libvcruntime:undname.obj
 0001:00016a55       ??YDName@@QAEAAV0@ABV0@@Z  10017a55 f   libvcruntime:undname.obj
 0001:00016aa8       ??YDName@@QAEAAV0@D@Z      10017aa8 f   libvcruntime:undname.obj
 0001:00016b0c       ??YDName@@QAEAAV0@PAV0@@Z  10017b0c f   libvcruntime:undname.obj
 0001:00016b8a       ??YDName@@QAEAAV0@PBD@Z    10017b8a f   libvcruntime:undname.obj
 0001:00016c03       ??YDName@@QAEAAV0@W4DNameStatus@@@Z 10017c03 f   libvcruntime:undname.obj
 0001:00016c53       ??YReplicator@@QAEAAV0@ABVDName@@@Z 10017c53 f   libvcruntime:undname.obj
 0001:00016caf       ??_5DName@@QAEAAV0@ABV0@@Z 10017caf f   libvcruntime:undname.obj
 0001:00016cd2       ?Constructor@_HeapManager@@QAEXP6APAXI@ZP6AXPAX@Z@Z 10017cd2 f i libvcruntime:undname.obj
 0001:00016cf6       ?Destructor@_HeapManager@@QAEXXZ 10017cf6 f i libvcruntime:undname.obj
 0001:00016d3d       ?UScore@UnDecorator@@SAPBDW4Tokens@@@Z 10017d3d f   libvcruntime:undname.obj
 0001:00016d61       ?append@DName@@AAEXPAVDNameNode@@@Z 10017d61 f   libvcruntime:undname.obj
 0001:00016db8       ?composeDeclaration@UnDecorator@@CA?AVDName@@ABV2@@Z 10017db8 f i libvcruntime:undname.obj
 0001:00017e22       ?doAccessSpecifiers@UnDecorator@@SAHXZ 10018e22 f i libvcruntime:undname.obj
 0001:00017e33       ?doAllocationLanguage@UnDecorator@@SAHXZ 10018e33 f i libvcruntime:undname.obj
 0001:00017e44       ?doAllocationModel@UnDecorator@@SAHXZ 10018e44 f i libvcruntime:undname.obj
 0001:00017e55       ?doEcsu@UnDecorator@@SAHXZ 10018e55 f i libvcruntime:undname.obj
 0001:00017e66       ?doEllipsis@UnDecorator@@SAHXZ 10018e66 f i libvcruntime:undname.obj
 0001:00017e77       ?doFunctionReturns@UnDecorator@@SAHXZ 10018e77 f i libvcruntime:undname.obj
 0001:00017e88       ?doMSKeywords@UnDecorator@@SAHXZ 10018e88 f i libvcruntime:undname.obj
 0001:00017e98       ?doMemberTypes@UnDecorator@@SAHXZ 10018e98 f i libvcruntime:undname.obj
 0001:00017ea9       ?doNameOnly@UnDecorator@@SAHXZ 10018ea9 f i libvcruntime:undname.obj
 0001:00017eb6       ?doNoIdentCharCheck@UnDecorator@@SAHXZ 10018eb6 f i libvcruntime:undname.obj
 0001:00017ec3       ?doPchar@DName@@AAEXPBDH@Z 10018ec3 f   libvcruntime:undname.obj
 0001:00017f6f       ?doPtr64@UnDecorator@@SAHXZ 10018f6f f i libvcruntime:undname.obj
 0001:00017f80       ?doRestrictionSpec@UnDecorator@@SAHXZ 10018f80 f i libvcruntime:undname.obj
 0001:00017f91       ?doThisTypes@UnDecorator@@SAHXZ 10018f91 f i libvcruntime:undname.obj
 0001:00017fa7       ?doThrowTypes@UnDecorator@@SAHXZ 10018fa7 f i libvcruntime:undname.obj
 0001:00017fb8       ?doTypeOnly@UnDecorator@@SAHXZ 10018fb8 f i libvcruntime:undname.obj
 0001:00017fc5       ?doUnderScore@UnDecorator@@SAHXZ 10018fc5 f i libvcruntime:undname.obj
 0001:00017fd2       ?getArgumentList@UnDecorator@@CA?AVDName@@XZ 10018fd2 f   libvcruntime:undname.obj
 0001:00018121       ?getArgumentTypes@UnDecorator@@CA?AVDName@@XZ 10019121 f   libvcruntime:undname.obj
 0001:00018239       ?getArrayType@UnDecorator@@CA?AVDName@@ABV2@@Z 10019239 f i libvcruntime:undname.obj
 0001:000184bb       ?getBasedType@UnDecorator@@CA?AVDName@@XZ 100194bb f   libvcruntime:undname.obj
 0001:0001857a       ?getBasicDataType@UnDecorator@@CA?AVDName@@ABV2@@Z 1001957a f   libvcruntime:undname.obj
 0001:00018a5f       ?getCallIndex@UnDecorator@@CA?AVDName@@XZ 10019a5f f i libvcruntime:undname.obj
 0001:00018a78       ?getCallingConvention@UnDecorator@@CA?AVDName@@XZ 10019a78 f   libvcruntime:undname.obj
 0001:00018b66       ?getDataIndirectType@UnDecorator@@CA?AVDName@@ABV2@PBD0H@Z 10019b66 f   libvcruntime:undname.obj
 0001:00019310       ?getDataIndirectType@UnDecorator@@CA?AVDName@@XZ 1001a310 f i libvcruntime:undname.obj
 0001:00019357       ?getDataType@UnDecorator@@CA?AVDName@@PAV2@@Z 1001a357 f   libvcruntime:undname.obj
 0001:0001945d       ?getDecoratedName@UnDecorator@@CA?AVDName@@XZ 1001a45d f   libvcruntime:undname.obj
 0001:0001973c       ?getDimension@UnDecorator@@CA?AVDName@@_N@Z 1001a73c f   libvcruntime:undname.obj
 0001:000198c0       ?getDispatchTarget@UnDecorator@@CA?AVDName@@XZ 1001a8c0 f   libvcruntime:undname.obj
 0001:00019931       ?getDisplacement@UnDecorator@@CA?AVDName@@XZ 1001a931 f i libvcruntime:undname.obj
 0001:0001994a       ?getECSUDataType@UnDecorator@@CA?AVDName@@XZ 1001a94a f   libvcruntime:undname.obj
 0001:00019aae       ?getECSUName@UnDecorator@@CA?AVDName@@XZ 1001aaae f i libvcruntime:undname.obj
 0001:00019ac3       ?getEnumType@UnDecorator@@CA?AVDName@@XZ 1001aac3 f i libvcruntime:undname.obj
 0001:00019bea       ?getExtendedDataIndirectType@UnDecorator@@CA?AVDName@@AAPBDAA_NH@Z 1001abea f   libvcruntime:undname.obj
 0001:00019dfd       ?getExternalDataType@UnDecorator@@CA?AVDName@@ABV2@@Z 1001adfd f i libvcruntime:undname.obj
 0001:00019e94       ?getFunctionIndirectType@UnDecorator@@CA?AVDName@@ABV2@@Z 1001ae94 f   libvcruntime:undname.obj
 0001:0001a39f       ?getGuardNumber@UnDecorator@@CA?AVDName@@XZ 1001b39f f i libvcruntime:undname.obj
 0001:0001a3b8       ?getLastChar@DName@@QBEDXZ 1001b3b8 f i libvcruntime:undname.obj
 0001:0001a3de       ?getLastChar@DNameStatusNode@@UBEDXZ 1001b3de f i libvcruntime:undname.obj
 0001:0001a3ed       ?getLastChar@charNode@@UBEDXZ 1001b3ed f i libvcruntime:undname.obj
 0001:0001a3f1       ?getLastChar@pDNameNode@@UBEDXZ 1001b3f1 f i libvcruntime:undname.obj
 0001:0001a402       ?getLastChar@pairNode@@UBEDXZ 1001b402 f i libvcruntime:undname.obj
 0001:0001a441       ?getLastChar@pcharNode@@UBEDXZ 1001b441 f i libvcruntime:undname.obj
 0001:0001a457       ?getLexicalFrame@UnDecorator@@CA?AVDName@@XZ 1001b457 f i libvcruntime:undname.obj
 0001:0001a4a3       ?getMemory@_HeapManager@@QAEPAXIH@Z 1001b4a3 f   libvcruntime:undname.obj
 0001:0001a554       ?getNumberOfDimensions@UnDecorator@@CAHXZ 1001b554 f   libvcruntime:undname.obj
 0001:0001a5cd       ?getOperatorName@UnDecorator@@CA?AVDName@@_NPA_N@Z 1001b5cd f i libvcruntime:undname.obj
 0001:0001ad7c       ?getPointerType@UnDecorator@@CA?AVDName@@ABV2@0@Z 1001bd7c f i libvcruntime:undname.obj
 0001:0001ada1       ?getPointerTypeArray@UnDecorator@@CA?AVDName@@ABV2@0@Z 1001bda1 f i libvcruntime:undname.obj
 0001:0001adc6       ?getPrimaryDataType@UnDecorator@@CA?AVDName@@ABV2@@Z 1001bdc6 f   libvcruntime:undname.obj
 0001:0001b017       ?getPtrRefDataType@UnDecorator@@CA?AVDName@@ABV2@H@Z 1001c017 f   libvcruntime:undname.obj
 0001:0001b159       ?getPtrRefType@UnDecorator@@CA?AVDName@@ABV2@0PBD@Z 1001c159 f   libvcruntime:undname.obj
 0001:0001b294       ?getReferenceType@UnDecorator@@CA?AVDName@@ABV2@0PBD@Z 1001c294 f i libvcruntime:undname.obj
 0001:0001b2b7       ?getRestrictionSpec@UnDecorator@@CA?AVDName@@XZ 1001c2b7 f   libvcruntime:undname.obj
 0001:0001b3e5       ?getReturnType@UnDecorator@@CA?AVDName@@PAV2@@Z 1001c3e5 f   libvcruntime:undname.obj
 0001:0001b41f       ?getScope@UnDecorator@@CA?AVDName@@XZ 1001c41f f   libvcruntime:undname.obj
 0001:0001b8f4       ?getScopedName@UnDecorator@@CA?AVDName@@XZ 1001c8f4 f   libvcruntime:undname.obj
 0001:0001ba2d       ?getSignedDimension@UnDecorator@@CA?AVDName@@XZ 1001ca2d f   libvcruntime:undname.obj
 0001:0001ba94       ?getStorageConvention@UnDecorator@@CA?AVDName@@XZ 1001ca94 f i libvcruntime:undname.obj
 0001:0001baa9       ?getString@DName@@QBEPADPAD0@Z 1001caa9 f i libvcruntime:undname.obj
 0001:0001bae0       ?getString@DName@@QBEPADPADH@Z 1001cae0 f i libvcruntime:undname.obj
 0001:0001bb4b       ?getString@DNameStatusNode@@UBEPADPAD0@Z 1001cb4b f i libvcruntime:undname.obj
 0001:0001bb7b       ?getString@charNode@@UBEPADPAD0@Z 1001cb7b f i libvcruntime:undname.obj
 0001:0001bb95       ?getString@pDNameNode@@UBEPADPAD0@Z 1001cb95 f i libvcruntime:undname.obj
 0001:0001bbb1       ?getString@pairNode@@UBEPADPAD0@Z 1001cbb1 f i libvcruntime:undname.obj
 0001:0001bc06       ?getString@pcharNode@@UBEPADPAD0@Z 1001cc06 f i libvcruntime:undname.obj
 0001:0001bc27       ?getStringEncoding@UnDecorator@@CA?AVDName@@PADH@Z 1001cc27 f   libvcruntime:undname.obj
 0001:0001bcf2       ?getStringHelper@@YAPADPAD00H@Z 1001ccf2 f i libvcruntime:undname.obj
 0001:0001bd36       ?getSymbolName@UnDecorator@@CA?AVDName@@XZ 1001cd36 f i libvcruntime:undname.obj
 0001:0001bd90       ?getTemplateArgumentList@UnDecorator@@CA?AVDName@@XZ 1001cd90 f   libvcruntime:undname.obj
 0001:0001c0e8       ?getTemplateConstant@UnDecorator@@CA?AVDName@@XZ 1001d0e8 f   libvcruntime:undname.obj
 0001:0001c4fd       ?getTemplateName@UnDecorator@@CA?AVDName@@_N@Z 1001d4fd f   libvcruntime:undname.obj
 0001:0001c6a8       ?getThisType@UnDecorator@@CA?AVDName@@XZ 1001d6a8 f i libvcruntime:undname.obj
 0001:0001c6f0       ?getThrowTypes@UnDecorator@@CA?AVDName@@XZ 1001d6f0 f   libvcruntime:undname.obj
 0001:0001c79c       ?getTypeEncoding@UnDecorator@@CAHXZ 1001d79c f i libvcruntime:undname.obj
 0001:0001cddc       ?getVCallThunkType@UnDecorator@@CA?AVDName@@XZ 1001dddc f i libvcruntime:undname.obj
 0001:0001ce25       ?getVbTableType@UnDecorator@@CA?AVDName@@ABV2@@Z 1001de25 f i libvcruntime:undname.obj
 0001:0001ce3f       ?getVdispMapType@UnDecorator@@CA?AVDName@@ABV2@@Z 1001de3f f i libvcruntime:undname.obj
 0001:0001ceaa       ?getVfTableType@UnDecorator@@CA?AVDName@@ABV2@@Z 1001deaa f i libvcruntime:undname.obj
 0001:0001d068       ?getZName@UnDecorator@@CA?AVDName@@_N0@Z 1001e068 f   libvcruntime:undname.obj
 0001:0001d338       ?haveTemplateParameters@UnDecorator@@SAHXZ 1001e338 f i libvcruntime:undname.obj
 0001:0001d345       ?isArray@DName@@QBEHXZ     1001e345 f i libvcruntime:undname.obj
 0001:0001d351       ?isComArray@DName@@QBEHXZ  1001e351 f i libvcruntime:undname.obj
 0001:0001d35d       ?isEmpty@DName@@QBEHXZ     1001e35d f i libvcruntime:undname.obj
 0001:0001d367       ?isFull@Replicator@@QBEHXZ 1001e367 f i libvcruntime:undname.obj
 0001:0001d372       ?isNoTE@DName@@QBEHXZ      1001e372 f i libvcruntime:undname.obj
 0001:0001d37e       ?isPinPtr@DName@@QBEHXZ    1001e37e f i libvcruntime:undname.obj
 0001:0001d38a       ?isPtrRef@DName@@QBEHXZ    1001e38a f i libvcruntime:undname.obj
 0001:0001d396       ?isUDC@DName@@QBEHXZ       1001e396 f i libvcruntime:undname.obj
 0001:0001d3ab       ?isUDTThunk@DName@@QBEHXZ  1001e3ab f i libvcruntime:undname.obj
 0001:0001d3c0       ?isVCallThunk@DName@@QBEHXZ 1001e3c0 f i libvcruntime:undname.obj
 0001:0001d3cc       ?isValid@DName@@QBEHXZ     1001e3cc f i libvcruntime:undname.obj
 0001:0001d3d8       ?length@DName@@QBEHXZ      1001e3d8 f i libvcruntime:undname.obj
 0001:0001d3fd       ?length@DNameStatusNode@@UBEHXZ 1001e3fd f i libvcruntime:undname.obj
 0001:0001d401       ?length@charNode@@UBEHXZ   1001e401 f i libvcruntime:undname.obj
 0001:0001d405       ?length@pDNameNode@@UBEHXZ 1001e405 f i libvcruntime:undname.obj
 0001:0001d416       ?length@pairNode@@UBEHXZ   1001e416 f i libvcruntime:undname.obj
 0001:0001d472       ?length@pcharNode@@UBEHXZ  1001e472 f i libvcruntime:undname.obj
 0001:0001d476       ?make@DNameStatusNode@@SAPAV1@W4DNameStatus@@@Z 1001e476 f i libvcruntime:undname.obj
 0001:0001d51d       ?setIsArray@DName@@QAEXXZ  1001e51d f i libvcruntime:undname.obj
 0001:0001d527       ?setIsComArray@DName@@QAEXXZ 1001e527 f i libvcruntime:undname.obj
 0001:0001d531       ?setIsNoTE@DName@@QAEXXZ   1001e531 f i libvcruntime:undname.obj
 0001:0001d53b       ?setIsPinPtr@DName@@QAEXXZ 1001e53b f i libvcruntime:undname.obj
 0001:0001d545       ?setIsUDC@DName@@QAEXXZ    1001e545 f i libvcruntime:undname.obj
 0001:0001d555       ?setIsVCallThunk@DName@@QAEXXZ 1001e555 f i libvcruntime:undname.obj
 0001:0001d55f       ?setPtrRef@DName@@QAEAAV1@XZ 1001e55f f i libvcruntime:undname.obj
 0001:0001d56b       ?status@DName@@QBE?AW4DNameStatus@@XZ 1001e56b f i libvcruntime:undname.obj
 0001:0001d5f0       ___unDName                 1001e5f0 f   libvcruntime:undname.obj
 0001:0001d6aa       ___unDNameEx               1001e6aa f   libvcruntime:undname.obj
 0001:0001d764       __vsprintf_s_l             1001e764 f i libvcruntime:undname.obj
 0001:0001d79c       _sprintf_s                 1001e79c f i libvcruntime:undname.obj
 0001:0001d7c0       __global_unwind2           1001e7c0 f   libvcruntime:_exsup_.obj
 0001:0001d825       __local_unwind2            1001e825 f   libvcruntime:_exsup_.obj
 0001:0001d8a9       __abnormal_termination     1001e8a9 f   libvcruntime:_exsup_.obj
 0001:0001d8cc       __NLG_Notify1              1001e8cc f   libvcruntime:_exsup_.obj
 0001:0001d8d5       __NLG_Notify               1001e8d5 f   libvcruntime:_exsup_.obj
 0001:0001d8ec       __NLG_Dispatch2            1001e8ec     libvcruntime:_exsup_.obj
 0001:0001d8ec       __NLG_Dispatch             1001e8ec     libvcruntime:_exsup_.obj
 0001:0001d8f4       __NLG_Call                 1001e8f4 f   libvcruntime:_exsup_.obj
 0001:0001d8f6       __NLG_Return2              1001e8f6     libvcruntime:_exsup_.obj
 0001:0001d944       ??$__crt_fast_decode_pointer@P6AXXZ@@YAP6AXXZQ6AXXZ@Z 1001e944 f i libvcruntime:purevirt.obj
 0001:0001d95d       ??$__crt_interlocked_compare_exchange_pointer@$$A6AXXZ$$T$$T@@YAP6AXXZPDS6AXXZ$$T1@Z 1001e95d f i libvcruntime:purevirt.obj
 0001:0001d973       ??$__crt_interlocked_exchange_pointer@$$A6AXXZP6AXXZ@@YAP6AXXZPDS6AXXZQ6AXXZ@Z 1001e973 f i libvcruntime:purevirt.obj
 0001:0001d983       ??$__crt_interlocked_read_pointer@$$A6AXXZ@@YAP6AXXZPDS6AXXZ@Z 1001e983 f i libvcruntime:purevirt.obj
 0001:0001d997       __get_purecall_handler     1001e997 f   libvcruntime:purevirt.obj
 0001:0001d9bd       __purecall                 1001e9bd f   libvcruntime:purevirt.obj
 0001:0001d9de       __set_purecall_handler     1001e9de f   libvcruntime:purevirt.obj
 0001:0001da0c       _malloc                    1001ea0c f   libucrt:malloc.obj
 0001:0001da19       _free                      1001ea19 f   libucrt:free.obj
 0001:0001da1e       ??$?RPAU__crt_stdio_stream_data@@@__crt_internal_free_policy@@QBEXQBQAU__crt_stdio_stream_data@@@Z 1001ea1e f i libucrt:_file.obj
 0001:0001da34       ??0?$__crt_unique_heap_ptr@PAU__crt_stdio_stream_data@@U__crt_internal_free_policy@@@@QAE@QAPAU__crt_stdio_stream_data@@@Z 1001ea34 f i libucrt:_file.obj
 0001:0001da48       ??0__crt_stdio_stream@@QAE@QAU_iobuf@@@Z 1001ea48 f i libucrt:_file.obj
 0001:0001da5c       ??1?$__crt_unique_heap_ptr@PAU__crt_stdio_stream_data@@U__crt_internal_free_policy@@@@QAE@XZ 1001ea5c f i libucrt:_file.obj
 0001:0001da72       ??C__crt_stdio_stream@@QBEPAU__crt_stdio_stream_data@@XZ 1001ea72 f i libucrt:_file.obj
 0001:0001da75       ?detach@?$__crt_unique_heap_ptr@PAU__crt_stdio_stream_data@@U__crt_internal_free_policy@@@@QAEPAPAU__crt_stdio_stream_data@@XZ 1001ea75 f i libucrt:_file.obj
 0001:0001da7b       ?release@?$__crt_unique_heap_ptr@PAU__crt_stdio_stream_data@@U__crt_internal_free_policy@@@@QAEXXZ 1001ea7b f i libucrt:_file.obj
 0001:0001da91       ___acrt_initialize_stdio   1001ea91 f   libucrt:_file.obj
 0001:0001db8b       ___acrt_iob_func           1001eb8b f   libucrt:_file.obj
 0001:0001db9f       ___acrt_uninitialize_stdio 1001eb9f f   libucrt:_file.obj
 0001:0001dbfe       __get_stream_buffer_pointers 1001ebfe f   libucrt:_file.obj
 0001:0001dc55       __lock_file                1001ec55 f   libucrt:_file.obj
 0001:0001dc6e       __unlock_file              1001ec6e f   libucrt:_file.obj
 0001:0001dc87       ??$?0ABV?$stream_output_adapter@D@__crt_stdio_output@@AB_KABQBDABQAU__crt_locale_pointers@@ABQAD@?$format_validation_base@DV?$stream_output_adapter@D@__crt_stdio_output@@@__crt_stdio_output@@IAE@ABV?$stream_output_adapter@D@1@AB_KABQBDABQAU__crt_locale_pointers@@ABQAD@Z 1001ec87 f i libucrt:output.obj
 0001:0001dcb2       ??$?0ABV?$stream_output_adapter@D@__crt_stdio_output@@AB_KABQBDABQAU__crt_locale_pointers@@ABQAD@?$positional_parameter_base@DV?$stream_output_adapter@D@__crt_stdio_output@@@__crt_stdio_output@@IAE@ABV?$stream_output_adapter@D@1@AB_KABQBDABQAU__crt_locale_pointers@@ABQAD@Z 1001ecb2 f i libucrt:output.obj
 0001:0001dd0c       ??$?0ABV?$stream_output_adapter@D@__crt_stdio_output@@AB_KABQBDABQAU__crt_locale_pointers@@ABQAD@?$standard_base@DV?$stream_output_adapter@D@__crt_stdio_output@@@__crt_stdio_output@@IAE@ABV?$stream_output_adapter@D@1@AB_KABQBDABQAU__crt_locale_pointers@@ABQAD@Z 1001ed0c f i libucrt:output.obj
 0001:0001dd4e       ??$?0ABV?$stream_output_adapter@_W@__crt_stdio_output@@AB_KABQB_WABQAU__crt_locale_pointers@@ABQAD@?$format_validation_base@_WV?$stream_output_adapter@_W@__crt_stdio_output@@@__crt_stdio_output@@IAE@ABV?$stream_output_adapter@_W@1@AB_KABQB_WABQAU__crt_locale_pointers@@ABQAD@Z 1001ed4e f i libucrt:output.obj
 0001:0001dd79       ??$?0ABV?$stream_output_adapter@_W@__crt_stdio_output@@AB_KABQB_WABQAU__crt_locale_pointers@@ABQAD@?$positional_parameter_base@_WV?$stream_output_adapter@_W@__crt_stdio_output@@@__crt_stdio_output@@IAE@ABV?$stream_output_adapter@_W@1@AB_KABQB_WABQAU__crt_locale_pointers@@ABQAD@Z 1001ed79 f i libucrt:output.obj
 0001:0001ddd3       ??$?0ABV?$stream_output_adapter@_W@__crt_stdio_output@@AB_KABQB_WABQAU__crt_locale_pointers@@ABQAD@?$standard_base@_WV?$stream_output_adapter@_W@__crt_stdio_output@@@__crt_stdio_output@@IAE@ABV?$stream_output_adapter@_W@1@AB_KABQB_WABQAU__crt_locale_pointers@@ABQAD@Z 1001edd3 f i libucrt:output.obj
 0001:0001de15       ??$?0ABV?$string_output_adapter@D@__crt_stdio_output@@AB_KABQBDABQAU__crt_locale_pointers@@ABQAD@?$format_validation_base@DV?$string_output_adapter@D@__crt_stdio_output@@@__crt_stdio_output@@IAE@ABV?$string_output_adapter@D@1@AB_KABQBDABQAU__crt_locale_pointers@@ABQAD@Z 1001ee15 f i libucrt:output.obj
 0001:0001de40       ??$?0ABV?$string_output_adapter@D@__crt_stdio_output@@AB_KABQBDABQAU__crt_locale_pointers@@ABQAD@?$positional_parameter_base@DV?$string_output_adapter@D@__crt_stdio_output@@@__crt_stdio_output@@IAE@ABV?$string_output_adapter@D@1@AB_KABQBDABQAU__crt_locale_pointers@@ABQAD@Z 1001ee40 f i libucrt:output.obj
 0001:0001de9a       ??$?0ABV?$string_output_adapter@D@__crt_stdio_output@@AB_KABQBDABQAU__crt_locale_pointers@@ABQAD@?$standard_base@DV?$string_output_adapter@D@__crt_stdio_output@@@__crt_stdio_output@@IAE@ABV?$string_output_adapter@D@1@AB_KABQBDABQAU__crt_locale_pointers@@ABQAD@Z 1001ee9a f i libucrt:output.obj
 0001:0001dedc       ??$?0ABV?$string_output_adapter@_W@__crt_stdio_output@@AB_KABQB_WABQAU__crt_locale_pointers@@ABQAD@?$format_validation_base@_WV?$string_output_adapter@_W@__crt_stdio_output@@@__crt_stdio_output@@IAE@ABV?$string_output_adapter@_W@1@AB_KABQB_WABQAU__crt_locale_pointers@@ABQAD@Z 1001eedc f i libucrt:output.obj
 0001:0001df07       ??$?0ABV?$string_output_adapter@_W@__crt_stdio_output@@AB_KABQB_WABQAU__crt_locale_pointers@@ABQAD@?$positional_parameter_base@_WV?$string_output_adapter@_W@__crt_stdio_output@@@__crt_stdio_output@@IAE@ABV?$string_output_adapter@_W@1@AB_KABQB_WABQAU__crt_locale_pointers@@ABQAD@Z 1001ef07 f i libucrt:output.obj
 0001:0001df61       ??$?0ABV?$string_output_adapter@_W@__crt_stdio_output@@AB_KABQB_WABQAU__crt_locale_pointers@@ABQAD@?$standard_base@_WV?$string_output_adapter@_W@__crt_stdio_output@@@__crt_stdio_output@@IAE@ABV?$string_output_adapter@_W@1@AB_KABQB_WABQAU__crt_locale_pointers@@ABQAD@Z 1001ef61 f i libucrt:output.obj
 0001:0001dfa3       ??$?RV<lambda_2293f24e3ce1ad6fe22ccfb9dec07671>@@AAV<lambda_2565fc715a641e539f44ad02d6823606>@@V<lambda_d3217f279b832965d9ca670dc2993570>@@@?$__crt_seh_guarded_call@H@@QAEH$$QAV<lambda_2293f24e3ce1ad6fe22ccfb9dec07671>@@AAV<lambda_2565fc715a641e539f44ad02d6823606>@@$$QAV<lambda_d3217f279b832965d9ca670dc2993570>@@@Z 1001efa3 f i libucrt:output.obj
 0001:0001e008       ??$?RV<lambda_4d4ac866be0fa3c441830420fabdd2cb>@@AAV<lambda_63a10c2dc8dbb9e4dd1890be52af7c93>@@V<lambda_002af9fa0f8fe472b648c51882d4fc32>@@@?$__crt_seh_guarded_call@H@@QAEH$$QAV<lambda_4d4ac866be0fa3c441830420fabdd2cb>@@AAV<lambda_63a10c2dc8dbb9e4dd1890be52af7c93>@@$$QAV<lambda_002af9fa0f8fe472b648c51882d4fc32>@@@Z 1001f008 f i libucrt:output.obj
 0001:0001e06d       ??$?RV<lambda_5be909dfbae0a631386585770cd7b676>@@AAV<lambda_e516058a9c289d98c8ca9fea99247804>@@V<lambda_afe2e0cdc5e0ecf6f0d6f5e2f8985e38>@@@?$__crt_seh_guarded_call@H@@QAEH$$QAV<lambda_5be909dfbae0a631386585770cd7b676>@@AAV<lambda_e516058a9c289d98c8ca9fea99247804>@@$$QAV<lambda_afe2e0cdc5e0ecf6f0d6f5e2f8985e38>@@@Z 1001f06d f i libucrt:output.obj
 0001:0001e0d2       ??$?RV<lambda_823d65812123d985753d53e2a8c25d20>@@AAV<lambda_0a97c9e57da7be065955385c79108ff2>@@V<lambda_4d2973f3ad2d226f00468307185dca1b>@@@?$__crt_seh_guarded_call@H@@QAEH$$QAV<lambda_823d65812123d985753d53e2a8c25d20>@@AAV<lambda_0a97c9e57da7be065955385c79108ff2>@@$$QAV<lambda_4d2973f3ad2d226f00468307185dca1b>@@@Z 1001f0d2 f i libucrt:output.obj
 0001:0001e137       ??$?RV<lambda_ab9923ffb5d694ec0d78876dd103e44f>@@AAV<lambda_481dd5778c961fbcd3b60b650e9b9dc4>@@V<lambda_7923d86c9e3f319b415918ec4b39749c>@@@?$__crt_seh_guarded_call@H@@QAEH$$QAV<lambda_ab9923ffb5d694ec0d78876dd103e44f>@@AAV<lambda_481dd5778c961fbcd3b60b650e9b9dc4>@@$$QAV<lambda_7923d86c9e3f319b415918ec4b39749c>@@@Z 1001f137 f i libucrt:output.obj
 0001:0001e19c       ??$?RV<lambda_db08b09ef7aa9d4f8620ce68402612bc>@@AAV<lambda_4f2c1eaeead2a5fc776db5b62ea0fb9b>@@V<lambda_3ae262bc35d4ba6a3825c4f6bcaaf95c>@@@?$__crt_seh_guarded_call@H@@QAEH$$QAV<lambda_db08b09ef7aa9d4f8620ce68402612bc>@@AAV<lambda_4f2c1eaeead2a5fc776db5b62ea0fb9b>@@$$QAV<lambda_3ae262bc35d4ba6a3825c4f6bcaaf95c>@@@Z 1001f19c f i libucrt:output.obj
 0001:0001e201       ??$__acrt_lock_stream_and_call@V<lambda_0a97c9e57da7be065955385c79108ff2>@@@@YAHQAU_iobuf@@$$QAV<lambda_0a97c9e57da7be065955385c79108ff2>@@@Z 1001f201 f i libucrt:output.obj
 0001:0001e233       ??$__acrt_lock_stream_and_call@V<lambda_2565fc715a641e539f44ad02d6823606>@@@@YAHQAU_iobuf@@$$QAV<lambda_2565fc715a641e539f44ad02d6823606>@@@Z 1001f233 f i libucrt:output.obj
 0001:0001e265       ??$__acrt_lock_stream_and_call@V<lambda_481dd5778c961fbcd3b60b650e9b9dc4>@@@@YAHQAU_iobuf@@$$QAV<lambda_481dd5778c961fbcd3b60b650e9b9dc4>@@@Z 1001f265 f i libucrt:output.obj
 0001:0001e297       ??$__acrt_lock_stream_and_call@V<lambda_4f2c1eaeead2a5fc776db5b62ea0fb9b>@@@@YAHQAU_iobuf@@$$QAV<lambda_4f2c1eaeead2a5fc776db5b62ea0fb9b>@@@Z 1001f297 f i libucrt:output.obj
 0001:0001e2c9       ??$__acrt_lock_stream_and_call@V<lambda_63a10c2dc8dbb9e4dd1890be52af7c93>@@@@YAHQAU_iobuf@@$$QAV<lambda_63a10c2dc8dbb9e4dd1890be52af7c93>@@@Z 1001f2c9 f i libucrt:output.obj
 0001:0001e2fb       ??$__acrt_lock_stream_and_call@V<lambda_e516058a9c289d98c8ca9fea99247804>@@@@YAHQAU_iobuf@@$$QAV<lambda_e516058a9c289d98c8ca9fea99247804>@@@Z 1001f2fb f i libucrt:output.obj
 0001:0001e32d       ??$__crt_interlocked_read@J@@YAJPDJ@Z 1001f32d f i libucrt:output.obj
 0001:0001f578       ??$count@D@formatting_buffer@__crt_stdio_output@@QBEIXZ 10020578 f i libucrt:output.obj
 0001:0001f596       ??$data@D@formatting_buffer@__crt_stdio_output@@QAEPADXZ 10020596 f i libucrt:output.obj
 0001:0001f5a6       ??$data@_W@formatting_buffer@__crt_stdio_output@@QAEPA_WXZ 100205a6 f i libucrt:output.obj
 0001:0001f5b6       ??$ensure_buffer_is_big_enough@D@formatting_buffer@__crt_stdio_output@@QAE_NI@Z 100205b6 f i libucrt:output.obj
 0001:0001f65d       ??$extract_argument_from_va_list@C_J@?$positional_parameter_base@DV?$stream_output_adapter@D@__crt_stdio_output@@@__crt_stdio_output@@IAE_NAA_J@Z 1002065d f i libucrt:output.obj
 0001:0001f6fb       ??$extract_argument_from_va_list@C_J@?$positional_parameter_base@DV?$string_output_adapter@D@__crt_stdio_output@@@__crt_stdio_output@@IAE_NAA_J@Z 100206fb f i libucrt:output.obj
 0001:0001f799       ??$extract_argument_from_va_list@C_J@?$positional_parameter_base@_WV?$stream_output_adapter@_W@__crt_stdio_output@@@__crt_stdio_output@@IAE_NAA_J@Z 10020799 f i libucrt:output.obj
 0001:0001f837       ??$extract_argument_from_va_list@C_J@?$positional_parameter_base@_WV?$string_output_adapter@_W@__crt_stdio_output@@@__crt_stdio_output@@IAE_NAA_J@Z 10020837 f i libucrt:output.obj
 0001:0001f8d5       ??$extract_argument_from_va_list@C_J@?$standard_base@DV?$stream_output_adapter@D@__crt_stdio_output@@@__crt_stdio_output@@IAE_NAA_J@Z 100208d5 f i libucrt:output.obj
 0001:0001f8fb       ??$extract_argument_from_va_list@C_J@?$standard_base@DV?$string_output_adapter@D@__crt_stdio_output@@@__crt_stdio_output@@IAE_NAA_J@Z 100208fb f i libucrt:output.obj
 0001:0001f921       ??$extract_argument_from_va_list@C_J@?$standard_base@_WV?$stream_output_adapter@_W@__crt_stdio_output@@@__crt_stdio_output@@IAE_NAA_J@Z 10020921 f i libucrt:output.obj
 0001:0001f947       ??$extract_argument_from_va_list@C_J@?$standard_base@_WV?$string_output_adapter@_W@__crt_stdio_output@@@__crt_stdio_output@@IAE_NAA_J@Z 10020947 f i libucrt:output.obj
 0001:0001f96d       ??$extract_argument_from_va_list@E_J@?$positional_parameter_base@DV?$stream_output_adapter@D@__crt_stdio_output@@@__crt_stdio_output@@IAE_NAA_J@Z 1002096d f i libucrt:output.obj
 0001:0001fa0b       ??$extract_argument_from_va_list@E_J@?$positional_parameter_base@DV?$string_output_adapter@D@__crt_stdio_output@@@__crt_stdio_output@@IAE_NAA_J@Z 10020a0b f i libucrt:output.obj
 0001:0001faa9       ??$extract_argument_from_va_list@E_J@?$positional_parameter_base@_WV?$stream_output_adapter@_W@__crt_stdio_output@@@__crt_stdio_output@@IAE_NAA_J@Z 10020aa9 f i libucrt:output.obj
 0001:0001fb47       ??$extract_argument_from_va_list@E_J@?$positional_parameter_base@_WV?$string_output_adapter@_W@__crt_stdio_output@@@__crt_stdio_output@@IAE_NAA_J@Z 10020b47 f i libucrt:output.obj
 0001:0001fbe5       ??$extract_argument_from_va_list@E_J@?$standard_base@DV?$stream_output_adapter@D@__crt_stdio_output@@@__crt_stdio_output@@IAE_NAA_J@Z 10020be5 f i libucrt:output.obj
 0001:0001fc0b       ??$extract_argument_from_va_list@E_J@?$standard_base@DV?$string_output_adapter@D@__crt_stdio_output@@@__crt_stdio_output@@IAE_NAA_J@Z 10020c0b f i libucrt:output.obj
 0001:0001fc31       ??$extract_argument_from_va_list@E_J@?$standard_base@_WV?$stream_output_adapter@_W@__crt_stdio_output@@@__crt_stdio_output@@IAE_NAA_J@Z 10020c31 f i libucrt:output.obj
 0001:0001fc57       ??$extract_argument_from_va_list@E_J@?$standard_base@_WV?$string_output_adapter@_W@__crt_stdio_output@@@__crt_stdio_output@@IAE_NAA_J@Z 10020c57 f i libucrt:output.obj
 0001:0001fc7d       ??$extract_argument_from_va_list@F_J@?$positional_parameter_base@DV?$stream_output_adapter@D@__crt_stdio_output@@@__crt_stdio_output@@IAE_NAA_J@Z 10020c7d f i libucrt:output.obj
 0001:0001fd1b       ??$extract_argument_from_va_list@F_J@?$positional_parameter_base@DV?$string_output_adapter@D@__crt_stdio_output@@@__crt_stdio_output@@IAE_NAA_J@Z 10020d1b f i libucrt:output.obj
 0001:0001fdb9       ??$extract_argument_from_va_list@F_J@?$positional_parameter_base@_WV?$stream_output_adapter@_W@__crt_stdio_output@@@__crt_stdio_output@@IAE_NAA_J@Z 10020db9 f i libucrt:output.obj
 0001:0001fe57       ??$extract_argument_from_va_list@F_J@?$positional_parameter_base@_WV?$string_output_adapter@_W@__crt_stdio_output@@@__crt_stdio_output@@IAE_NAA_J@Z 10020e57 f i libucrt:output.obj
 0001:0001fef5       ??$extract_argument_from_va_list@F_J@?$standard_base@DV?$stream_output_adapter@D@__crt_stdio_output@@@__crt_stdio_output@@IAE_NAA_J@Z 10020ef5 f i libucrt:output.obj
 0001:0001ff1b       ??$extract_argument_from_va_list@F_J@?$standard_base@DV?$string_output_adapter@D@__crt_stdio_output@@@__crt_stdio_output@@IAE_NAA_J@Z 10020f1b f i libucrt:output.obj
 0001:0001ff41       ??$extract_argument_from_va_list@F_J@?$standard_base@_WV?$stream_output_adapter@_W@__crt_stdio_output@@@__crt_stdio_output@@IAE_NAA_J@Z 10020f41 f i libucrt:output.obj
 0001:0001ff67       ??$extract_argument_from_va_list@F_J@?$standard_base@_WV?$string_output_adapter@_W@__crt_stdio_output@@@__crt_stdio_output@@IAE_NAA_J@Z 10020f67 f i libucrt:output.obj
 0001:0001ff8d       ??$extract_argument_from_va_list@GD@?$positional_parameter_base@DV?$stream_output_adapter@D@__crt_stdio_output@@@__crt_stdio_output@@IAE_NAAD@Z 10020f8d f i libucrt:output.obj
 0001:0002002a       ??$extract_argument_from_va_list@GD@?$positional_parameter_base@DV?$string_output_adapter@D@__crt_stdio_output@@@__crt_stdio_output@@IAE_NAAD@Z 1002102a f i libucrt:output.obj
 0001:000200c7       ??$extract_argument_from_va_list@GD@?$standard_base@DV?$stream_output_adapter@D@__crt_stdio_output@@@__crt_stdio_output@@IAE_NAAD@Z 100210c7 f i libucrt:output.obj
 0001:000200e7       ??$extract_argument_from_va_list@GD@?$standard_base@DV?$string_output_adapter@D@__crt_stdio_output@@@__crt_stdio_output@@IAE_NAAD@Z 100210e7 f i libucrt:output.obj
 0001:00020107       ??$extract_argument_from_va_list@G_J@?$positional_parameter_base@DV?$stream_output_adapter@D@__crt_stdio_output@@@__crt_stdio_output@@IAE_NAA_J@Z 10021107 f i libucrt:output.obj
 0001:000201a5       ??$extract_argument_from_va_list@G_J@?$positional_parameter_base@DV?$string_output_adapter@D@__crt_stdio_output@@@__crt_stdio_output@@IAE_NAA_J@Z 100211a5 f i libucrt:output.obj
 0001:00020243       ??$extract_argument_from_va_list@G_J@?$positional_parameter_base@_WV?$stream_output_adapter@_W@__crt_stdio_output@@@__crt_stdio_output@@IAE_NAA_J@Z 10021243 f i libucrt:output.obj
 0001:000202e1       ??$extract_argument_from_va_list@G_J@?$positional_parameter_base@_WV?$string_output_adapter@_W@__crt_stdio_output@@@__crt_stdio_output@@IAE_NAA_J@Z 100212e1 f i libucrt:output.obj
 0001:0002037f       ??$extract_argument_from_va_list@G_J@?$standard_base@DV?$stream_output_adapter@D@__crt_stdio_output@@@__crt_stdio_output@@IAE_NAA_J@Z 1002137f f i libucrt:output.obj
 0001:000203a5       ??$extract_argument_from_va_list@G_J@?$standard_base@DV?$string_output_adapter@D@__crt_stdio_output@@@__crt_stdio_output@@IAE_NAA_J@Z 100213a5 f i libucrt:output.obj
 0001:000203cb       ??$extract_argument_from_va_list@G_J@?$standard_base@_WV?$stream_output_adapter@_W@__crt_stdio_output@@@__crt_stdio_output@@IAE_NAA_J@Z 100213cb f i libucrt:output.obj
 0001:000203f1       ??$extract_argument_from_va_list@G_J@?$standard_base@_WV?$string_output_adapter@_W@__crt_stdio_output@@@__crt_stdio_output@@IAE_NAA_J@Z 100213f1 f i libucrt:output.obj
 0001:00020417       ??$extract_argument_from_va_list@H_J@?$positional_parameter_base@DV?$stream_output_adapter@D@__crt_stdio_output@@@__crt_stdio_output@@IAE_NAA_J@Z 10021417 f i libucrt:output.obj
 0001:000204b3       ??$extract_argument_from_va_list@H_J@?$positional_parameter_base@DV?$string_output_adapter@D@__crt_stdio_output@@@__crt_stdio_output@@IAE_NAA_J@Z 100214b3 f i libucrt:output.obj
 0001:0002054f       ??$extract_argument_from_va_list@H_J@?$positional_parameter_base@_WV?$stream_output_adapter@_W@__crt_stdio_output@@@__crt_stdio_output@@IAE_NAA_J@Z 1002154f f i libucrt:output.obj
 0001:000205eb       ??$extract_argument_from_va_list@H_J@?$positional_parameter_base@_WV?$string_output_adapter@_W@__crt_stdio_output@@@__crt_stdio_output@@IAE_NAA_J@Z 100215eb f i libucrt:output.obj
 0001:00020687       ??$extract_argument_from_va_list@H_J@?$standard_base@DV?$stream_output_adapter@D@__crt_stdio_output@@@__crt_stdio_output@@IAE_NAA_J@Z 10021687 f i libucrt:output.obj
 0001:000206ac       ??$extract_argument_from_va_list@H_J@?$standard_base@DV?$string_output_adapter@D@__crt_stdio_output@@@__crt_stdio_output@@IAE_NAA_J@Z 100216ac f i libucrt:output.obj
 0001:000206d1       ??$extract_argument_from_va_list@H_J@?$standard_base@_WV?$stream_output_adapter@_W@__crt_stdio_output@@@__crt_stdio_output@@IAE_NAA_J@Z 100216d1 f i libucrt:output.obj
 0001:000206f6       ??$extract_argument_from_va_list@H_J@?$standard_base@_WV?$string_output_adapter@_W@__crt_stdio_output@@@__crt_stdio_output@@IAE_NAA_J@Z 100216f6 f i libucrt:output.obj
 0001:0002071b       ??$extract_argument_from_va_list@I_J@?$positional_parameter_base@DV?$stream_output_adapter@D@__crt_stdio_output@@@__crt_stdio_output@@IAE_NAA_J@Z 1002171b f i libucrt:output.obj
 0001:000207c2       ??$extract_argument_from_va_list@I_J@?$positional_parameter_base@DV?$string_output_adapter@D@__crt_stdio_output@@@__crt_stdio_output@@IAE_NAA_J@Z 100217c2 f i libucrt:output.obj
 0001:00020869       ??$extract_argument_from_va_list@I_J@?$positional_parameter_base@_WV?$stream_output_adapter@_W@__crt_stdio_output@@@__crt_stdio_output@@IAE_NAA_J@Z 10021869 f i libucrt:output.obj
 0001:00020910       ??$extract_argument_from_va_list@I_J@?$positional_parameter_base@_WV?$string_output_adapter@_W@__crt_stdio_output@@@__crt_stdio_output@@IAE_NAA_J@Z 10021910 f i libucrt:output.obj
 0001:000209b7       ??$extract_argument_from_va_list@I_J@?$standard_base@DV?$stream_output_adapter@D@__crt_stdio_output@@@__crt_stdio_output@@IAE_NAA_J@Z 100219b7 f i libucrt:output.obj
 0001:000209dc       ??$extract_argument_from_va_list@I_J@?$standard_base@DV?$string_output_adapter@D@__crt_stdio_output@@@__crt_stdio_output@@IAE_NAA_J@Z 100219dc f i libucrt:output.obj
 0001:00020a01       ??$extract_argument_from_va_list@I_J@?$standard_base@_WV?$stream_output_adapter@_W@__crt_stdio_output@@@__crt_stdio_output@@IAE_NAA_J@Z 10021a01 f i libucrt:output.obj
 0001:00020a26       ??$extract_argument_from_va_list@I_J@?$standard_base@_WV?$string_output_adapter@_W@__crt_stdio_output@@@__crt_stdio_output@@IAE_NAA_J@Z 10021a26 f i libucrt:output.obj
 0001:00020a4b       ??$extract_argument_from_va_list@PADPAD@?$positional_parameter_base@DV?$stream_output_adapter@D@__crt_stdio_output@@@__crt_stdio_output@@IAE_NAAPAD@Z 10021a4b f i libucrt:output.obj
 0001:00020ae8       ??$extract_argument_from_va_list@PADPAD@?$positional_parameter_base@DV?$string_output_adapter@D@__crt_stdio_output@@@__crt_stdio_output@@IAE_NAAPAD@Z 10021ae8 f i libucrt:output.obj
 0001:00020b85       ??$extract_argument_from_va_list@PADPAD@?$positional_parameter_base@_WV?$stream_output_adapter@_W@__crt_stdio_output@@@__crt_stdio_output@@IAE_NAAPAD@Z 10021b85 f i libucrt:output.obj
 0001:00020c22       ??$extract_argument_from_va_list@PADPAD@?$positional_parameter_base@_WV?$string_output_adapter@_W@__crt_stdio_output@@@__crt_stdio_output@@IAE_NAAPAD@Z 10021c22 f i libucrt:output.obj
 0001:00020cbf       ??$extract_argument_from_va_list@PADPAD@?$standard_base@DV?$stream_output_adapter@D@__crt_stdio_output@@@__crt_stdio_output@@IAE_NAAPAD@Z 10021cbf f i libucrt:output.obj
 0001:00020cdf       ??$extract_argument_from_va_list@PADPAD@?$standard_base@DV?$string_output_adapter@D@__crt_stdio_output@@@__crt_stdio_output@@IAE_NAAPAD@Z 10021cdf f i libucrt:output.obj
 0001:00020cff       ??$extract_argument_from_va_list@PADPAD@?$standard_base@_WV?$stream_output_adapter@_W@__crt_stdio_output@@@__crt_stdio_output@@IAE_NAAPAD@Z 10021cff f i libucrt:output.obj
 0001:00020d1f       ??$extract_argument_from_va_list@PADPAD@?$standard_base@_WV?$string_output_adapter@_W@__crt_stdio_output@@@__crt_stdio_output@@IAE_NAAPAD@Z 10021d1f f i libucrt:output.obj
 0001:00020d3f       ??$extract_argument_from_va_list@PAUansi_string@?1??type_case_Z@?$output_processor@DV?$stream_output_adapter@D@__crt_stdio_output@@V?$format_validation_base@DV?$stream_output_adapter@D@__crt_stdio_output@@@2@@__crt_stdio_output@@AAE_NXZ@PAU1?1??234@AAE_NXZ@@?$standard_base@DV?$stream_output_adapter@D@__crt_stdio_output@@@__crt_stdio_output@@IAE_NAAPAUansi_string@?1??type_case_Z@?$output_processor@DV?$stream_output_adapter@D@__crt_stdio_output@@V?$format_validation_base@DV?$stream_output_adapter@D@__crt_stdio_output@@@2@@1@AAE_NXZ@@Z 10021d3f f i libucrt:output.obj
 0001:00020d5f       ??$extract_argument_from_va_list@PAUansi_string@?1??type_case_Z@?$output_processor@DV?$stream_output_adapter@D@__crt_stdio_output@@V?$positional_parameter_base@DV?$stream_output_adapter@D@__crt_stdio_output@@@2@@__crt_stdio_output@@AAE_NXZ@PAU1?1??234@AAE_NXZ@@?$positional_parameter_base@DV?$stream_output_adapter@D@__crt_stdio_output@@@__crt_stdio_output@@IAE_NAAPAUansi_string@?1??type_case_Z@?$output_processor@DV?$stream_output_adapter@D@__crt_stdio_output@@V?$positional_parameter_base@DV?$stream_output_adapter@D@__crt_stdio_output@@@2@@1@AAE_NXZ@@Z 10021d5f f i libucrt:output.obj
 0001:00020dfc       ??$extract_argument_from_va_list@PAUansi_string@?1??type_case_Z@?$output_processor@DV?$stream_output_adapter@D@__crt_stdio_output@@V?$positional_parameter_base@DV?$stream_output_adapter@D@__crt_stdio_output@@@2@@__crt_stdio_output@@AAE_NXZ@PAU1?1??234@AAE_NXZ@@?$standard_base@DV?$stream_output_adapter@D@__crt_stdio_output@@@__crt_stdio_output@@IAE_NAAPAUansi_string@?1??type_case_Z@?$output_processor@DV?$stream_output_adapter@D@__crt_stdio_output@@V?$positional_parameter_base@DV?$stream_output_adapter@D@__crt_stdio_output@@@2@@1@AAE_NXZ@@Z 10021dfc f i libucrt:output.obj
 0001:00020e1c       ??$extract_argument_from_va_list@PAUansi_string@?1??type_case_Z@?$output_processor@DV?$stream_output_adapter@D@__crt_stdio_output@@V?$standard_base@DV?$stream_output_adapter@D@__crt_stdio_output@@@2@@__crt_stdio_output@@AAE_NXZ@PAU1?1??234@AAE_NXZ@@?$standard_base@DV?$stream_output_adapter@D@__crt_stdio_output@@@__crt_stdio_output@@IAE_NAAPAUansi_string@?1??type_case_Z@?$output_processor@DV?$stream_output_adapter@D@__crt_stdio_output@@V?$standard_base@DV?$stream_output_adapter@D@__crt_stdio_output@@@2@@1@AAE_NXZ@@Z 10021e1c f i libucrt:output.obj
 0001:00020e3c       ??$extract_argument_from_va_list@PAUansi_string@?1??type_case_Z@?$output_processor@DV?$string_output_adapter@D@__crt_stdio_output@@V?$format_validation_base@DV?$string_output_adapter@D@__crt_stdio_output@@@2@@__crt_stdio_output@@AAE_NXZ@PAU1?1??234@AAE_NXZ@@?$standard_base@DV?$string_output_adapter@D@__crt_stdio_output@@@__crt_stdio_output@@IAE_NAAPAUansi_string@?1??type_case_Z@?$output_processor@DV?$string_output_adapter@D@__crt_stdio_output@@V?$format_validation_base@DV?$string_output_adapter@D@__crt_stdio_output@@@2@@1@AAE_NXZ@@Z 10021e3c f i libucrt:output.obj
 0001:00020e5c       ??$extract_argument_from_va_list@PAUansi_string@?1??type_case_Z@?$output_processor@DV?$string_output_adapter@D@__crt_stdio_output@@V?$positional_parameter_base@DV?$string_output_adapter@D@__crt_stdio_output@@@2@@__crt_stdio_output@@AAE_NXZ@PAU1?1??234@AAE_NXZ@@?$positional_parameter_base@DV?$string_output_adapter@D@__crt_stdio_output@@@__crt_stdio_output@@IAE_NAAPAUansi_string@?1??type_case_Z@?$output_processor@DV?$string_output_adapter@D@__crt_stdio_output@@V?$positional_parameter_base@DV?$string_output_adapter@D@__crt_stdio_output@@@2@@1@AAE_NXZ@@Z 10021e5c f i libucrt:output.obj
 0001:00020ef9       ??$extract_argument_from_va_list@PAUansi_string@?1??type_case_Z@?$output_processor@DV?$string_output_adapter@D@__crt_stdio_output@@V?$positional_parameter_base@DV?$string_output_adapter@D@__crt_stdio_output@@@2@@__crt_stdio_output@@AAE_NXZ@PAU1?1??234@AAE_NXZ@@?$standard_base@DV?$string_output_adapter@D@__crt_stdio_output@@@__crt_stdio_output@@IAE_NAAPAUansi_string@?1??type_case_Z@?$output_processor@DV?$string_output_adapter@D@__crt_stdio_output@@V?$positional_parameter_base@DV?$string_output_adapter@D@__crt_stdio_output@@@2@@1@AAE_NXZ@@Z 10021ef9 f i libucrt:output.obj
 0001:00020f19       ??$extract_argument_from_va_list@PAUansi_string@?1??type_case_Z@?$output_processor@DV?$string_output_adapter@D@__crt_stdio_output@@V?$standard_base@DV?$string_output_adapter@D@__crt_stdio_output@@@2@@__crt_stdio_output@@AAE_NXZ@PAU1?1??234@AAE_NXZ@@?$standard_base@DV?$string_output_adapter@D@__crt_stdio_output@@@__crt_stdio_output@@IAE_NAAPAUansi_string@?1??type_case_Z@?$output_processor@DV?$string_output_adapter@D@__crt_stdio_output@@V?$standard_base@DV?$string_output_adapter@D@__crt_stdio_output@@@2@@1@AAE_NXZ@@Z 10021f19 f i libucrt:output.obj
 0001:00020f39       ??$extract_argument_from_va_list@PAUansi_string@?1??type_case_Z@?$output_processor@_WV?$stream_output_adapter@_W@__crt_stdio_output@@V?$format_validation_base@_WV?$stream_output_adapter@_W@__crt_stdio_output@@@2@@__crt_stdio_output@@AAE_NXZ@PAU1?1??234@AAE_NXZ@@?$standard_base@_WV?$stream_output_adapter@_W@__crt_stdio_output@@@__crt_stdio_output@@IAE_NAAPAUansi_string@?1??type_case_Z@?$output_processor@_WV?$stream_output_adapter@_W@__crt_stdio_output@@V?$format_validation_base@_WV?$stream_output_adapter@_W@__crt_stdio_output@@@2@@1@AAE_NXZ@@Z 10021f39 f i libucrt:output.obj
 0001:00020f59       ??$extract_argument_from_va_list@PAUansi_string@?1??type_case_Z@?$output_processor@_WV?$stream_output_adapter@_W@__crt_stdio_output@@V?$positional_parameter_base@_WV?$stream_output_adapter@_W@__crt_stdio_output@@@2@@__crt_stdio_output@@AAE_NXZ@PAU1?1??234@AAE_NXZ@@?$positional_parameter_base@_WV?$stream_output_adapter@_W@__crt_stdio_output@@@__crt_stdio_output@@IAE_NAAPAUansi_string@?1??type_case_Z@?$output_processor@_WV?$stream_output_adapter@_W@__crt_stdio_output@@V?$positional_parameter_base@_WV?$stream_output_adapter@_W@__crt_stdio_output@@@2@@1@AAE_NXZ@@Z 10021f59 f i libucrt:output.obj
 0001:00020ff6       ??$extract_argument_from_va_list@PAUansi_string@?1??type_case_Z@?$output_processor@_WV?$stream_output_adapter@_W@__crt_stdio_output@@V?$positional_parameter_base@_WV?$stream_output_adapter@_W@__crt_stdio_output@@@2@@__crt_stdio_output@@AAE_NXZ@PAU1?1??234@AAE_NXZ@@?$standard_base@_WV?$stream_output_adapter@_W@__crt_stdio_output@@@__crt_stdio_output@@IAE_NAAPAUansi_string@?1??type_case_Z@?$output_processor@_WV?$stream_output_adapter@_W@__crt_stdio_output@@V?$positional_parameter_base@_WV?$stream_output_adapter@_W@__crt_stdio_output@@@2@@1@AAE_NXZ@@Z 10021ff6 f i libucrt:output.obj
 0001:00021016       ??$extract_argument_from_va_list@PAUansi_string@?1??type_case_Z@?$output_processor@_WV?$stream_output_adapter@_W@__crt_stdio_output@@V?$standard_base@_WV?$stream_output_adapter@_W@__crt_stdio_output@@@2@@__crt_stdio_output@@AAE_NXZ@PAU1?1??234@AAE_NXZ@@?$standard_base@_WV?$stream_output_adapter@_W@__crt_stdio_output@@@__crt_stdio_output@@IAE_NAAPAUansi_string@?1??type_case_Z@?$output_processor@_WV?$stream_output_adapter@_W@__crt_stdio_output@@V?$standard_base@_WV?$stream_output_adapter@_W@__crt_stdio_output@@@2@@1@AAE_NXZ@@Z 10022016 f i libucrt:output.obj
 0001:00021036       ??$extract_argument_from_va_list@PAUansi_string@?1??type_case_Z@?$output_processor@_WV?$string_output_adapter@_W@__crt_stdio_output@@V?$format_validation_base@_WV?$string_output_adapter@_W@__crt_stdio_output@@@2@@__crt_stdio_output@@AAE_NXZ@PAU1?1??234@AAE_NXZ@@?$standard_base@_WV?$string_output_adapter@_W@__crt_stdio_output@@@__crt_stdio_output@@IAE_NAAPAUansi_string@?1??type_case_Z@?$output_processor@_WV?$string_output_adapter@_W@__crt_stdio_output@@V?$format_validation_base@_WV?$string_output_adapter@_W@__crt_stdio_output@@@2@@1@AAE_NXZ@@Z 10022036 f i libucrt:output.obj
 0001:00021056       ??$extract_argument_from_va_list@PAUansi_string@?1??type_case_Z@?$output_processor@_WV?$string_output_adapter@_W@__crt_stdio_output@@V?$positional_parameter_base@_WV?$string_output_adapter@_W@__crt_stdio_output@@@2@@__crt_stdio_output@@AAE_NXZ@PAU1?1??234@AAE_NXZ@@?$positional_parameter_base@_WV?$string_output_adapter@_W@__crt_stdio_output@@@__crt_stdio_output@@IAE_NAAPAUansi_string@?1??type_case_Z@?$output_processor@_WV?$string_output_adapter@_W@__crt_stdio_output@@V?$positional_parameter_base@_WV?$string_output_adapter@_W@__crt_stdio_output@@@2@@1@AAE_NXZ@@Z 10022056 f i libucrt:output.obj
 0001:000210f3       ??$extract_argument_from_va_list@PAUansi_string@?1??type_case_Z@?$output_processor@_WV?$string_output_adapter@_W@__crt_stdio_output@@V?$positional_parameter_base@_WV?$string_output_adapter@_W@__crt_stdio_output@@@2@@__crt_stdio_output@@AAE_NXZ@PAU1?1??234@AAE_NXZ@@?$standard_base@_WV?$string_output_adapter@_W@__crt_stdio_output@@@__crt_stdio_output@@IAE_NAAPAUansi_string@?1??type_case_Z@?$output_processor@_WV?$string_output_adapter@_W@__crt_stdio_output@@V?$positional_parameter_base@_WV?$string_output_adapter@_W@__crt_stdio_output@@@2@@1@AAE_NXZ@@Z 100220f3 f i libucrt:output.obj
 0001:00021113       ??$extract_argument_from_va_list@PAUansi_string@?1??type_case_Z@?$output_processor@_WV?$string_output_adapter@_W@__crt_stdio_output@@V?$standard_base@_WV?$string_output_adapter@_W@__crt_stdio_output@@@2@@__crt_stdio_output@@AAE_NXZ@PAU1?1??234@AAE_NXZ@@?$standard_base@_WV?$string_output_adapter@_W@__crt_stdio_output@@@__crt_stdio_output@@IAE_NAAPAUansi_string@?1??type_case_Z@?$output_processor@_WV?$string_output_adapter@_W@__crt_stdio_output@@V?$standard_base@_WV?$string_output_adapter@_W@__crt_stdio_output@@@2@@1@AAE_NXZ@@Z 10022113 f i libucrt:output.obj
 0001:00021133       ??$extract_argument_from_va_list@PAXPAX@?$positional_parameter_base@DV?$stream_output_adapter@D@__crt_stdio_output@@@__crt_stdio_output@@IAE_NAAPAX@Z 10022133 f i libucrt:output.obj
 0001:000211d0       ??$extract_argument_from_va_list@PAXPAX@?$positional_parameter_base@DV?$string_output_adapter@D@__crt_stdio_output@@@__crt_stdio_output@@IAE_NAAPAX@Z 100221d0 f i libucrt:output.obj
 0001:0002126d       ??$extract_argument_from_va_list@PAXPAX@?$positional_parameter_base@_WV?$stream_output_adapter@_W@__crt_stdio_output@@@__crt_stdio_output@@IAE_NAAPAX@Z 1002226d f i libucrt:output.obj
 0001:0002130a       ??$extract_argument_from_va_list@PAXPAX@?$positional_parameter_base@_WV?$string_output_adapter@_W@__crt_stdio_output@@@__crt_stdio_output@@IAE_NAAPAX@Z 1002230a f i libucrt:output.obj
 0001:000213a7       ??$extract_argument_from_va_list@PAXPAX@?$standard_base@DV?$stream_output_adapter@D@__crt_stdio_output@@@__crt_stdio_output@@IAE_NAAPAX@Z 100223a7 f i libucrt:output.obj
 0001:000213c7       ??$extract_argument_from_va_list@PAXPAX@?$standard_base@DV?$string_output_adapter@D@__crt_stdio_output@@@__crt_stdio_output@@IAE_NAAPAX@Z 100223c7 f i libucrt:output.obj
 0001:000213e7       ??$extract_argument_from_va_list@PAXPAX@?$standard_base@_WV?$stream_output_adapter@_W@__crt_stdio_output@@@__crt_stdio_output@@IAE_NAAPAX@Z 100223e7 f i libucrt:output.obj
 0001:00021407       ??$extract_argument_from_va_list@PAXPAX@?$standard_base@_WV?$string_output_adapter@_W@__crt_stdio_output@@@__crt_stdio_output@@IAE_NAAPAX@Z 10022407 f i libucrt:output.obj
 0001:00021427       ??$extract_argument_from_va_list@U_CRT_DOUBLE@@U1@@?$positional_parameter_base@DV?$stream_output_adapter@D@__crt_stdio_output@@@__crt_stdio_output@@IAE_NAAU_CRT_DOUBLE@@@Z 10022427 f i libucrt:output.obj
 0001:000214d8       ??$extract_argument_from_va_list@U_CRT_DOUBLE@@U1@@?$positional_parameter_base@DV?$string_output_adapter@D@__crt_stdio_output@@@__crt_stdio_output@@IAE_NAAU_CRT_DOUBLE@@@Z 100224d8 f i libucrt:output.obj
 0001:00021589       ??$extract_argument_from_va_list@U_CRT_DOUBLE@@U1@@?$positional_parameter_base@_WV?$stream_output_adapter@_W@__crt_stdio_output@@@__crt_stdio_output@@IAE_NAAU_CRT_DOUBLE@@@Z 10022589 f i libucrt:output.obj
 0001:0002163a       ??$extract_argument_from_va_list@U_CRT_DOUBLE@@U1@@?$positional_parameter_base@_WV?$string_output_adapter@_W@__crt_stdio_output@@@__crt_stdio_output@@IAE_NAAU_CRT_DOUBLE@@@Z 1002263a f i libucrt:output.obj
 0001:000216eb       ??$extract_argument_from_va_list@U_CRT_DOUBLE@@U1@@?$standard_base@DV?$stream_output_adapter@D@__crt_stdio_output@@@__crt_stdio_output@@IAE_NAAU_CRT_DOUBLE@@@Z 100226eb f i libucrt:output.obj
 0001:00021713       ??$extract_argument_from_va_list@U_CRT_DOUBLE@@U1@@?$standard_base@DV?$string_output_adapter@D@__crt_stdio_output@@@__crt_stdio_output@@IAE_NAAU_CRT_DOUBLE@@@Z 10022713 f i libucrt:output.obj
 0001:0002173b       ??$extract_argument_from_va_list@U_CRT_DOUBLE@@U1@@?$standard_base@_WV?$stream_output_adapter@_W@__crt_stdio_output@@@__crt_stdio_output@@IAE_NAAU_CRT_DOUBLE@@@Z 1002273b f i libucrt:output.obj
 0001:00021763       ??$extract_argument_from_va_list@U_CRT_DOUBLE@@U1@@?$standard_base@_WV?$string_output_adapter@_W@__crt_stdio_output@@@__crt_stdio_output@@IAE_NAAU_CRT_DOUBLE@@@Z 10022763 f i libucrt:output.obj
 0001:0002178b       ??$extract_argument_from_va_list@_J_J@?$positional_parameter_base@DV?$stream_output_adapter@D@__crt_stdio_output@@@__crt_stdio_output@@IAE_NAA_J@Z 1002278b f i libucrt:output.obj
 0001:0002183c       ??$extract_argument_from_va_list@_J_J@?$positional_parameter_base@DV?$string_output_adapter@D@__crt_stdio_output@@@__crt_stdio_output@@IAE_NAA_J@Z 1002283c f i libucrt:output.obj
 0001:000218ed       ??$extract_argument_from_va_list@_J_J@?$positional_parameter_base@_WV?$stream_output_adapter@_W@__crt_stdio_output@@@__crt_stdio_output@@IAE_NAA_J@Z 100228ed f i libucrt:output.obj
 0001:0002199e       ??$extract_argument_from_va_list@_J_J@?$positional_parameter_base@_WV?$string_output_adapter@_W@__crt_stdio_output@@@__crt_stdio_output@@IAE_NAA_J@Z 1002299e f i libucrt:output.obj
 0001:00021a4f       ??$extract_argument_from_va_list@_J_J@?$standard_base@DV?$stream_output_adapter@D@__crt_stdio_output@@@__crt_stdio_output@@IAE_NAA_J@Z 10022a4f f i libucrt:output.obj
 0001:00021a77       ??$extract_argument_from_va_list@_J_J@?$standard_base@DV?$string_output_adapter@D@__crt_stdio_output@@@__crt_stdio_output@@IAE_NAA_J@Z 10022a77 f i libucrt:output.obj
 0001:00021a9f       ??$extract_argument_from_va_list@_J_J@?$standard_base@_WV?$stream_output_adapter@_W@__crt_stdio_output@@@__crt_stdio_output@@IAE_NAA_J@Z 10022a9f f i libucrt:output.obj
 0001:00021ac7       ??$extract_argument_from_va_list@_J_J@?$standard_base@_WV?$string_output_adapter@_W@__crt_stdio_output@@@__crt_stdio_output@@IAE_NAA_J@Z 10022ac7 f i libucrt:output.obj
 0001:00021aef       ??$extract_argument_from_va_list@_K_J@?$positional_parameter_base@DV?$stream_output_adapter@D@__crt_stdio_output@@@__crt_stdio_output@@IAE_NAA_J@Z 10022aef f i libucrt:output.obj
 0001:00021ba0       ??$extract_argument_from_va_list@_K_J@?$positional_parameter_base@DV?$string_output_adapter@D@__crt_stdio_output@@@__crt_stdio_output@@IAE_NAA_J@Z 10022ba0 f i libucrt:output.obj
 0001:00021c51       ??$extract_argument_from_va_list@_K_J@?$positional_parameter_base@_WV?$stream_output_adapter@_W@__crt_stdio_output@@@__crt_stdio_output@@IAE_NAA_J@Z 10022c51 f i libucrt:output.obj
 0001:00021d02       ??$extract_argument_from_va_list@_K_J@?$positional_parameter_base@_WV?$string_output_adapter@_W@__crt_stdio_output@@@__crt_stdio_output@@IAE_NAA_J@Z 10022d02 f i libucrt:output.obj
 0001:00021db3       ??$extract_argument_from_va_list@_K_J@?$standard_base@DV?$stream_output_adapter@D@__crt_stdio_output@@@__crt_stdio_output@@IAE_NAA_J@Z 10022db3 f i libucrt:output.obj
 0001:00021ddb       ??$extract_argument_from_va_list@_K_J@?$standard_base@DV?$string_output_adapter@D@__crt_stdio_output@@@__crt_stdio_output@@IAE_NAA_J@Z 10022ddb f i libucrt:output.obj
 0001:00021e03       ??$extract_argument_from_va_list@_K_J@?$standard_base@_WV?$stream_output_adapter@_W@__crt_stdio_output@@@__crt_stdio_output@@IAE_NAA_J@Z 10022e03 f i libucrt:output.obj
 0001:00021e2b       ??$extract_argument_from_va_list@_K_J@?$standard_base@_WV?$string_output_adapter@_W@__crt_stdio_output@@@__crt_stdio_output@@IAE_NAA_J@Z 10022e2b f i libucrt:output.obj
 0001:00021e53       ??$extract_argument_from_va_list@_W_W@?$positional_parameter_base@DV?$stream_output_adapter@D@__crt_stdio_output@@@__crt_stdio_output@@IAE_NAA_W@Z 10022e53 f i libucrt:output.obj
 0001:00021ef5       ??$extract_argument_from_va_list@_W_W@?$positional_parameter_base@DV?$string_output_adapter@D@__crt_stdio_output@@@__crt_stdio_output@@IAE_NAA_W@Z 10022ef5 f i libucrt:output.obj
 0001:00021f97       ??$extract_argument_from_va_list@_W_W@?$positional_parameter_base@_WV?$stream_output_adapter@_W@__crt_stdio_output@@@__crt_stdio_output@@IAE_NAA_W@Z 10022f97 f i libucrt:output.obj
 0001:00022039       ??$extract_argument_from_va_list@_W_W@?$positional_parameter_base@_WV?$string_output_adapter@_W@__crt_stdio_output@@@__crt_stdio_output@@IAE_NAA_W@Z 10023039 f i libucrt:output.obj
 0001:000220db       ??$extract_argument_from_va_list@_W_W@?$standard_base@DV?$stream_output_adapter@D@__crt_stdio_output@@@__crt_stdio_output@@IAE_NAA_W@Z 100230db f i libucrt:output.obj
 0001:000220fe       ??$extract_argument_from_va_list@_W_W@?$standard_base@DV?$string_output_adapter@D@__crt_stdio_output@@@__crt_stdio_output@@IAE_NAA_W@Z 100230fe f i libucrt:output.obj
 0001:00022121       ??$extract_argument_from_va_list@_W_W@?$standard_base@_WV?$stream_output_adapter@_W@__crt_stdio_output@@@__crt_stdio_output@@IAE_NAA_W@Z 10023121 f i libucrt:output.obj
 0001:00022144       ??$extract_argument_from_va_list@_W_W@?$standard_base@_WV?$string_output_adapter@_W@__crt_stdio_output@@@__crt_stdio_output@@IAE_NAA_W@Z 10023144 f i libucrt:output.obj
 0001:00022167       ??$get_parameter_type@D@?$positional_parameter_base@DV?$stream_output_adapter@D@__crt_stdio_output@@@__crt_stdio_output@@CA?AW4parameter_type@01@PAD@Z 10023167 f i libucrt:output.obj
 0001:0002216b       ??$get_parameter_type@D@?$positional_parameter_base@DV?$string_output_adapter@D@__crt_stdio_output@@@__crt_stdio_output@@CA?AW4parameter_type@01@PAD@Z 1002316b f i libucrt:output.obj
 0001:0002216f       ??$get_parameter_type@D@?$positional_parameter_base@_WV?$stream_output_adapter@_W@__crt_stdio_output@@@__crt_stdio_output@@CA?AW4parameter_type@01@PAD@Z 1002316f f i libucrt:output.obj
 0001:00022173       ??$get_parameter_type@D@?$positional_parameter_base@_WV?$string_output_adapter@_W@__crt_stdio_output@@@__crt_stdio_output@@CA?AW4parameter_type@01@PAD@Z 10023173 f i libucrt:output.obj
 0001:00022177       ??$get_parameter_type@Uansi_string@?1??type_case_Z@?$output_processor@DV?$stream_output_adapter@D@__crt_stdio_output@@V?$positional_parameter_base@DV?$stream_output_adapter@D@__crt_stdio_output@@@2@@__crt_stdio_output@@AAE_NXZ@@?$positional_parameter_base@DV?$stream_output_adapter@D@__crt_stdio_output@@@__crt_stdio_output@@CA?AW4parameter_type@01@PAUansi_string@?1??type_case_Z@?$output_processor@DV?$stream_output_adapter@D@__crt_stdio_output@@V?$positional_parameter_base@DV?$stream_output_adapter@D@__crt_stdio_output@@@2@@1@AAE_NXZ@@Z 10023177 f i libucrt:output.obj
 0001:0002217b       ??$get_parameter_type@Uansi_string@?1??type_case_Z@?$output_processor@DV?$string_output_adapter@D@__crt_stdio_output@@V?$positional_parameter_base@DV?$string_output_adapter@D@__crt_stdio_output@@@2@@__crt_stdio_output@@AAE_NXZ@@?$positional_parameter_base@DV?$string_output_adapter@D@__crt_stdio_output@@@__crt_stdio_output@@CA?AW4parameter_type@01@PAUansi_string@?1??type_case_Z@?$output_processor@DV?$string_output_adapter@D@__crt_stdio_output@@V?$positional_parameter_base@DV?$string_output_adapter@D@__crt_stdio_output@@@2@@1@AAE_NXZ@@Z 1002317b f i libucrt:output.obj
 0001:0002217f       ??$get_parameter_type@Uansi_string@?1??type_case_Z@?$output_processor@_WV?$stream_output_adapter@_W@__crt_stdio_output@@V?$positional_parameter_base@_WV?$stream_output_adapter@_W@__crt_stdio_output@@@2@@__crt_stdio_output@@AAE_NXZ@@?$positional_parameter_base@_WV?$stream_output_adapter@_W@__crt_stdio_output@@@__crt_stdio_output@@CA?AW4parameter_type@01@PAUansi_string@?1??type_case_Z@?$output_processor@_WV?$stream_output_adapter@_W@__crt_stdio_output@@V?$positional_parameter_base@_WV?$stream_output_adapter@_W@__crt_stdio_output@@@2@@1@AAE_NXZ@@Z 1002317f f i libucrt:output.obj
 0001:00022183       ??$get_parameter_type@Uansi_string@?1??type_case_Z@?$output_processor@_WV?$string_output_adapter@_W@__crt_stdio_output@@V?$positional_parameter_base@_WV?$string_output_adapter@_W@__crt_stdio_output@@@2@@__crt_stdio_output@@AAE_NXZ@@?$positional_parameter_base@_WV?$string_output_adapter@_W@__crt_stdio_output@@@__crt_stdio_output@@CA?AW4parameter_type@01@PAUansi_string@?1??type_case_Z@?$output_processor@_WV?$string_output_adapter@_W@__crt_stdio_output@@V?$positional_parameter_base@_WV?$string_output_adapter@_W@__crt_stdio_output@@@2@@1@AAE_NXZ@@Z 10023183 f i libucrt:output.obj
 0001:00022187       ??$get_parameter_type@X@?$positional_parameter_base@DV?$stream_output_adapter@D@__crt_stdio_output@@@__crt_stdio_output@@CA?AW4parameter_type@01@PAX@Z 10023187 f i libucrt:output.obj
 0001:0002218b       ??$get_parameter_type@X@?$positional_parameter_base@DV?$string_output_adapter@D@__crt_stdio_output@@@__crt_stdio_output@@CA?AW4parameter_type@01@PAX@Z 1002318b f i libucrt:output.obj
 0001:0002218f       ??$get_parameter_type@X@?$positional_parameter_base@_WV?$stream_output_adapter@_W@__crt_stdio_output@@@__crt_stdio_output@@CA?AW4parameter_type@01@PAX@Z 1002318f f i libucrt:output.obj
 0001:00022193       ??$get_parameter_type@X@?$positional_parameter_base@_WV?$string_output_adapter@_W@__crt_stdio_output@@@__crt_stdio_output@@CA?AW4parameter_type@01@PAX@Z 10023193 f i libucrt:output.obj
 0001:00022197       ??$is_character_specifier@D@?$positional_parameter_base@DV?$stream_output_adapter@D@__crt_stdio_output@@@__crt_stdio_output@@CA_ND@Z 10023197 f i libucrt:output.obj
 0001:000221b6       ??$is_character_specifier@D@?$positional_parameter_base@DV?$string_output_adapter@D@__crt_stdio_output@@@__crt_stdio_output@@CA_ND@Z 100231b6 f i libucrt:output.obj
 0001:000221d5       ??$is_character_specifier@_W@?$positional_parameter_base@_WV?$stream_output_adapter@_W@__crt_stdio_output@@@__crt_stdio_output@@CA_N_W@Z 100231d5 f i libucrt:output.obj
 0001:000221f8       ??$is_character_specifier@_W@?$positional_parameter_base@_WV?$string_output_adapter@_W@__crt_stdio_output@@@__crt_stdio_output@@CA_N_W@Z 100231f8 f i libucrt:output.obj
 0001:0002221b       ??$is_integral_specifier@D@?$positional_parameter_base@DV?$stream_output_adapter@D@__crt_stdio_output@@@__crt_stdio_output@@CA_ND@Z 1002321b f i libucrt:output.obj
 0001:00022253       ??$is_integral_specifier@D@?$positional_parameter_base@DV?$string_output_adapter@D@__crt_stdio_output@@@__crt_stdio_output@@CA_ND@Z 10023253 f i libucrt:output.obj
 0001:0002228b       ??$is_integral_specifier@_W@?$positional_parameter_base@_WV?$stream_output_adapter@_W@__crt_stdio_output@@@__crt_stdio_output@@CA_N_W@Z 1002328b f i libucrt:output.obj
 0001:000222d6       ??$is_integral_specifier@_W@?$positional_parameter_base@_WV?$string_output_adapter@_W@__crt_stdio_output@@@__crt_stdio_output@@CA_N_W@Z 100232d6 f i libucrt:output.obj
 0001:00022321       ??$is_pointer_specifier@D@?$positional_parameter_base@DV?$stream_output_adapter@D@__crt_stdio_output@@@__crt_stdio_output@@CA_ND@Z 10023321 f i libucrt:output.obj
 0001:00022335       ??$is_pointer_specifier@D@?$positional_parameter_base@DV?$string_output_adapter@D@__crt_stdio_output@@@__crt_stdio_output@@CA_ND@Z 10023335 f i libucrt:output.obj
 0001:00022349       ??$is_pointer_specifier@_W@?$positional_parameter_base@_WV?$stream_output_adapter@_W@__crt_stdio_output@@@__crt_stdio_output@@CA_N_W@Z 10023349 f i libucrt:output.obj
 0001:0002235e       ??$is_pointer_specifier@_W@?$positional_parameter_base@_WV?$string_output_adapter@_W@__crt_stdio_output@@@__crt_stdio_output@@CA_N_W@Z 1002335e f i libucrt:output.obj
 0001:00022373       ??$is_string_specifier@D@?$positional_parameter_base@DV?$stream_output_adapter@D@__crt_stdio_output@@@__crt_stdio_output@@CA_ND@Z 10023373 f i libucrt:output.obj
 0001:00022392       ??$is_string_specifier@D@?$positional_parameter_base@DV?$string_output_adapter@D@__crt_stdio_output@@@__crt_stdio_output@@CA_ND@Z 10023392 f i libucrt:output.obj
 0001:000223b1       ??$is_string_specifier@_W@?$positional_parameter_base@_WV?$stream_output_adapter@_W@__crt_stdio_output@@@__crt_stdio_output@@CA_N_W@Z 100233b1 f i libucrt:output.obj
 0001:000223d4       ??$is_string_specifier@_W@?$positional_parameter_base@_WV?$string_output_adapter@_W@__crt_stdio_output@@@__crt_stdio_output@@CA_N_W@Z 100233d4 f i libucrt:output.obj
 0001:000223f7       ??$is_wide_character_specifier@D@__crt_stdio_output@@YA_N_KDW4length_modifier@0@@Z 100233f7 f i libucrt:output.obj
 0001:00022447       ??$is_wide_character_specifier@_W@__crt_stdio_output@@YA_N_K_WW4length_modifier@0@@Z 10023447 f i libucrt:output.obj
 0001:000224a9       ??$peek_va_arg@C@__crt_stdio_output@@YACPAD@Z 100234a9 f i libucrt:output.obj
 0001:000224b8       ??$peek_va_arg@E@__crt_stdio_output@@YAEPAD@Z 100234b8 f i libucrt:output.obj
 0001:000224c7       ??$peek_va_arg@F@__crt_stdio_output@@YAFPAD@Z 100234c7 f i libucrt:output.obj
 0001:000224d7       ??$peek_va_arg@G@__crt_stdio_output@@YAGPAD@Z 100234d7 f i libucrt:output.obj
 0001:000224e7       ??$peek_va_arg@H@__crt_stdio_output@@YAHPAD@Z 100234e7 f i libucrt:output.obj
 0001:000224f6       ??$peek_va_arg@I@__crt_stdio_output@@YAIPAD@Z 100234f6 f i libucrt:output.obj
 0001:00022505       ??$peek_va_arg@PAD@__crt_stdio_output@@YAPADPAD@Z 10023505 f i libucrt:output.obj
 0001:00022514       ??$peek_va_arg@PAUansi_string@?1??type_case_Z@?$output_processor@DV?$stream_output_adapter@D@__crt_stdio_output@@V?$positional_parameter_base@DV?$stream_output_adapter@D@__crt_stdio_output@@@2@@__crt_stdio_output@@AAE_NXZ@@__crt_stdio_output@@YAPAUansi_string@?1??type_case_Z@?$output_processor@DV?$stream_output_adapter@D@__crt_stdio_output@@V?$positional_parameter_base@DV?$stream_output_adapter@D@__crt_stdio_output@@@2@@0@AAE_NXZ@PAD@Z 10023514 f i libucrt:output.obj
 0001:00022523       ??$peek_va_arg@PAUansi_string@?1??type_case_Z@?$output_processor@DV?$string_output_adapter@D@__crt_stdio_output@@V?$positional_parameter_base@DV?$string_output_adapter@D@__crt_stdio_output@@@2@@__crt_stdio_output@@AAE_NXZ@@__crt_stdio_output@@YAPAUansi_string@?1??type_case_Z@?$output_processor@DV?$string_output_adapter@D@__crt_stdio_output@@V?$positional_parameter_base@DV?$string_output_adapter@D@__crt_stdio_output@@@2@@0@AAE_NXZ@PAD@Z 10023523 f i libucrt:output.obj
 0001:00022532       ??$peek_va_arg@PAUansi_string@?1??type_case_Z@?$output_processor@_WV?$stream_output_adapter@_W@__crt_stdio_output@@V?$positional_parameter_base@_WV?$stream_output_adapter@_W@__crt_stdio_output@@@2@@__crt_stdio_output@@AAE_NXZ@@__crt_stdio_output@@YAPAUansi_string@?1??type_case_Z@?$output_processor@_WV?$stream_output_adapter@_W@__crt_stdio_output@@V?$positional_parameter_base@_WV?$stream_output_adapter@_W@__crt_stdio_output@@@2@@0@AAE_NXZ@PAD@Z 10023532 f i libucrt:output.obj
 0001:00022541       ??$peek_va_arg@PAUansi_string@?1??type_case_Z@?$output_processor@_WV?$string_output_adapter@_W@__crt_stdio_output@@V?$positional_parameter_base@_WV?$string_output_adapter@_W@__crt_stdio_output@@@2@@__crt_stdio_output@@AAE_NXZ@@__crt_stdio_output@@YAPAUansi_string@?1??type_case_Z@?$output_processor@_WV?$string_output_adapter@_W@__crt_stdio_output@@V?$positional_parameter_base@_WV?$string_output_adapter@_W@__crt_stdio_output@@@2@@0@AAE_NXZ@PAD@Z 10023541 f i libucrt:output.obj
 0001:00022550       ??$peek_va_arg@PAX@__crt_stdio_output@@YAPAXPAD@Z 10023550 f i libucrt:output.obj
 0001:0002255f       ??$peek_va_arg@U_CRT_DOUBLE@@@__crt_stdio_output@@YA?AU_CRT_DOUBLE@@PAD@Z 1002355f f i libucrt:output.obj
 0001:00022571       ??$peek_va_arg@_J@__crt_stdio_output@@YA_JPAD@Z 10023571 f i libucrt:output.obj
 0001:00022583       ??$peek_va_arg@_K@__crt_stdio_output@@YA_KPAD@Z 10023583 f i libucrt:output.obj
 0001:00022595       ??$peek_va_arg@_W@__crt_stdio_output@@YA_WPAD@Z 10023595 f i libucrt:output.obj
 0001:000225a5       ??$puttc_nolock@ABDPAU_iobuf@@@?$__crt_char_traits@D@@SAHABD$$QAPAU_iobuf@@@Z 100235a5 f i libucrt:output.obj
 0001:000225c5       ??$puttc_nolock@AB_WPAU_iobuf@@@?$__crt_char_traits@_W@@SAGAB_W$$QAPAU_iobuf@@@Z 100235c5 f i libucrt:output.obj
 0001:000225e5       ??$read_va_arg@C@__crt_stdio_output@@YACAAPAD@Z 100235e5 f i libucrt:output.obj
 0001:000225fb       ??$read_va_arg@E@__crt_stdio_output@@YAEAAPAD@Z 100235fb f i libucrt:output.obj
 0001:00022611       ??$read_va_arg@F@__crt_stdio_output@@YAFAAPAD@Z 10023611 f i libucrt:output.obj
 0001:00022628       ??$read_va_arg@G@__crt_stdio_output@@YAGAAPAD@Z 10023628 f i libucrt:output.obj
 0001:0002263f       ??$read_va_arg@H@__crt_stdio_output@@YAHAAPAD@Z 1002363f f i libucrt:output.obj
 0001:00022655       ??$read_va_arg@I@__crt_stdio_output@@YAIAAPAD@Z 10023655 f i libucrt:output.obj
 0001:0002266b       ??$read_va_arg@PAD@__crt_stdio_output@@YAPADAAPAD@Z 1002366b f i libucrt:output.obj
 0001:00022681       ??$read_va_arg@PAUansi_string@?1??type_case_Z@?$output_processor@DV?$stream_output_adapter@D@__crt_stdio_output@@V?$format_validation_base@DV?$stream_output_adapter@D@__crt_stdio_output@@@2@@__crt_stdio_output@@AAE_NXZ@@__crt_stdio_output@@YAPAUansi_string@?1??type_case_Z@?$output_processor@DV?$stream_output_adapter@D@__crt_stdio_output@@V?$format_validation_base@DV?$stream_output_adapter@D@__crt_stdio_output@@@2@@0@AAE_NXZ@AAPAD@Z 10023681 f i libucrt:output.obj
 0001:00022697       ??$read_va_arg@PAUansi_string@?1??type_case_Z@?$output_processor@DV?$stream_output_adapter@D@__crt_stdio_output@@V?$positional_parameter_base@DV?$stream_output_adapter@D@__crt_stdio_output@@@2@@__crt_stdio_output@@AAE_NXZ@@__crt_stdio_output@@YAPAUansi_string@?1??type_case_Z@?$output_processor@DV?$stream_output_adapter@D@__crt_stdio_output@@V?$positional_parameter_base@DV?$stream_output_adapter@D@__crt_stdio_output@@@2@@0@AAE_NXZ@AAPAD@Z 10023697 f i libucrt:output.obj
 0001:000226ad       ??$read_va_arg@PAUansi_string@?1??type_case_Z@?$output_processor@DV?$stream_output_adapter@D@__crt_stdio_output@@V?$standard_base@DV?$stream_output_adapter@D@__crt_stdio_output@@@2@@__crt_stdio_output@@AAE_NXZ@@__crt_stdio_output@@YAPAUansi_string@?1??type_case_Z@?$output_processor@DV?$stream_output_adapter@D@__crt_stdio_output@@V?$standard_base@DV?$stream_output_adapter@D@__crt_stdio_output@@@2@@0@AAE_NXZ@AAPAD@Z 100236ad f i libucrt:output.obj
 0001:000226c3       ??$read_va_arg@PAUansi_string@?1??type_case_Z@?$output_processor@DV?$string_output_adapter@D@__crt_stdio_output@@V?$format_validation_base@DV?$string_output_adapter@D@__crt_stdio_output@@@2@@__crt_stdio_output@@AAE_NXZ@@__crt_stdio_output@@YAPAUansi_string@?1??type_case_Z@?$output_processor@DV?$string_output_adapter@D@__crt_stdio_output@@V?$format_validation_base@DV?$string_output_adapter@D@__crt_stdio_output@@@2@@0@AAE_NXZ@AAPAD@Z 100236c3 f i libucrt:output.obj
 0001:000226d9       ??$read_va_arg@PAUansi_string@?1??type_case_Z@?$output_processor@DV?$string_output_adapter@D@__crt_stdio_output@@V?$positional_parameter_base@DV?$string_output_adapter@D@__crt_stdio_output@@@2@@__crt_stdio_output@@AAE_NXZ@@__crt_stdio_output@@YAPAUansi_string@?1??type_case_Z@?$output_processor@DV?$string_output_adapter@D@__crt_stdio_output@@V?$positional_parameter_base@DV?$string_output_adapter@D@__crt_stdio_output@@@2@@0@AAE_NXZ@AAPAD@Z 100236d9 f i libucrt:output.obj
 0001:000226ef       ??$read_va_arg@PAUansi_string@?1??type_case_Z@?$output_processor@DV?$string_output_adapter@D@__crt_stdio_output@@V?$standard_base@DV?$string_output_adapter@D@__crt_stdio_output@@@2@@__crt_stdio_output@@AAE_NXZ@@__crt_stdio_output@@YAPAUansi_string@?1??type_case_Z@?$output_processor@DV?$string_output_adapter@D@__crt_stdio_output@@V?$standard_base@DV?$string_output_adapter@D@__crt_stdio_output@@@2@@0@AAE_NXZ@AAPAD@Z 100236ef f i libucrt:output.obj
 0001:00022705       ??$read_va_arg@PAUansi_string@?1??type_case_Z@?$output_processor@_WV?$stream_output_adapter@_W@__crt_stdio_output@@V?$format_validation_base@_WV?$stream_output_adapter@_W@__crt_stdio_output@@@2@@__crt_stdio_output@@AAE_NXZ@@__crt_stdio_output@@YAPAUansi_string@?1??type_case_Z@?$output_processor@_WV?$stream_output_adapter@_W@__crt_stdio_output@@V?$format_validation_base@_WV?$stream_output_adapter@_W@__crt_stdio_output@@@2@@0@AAE_NXZ@AAPAD@Z 10023705 f i libucrt:output.obj
 0001:0002271b       ??$read_va_arg@PAUansi_string@?1??type_case_Z@?$output_processor@_WV?$stream_output_adapter@_W@__crt_stdio_output@@V?$positional_parameter_base@_WV?$stream_output_adapter@_W@__crt_stdio_output@@@2@@__crt_stdio_output@@AAE_NXZ@@__crt_stdio_output@@YAPAUansi_string@?1??type_case_Z@?$output_processor@_WV?$stream_output_adapter@_W@__crt_stdio_output@@V?$positional_parameter_base@_WV?$stream_output_adapter@_W@__crt_stdio_output@@@2@@0@AAE_NXZ@AAPAD@Z 1002371b f i libucrt:output.obj
 0001:00022731       ??$read_va_arg@PAUansi_string@?1??type_case_Z@?$output_processor@_WV?$stream_output_adapter@_W@__crt_stdio_output@@V?$standard_base@_WV?$stream_output_adapter@_W@__crt_stdio_output@@@2@@__crt_stdio_output@@AAE_NXZ@@__crt_stdio_output@@YAPAUansi_string@?1??type_case_Z@?$output_processor@_WV?$stream_output_adapter@_W@__crt_stdio_output@@V?$standard_base@_WV?$stream_output_adapter@_W@__crt_stdio_output@@@2@@0@AAE_NXZ@AAPAD@Z 10023731 f i libucrt:output.obj
 0001:00022747       ??$read_va_arg@PAUansi_string@?1??type_case_Z@?$output_processor@_WV?$string_output_adapter@_W@__crt_stdio_output@@V?$format_validation_base@_WV?$string_output_adapter@_W@__crt_stdio_output@@@2@@__crt_stdio_output@@AAE_NXZ@@__crt_stdio_output@@YAPAUansi_string@?1??type_case_Z@?$output_processor@_WV?$string_output_adapter@_W@__crt_stdio_output@@V?$format_validation_base@_WV?$string_output_adapter@_W@__crt_stdio_output@@@2@@0@AAE_NXZ@AAPAD@Z 10023747 f i libucrt:output.obj
 0001:0002275d       ??$read_va_arg@PAUansi_string@?1??type_case_Z@?$output_processor@_WV?$string_output_adapter@_W@__crt_stdio_output@@V?$positional_parameter_base@_WV?$string_output_adapter@_W@__crt_stdio_output@@@2@@__crt_stdio_output@@AAE_NXZ@@__crt_stdio_output@@YAPAUansi_string@?1??type_case_Z@?$output_processor@_WV?$string_output_adapter@_W@__crt_stdio_output@@V?$positional_parameter_base@_WV?$string_output_adapter@_W@__crt_stdio_output@@@2@@0@AAE_NXZ@AAPAD@Z 1002375d f i libucrt:output.obj
 0001:00022773       ??$read_va_arg@PAUansi_string@?1??type_case_Z@?$output_processor@_WV?$string_output_adapter@_W@__crt_stdio_output@@V?$standard_base@_WV?$string_output_adapter@_W@__crt_stdio_output@@@2@@__crt_stdio_output@@AAE_NXZ@@__crt_stdio_output@@YAPAUansi_string@?1??type_case_Z@?$output_processor@_WV?$string_output_adapter@_W@__crt_stdio_output@@V?$standard_base@_WV?$string_output_adapter@_W@__crt_stdio_output@@@2@@0@AAE_NXZ@AAPAD@Z 10023773 f i libucrt:output.obj
 0001:00022789       ??$read_va_arg@PAX@__crt_stdio_output@@YAPAXAAPAD@Z 10023789 f i libucrt:output.obj
 0001:0002279f       ??$read_va_arg@U_CRT_DOUBLE@@@__crt_stdio_output@@YA?AU_CRT_DOUBLE@@AAPAD@Z 1002379f f i libucrt:output.obj
 0001:000227b9       ??$read_va_arg@_J@__crt_stdio_output@@YA_JAAPAD@Z 100237b9 f i libucrt:output.obj
 0001:000227d3       ??$read_va_arg@_K@__crt_stdio_output@@YA_KAAPAD@Z 100237d3 f i libucrt:output.obj
 0001:000227ed       ??$read_va_arg@_W@__crt_stdio_output@@YA_WAAPAD@Z 100237ed f i libucrt:output.obj
 0001:00022804       ??$scratch_count@D@formatting_buffer@__crt_stdio_output@@QBEIXZ 10023804 f i libucrt:output.obj
 0001:00022809       ??$scratch_data@D@formatting_buffer@__crt_stdio_output@@QAEPADXZ 10023809 f i libucrt:output.obj
 0001:0002282e       ??$tcstol@AAPBDPAPADH@?$__crt_char_traits@D@@SAJAAPBD$$QAPAPAD$$QAH@Z 1002382e f i libucrt:output.obj
 0001:00022853       ??$tcstol@AAPB_WPAPA_WH@?$__crt_char_traits@_W@@SAJAAPB_W$$QAPAPA_W$$QAH@Z 10023853 f i libucrt:output.obj
 0001:00022878       ??$tcstol@PBDPAPADH@?$__crt_char_traits@D@@SAJ$$QAPBD$$QAPAPAD$$QAH@Z 10023878 f i libucrt:output.obj
 0001:0002289d       ??$tcstol@PB_WPAPA_WH@?$__crt_char_traits@_W@@SAJ$$QAPB_W$$QAPAPA_W$$QAH@Z 1002389d f i libucrt:output.obj
 0001:000228c2       ??$type_case_integer_parse_into_buffer@I@?$output_processor@DV?$stream_output_adapter@D@__crt_stdio_output@@V?$format_validation_base@DV?$stream_output_adapter@D@__crt_stdio_output@@@2@@__crt_stdio_output@@AAEXII_N@Z 100238c2 f i libucrt:output.obj
 0001:00022954       ??$type_case_integer_parse_into_buffer@I@?$output_processor@DV?$stream_output_adapter@D@__crt_stdio_output@@V?$positional_parameter_base@DV?$stream_output_adapter@D@__crt_stdio_output@@@2@@__crt_stdio_output@@AAEXII_N@Z 10023954 f i libucrt:output.obj
 0001:000229e6       ??$type_case_integer_parse_into_buffer@I@?$output_processor@DV?$stream_output_adapter@D@__crt_stdio_output@@V?$standard_base@DV?$stream_output_adapter@D@__crt_stdio_output@@@2@@__crt_stdio_output@@AAEXII_N@Z 100239e6 f i libucrt:output.obj
 0001:00022a78       ??$type_case_integer_parse_into_buffer@I@?$output_processor@DV?$string_output_adapter@D@__crt_stdio_output@@V?$format_validation_base@DV?$string_output_adapter@D@__crt_stdio_output@@@2@@__crt_stdio_output@@AAEXII_N@Z 10023a78 f i libucrt:output.obj
 0001:00022b0a       ??$type_case_integer_parse_into_buffer@I@?$output_processor@DV?$string_output_adapter@D@__crt_stdio_output@@V?$positional_parameter_base@DV?$string_output_adapter@D@__crt_stdio_output@@@2@@__crt_stdio_output@@AAEXII_N@Z 10023b0a f i libucrt:output.obj
 0001:00022b9c       ??$type_case_integer_parse_into_buffer@I@?$output_processor@DV?$string_output_adapter@D@__crt_stdio_output@@V?$standard_base@DV?$string_output_adapter@D@__crt_stdio_output@@@2@@__crt_stdio_output@@AAEXII_N@Z 10023b9c f i libucrt:output.obj
 0001:00022c2e       ??$type_case_integer_parse_into_buffer@I@?$output_processor@_WV?$stream_output_adapter@_W@__crt_stdio_output@@V?$format_validation_base@_WV?$stream_output_adapter@_W@__crt_stdio_output@@@2@@__crt_stdio_output@@AAEXII_N@Z 10023c2e f i libucrt:output.obj
 0001:00022cc0       ??$type_case_integer_parse_into_buffer@I@?$output_processor@_WV?$stream_output_adapter@_W@__crt_stdio_output@@V?$positional_parameter_base@_WV?$stream_output_adapter@_W@__crt_stdio_output@@@2@@__crt_stdio_output@@AAEXII_N@Z 10023cc0 f i libucrt:output.obj
 0001:00022d52       ??$type_case_integer_parse_into_buffer@I@?$output_processor@_WV?$stream_output_adapter@_W@__crt_stdio_output@@V?$standard_base@_WV?$stream_output_adapter@_W@__crt_stdio_output@@@2@@__crt_stdio_output@@AAEXII_N@Z 10023d52 f i libucrt:output.obj
 0001:00022de4       ??$type_case_integer_parse_into_buffer@I@?$output_processor@_WV?$string_output_adapter@_W@__crt_stdio_output@@V?$format_validation_base@_WV?$string_output_adapter@_W@__crt_stdio_output@@@2@@__crt_stdio_output@@AAEXII_N@Z 10023de4 f i libucrt:output.obj
 0001:00022e76       ??$type_case_integer_parse_into_buffer@I@?$output_processor@_WV?$string_output_adapter@_W@__crt_stdio_output@@V?$positional_parameter_base@_WV?$string_output_adapter@_W@__crt_stdio_output@@@2@@__crt_stdio_output@@AAEXII_N@Z 10023e76 f i libucrt:output.obj
 0001:00022f08       ??$type_case_integer_parse_into_buffer@I@?$output_processor@_WV?$string_output_adapter@_W@__crt_stdio_output@@V?$standard_base@_WV?$string_output_adapter@_W@__crt_stdio_output@@@2@@__crt_stdio_output@@AAEXII_N@Z 10023f08 f i libucrt:output.obj
 0001:00022f9a       ??$type_case_integer_parse_into_buffer@_K@?$output_processor@DV?$stream_output_adapter@D@__crt_stdio_output@@V?$format_validation_base@DV?$stream_output_adapter@D@__crt_stdio_output@@@2@@__crt_stdio_output@@AAEX_KI_N@Z 10023f9a f i libucrt:output.obj
 0001:00023044       ??$type_case_integer_parse_into_buffer@_K@?$output_processor@DV?$stream_output_adapter@D@__crt_stdio_output@@V?$positional_parameter_base@DV?$stream_output_adapter@D@__crt_stdio_output@@@2@@__crt_stdio_output@@AAEX_KI_N@Z 10024044 f i libucrt:output.obj
 0001:000230ee       ??$type_case_integer_parse_into_buffer@_K@?$output_processor@DV?$stream_output_adapter@D@__crt_stdio_output@@V?$standard_base@DV?$stream_output_adapter@D@__crt_stdio_output@@@2@@__crt_stdio_output@@AAEX_KI_N@Z 100240ee f i libucrt:output.obj
 0001:00023198       ??$type_case_integer_parse_into_buffer@_K@?$output_processor@DV?$string_output_adapter@D@__crt_stdio_output@@V?$format_validation_base@DV?$string_output_adapter@D@__crt_stdio_output@@@2@@__crt_stdio_output@@AAEX_KI_N@Z 10024198 f i libucrt:output.obj
 0001:00023242       ??$type_case_integer_parse_into_buffer@_K@?$output_processor@DV?$string_output_adapter@D@__crt_stdio_output@@V?$positional_parameter_base@DV?$string_output_adapter@D@__crt_stdio_output@@@2@@__crt_stdio_output@@AAEX_KI_N@Z 10024242 f i libucrt:output.obj
 0001:000232ec       ??$type_case_integer_parse_into_buffer@_K@?$output_processor@DV?$string_output_adapter@D@__crt_stdio_output@@V?$standard_base@DV?$string_output_adapter@D@__crt_stdio_output@@@2@@__crt_stdio_output@@AAEX_KI_N@Z 100242ec f i libucrt:output.obj
 0001:00023396       ??$type_case_integer_parse_into_buffer@_K@?$output_processor@_WV?$stream_output_adapter@_W@__crt_stdio_output@@V?$format_validation_base@_WV?$stream_output_adapter@_W@__crt_stdio_output@@@2@@__crt_stdio_output@@AAEX_KI_N@Z 10024396 f i libucrt:output.obj
 0001:00023440       ??$type_case_integer_parse_into_buffer@_K@?$output_processor@_WV?$stream_output_adapter@_W@__crt_stdio_output@@V?$positional_parameter_base@_WV?$stream_output_adapter@_W@__crt_stdio_output@@@2@@__crt_stdio_output@@AAEX_KI_N@Z 10024440 f i libucrt:output.obj
 0001:000234ea       ??$type_case_integer_parse_into_buffer@_K@?$output_processor@_WV?$stream_output_adapter@_W@__crt_stdio_output@@V?$standard_base@_WV?$stream_output_adapter@_W@__crt_stdio_output@@@2@@__crt_stdio_output@@AAEX_KI_N@Z 100244ea f i libucrt:output.obj
 0001:00023594       ??$type_case_integer_parse_into_buffer@_K@?$output_processor@_WV?$string_output_adapter@_W@__crt_stdio_output@@V?$format_validation_base@_WV?$string_output_adapter@_W@__crt_stdio_output@@@2@@__crt_stdio_output@@AAEX_KI_N@Z 10024594 f i libucrt:output.obj
 0001:0002363e       ??$type_case_integer_parse_into_buffer@_K@?$output_processor@_WV?$string_output_adapter@_W@__crt_stdio_output@@V?$positional_parameter_base@_WV?$string_output_adapter@_W@__crt_stdio_output@@@2@@__crt_stdio_output@@AAEX_KI_N@Z 1002463e f i libucrt:output.obj
 0001:000236e8       ??$type_case_integer_parse_into_buffer@_K@?$output_processor@_WV?$string_output_adapter@_W@__crt_stdio_output@@V?$standard_base@_WV?$string_output_adapter@_W@__crt_stdio_output@@@2@@__crt_stdio_output@@AAEX_KI_N@Z 100246e8 f i libucrt:output.obj
 0001:00023792       ??$write_multiple_characters@V?$stream_output_adapter@D@__crt_stdio_output@@D@__crt_stdio_output@@YAXABV?$stream_output_adapter@D@0@DHQAH@Z 10024792 f i libucrt:output.obj
 0001:000237c9       ??$write_multiple_characters@V?$stream_output_adapter@_W@__crt_stdio_output@@D@__crt_stdio_output@@YAXABV?$stream_output_adapter@_W@0@DHQAH@Z 100247c9 f i libucrt:output.obj
 0001:00023806       ??$write_multiple_characters@V?$string_output_adapter@D@__crt_stdio_output@@D@__crt_stdio_output@@YAXABV?$string_output_adapter@D@0@DHQAH@Z 10024806 f i libucrt:output.obj
 0001:0002383d       ??$write_multiple_characters@V?$string_output_adapter@_W@__crt_stdio_output@@D@__crt_stdio_output@@YAXABV?$string_output_adapter@_W@0@DHQAH@Z 1002483d f i libucrt:output.obj
 0001:00023aae       ??0?$common_data@D@__crt_stdio_output@@IAE@XZ 10024aae f i libucrt:output.obj
 0001:00023b06       ??0?$common_data@_W@__crt_stdio_output@@IAE@XZ 10024b06 f i libucrt:output.obj
 0001:00023b65       ??0?$output_adapter_data@DV?$stream_output_adapter@D@__crt_stdio_output@@@__crt_stdio_output@@IAE@ABV?$stream_output_adapter@D@1@_KQBDQAU__crt_locale_pointers@@QAD@Z 10024b65 f i libucrt:output.obj
 0001:00023bb0       ??0?$output_adapter_data@DV?$string_output_adapter@D@__crt_stdio_output@@@__crt_stdio_output@@IAE@ABV?$string_output_adapter@D@1@_KQBDQAU__crt_locale_pointers@@QAD@Z 10024bb0 f i libucrt:output.obj
 0001:00023bfb       ??0?$output_adapter_data@_WV?$stream_output_adapter@_W@__crt_stdio_output@@@__crt_stdio_output@@IAE@ABV?$stream_output_adapter@_W@1@_KQB_WQAU__crt_locale_pointers@@QAD@Z 10024bfb f i libucrt:output.obj
 0001:00023c46       ??0?$output_adapter_data@_WV?$string_output_adapter@_W@__crt_stdio_output@@@__crt_stdio_output@@IAE@ABV?$string_output_adapter@_W@1@_KQB_WQAU__crt_locale_pointers@@QAD@Z 10024c46 f i libucrt:output.obj
 0001:00023c91       ??0?$output_processor@DV?$stream_output_adapter@D@__crt_stdio_output@@V?$format_validation_base@DV?$stream_output_adapter@D@__crt_stdio_output@@@2@@__crt_stdio_output@@QAE@ABV?$stream_output_adapter@D@1@_KQBDQAU__crt_locale_pointers@@QAD@Z 10024c91 f i libucrt:output.obj
 0001:00023cd3       ??0?$output_processor@DV?$stream_output_adapter@D@__crt_stdio_output@@V?$positional_parameter_base@DV?$stream_output_adapter@D@__crt_stdio_output@@@2@@__crt_stdio_output@@QAE@ABV?$stream_output_adapter@D@1@_KQBDQAU__crt_locale_pointers@@QAD@Z 10024cd3 f i libucrt:output.obj
 0001:00023d0d       ??0?$output_processor@DV?$stream_output_adapter@D@__crt_stdio_output@@V?$standard_base@DV?$stream_output_adapter@D@__crt_stdio_output@@@2@@__crt_stdio_output@@QAE@ABV?$stream_output_adapter@D@1@_KQBDQAU__crt_locale_pointers@@QAD@Z 10024d0d f i libucrt:output.obj
 0001:00023d4f       ??0?$output_processor@DV?$string_output_adapter@D@__crt_stdio_output@@V?$format_validation_base@DV?$string_output_adapter@D@__crt_stdio_output@@@2@@__crt_stdio_output@@QAE@ABV?$string_output_adapter@D@1@_KQBDQAU__crt_locale_pointers@@QAD@Z 10024d4f f i libucrt:output.obj
 0001:00023d91       ??0?$output_processor@DV?$string_output_adapter@D@__crt_stdio_output@@V?$positional_parameter_base@DV?$string_output_adapter@D@__crt_stdio_output@@@2@@__crt_stdio_output@@QAE@ABV?$string_output_adapter@D@1@_KQBDQAU__crt_locale_pointers@@QAD@Z 10024d91 f i libucrt:output.obj
 0001:00023dcb       ??0?$output_processor@DV?$string_output_adapter@D@__crt_stdio_output@@V?$standard_base@DV?$string_output_adapter@D@__crt_stdio_output@@@2@@__crt_stdio_output@@QAE@ABV?$string_output_adapter@D@1@_KQBDQAU__crt_locale_pointers@@QAD@Z 10024dcb f i libucrt:output.obj
 0001:00023e0d       ??0?$output_processor@_WV?$stream_output_adapter@_W@__crt_stdio_output@@V?$format_validation_base@_WV?$stream_output_adapter@_W@__crt_stdio_output@@@2@@__crt_stdio_output@@QAE@ABV?$stream_output_adapter@_W@1@_KQB_WQAU__crt_locale_pointers@@QAD@Z 10024e0d f i libucrt:output.obj
 0001:00023e4f       ??0?$output_processor@_WV?$stream_output_adapter@_W@__crt_stdio_output@@V?$positional_parameter_base@_WV?$stream_output_adapter@_W@__crt_stdio_output@@@2@@__crt_stdio_output@@QAE@ABV?$stream_output_adapter@_W@1@_KQB_WQAU__crt_locale_pointers@@QAD@Z 10024e4f f i libucrt:output.obj
 0001:00023e89       ??0?$output_processor@_WV?$stream_output_adapter@_W@__crt_stdio_output@@V?$standard_base@_WV?$stream_output_adapter@_W@__crt_stdio_output@@@2@@__crt_stdio_output@@QAE@ABV?$stream_output_adapter@_W@1@_KQB_WQAU__crt_locale_pointers@@QAD@Z 10024e89 f i libucrt:output.obj
 0001:00023ecb       ??0?$output_processor@_WV?$string_output_adapter@_W@__crt_stdio_output@@V?$format_validation_base@_WV?$string_output_adapter@_W@__crt_stdio_output@@@2@@__crt_stdio_output@@QAE@ABV?$string_output_adapter@_W@1@_KQB_WQAU__crt_locale_pointers@@QAD@Z 10024ecb f i libucrt:output.obj
 0001:00023f0d       ??0?$output_processor@_WV?$string_output_adapter@_W@__crt_stdio_output@@V?$positional_parameter_base@_WV?$string_output_adapter@_W@__crt_stdio_output@@@2@@__crt_stdio_output@@QAE@ABV?$string_output_adapter@_W@1@_KQB_WQAU__crt_locale_pointers@@QAD@Z 10024f0d f i libucrt:output.obj
 0001:00023f47       ??0?$output_processor@_WV?$string_output_adapter@_W@__crt_stdio_output@@V?$standard_base@_WV?$string_output_adapter@_W@__crt_stdio_output@@@2@@__crt_stdio_output@@QAE@ABV?$string_output_adapter@_W@1@_KQB_WQAU__crt_locale_pointers@@QAD@Z 10024f47 f i libucrt:output.obj
 0001:00023f89       ??0?$stream_output_adapter@D@__crt_stdio_output@@QAE@QAU_iobuf@@@Z 10024f89 f i libucrt:output.obj
 0001:00023f9d       ??0?$stream_output_adapter@_W@__crt_stdio_output@@QAE@QAU_iobuf@@@Z 10024f9d f i libucrt:output.obj
 0001:00023fb1       ??0?$string_output_adapter@D@__crt_stdio_output@@QAE@QAU?$string_output_adapter_context@D@1@@Z 10024fb1 f i libucrt:output.obj
 0001:00023fc5       ??0?$string_output_adapter@_W@__crt_stdio_output@@QAE@QAU?$string_output_adapter_context@_W@1@@Z 10024fc5 f i libucrt:output.obj
 0001:00023fd9       ??0_LocaleUpdate@@QAE@QAU__crt_locale_pointers@@@Z 10024fd9 f i libucrt:output.obj
 0001:0002407c       ??0__acrt_stdio_temporary_buffering_guard@@QAE@QAU_iobuf@@@Z 1002507c f i libucrt:output.obj
 0001:000240a1       ??0__crt_errno_guard@@QAE@QAH@Z 100250a1 f i libucrt:output.obj
 0001:000240bf       ??0formatting_buffer@__crt_stdio_output@@QAE@XZ 100250bf f i libucrt:output.obj
 0001:000240d4       ??1?$common_data@D@__crt_stdio_output@@QAE@XZ 100250d4 f i libucrt:output.obj
 0001:000240de       ??1?$common_data@_W@__crt_stdio_output@@QAE@XZ 100250de f i libucrt:output.obj
 0001:000240e8       ??1?$format_validation_base@DV?$stream_output_adapter@D@__crt_stdio_output@@@__crt_stdio_output@@QAE@XZ 100250e8 f i libucrt:output.obj
 0001:000240f2       ??1?$format_validation_base@DV?$string_output_adapter@D@__crt_stdio_output@@@__crt_stdio_output@@QAE@XZ 100250f2 f i libucrt:output.obj
 0001:000240fc       ??1?$format_validation_base@_WV?$stream_output_adapter@_W@__crt_stdio_output@@@__crt_stdio_output@@QAE@XZ 100250fc f i libucrt:output.obj
 0001:00024106       ??1?$format_validation_base@_WV?$string_output_adapter@_W@__crt_stdio_output@@@__crt_stdio_output@@QAE@XZ 10025106 f i libucrt:output.obj
 0001:00024110       ??1?$output_adapter_data@DV?$stream_output_adapter@D@__crt_stdio_output@@@__crt_stdio_output@@QAE@XZ 10025110 f i libucrt:output.obj
 0001:0002411a       ??1?$output_adapter_data@DV?$string_output_adapter@D@__crt_stdio_output@@@__crt_stdio_output@@QAE@XZ 1002511a f i libucrt:output.obj
 0001:00024124       ??1?$output_adapter_data@_WV?$stream_output_adapter@_W@__crt_stdio_output@@@__crt_stdio_output@@QAE@XZ 10025124 f i libucrt:output.obj
 0001:0002412e       ??1?$output_adapter_data@_WV?$string_output_adapter@_W@__crt_stdio_output@@@__crt_stdio_output@@QAE@XZ 1002512e f i libucrt:output.obj
 0001:00024138       ??1?$output_processor@DV?$stream_output_adapter@D@__crt_stdio_output@@V?$format_validation_base@DV?$stream_output_adapter@D@__crt_stdio_output@@@2@@__crt_stdio_output@@QAE@XZ 10025138 f i libucrt:output.obj
 0001:00024142       ??1?$output_processor@DV?$stream_output_adapter@D@__crt_stdio_output@@V?$positional_parameter_base@DV?$stream_output_adapter@D@__crt_stdio_output@@@2@@__crt_stdio_output@@QAE@XZ 10025142 f i libucrt:output.obj
 0001:0002414c       ??1?$output_processor@DV?$stream_output_adapter@D@__crt_stdio_output@@V?$standard_base@DV?$stream_output_adapter@D@__crt_stdio_output@@@2@@__crt_stdio_output@@QAE@XZ 1002514c f i libucrt:output.obj
 0001:00024156       ??1?$output_processor@DV?$string_output_adapter@D@__crt_stdio_output@@V?$format_validation_base@DV?$string_output_adapter@D@__crt_stdio_output@@@2@@__crt_stdio_output@@QAE@XZ 10025156 f i libucrt:output.obj
 0001:00024160       ??1?$output_processor@DV?$string_output_adapter@D@__crt_stdio_output@@V?$positional_parameter_base@DV?$string_output_adapter@D@__crt_stdio_output@@@2@@__crt_stdio_output@@QAE@XZ 10025160 f i libucrt:output.obj
 0001:0002416a       ??1?$output_processor@DV?$string_output_adapter@D@__crt_stdio_output@@V?$standard_base@DV?$string_output_adapter@D@__crt_stdio_output@@@2@@__crt_stdio_output@@QAE@XZ 1002516a f i libucrt:output.obj
 0001:00024174       ??1?$output_processor@_WV?$stream_output_adapter@_W@__crt_stdio_output@@V?$format_validation_base@_WV?$stream_output_adapter@_W@__crt_stdio_output@@@2@@__crt_stdio_output@@QAE@XZ 10025174 f i libucrt:output.obj
 0001:0002417e       ??1?$output_processor@_WV?$stream_output_adapter@_W@__crt_stdio_output@@V?$positional_parameter_base@_WV?$stream_output_adapter@_W@__crt_stdio_output@@@2@@__crt_stdio_output@@QAE@XZ 1002517e f i libucrt:output.obj
 0001:00024188       ??1?$output_processor@_WV?$stream_output_adapter@_W@__crt_stdio_output@@V?$standard_base@_WV?$stream_output_adapter@_W@__crt_stdio_output@@@2@@__crt_stdio_output@@QAE@XZ 10025188 f i libucrt:output.obj
 0001:00024192       ??1?$output_processor@_WV?$string_output_adapter@_W@__crt_stdio_output@@V?$format_validation_base@_WV?$string_output_adapter@_W@__crt_stdio_output@@@2@@__crt_stdio_output@@QAE@XZ 10025192 f i libucrt:output.obj
 0001:0002419c       ??1?$output_processor@_WV?$string_output_adapter@_W@__crt_stdio_output@@V?$positional_parameter_base@_WV?$string_output_adapter@_W@__crt_stdio_output@@@2@@__crt_stdio_output@@QAE@XZ 1002519c f i libucrt:output.obj
 0001:000241a6       ??1?$output_processor@_WV?$string_output_adapter@_W@__crt_stdio_output@@V?$standard_base@_WV?$string_output_adapter@_W@__crt_stdio_output@@@2@@__crt_stdio_output@@QAE@XZ 100251a6 f i libucrt:output.obj
 0001:000241b0       ??1?$positional_parameter_base@DV?$stream_output_adapter@D@__crt_stdio_output@@@__crt_stdio_output@@QAE@XZ 100251b0 f i libucrt:output.obj
 0001:000241ba       ??1?$positional_parameter_base@DV?$string_output_adapter@D@__crt_stdio_output@@@__crt_stdio_output@@QAE@XZ 100251ba f i libucrt:output.obj
 0001:000241c4       ??1?$positional_parameter_base@_WV?$stream_output_adapter@_W@__crt_stdio_output@@@__crt_stdio_output@@QAE@XZ 100251c4 f i libucrt:output.obj
 0001:000241ce       ??1?$positional_parameter_base@_WV?$string_output_adapter@_W@__crt_stdio_output@@@__crt_stdio_output@@QAE@XZ 100251ce f i libucrt:output.obj
 0001:000241d8       ??1?$standard_base@DV?$stream_output_adapter@D@__crt_stdio_output@@@__crt_stdio_output@@QAE@XZ 100251d8 f i libucrt:output.obj
 0001:000241e2       ??1?$standard_base@DV?$string_output_adapter@D@__crt_stdio_output@@@__crt_stdio_output@@QAE@XZ 100251e2 f i libucrt:output.obj
 0001:000241ec       ??1?$standard_base@_WV?$stream_output_adapter@_W@__crt_stdio_output@@@__crt_stdio_output@@QAE@XZ 100251ec f i libucrt:output.obj
 0001:000241f6       ??1?$standard_base@_WV?$string_output_adapter@_W@__crt_stdio_output@@@__crt_stdio_output@@QAE@XZ 100251f6 f i libucrt:output.obj
 0001:00024200       ??1_LocaleUpdate@@QAE@XZ   10025200 f i libucrt:output.obj
 0001:00024214       ??1__acrt_stdio_temporary_buffering_guard@@QAE@XZ 10025214 f i libucrt:output.obj
 0001:00024226       ??1__crt_errno_guard@@QAE@XZ 10025226 f i libucrt:output.obj
 0001:0002423b       ??1formatting_buffer@__crt_stdio_output@@QAE@XZ 1002523b f i libucrt:output.obj
 0001:0002425b       ??4?$__crt_unique_heap_ptr@DU__crt_internal_free_policy@@@@QAEAAV0@$$QAV0@@Z 1002525b f i libucrt:output.obj
 0001:0002493e       ?GetLocaleT@_LocaleUpdate@@QAEPAU__crt_locale_pointers@@XZ 1002593e f i libucrt:output.obj
 0001:00024942       ?__crt_interlocked_read_32@@YAHPDH@Z 10025942 f i libucrt:output.obj
 0001:00024951       ?adjust_hexit@?$output_processor@DV?$stream_output_adapter@D@__crt_stdio_output@@V?$format_validation_base@DV?$stream_output_adapter@D@__crt_stdio_output@@@2@@__crt_stdio_output@@CADH_N@Z 10025951 f i libucrt:output.obj
 0001:00024976       ?adjust_hexit@?$output_processor@DV?$stream_output_adapter@D@__crt_stdio_output@@V?$positional_parameter_base@DV?$stream_output_adapter@D@__crt_stdio_output@@@2@@__crt_stdio_output@@CADH_N@Z 10025976 f i libucrt:output.obj
 0001:0002499b       ?adjust_hexit@?$output_processor@DV?$stream_output_adapter@D@__crt_stdio_output@@V?$standard_base@DV?$stream_output_adapter@D@__crt_stdio_output@@@2@@__crt_stdio_output@@CADH_N@Z 1002599b f i libucrt:output.obj
 0001:000249c0       ?adjust_hexit@?$output_processor@DV?$string_output_adapter@D@__crt_stdio_output@@V?$format_validation_base@DV?$string_output_adapter@D@__crt_stdio_output@@@2@@__crt_stdio_output@@CADH_N@Z 100259c0 f i libucrt:output.obj
 0001:000249e5       ?adjust_hexit@?$output_processor@DV?$string_output_adapter@D@__crt_stdio_output@@V?$positional_parameter_base@DV?$string_output_adapter@D@__crt_stdio_output@@@2@@__crt_stdio_output@@CADH_N@Z 100259e5 f i libucrt:output.obj
 0001:00024a0a       ?adjust_hexit@?$output_processor@DV?$string_output_adapter@D@__crt_stdio_output@@V?$standard_base@DV?$string_output_adapter@D@__crt_stdio_output@@@2@@__crt_stdio_output@@CADH_N@Z 10025a0a f i libucrt:output.obj
 0001:00024a2f       ?adjust_hexit@?$output_processor@_WV?$stream_output_adapter@_W@__crt_stdio_output@@V?$format_validation_base@_WV?$stream_output_adapter@_W@__crt_stdio_output@@@2@@__crt_stdio_output@@CADH_N@Z 10025a2f f i libucrt:output.obj
 0001:00024a54       ?adjust_hexit@?$output_processor@_WV?$stream_output_adapter@_W@__crt_stdio_output@@V?$positional_parameter_base@_WV?$stream_output_adapter@_W@__crt_stdio_output@@@2@@__crt_stdio_output@@CADH_N@Z 10025a54 f i libucrt:output.obj
 0001:00024a79       ?adjust_hexit@?$output_processor@_WV?$stream_output_adapter@_W@__crt_stdio_output@@V?$standard_base@_WV?$stream_output_adapter@_W@__crt_stdio_output@@@2@@__crt_stdio_output@@CADH_N@Z 10025a79 f i libucrt:output.obj
 0001:00024a9e       ?adjust_hexit@?$output_processor@_WV?$string_output_adapter@_W@__crt_stdio_output@@V?$format_validation_base@_WV?$string_output_adapter@_W@__crt_stdio_output@@@2@@__crt_stdio_output@@CADH_N@Z 10025a9e f i libucrt:output.obj
 0001:00024ac3       ?adjust_hexit@?$output_processor@_WV?$string_output_adapter@_W@__crt_stdio_output@@V?$positional_parameter_base@_WV?$string_output_adapter@_W@__crt_stdio_output@@@2@@__crt_stdio_output@@CADH_N@Z 10025ac3 f i libucrt:output.obj
 0001:00024ae8       ?adjust_hexit@?$output_processor@_WV?$string_output_adapter@_W@__crt_stdio_output@@V?$standard_base@_WV?$string_output_adapter@_W@__crt_stdio_output@@@2@@__crt_stdio_output@@CADH_N@Z 10025ae8 f i libucrt:output.obj
 0001:00024b0d       ?advance_to_next_pass@?$positional_parameter_base@DV?$stream_output_adapter@D@__crt_stdio_output@@@__crt_stdio_output@@IAE_NXZ 10025b0d f i libucrt:output.obj
 0001:00024b6c       ?advance_to_next_pass@?$positional_parameter_base@DV?$string_output_adapter@D@__crt_stdio_output@@@__crt_stdio_output@@IAE_NXZ 10025b6c f i libucrt:output.obj
 0001:00024bcb       ?advance_to_next_pass@?$positional_parameter_base@_WV?$stream_output_adapter@_W@__crt_stdio_output@@@__crt_stdio_output@@IAE_NXZ 10025bcb f i libucrt:output.obj
 0001:00024c2a       ?advance_to_next_pass@?$positional_parameter_base@_WV?$string_output_adapter@_W@__crt_stdio_output@@@__crt_stdio_output@@IAE_NXZ 10025c2a f i libucrt:output.obj
 0001:00024c89       ?advance_to_next_pass@?$standard_base@DV?$stream_output_adapter@D@__crt_stdio_output@@@__crt_stdio_output@@IAE_NXZ 10025c89 f i libucrt:output.obj
 0001:00024ca0       ?advance_to_next_pass@?$standard_base@DV?$string_output_adapter@D@__crt_stdio_output@@@__crt_stdio_output@@IAE_NXZ 10025ca0 f i libucrt:output.obj
 0001:00024cb7       ?advance_to_next_pass@?$standard_base@_WV?$stream_output_adapter@_W@__crt_stdio_output@@@__crt_stdio_output@@IAE_NXZ 10025cb7 f i libucrt:output.obj
 0001:00024cce       ?advance_to_next_pass@?$standard_base@_WV?$string_output_adapter@_W@__crt_stdio_output@@@__crt_stdio_output@@IAE_NXZ 10025cce f i libucrt:output.obj
 0001:00024ce5       ?crop_zeroes@__crt_stdio_output@@YAXPADQAU__crt_locale_pointers@@@Z 10025ce5 f i libucrt:output.obj
 0001:00024d51       ?find_next_state@?$output_processor@DV?$stream_output_adapter@D@__crt_stdio_output@@V?$format_validation_base@DV?$stream_output_adapter@D@__crt_stdio_output@@@2@@__crt_stdio_output@@ABE?AW4state@2@DW432@@Z 10025d51 f i libucrt:output.obj
 0001:00024d93       ?find_next_state@?$output_processor@DV?$stream_output_adapter@D@__crt_stdio_output@@V?$positional_parameter_base@DV?$stream_output_adapter@D@__crt_stdio_output@@@2@@__crt_stdio_output@@ABE?AW4state@2@DW432@@Z 10025d93 f i libucrt:output.obj
 0001:00024dd5       ?find_next_state@?$output_processor@DV?$stream_output_adapter@D@__crt_stdio_output@@V?$standard_base@DV?$stream_output_adapter@D@__crt_stdio_output@@@2@@__crt_stdio_output@@ABE?AW4state@2@DW432@@Z 10025dd5 f i libucrt:output.obj
 0001:00024e13       ?find_next_state@?$output_processor@DV?$string_output_adapter@D@__crt_stdio_output@@V?$format_validation_base@DV?$string_output_adapter@D@__crt_stdio_output@@@2@@__crt_stdio_output@@ABE?AW4state@2@DW432@@Z 10025e13 f i libucrt:output.obj
 0001:00024e55       ?find_next_state@?$output_processor@DV?$string_output_adapter@D@__crt_stdio_output@@V?$positional_parameter_base@DV?$string_output_adapter@D@__crt_stdio_output@@@2@@__crt_stdio_output@@ABE?AW4state@2@DW432@@Z 10025e55 f i libucrt:output.obj
 0001:00024e97       ?find_next_state@?$output_processor@DV?$string_output_adapter@D@__crt_stdio_output@@V?$standard_base@DV?$string_output_adapter@D@__crt_stdio_output@@@2@@__crt_stdio_output@@ABE?AW4state@2@DW432@@Z 10025e97 f i libucrt:output.obj
 0001:00024ed5       ?find_next_state@?$output_processor@_WV?$stream_output_adapter@_W@__crt_stdio_output@@V?$format_validation_base@_WV?$stream_output_adapter@_W@__crt_stdio_output@@@2@@__crt_stdio_output@@ABE?AW4state@2@_WW432@@Z 10025ed5 f i libucrt:output.obj
 0001:00024f19       ?find_next_state@?$output_processor@_WV?$stream_output_adapter@_W@__crt_stdio_output@@V?$positional_parameter_base@_WV?$stream_output_adapter@_W@__crt_stdio_output@@@2@@__crt_stdio_output@@ABE?AW4state@2@_WW432@@Z 10025f19 f i libucrt:output.obj
 0001:00024f5d       ?find_next_state@?$output_processor@_WV?$stream_output_adapter@_W@__crt_stdio_output@@V?$standard_base@_WV?$stream_output_adapter@_W@__crt_stdio_output@@@2@@__crt_stdio_output@@ABE?AW4state@2@_WW432@@Z 10025f5d f i libucrt:output.obj
 0001:00024f9e       ?find_next_state@?$output_processor@_WV?$string_output_adapter@_W@__crt_stdio_output@@V?$format_validation_base@_WV?$string_output_adapter@_W@__crt_stdio_output@@@2@@__crt_stdio_output@@ABE?AW4state@2@_WW432@@Z 10025f9e f i libucrt:output.obj
 0001:00024fe2       ?find_next_state@?$output_processor@_WV?$string_output_adapter@_W@__crt_stdio_output@@V?$positional_parameter_base@_WV?$string_output_adapter@_W@__crt_stdio_output@@@2@@__crt_stdio_output@@ABE?AW4state@2@_WW432@@Z 10025fe2 f i libucrt:output.obj
 0001:00025026       ?find_next_state@?$output_processor@_WV?$string_output_adapter@_W@__crt_stdio_output@@V?$standard_base@_WV?$string_output_adapter@_W@__crt_stdio_output@@@2@@__crt_stdio_output@@ABE?AW4state@2@_WW432@@Z 10026026 f i libucrt:output.obj
 0001:00025067       ?force_decimal_point@__crt_stdio_output@@YAXPADQAU__crt_locale_pointers@@@Z 10026067 f i libucrt:output.obj
 0001:000250da       ?get_flags@__crt_stdio_stream@@QBEJXZ 100260da f i libucrt:output.obj
 0001:000250e0       ?get_parameter_type@?$positional_parameter_base@DV?$stream_output_adapter@D@__crt_stdio_output@@@__crt_stdio_output@@CA?AW4parameter_type@12@F@Z 100260e0 f i libucrt:output.obj
 0001:000250e4       ?get_parameter_type@?$positional_parameter_base@DV?$stream_output_adapter@D@__crt_stdio_output@@@__crt_stdio_output@@CA?AW4parameter_type@12@G@Z 100260e4 f i libucrt:output.obj
 0001:000250e8       ?get_parameter_type@?$positional_parameter_base@DV?$stream_output_adapter@D@__crt_stdio_output@@@__crt_stdio_output@@CA?AW4parameter_type@12@H@Z 100260e8 f i libucrt:output.obj
 0001:000250ec       ?get_parameter_type@?$positional_parameter_base@DV?$stream_output_adapter@D@__crt_stdio_output@@@__crt_stdio_output@@CA?AW4parameter_type@12@I@Z 100260ec f i libucrt:output.obj
 0001:000250f0       ?get_parameter_type@?$positional_parameter_base@DV?$stream_output_adapter@D@__crt_stdio_output@@@__crt_stdio_output@@CA?AW4parameter_type@12@U_CRT_DOUBLE@@@Z 100260f0 f i libucrt:output.obj
 0001:000250f4       ?get_parameter_type@?$positional_parameter_base@DV?$stream_output_adapter@D@__crt_stdio_output@@@__crt_stdio_output@@CA?AW4parameter_type@12@_J@Z 100260f4 f i libucrt:output.obj
 0001:000250f8       ?get_parameter_type@?$positional_parameter_base@DV?$stream_output_adapter@D@__crt_stdio_output@@@__crt_stdio_output@@CA?AW4parameter_type@12@_K@Z 100260f8 f i libucrt:output.obj
 0001:000250fc       ?get_parameter_type@?$positional_parameter_base@DV?$stream_output_adapter@D@__crt_stdio_output@@@__crt_stdio_output@@CA?AW4parameter_type@12@_W@Z 100260fc f i libucrt:output.obj
 0001:00025100       ?get_parameter_type@?$positional_parameter_base@DV?$string_output_adapter@D@__crt_stdio_output@@@__crt_stdio_output@@CA?AW4parameter_type@12@F@Z 10026100 f i libucrt:output.obj
 0001:00025104       ?get_parameter_type@?$positional_parameter_base@DV?$string_output_adapter@D@__crt_stdio_output@@@__crt_stdio_output@@CA?AW4parameter_type@12@G@Z 10026104 f i libucrt:output.obj
 0001:00025108       ?get_parameter_type@?$positional_parameter_base@DV?$string_output_adapter@D@__crt_stdio_output@@@__crt_stdio_output@@CA?AW4parameter_type@12@H@Z 10026108 f i libucrt:output.obj
 0001:0002510c       ?get_parameter_type@?$positional_parameter_base@DV?$string_output_adapter@D@__crt_stdio_output@@@__crt_stdio_output@@CA?AW4parameter_type@12@I@Z 1002610c f i libucrt:output.obj
 0001:00025110       ?get_parameter_type@?$positional_parameter_base@DV?$string_output_adapter@D@__crt_stdio_output@@@__crt_stdio_output@@CA?AW4parameter_type@12@U_CRT_DOUBLE@@@Z 10026110 f i libucrt:output.obj
 0001:00025114       ?get_parameter_type@?$positional_parameter_base@DV?$string_output_adapter@D@__crt_stdio_output@@@__crt_stdio_output@@CA?AW4parameter_type@12@_J@Z 10026114 f i libucrt:output.obj
 0001:00025118       ?get_parameter_type@?$positional_parameter_base@DV?$string_output_adapter@D@__crt_stdio_output@@@__crt_stdio_output@@CA?AW4parameter_type@12@_K@Z 10026118 f i libucrt:output.obj
 0001:0002511c       ?get_parameter_type@?$positional_parameter_base@DV?$string_output_adapter@D@__crt_stdio_output@@@__crt_stdio_output@@CA?AW4parameter_type@12@_W@Z 1002611c f i libucrt:output.obj
 0001:00025120       ?get_parameter_type@?$positional_parameter_base@_WV?$stream_output_adapter@_W@__crt_stdio_output@@@__crt_stdio_output@@CA?AW4parameter_type@12@F@Z 10026120 f i libucrt:output.obj
 0001:00025124       ?get_parameter_type@?$positional_parameter_base@_WV?$stream_output_adapter@_W@__crt_stdio_output@@@__crt_stdio_output@@CA?AW4parameter_type@12@G@Z 10026124 f i libucrt:output.obj
 0001:00025128       ?get_parameter_type@?$positional_parameter_base@_WV?$stream_output_adapter@_W@__crt_stdio_output@@@__crt_stdio_output@@CA?AW4parameter_type@12@H@Z 10026128 f i libucrt:output.obj
 0001:0002512c       ?get_parameter_type@?$positional_parameter_base@_WV?$stream_output_adapter@_W@__crt_stdio_output@@@__crt_stdio_output@@CA?AW4parameter_type@12@I@Z 1002612c f i libucrt:output.obj
 0001:00025130       ?get_parameter_type@?$positional_parameter_base@_WV?$stream_output_adapter@_W@__crt_stdio_output@@@__crt_stdio_output@@CA?AW4parameter_type@12@U_CRT_DOUBLE@@@Z 10026130 f i libucrt:output.obj
 0001:00025134       ?get_parameter_type@?$positional_parameter_base@_WV?$stream_output_adapter@_W@__crt_stdio_output@@@__crt_stdio_output@@CA?AW4parameter_type@12@_J@Z 10026134 f i libucrt:output.obj
 0001:00025138       ?get_parameter_type@?$positional_parameter_base@_WV?$stream_output_adapter@_W@__crt_stdio_output@@@__crt_stdio_output@@CA?AW4parameter_type@12@_K@Z 10026138 f i libucrt:output.obj
 0001:0002513c       ?get_parameter_type@?$positional_parameter_base@_WV?$stream_output_adapter@_W@__crt_stdio_output@@@__crt_stdio_output@@CA?AW4parameter_type@12@_W@Z 1002613c f i libucrt:output.obj
 0001:00025140       ?get_parameter_type@?$positional_parameter_base@_WV?$string_output_adapter@_W@__crt_stdio_output@@@__crt_stdio_output@@CA?AW4parameter_type@12@F@Z 10026140 f i libucrt:output.obj
 0001:00025144       ?get_parameter_type@?$positional_parameter_base@_WV?$string_output_adapter@_W@__crt_stdio_output@@@__crt_stdio_output@@CA?AW4parameter_type@12@G@Z 10026144 f i libucrt:output.obj
 0001:00025148       ?get_parameter_type@?$positional_parameter_base@_WV?$string_output_adapter@_W@__crt_stdio_output@@@__crt_stdio_output@@CA?AW4parameter_type@12@H@Z 10026148 f i libucrt:output.obj
 0001:0002514c       ?get_parameter_type@?$positional_parameter_base@_WV?$string_output_adapter@_W@__crt_stdio_output@@@__crt_stdio_output@@CA?AW4parameter_type@12@I@Z 1002614c f i libucrt:output.obj
 0001:00025150       ?get_parameter_type@?$positional_parameter_base@_WV?$string_output_adapter@_W@__crt_stdio_output@@@__crt_stdio_output@@CA?AW4parameter_type@12@U_CRT_DOUBLE@@@Z 10026150 f i libucrt:output.obj
 0001:00025154       ?get_parameter_type@?$positional_parameter_base@_WV?$string_output_adapter@_W@__crt_stdio_output@@@__crt_stdio_output@@CA?AW4parameter_type@12@_J@Z 10026154 f i libucrt:output.obj
 0001:00025158       ?get_parameter_type@?$positional_parameter_base@_WV?$string_output_adapter@_W@__crt_stdio_output@@@__crt_stdio_output@@CA?AW4parameter_type@12@_K@Z 10026158 f i libucrt:output.obj
 0001:0002515c       ?get_parameter_type@?$positional_parameter_base@_WV?$string_output_adapter@_W@__crt_stdio_output@@@__crt_stdio_output@@CA?AW4parameter_type@12@_W@Z 1002615c f i libucrt:output.obj
 0001:00025160       ?has_flag@?$output_processor@DV?$stream_output_adapter@D@__crt_stdio_output@@V?$format_validation_base@DV?$stream_output_adapter@D@__crt_stdio_output@@@2@@__crt_stdio_output@@ABE_NI@Z 10026160 f i libucrt:output.obj
 0001:0002517a       ?has_flag@?$output_processor@DV?$stream_output_adapter@D@__crt_stdio_output@@V?$positional_parameter_base@DV?$stream_output_adapter@D@__crt_stdio_output@@@2@@__crt_stdio_output@@ABE_NI@Z 1002617a f i libucrt:output.obj
 0001:00025194       ?has_flag@?$output_processor@DV?$stream_output_adapter@D@__crt_stdio_output@@V?$standard_base@DV?$stream_output_adapter@D@__crt_stdio_output@@@2@@__crt_stdio_output@@ABE_NI@Z 10026194 f i libucrt:output.obj
 0001:000251ae       ?has_flag@?$output_processor@DV?$string_output_adapter@D@__crt_stdio_output@@V?$format_validation_base@DV?$string_output_adapter@D@__crt_stdio_output@@@2@@__crt_stdio_output@@ABE_NI@Z 100261ae f i libucrt:output.obj
 0001:000251c8       ?has_flag@?$output_processor@DV?$string_output_adapter@D@__crt_stdio_output@@V?$positional_parameter_base@DV?$string_output_adapter@D@__crt_stdio_output@@@2@@__crt_stdio_output@@ABE_NI@Z 100261c8 f i libucrt:output.obj
 0001:000251e2       ?has_flag@?$output_processor@DV?$string_output_adapter@D@__crt_stdio_output@@V?$standard_base@DV?$string_output_adapter@D@__crt_stdio_output@@@2@@__crt_stdio_output@@ABE_NI@Z 100261e2 f i libucrt:output.obj
 0001:000251fc       ?has_flag@?$output_processor@_WV?$stream_output_adapter@_W@__crt_stdio_output@@V?$format_validation_base@_WV?$stream_output_adapter@_W@__crt_stdio_output@@@2@@__crt_stdio_output@@ABE_NI@Z 100261fc f i libucrt:output.obj
 0001:00025216       ?has_flag@?$output_processor@_WV?$stream_output_adapter@_W@__crt_stdio_output@@V?$positional_parameter_base@_WV?$stream_output_adapter@_W@__crt_stdio_output@@@2@@__crt_stdio_output@@ABE_NI@Z 10026216 f i libucrt:output.obj
 0001:00025230       ?has_flag@?$output_processor@_WV?$stream_output_adapter@_W@__crt_stdio_output@@V?$standard_base@_WV?$stream_output_adapter@_W@__crt_stdio_output@@@2@@__crt_stdio_output@@ABE_NI@Z 10026230 f i libucrt:output.obj
 0001:0002524a       ?has_flag@?$output_processor@_WV?$string_output_adapter@_W@__crt_stdio_output@@V?$format_validation_base@_WV?$string_output_adapter@_W@__crt_stdio_output@@@2@@__crt_stdio_output@@ABE_NI@Z 1002624a f i libucrt:output.obj
 0001:00025264       ?has_flag@?$output_processor@_WV?$string_output_adapter@_W@__crt_stdio_output@@V?$positional_parameter_base@_WV?$string_output_adapter@_W@__crt_stdio_output@@@2@@__crt_stdio_output@@ABE_NI@Z 10026264 f i libucrt:output.obj
 0001:0002527e       ?has_flag@?$output_processor@_WV?$string_output_adapter@_W@__crt_stdio_output@@V?$standard_base@_WV?$string_output_adapter@_W@__crt_stdio_output@@@2@@__crt_stdio_output@@ABE_NI@Z 1002627e f i libucrt:output.obj
 0001:00025298       ?is_positional_parameter_reappearance_consistent@?$positional_parameter_base@DV?$stream_output_adapter@D@__crt_stdio_output@@@__crt_stdio_output@@AAE_NABUparameter_data@12@W4parameter_type@12@DW4length_modifier@2@@Z 10026298 f i libucrt:output.obj
 0001:00025411       ?is_positional_parameter_reappearance_consistent@?$positional_parameter_base@DV?$string_output_adapter@D@__crt_stdio_output@@@__crt_stdio_output@@AAE_NABUparameter_data@12@W4parameter_type@12@DW4length_modifier@2@@Z 10026411 f i libucrt:output.obj
 0001:0002558a       ?is_positional_parameter_reappearance_consistent@?$positional_parameter_base@_WV?$stream_output_adapter@_W@__crt_stdio_output@@@__crt_stdio_output@@AAE_NABUparameter_data@12@W4parameter_type@12@_WW4length_modifier@2@@Z 1002658a f i libucrt:output.obj
 0001:000256f5       ?is_positional_parameter_reappearance_consistent@?$positional_parameter_base@_WV?$string_output_adapter@_W@__crt_stdio_output@@@__crt_stdio_output@@AAE_NABUparameter_data@12@W4parameter_type@12@_WW4length_modifier@2@@Z 100266f5 f i libucrt:output.obj
 0001:00025860       ?is_string_backed@__crt_stdio_stream@@QBE_NXZ 10026860 f i libucrt:output.obj
 0001:0002586f       ?narrow_null_string@?$output_processor@DV?$stream_output_adapter@D@__crt_stdio_output@@V?$format_validation_base@DV?$stream_output_adapter@D@__crt_stdio_output@@@2@@__crt_stdio_output@@CAPADXZ 1002686f f i libucrt:output.obj
 0001:00025875       ?narrow_null_string@?$output_processor@DV?$stream_output_adapter@D@__crt_stdio_output@@V?$positional_parameter_base@DV?$stream_output_adapter@D@__crt_stdio_output@@@2@@__crt_stdio_output@@CAPADXZ 10026875 f i libucrt:output.obj
 0001:0002587b       ?narrow_null_string@?$output_processor@DV?$stream_output_adapter@D@__crt_stdio_output@@V?$standard_base@DV?$stream_output_adapter@D@__crt_stdio_output@@@2@@__crt_stdio_output@@CAPADXZ 1002687b f i libucrt:output.obj
 0001:00025881       ?narrow_null_string@?$output_processor@DV?$string_output_adapter@D@__crt_stdio_output@@V?$format_validation_base@DV?$string_output_adapter@D@__crt_stdio_output@@@2@@__crt_stdio_output@@CAPADXZ 10026881 f i libucrt:output.obj
 0001:00025887       ?narrow_null_string@?$output_processor@DV?$string_output_adapter@D@__crt_stdio_output@@V?$positional_parameter_base@DV?$string_output_adapter@D@__crt_stdio_output@@@2@@__crt_stdio_output@@CAPADXZ 10026887 f i libucrt:output.obj
 0001:0002588d       ?narrow_null_string@?$output_processor@DV?$string_output_adapter@D@__crt_stdio_output@@V?$standard_base@DV?$string_output_adapter@D@__crt_stdio_output@@@2@@__crt_stdio_output@@CAPADXZ 1002688d f i libucrt:output.obj
 0001:00025893       ?narrow_null_string@?$output_processor@_WV?$stream_output_adapter@_W@__crt_stdio_output@@V?$format_validation_base@_WV?$stream_output_adapter@_W@__crt_stdio_output@@@2@@__crt_stdio_output@@CAPADXZ 10026893 f i libucrt:output.obj
 0001:00025899       ?narrow_null_string@?$output_processor@_WV?$stream_output_adapter@_W@__crt_stdio_output@@V?$positional_parameter_base@_WV?$stream_output_adapter@_W@__crt_stdio_output@@@2@@__crt_stdio_output@@CAPADXZ 10026899 f i libucrt:output.obj
 0001:0002589f       ?narrow_null_string@?$output_processor@_WV?$stream_output_adapter@_W@__crt_stdio_output@@V?$standard_base@_WV?$stream_output_adapter@_W@__crt_stdio_output@@@2@@__crt_stdio_output@@CAPADXZ 1002689f f i libucrt:output.obj
 0001:000258a5       ?narrow_null_string@?$output_processor@_WV?$string_output_adapter@_W@__crt_stdio_output@@V?$format_validation_base@_WV?$string_output_adapter@_W@__crt_stdio_output@@@2@@__crt_stdio_output@@CAPADXZ 100268a5 f i libucrt:output.obj
 0001:000258ab       ?narrow_null_string@?$output_processor@_WV?$string_output_adapter@_W@__crt_stdio_output@@V?$positional_parameter_base@_WV?$string_output_adapter@_W@__crt_stdio_output@@@2@@__crt_stdio_output@@CAPADXZ 100268ab f i libucrt:output.obj
 0001:000258b1       ?narrow_null_string@?$output_processor@_WV?$string_output_adapter@_W@__crt_stdio_output@@V?$standard_base@_WV?$string_output_adapter@_W@__crt_stdio_output@@@2@@__crt_stdio_output@@CAPADXZ 100268b1 f i libucrt:output.obj
 0001:000258b7       ?parse_int_from_format_string@?$output_processor@DV?$stream_output_adapter@D@__crt_stdio_output@@V?$format_validation_base@DV?$stream_output_adapter@D@__crt_stdio_output@@@2@@__crt_stdio_output@@AAE_NQAH@Z 100268b7 f i libucrt:output.obj
 0001:0002592a       ?parse_int_from_format_string@?$output_processor@DV?$stream_output_adapter@D@__crt_stdio_output@@V?$positional_parameter_base@DV?$stream_output_adapter@D@__crt_stdio_output@@@2@@__crt_stdio_output@@AAE_NQAH@Z 1002692a f i libucrt:output.obj
 0001:0002599d       ?parse_int_from_format_string@?$output_processor@DV?$stream_output_adapter@D@__crt_stdio_output@@V?$standard_base@DV?$stream_output_adapter@D@__crt_stdio_output@@@2@@__crt_stdio_output@@AAE_NQAH@Z 1002699d f i libucrt:output.obj
 0001:00025a10       ?parse_int_from_format_string@?$output_processor@DV?$string_output_adapter@D@__crt_stdio_output@@V?$format_validation_base@DV?$string_output_adapter@D@__crt_stdio_output@@@2@@__crt_stdio_output@@AAE_NQAH@Z 10026a10 f i libucrt:output.obj
 0001:00025a83       ?parse_int_from_format_string@?$output_processor@DV?$string_output_adapter@D@__crt_stdio_output@@V?$positional_parameter_base@DV?$string_output_adapter@D@__crt_stdio_output@@@2@@__crt_stdio_output@@AAE_NQAH@Z 10026a83 f i libucrt:output.obj
 0001:00025af6       ?parse_int_from_format_string@?$output_processor@DV?$string_output_adapter@D@__crt_stdio_output@@V?$standard_base@DV?$string_output_adapter@D@__crt_stdio_output@@@2@@__crt_stdio_output@@AAE_NQAH@Z 10026af6 f i libucrt:output.obj
 0001:00025b69       ?parse_int_from_format_string@?$output_processor@_WV?$stream_output_adapter@_W@__crt_stdio_output@@V?$format_validation_base@_WV?$stream_output_adapter@_W@__crt_stdio_output@@@2@@__crt_stdio_output@@AAE_NQAH@Z 10026b69 f i libucrt:output.obj
 0001:00025bde       ?parse_int_from_format_string@?$output_processor@_WV?$stream_output_adapter@_W@__crt_stdio_output@@V?$positional_parameter_base@_WV?$stream_output_adapter@_W@__crt_stdio_output@@@2@@__crt_stdio_output@@AAE_NQAH@Z 10026bde f i libucrt:output.obj
 0001:00025c53       ?parse_int_from_format_string@?$output_processor@_WV?$stream_output_adapter@_W@__crt_stdio_output@@V?$standard_base@_WV?$stream_output_adapter@_W@__crt_stdio_output@@@2@@__crt_stdio_output@@AAE_NQAH@Z 10026c53 f i libucrt:output.obj
 0001:00025cc8       ?parse_int_from_format_string@?$output_processor@_WV?$string_output_adapter@_W@__crt_stdio_output@@V?$format_validation_base@_WV?$string_output_adapter@_W@__crt_stdio_output@@@2@@__crt_stdio_output@@AAE_NQAH@Z 10026cc8 f i libucrt:output.obj
 0001:00025d3d       ?parse_int_from_format_string@?$output_processor@_WV?$string_output_adapter@_W@__crt_stdio_output@@V?$positional_parameter_base@_WV?$string_output_adapter@_W@__crt_stdio_output@@@2@@__crt_stdio_output@@AAE_NQAH@Z 10026d3d f i libucrt:output.obj
 0001:00025db2       ?parse_int_from_format_string@?$output_processor@_WV?$string_output_adapter@_W@__crt_stdio_output@@V?$standard_base@_WV?$string_output_adapter@_W@__crt_stdio_output@@@2@@__crt_stdio_output@@AAE_NQAH@Z 10026db2 f i libucrt:output.obj
 0001:00025e27       ?process@?$output_processor@DV?$stream_output_adapter@D@__crt_stdio_output@@V?$format_validation_base@DV?$stream_output_adapter@D@__crt_stdio_output@@@2@@__crt_stdio_output@@QAEHXZ 10026e27 f i libucrt:output.obj
 0001:00025f99       ?process@?$output_processor@DV?$stream_output_adapter@D@__crt_stdio_output@@V?$positional_parameter_base@DV?$stream_output_adapter@D@__crt_stdio_output@@@2@@__crt_stdio_output@@QAEHXZ 10026f99 f i libucrt:output.obj
 0001:0002614c       ?process@?$output_processor@DV?$stream_output_adapter@D@__crt_stdio_output@@V?$standard_base@DV?$stream_output_adapter@D@__crt_stdio_output@@@2@@__crt_stdio_output@@QAEHXZ 1002714c f i libucrt:output.obj
 0001:000262af       ?process@?$output_processor@DV?$string_output_adapter@D@__crt_stdio_output@@V?$format_validation_base@DV?$string_output_adapter@D@__crt_stdio_output@@@2@@__crt_stdio_output@@QAEHXZ 100272af f i libucrt:output.obj
 0001:00026421       ?process@?$output_processor@DV?$string_output_adapter@D@__crt_stdio_output@@V?$positional_parameter_base@DV?$string_output_adapter@D@__crt_stdio_output@@@2@@__crt_stdio_output@@QAEHXZ 10027421 f i libucrt:output.obj
 0001:000265d4       ?process@?$output_processor@DV?$string_output_adapter@D@__crt_stdio_output@@V?$standard_base@DV?$string_output_adapter@D@__crt_stdio_output@@@2@@__crt_stdio_output@@QAEHXZ 100275d4 f i libucrt:output.obj
 0001:00026737       ?process@?$output_processor@_WV?$stream_output_adapter@_W@__crt_stdio_output@@V?$format_validation_base@_WV?$stream_output_adapter@_W@__crt_stdio_output@@@2@@__crt_stdio_output@@QAEHXZ 10027737 f i libucrt:output.obj
 0001:000268b3       ?process@?$output_processor@_WV?$stream_output_adapter@_W@__crt_stdio_output@@V?$positional_parameter_base@_WV?$stream_output_adapter@_W@__crt_stdio_output@@@2@@__crt_stdio_output@@QAEHXZ 100278b3 f i libucrt:output.obj
 0001:00026a6b       ?process@?$output_processor@_WV?$stream_output_adapter@_W@__crt_stdio_output@@V?$standard_base@_WV?$stream_output_adapter@_W@__crt_stdio_output@@@2@@__crt_stdio_output@@QAEHXZ 10027a6b f i libucrt:output.obj
 0001:00026bd3       ?process@?$output_processor@_WV?$string_output_adapter@_W@__crt_stdio_output@@V?$format_validation_base@_WV?$string_output_adapter@_W@__crt_stdio_output@@@2@@__crt_stdio_output@@QAEHXZ 10027bd3 f i libucrt:output.obj
 0001:00026d4f       ?process@?$output_processor@_WV?$string_output_adapter@_W@__crt_stdio_output@@V?$positional_parameter_base@_WV?$string_output_adapter@_W@__crt_stdio_output@@@2@@__crt_stdio_output@@QAEHXZ 10027d4f f i libucrt:output.obj
 0001:00026f07       ?process@?$output_processor@_WV?$string_output_adapter@_W@__crt_stdio_output@@V?$standard_base@_WV?$string_output_adapter@_W@__crt_stdio_output@@@2@@__crt_stdio_output@@QAEHXZ 10027f07 f i libucrt:output.obj
 0001:0002706f       ?public_stream@__crt_stdio_stream@@QBEPAU_iobuf@@XZ 1002806f f i libucrt:output.obj
 0001:00027072       ?set_flag@?$output_processor@DV?$stream_output_adapter@D@__crt_stdio_output@@V?$format_validation_base@DV?$stream_output_adapter@D@__crt_stdio_output@@@2@@__crt_stdio_output@@AAEXI@Z 10028072 f i libucrt:output.obj
 0001:00027084       ?set_flag@?$output_processor@DV?$stream_output_adapter@D@__crt_stdio_output@@V?$positional_parameter_base@DV?$stream_output_adapter@D@__crt_stdio_output@@@2@@__crt_stdio_output@@AAEXI@Z 10028084 f i libucrt:output.obj
 0001:00027096       ?set_flag@?$output_processor@DV?$stream_output_adapter@D@__crt_stdio_output@@V?$standard_base@DV?$stream_output_adapter@D@__crt_stdio_output@@@2@@__crt_stdio_output@@AAEXI@Z 10028096 f i libucrt:output.obj
 0001:000270a8       ?set_flag@?$output_processor@DV?$string_output_adapter@D@__crt_stdio_output@@V?$format_validation_base@DV?$string_output_adapter@D@__crt_stdio_output@@@2@@__crt_stdio_output@@AAEXI@Z 100280a8 f i libucrt:output.obj
 0001:000270ba       ?set_flag@?$output_processor@DV?$string_output_adapter@D@__crt_stdio_output@@V?$positional_parameter_base@DV?$string_output_adapter@D@__crt_stdio_output@@@2@@__crt_stdio_output@@AAEXI@Z 100280ba f i libucrt:output.obj
 0001:000270cc       ?set_flag@?$output_processor@DV?$string_output_adapter@D@__crt_stdio_output@@V?$standard_base@DV?$string_output_adapter@D@__crt_stdio_output@@@2@@__crt_stdio_output@@AAEXI@Z 100280cc f i libucrt:output.obj
 0001:000270de       ?set_flag@?$output_processor@_WV?$stream_output_adapter@_W@__crt_stdio_output@@V?$format_validation_base@_WV?$stream_output_adapter@_W@__crt_stdio_output@@@2@@__crt_stdio_output@@AAEXI@Z 100280de f i libucrt:output.obj
 0001:000270f0       ?set_flag@?$output_processor@_WV?$stream_output_adapter@_W@__crt_stdio_output@@V?$positional_parameter_base@_WV?$stream_output_adapter@_W@__crt_stdio_output@@@2@@__crt_stdio_output@@AAEXI@Z 100280f0 f i libucrt:output.obj
 0001:00027102       ?set_flag@?$output_processor@_WV?$stream_output_adapter@_W@__crt_stdio_output@@V?$standard_base@_WV?$stream_output_adapter@_W@__crt_stdio_output@@@2@@__crt_stdio_output@@AAEXI@Z 10028102 f i libucrt:output.obj
 0001:00027114       ?set_flag@?$output_processor@_WV?$string_output_adapter@_W@__crt_stdio_output@@V?$format_validation_base@_WV?$string_output_adapter@_W@__crt_stdio_output@@@2@@__crt_stdio_output@@AAEXI@Z 10028114 f i libucrt:output.obj
 0001:00027126       ?set_flag@?$output_processor@_WV?$string_output_adapter@_W@__crt_stdio_output@@V?$positional_parameter_base@_WV?$string_output_adapter@_W@__crt_stdio_output@@@2@@__crt_stdio_output@@AAEXI@Z 10028126 f i libucrt:output.obj
 0001:00027138       ?set_flag@?$output_processor@_WV?$string_output_adapter@_W@__crt_stdio_output@@V?$standard_base@_WV?$string_output_adapter@_W@__crt_stdio_output@@@2@@__crt_stdio_output@@AAEXI@Z 10028138 f i libucrt:output.obj
 0001:0002714a       ?should_format@?$positional_parameter_base@DV?$stream_output_adapter@D@__crt_stdio_output@@@__crt_stdio_output@@IAE_NXZ 1002814a f i libucrt:output.obj
 0001:00027165       ?should_format@?$positional_parameter_base@DV?$string_output_adapter@D@__crt_stdio_output@@@__crt_stdio_output@@IAE_NXZ 10028165 f i libucrt:output.obj
 0001:00027180       ?should_format@?$positional_parameter_base@_WV?$stream_output_adapter@_W@__crt_stdio_output@@@__crt_stdio_output@@IAE_NXZ 10028180 f i libucrt:output.obj
 0001:0002719b       ?should_format@?$positional_parameter_base@_WV?$string_output_adapter@_W@__crt_stdio_output@@@__crt_stdio_output@@IAE_NXZ 1002819b f i libucrt:output.obj
 0001:000271b6       ?should_format@?$standard_base@DV?$stream_output_adapter@D@__crt_stdio_output@@@__crt_stdio_output@@IAE_NXZ 100281b6 f i libucrt:output.obj
 0001:000271b9       ?should_format@?$standard_base@DV?$string_output_adapter@D@__crt_stdio_output@@@__crt_stdio_output@@IAE_NXZ 100281b9 f i libucrt:output.obj
 0001:000271bc       ?should_format@?$standard_base@_WV?$stream_output_adapter@_W@__crt_stdio_output@@@__crt_stdio_output@@IAE_NXZ 100281bc f i libucrt:output.obj
 0001:000271bf       ?should_format@?$standard_base@_WV?$string_output_adapter@_W@__crt_stdio_output@@@__crt_stdio_output@@IAE_NXZ 100281bf f i libucrt:output.obj
 0001:000271c2       ?should_skip_normal_state_processing@?$positional_parameter_base@DV?$stream_output_adapter@D@__crt_stdio_output@@@__crt_stdio_output@@IAE_NXZ 100281c2 f i libucrt:output.obj
 0001:000271f4       ?should_skip_normal_state_processing@?$positional_parameter_base@DV?$string_output_adapter@D@__crt_stdio_output@@@__crt_stdio_output@@IAE_NXZ 100281f4 f i libucrt:output.obj
 0001:00027226       ?should_skip_normal_state_processing@?$positional_parameter_base@_WV?$stream_output_adapter@_W@__crt_stdio_output@@@__crt_stdio_output@@IAE_NXZ 10028226 f i libucrt:output.obj
 0001:00027258       ?should_skip_normal_state_processing@?$positional_parameter_base@_WV?$string_output_adapter@_W@__crt_stdio_output@@@__crt_stdio_output@@IAE_NXZ 10028258 f i libucrt:output.obj
 0001:0002728a       ?should_skip_normal_state_processing@?$standard_base@DV?$stream_output_adapter@D@__crt_stdio_output@@@__crt_stdio_output@@IAE_NXZ 1002828a f i libucrt:output.obj
 0001:0002728d       ?should_skip_normal_state_processing@?$standard_base@DV?$string_output_adapter@D@__crt_stdio_output@@@__crt_stdio_output@@IAE_NXZ 1002828d f i libucrt:output.obj
 0001:00027290       ?should_skip_normal_state_processing@?$standard_base@_WV?$stream_output_adapter@_W@__crt_stdio_output@@@__crt_stdio_output@@IAE_NXZ 10028290 f i libucrt:output.obj
 0001:00027293       ?should_skip_normal_state_processing@?$standard_base@_WV?$string_output_adapter@_W@__crt_stdio_output@@@__crt_stdio_output@@IAE_NXZ 10028293 f i libucrt:output.obj
 0001:00027296       ?should_skip_type_state_output@?$positional_parameter_base@DV?$stream_output_adapter@D@__crt_stdio_output@@@__crt_stdio_output@@IBE_NXZ 10028296 f i libucrt:output.obj
 0001:000272b2       ?should_skip_type_state_output@?$positional_parameter_base@DV?$string_output_adapter@D@__crt_stdio_output@@@__crt_stdio_output@@IBE_NXZ 100282b2 f i libucrt:output.obj
 0001:000272ce       ?should_skip_type_state_output@?$positional_parameter_base@_WV?$stream_output_adapter@_W@__crt_stdio_output@@@__crt_stdio_output@@IBE_NXZ 100282ce f i libucrt:output.obj
 0001:000272ea       ?should_skip_type_state_output@?$positional_parameter_base@_WV?$string_output_adapter@_W@__crt_stdio_output@@@__crt_stdio_output@@IBE_NXZ 100282ea f i libucrt:output.obj
 0001:00027306       ?should_skip_type_state_output@?$standard_base@DV?$stream_output_adapter@D@__crt_stdio_output@@@__crt_stdio_output@@IBE_NXZ 10028306 f i libucrt:output.obj
 0001:00027309       ?should_skip_type_state_output@?$standard_base@DV?$string_output_adapter@D@__crt_stdio_output@@@__crt_stdio_output@@IBE_NXZ 10028309 f i libucrt:output.obj
 0001:0002730c       ?should_skip_type_state_output@?$standard_base@_WV?$stream_output_adapter@_W@__crt_stdio_output@@@__crt_stdio_output@@IBE_NXZ 1002830c f i libucrt:output.obj
 0001:0002730f       ?should_skip_type_state_output@?$standard_base@_WV?$string_output_adapter@_W@__crt_stdio_output@@@__crt_stdio_output@@IBE_NXZ 1002830f f i libucrt:output.obj
 0001:00027312       ?state_case_dot@?$output_processor@DV?$stream_output_adapter@D@__crt_stdio_output@@V?$format_validation_base@DV?$stream_output_adapter@D@__crt_stdio_output@@@2@@__crt_stdio_output@@AAE_NXZ 10028312 f i libucrt:output.obj
 0001:00027319       ?state_case_dot@?$output_processor@DV?$stream_output_adapter@D@__crt_stdio_output@@V?$positional_parameter_base@DV?$stream_output_adapter@D@__crt_stdio_output@@@2@@__crt_stdio_output@@AAE_NXZ 10028319 f i libucrt:output.obj
 0001:00027320       ?state_case_dot@?$output_processor@DV?$stream_output_adapter@D@__crt_stdio_output@@V?$standard_base@DV?$stream_output_adapter@D@__crt_stdio_output@@@2@@__crt_stdio_output@@AAE_NXZ 10028320 f i libucrt:output.obj
 0001:00027327       ?state_case_dot@?$output_processor@DV?$string_output_adapter@D@__crt_stdio_output@@V?$format_validation_base@DV?$string_output_adapter@D@__crt_stdio_output@@@2@@__crt_stdio_output@@AAE_NXZ 10028327 f i libucrt:output.obj
 0001:0002732e       ?state_case_dot@?$output_processor@DV?$string_output_adapter@D@__crt_stdio_output@@V?$positional_parameter_base@DV?$string_output_adapter@D@__crt_stdio_output@@@2@@__crt_stdio_output@@AAE_NXZ 1002832e f i libucrt:output.obj
 0001:00027335       ?state_case_dot@?$output_processor@DV?$string_output_adapter@D@__crt_stdio_output@@V?$standard_base@DV?$string_output_adapter@D@__crt_stdio_output@@@2@@__crt_stdio_output@@AAE_NXZ 10028335 f i libucrt:output.obj
 0001:0002733c       ?state_case_dot@?$output_processor@_WV?$stream_output_adapter@_W@__crt_stdio_output@@V?$format_validation_base@_WV?$stream_output_adapter@_W@__crt_stdio_output@@@2@@__crt_stdio_output@@AAE_NXZ 1002833c f i libucrt:output.obj
 0001:00027343       ?state_case_dot@?$output_processor@_WV?$stream_output_adapter@_W@__crt_stdio_output@@V?$positional_parameter_base@_WV?$stream_output_adapter@_W@__crt_stdio_output@@@2@@__crt_stdio_output@@AAE_NXZ 10028343 f i libucrt:output.obj
 0001:0002734a       ?state_case_dot@?$output_processor@_WV?$stream_output_adapter@_W@__crt_stdio_output@@V?$standard_base@_WV?$stream_output_adapter@_W@__crt_stdio_output@@@2@@__crt_stdio_output@@AAE_NXZ 1002834a f i libucrt:output.obj
 0001:00027351       ?state_case_dot@?$output_processor@_WV?$string_output_adapter@_W@__crt_stdio_output@@V?$format_validation_base@_WV?$string_output_adapter@_W@__crt_stdio_output@@@2@@__crt_stdio_output@@AAE_NXZ 10028351 f i libucrt:output.obj
 0001:00027358       ?state_case_dot@?$output_processor@_WV?$string_output_adapter@_W@__crt_stdio_output@@V?$positional_parameter_base@_WV?$string_output_adapter@_W@__crt_stdio_output@@@2@@__crt_stdio_output@@AAE_NXZ 10028358 f i libucrt:output.obj
 0001:0002735f       ?state_case_dot@?$output_processor@_WV?$string_output_adapter@_W@__crt_stdio_output@@V?$standard_base@_WV?$string_output_adapter@_W@__crt_stdio_output@@@2@@__crt_stdio_output@@AAE_NXZ 1002835f f i libucrt:output.obj
 0001:00027366       ?state_case_flag@?$output_processor@DV?$stream_output_adapter@D@__crt_stdio_output@@V?$format_validation_base@DV?$stream_output_adapter@D@__crt_stdio_output@@@2@@__crt_stdio_output@@AAE_NXZ 10028366 f i libucrt:output.obj
 0001:000273b2       ?state_case_flag@?$output_processor@DV?$stream_output_adapter@D@__crt_stdio_output@@V?$positional_parameter_base@DV?$stream_output_adapter@D@__crt_stdio_output@@@2@@__crt_stdio_output@@AAE_NXZ 100283b2 f i libucrt:output.obj
 0001:000273fe       ?state_case_flag@?$output_processor@DV?$stream_output_adapter@D@__crt_stdio_output@@V?$standard_base@DV?$stream_output_adapter@D@__crt_stdio_output@@@2@@__crt_stdio_output@@AAE_NXZ 100283fe f i libucrt:output.obj
 0001:0002744a       ?state_case_flag@?$output_processor@DV?$string_output_adapter@D@__crt_stdio_output@@V?$format_validation_base@DV?$string_output_adapter@D@__crt_stdio_output@@@2@@__crt_stdio_output@@AAE_NXZ 1002844a f i libucrt:output.obj
 0001:00027496       ?state_case_flag@?$output_processor@DV?$string_output_adapter@D@__crt_stdio_output@@V?$positional_parameter_base@DV?$string_output_adapter@D@__crt_stdio_output@@@2@@__crt_stdio_output@@AAE_NXZ 10028496 f i libucrt:output.obj
 0001:000274e2       ?state_case_flag@?$output_processor@DV?$string_output_adapter@D@__crt_stdio_output@@V?$standard_base@DV?$string_output_adapter@D@__crt_stdio_output@@@2@@__crt_stdio_output@@AAE_NXZ 100284e2 f i libucrt:output.obj
 0001:0002752e       ?state_case_flag@?$output_processor@_WV?$stream_output_adapter@_W@__crt_stdio_output@@V?$format_validation_base@_WV?$stream_output_adapter@_W@__crt_stdio_output@@@2@@__crt_stdio_output@@AAE_NXZ 1002852e f i libucrt:output.obj
 0001:0002757a       ?state_case_flag@?$output_processor@_WV?$stream_output_adapter@_W@__crt_stdio_output@@V?$positional_parameter_base@_WV?$stream_output_adapter@_W@__crt_stdio_output@@@2@@__crt_stdio_output@@AAE_NXZ 1002857a f i libucrt:output.obj
 0001:000275c6       ?state_case_flag@?$output_processor@_WV?$stream_output_adapter@_W@__crt_stdio_output@@V?$standard_base@_WV?$stream_output_adapter@_W@__crt_stdio_output@@@2@@__crt_stdio_output@@AAE_NXZ 100285c6 f i libucrt:output.obj
 0001:00027612       ?state_case_flag@?$output_processor@_WV?$string_output_adapter@_W@__crt_stdio_output@@V?$format_validation_base@_WV?$string_output_adapter@_W@__crt_stdio_output@@@2@@__crt_stdio_output@@AAE_NXZ 10028612 f i libucrt:output.obj
 0001:0002765e       ?state_case_flag@?$output_processor@_WV?$string_output_adapter@_W@__crt_stdio_output@@V?$positional_parameter_base@_WV?$string_output_adapter@_W@__crt_stdio_output@@@2@@__crt_stdio_output@@AAE_NXZ 1002865e f i libucrt:output.obj
 0001:000276aa       ?state_case_flag@?$output_processor@_WV?$string_output_adapter@_W@__crt_stdio_output@@V?$standard_base@_WV?$string_output_adapter@_W@__crt_stdio_output@@@2@@__crt_stdio_output@@AAE_NXZ 100286aa f i libucrt:output.obj
 0001:000276f6       ?state_case_normal@?$output_processor@DV?$stream_output_adapter@D@__crt_stdio_output@@V?$format_validation_base@DV?$stream_output_adapter@D@__crt_stdio_output@@@2@@__crt_stdio_output@@AAE_NXZ 100286f6 f i libucrt:output.obj
 0001:0002771c       ?state_case_normal@?$output_processor@DV?$stream_output_adapter@D@__crt_stdio_output@@V?$positional_parameter_base@DV?$stream_output_adapter@D@__crt_stdio_output@@@2@@__crt_stdio_output@@AAE_NXZ 1002871c f i libucrt:output.obj
 0001:00027759       ?state_case_normal@?$output_processor@DV?$stream_output_adapter@D@__crt_stdio_output@@V?$standard_base@DV?$stream_output_adapter@D@__crt_stdio_output@@@2@@__crt_stdio_output@@AAE_NXZ 10028759 f i libucrt:output.obj
 0001:0002777f       ?state_case_normal@?$output_processor@DV?$string_output_adapter@D@__crt_stdio_output@@V?$format_validation_base@DV?$string_output_adapter@D@__crt_stdio_output@@@2@@__crt_stdio_output@@AAE_NXZ 1002877f f i libucrt:output.obj
 0001:000277a5       ?state_case_normal@?$output_processor@DV?$string_output_adapter@D@__crt_stdio_output@@V?$positional_parameter_base@DV?$string_output_adapter@D@__crt_stdio_output@@@2@@__crt_stdio_output@@AAE_NXZ 100287a5 f i libucrt:output.obj
 0001:000277e2       ?state_case_normal@?$output_processor@DV?$string_output_adapter@D@__crt_stdio_output@@V?$standard_base@DV?$string_output_adapter@D@__crt_stdio_output@@@2@@__crt_stdio_output@@AAE_NXZ 100287e2 f i libucrt:output.obj
 0001:00027808       ?state_case_normal@?$output_processor@_WV?$stream_output_adapter@_W@__crt_stdio_output@@V?$format_validation_base@_WV?$stream_output_adapter@_W@__crt_stdio_output@@@2@@__crt_stdio_output@@AAE_NXZ 10028808 f i libucrt:output.obj
 0001:0002782e       ?state_case_normal@?$output_processor@_WV?$stream_output_adapter@_W@__crt_stdio_output@@V?$positional_parameter_base@_WV?$stream_output_adapter@_W@__crt_stdio_output@@@2@@__crt_stdio_output@@AAE_NXZ 1002882e f i libucrt:output.obj
 0001:0002786b       ?state_case_normal@?$output_processor@_WV?$stream_output_adapter@_W@__crt_stdio_output@@V?$standard_base@_WV?$stream_output_adapter@_W@__crt_stdio_output@@@2@@__crt_stdio_output@@AAE_NXZ 1002886b f i libucrt:output.obj
 0001:00027891       ?state_case_normal@?$output_processor@_WV?$string_output_adapter@_W@__crt_stdio_output@@V?$format_validation_base@_WV?$string_output_adapter@_W@__crt_stdio_output@@@2@@__crt_stdio_output@@AAE_NXZ 10028891 f i libucrt:output.obj
 0001:000278b7       ?state_case_normal@?$output_processor@_WV?$string_output_adapter@_W@__crt_stdio_output@@V?$positional_parameter_base@_WV?$string_output_adapter@_W@__crt_stdio_output@@@2@@__crt_stdio_output@@AAE_NXZ 100288b7 f i libucrt:output.obj
 0001:000278f4       ?state_case_normal@?$output_processor@_WV?$string_output_adapter@_W@__crt_stdio_output@@V?$standard_base@_WV?$string_output_adapter@_W@__crt_stdio_output@@@2@@__crt_stdio_output@@AAE_NXZ 100288f4 f i libucrt:output.obj
 0001:0002791a       ?state_case_normal_common@?$output_processor@DV?$stream_output_adapter@D@__crt_stdio_output@@V?$format_validation_base@DV?$stream_output_adapter@D@__crt_stdio_output@@@2@@__crt_stdio_output@@AAE_NXZ 1002891a f i libucrt:output.obj
 0001:0002794e       ?state_case_normal_common@?$output_processor@DV?$stream_output_adapter@D@__crt_stdio_output@@V?$positional_parameter_base@DV?$stream_output_adapter@D@__crt_stdio_output@@@2@@__crt_stdio_output@@AAE_NXZ 1002894e f i libucrt:output.obj
 0001:00027982       ?state_case_normal_common@?$output_processor@DV?$stream_output_adapter@D@__crt_stdio_output@@V?$standard_base@DV?$stream_output_adapter@D@__crt_stdio_output@@@2@@__crt_stdio_output@@AAE_NXZ 10028982 f i libucrt:output.obj
 0001:000279b6       ?state_case_normal_common@?$output_processor@DV?$string_output_adapter@D@__crt_stdio_output@@V?$format_validation_base@DV?$string_output_adapter@D@__crt_stdio_output@@@2@@__crt_stdio_output@@AAE_NXZ 100289b6 f i libucrt:output.obj
 0001:000279ea       ?state_case_normal_common@?$output_processor@DV?$string_output_adapter@D@__crt_stdio_output@@V?$positional_parameter_base@DV?$string_output_adapter@D@__crt_stdio_output@@@2@@__crt_stdio_output@@AAE_NXZ 100289ea f i libucrt:output.obj
 0001:00027a1e       ?state_case_normal_common@?$output_processor@DV?$string_output_adapter@D@__crt_stdio_output@@V?$standard_base@DV?$string_output_adapter@D@__crt_stdio_output@@@2@@__crt_stdio_output@@AAE_NXZ 10028a1e f i libucrt:output.obj
 0001:00027a52       ?state_case_normal_common@?$output_processor@_WV?$stream_output_adapter@_W@__crt_stdio_output@@V?$format_validation_base@_WV?$stream_output_adapter@_W@__crt_stdio_output@@@2@@__crt_stdio_output@@AAE_NXZ 10028a52 f i libucrt:output.obj
 0001:00027a73       ?state_case_normal_common@?$output_processor@_WV?$stream_output_adapter@_W@__crt_stdio_output@@V?$positional_parameter_base@_WV?$stream_output_adapter@_W@__crt_stdio_output@@@2@@__crt_stdio_output@@AAE_NXZ 10028a73 f i libucrt:output.obj
 0001:00027a94       ?state_case_normal_common@?$output_processor@_WV?$stream_output_adapter@_W@__crt_stdio_output@@V?$standard_base@_WV?$stream_output_adapter@_W@__crt_stdio_output@@@2@@__crt_stdio_output@@AAE_NXZ 10028a94 f i libucrt:output.obj
 0001:00027ab5       ?state_case_normal_common@?$output_processor@_WV?$string_output_adapter@_W@__crt_stdio_output@@V?$format_validation_base@_WV?$string_output_adapter@_W@__crt_stdio_output@@@2@@__crt_stdio_output@@AAE_NXZ 10028ab5 f i libucrt:output.obj
 0001:00027ad6       ?state_case_normal_common@?$output_processor@_WV?$string_output_adapter@_W@__crt_stdio_output@@V?$positional_parameter_base@_WV?$string_output_adapter@_W@__crt_stdio_output@@@2@@__crt_stdio_output@@AAE_NXZ 10028ad6 f i libucrt:output.obj
 0001:00027af7       ?state_case_normal_common@?$output_processor@_WV?$string_output_adapter@_W@__crt_stdio_output@@V?$standard_base@_WV?$string_output_adapter@_W@__crt_stdio_output@@@2@@__crt_stdio_output@@AAE_NXZ 10028af7 f i libucrt:output.obj
 0001:00027b18       ?state_case_normal_tchar@?$output_processor@DV?$stream_output_adapter@D@__crt_stdio_output@@V?$format_validation_base@DV?$stream_output_adapter@D@__crt_stdio_output@@@2@@__crt_stdio_output@@AAE_ND@Z 10028b18 f i libucrt:output.obj
 0001:00027b91       ?state_case_normal_tchar@?$output_processor@DV?$stream_output_adapter@D@__crt_stdio_output@@V?$positional_parameter_base@DV?$stream_output_adapter@D@__crt_stdio_output@@@2@@__crt_stdio_output@@AAE_ND@Z 10028b91 f i libucrt:output.obj
 0001:00027c0a       ?state_case_normal_tchar@?$output_processor@DV?$stream_output_adapter@D@__crt_stdio_output@@V?$standard_base@DV?$stream_output_adapter@D@__crt_stdio_output@@@2@@__crt_stdio_output@@AAE_ND@Z 10028c0a f i libucrt:output.obj
 0001:00027c83       ?state_case_normal_tchar@?$output_processor@DV?$string_output_adapter@D@__crt_stdio_output@@V?$format_validation_base@DV?$string_output_adapter@D@__crt_stdio_output@@@2@@__crt_stdio_output@@AAE_ND@Z 10028c83 f i libucrt:output.obj
 0001:00027cfc       ?state_case_normal_tchar@?$output_processor@DV?$string_output_adapter@D@__crt_stdio_output@@V?$positional_parameter_base@DV?$string_output_adapter@D@__crt_stdio_output@@@2@@__crt_stdio_output@@AAE_ND@Z 10028cfc f i libucrt:output.obj
 0001:00027d75       ?state_case_normal_tchar@?$output_processor@DV?$string_output_adapter@D@__crt_stdio_output@@V?$standard_base@DV?$string_output_adapter@D@__crt_stdio_output@@@2@@__crt_stdio_output@@AAE_ND@Z 10028d75 f i libucrt:output.obj
 0001:00027dee       ?state_case_normal_tchar@?$output_processor@_WV?$stream_output_adapter@_W@__crt_stdio_output@@V?$format_validation_base@_WV?$stream_output_adapter@_W@__crt_stdio_output@@@2@@__crt_stdio_output@@AAE_N_W@Z 10028dee f i libucrt:output.obj
 0001:00027df9       ?state_case_normal_tchar@?$output_processor@_WV?$stream_output_adapter@_W@__crt_stdio_output@@V?$positional_parameter_base@_WV?$stream_output_adapter@_W@__crt_stdio_output@@@2@@__crt_stdio_output@@AAE_N_W@Z 10028df9 f i libucrt:output.obj
 0001:00027e04       ?state_case_normal_tchar@?$output_processor@_WV?$stream_output_adapter@_W@__crt_stdio_output@@V?$standard_base@_WV?$stream_output_adapter@_W@__crt_stdio_output@@@2@@__crt_stdio_output@@AAE_N_W@Z 10028e04 f i libucrt:output.obj
 0001:00027e0f       ?state_case_normal_tchar@?$output_processor@_WV?$string_output_adapter@_W@__crt_stdio_output@@V?$format_validation_base@_WV?$string_output_adapter@_W@__crt_stdio_output@@@2@@__crt_stdio_output@@AAE_N_W@Z 10028e0f f i libucrt:output.obj
 0001:00027e1a       ?state_case_normal_tchar@?$output_processor@_WV?$string_output_adapter@_W@__crt_stdio_output@@V?$positional_parameter_base@_WV?$string_output_adapter@_W@__crt_stdio_output@@@2@@__crt_stdio_output@@AAE_N_W@Z 10028e1a f i libucrt:output.obj
 0001:00027e25       ?state_case_normal_tchar@?$output_processor@_WV?$string_output_adapter@_W@__crt_stdio_output@@V?$standard_base@_WV?$string_output_adapter@_W@__crt_stdio_output@@@2@@__crt_stdio_output@@AAE_N_W@Z 10028e25 f i libucrt:output.obj
 0001:00027e30       ?state_case_percent@?$output_processor@DV?$stream_output_adapter@D@__crt_stdio_output@@V?$format_validation_base@DV?$stream_output_adapter@D@__crt_stdio_output@@@2@@__crt_stdio_output@@AAE_NXZ 10028e30 f i libucrt:output.obj
 0001:00027e4e       ?state_case_percent@?$output_processor@DV?$stream_output_adapter@D@__crt_stdio_output@@V?$positional_parameter_base@DV?$stream_output_adapter@D@__crt_stdio_output@@@2@@__crt_stdio_output@@AAE_NXZ 10028e4e f i libucrt:output.obj
 0001:00027e6c       ?state_case_percent@?$output_processor@DV?$stream_output_adapter@D@__crt_stdio_output@@V?$standard_base@DV?$stream_output_adapter@D@__crt_stdio_output@@@2@@__crt_stdio_output@@AAE_NXZ 10028e6c f i libucrt:output.obj
 0001:00027e8a       ?state_case_percent@?$output_processor@DV?$string_output_adapter@D@__crt_stdio_output@@V?$format_validation_base@DV?$string_output_adapter@D@__crt_stdio_output@@@2@@__crt_stdio_output@@AAE_NXZ 10028e8a f i libucrt:output.obj
 0001:00027ea8       ?state_case_percent@?$output_processor@DV?$string_output_adapter@D@__crt_stdio_output@@V?$positional_parameter_base@DV?$string_output_adapter@D@__crt_stdio_output@@@2@@__crt_stdio_output@@AAE_NXZ 10028ea8 f i libucrt:output.obj
 0001:00027ec6       ?state_case_percent@?$output_processor@DV?$string_output_adapter@D@__crt_stdio_output@@V?$standard_base@DV?$string_output_adapter@D@__crt_stdio_output@@@2@@__crt_stdio_output@@AAE_NXZ 10028ec6 f i libucrt:output.obj
 0001:00027ee4       ?state_case_percent@?$output_processor@_WV?$stream_output_adapter@_W@__crt_stdio_output@@V?$format_validation_base@_WV?$stream_output_adapter@_W@__crt_stdio_output@@@2@@__crt_stdio_output@@AAE_NXZ 10028ee4 f i libucrt:output.obj
 0001:00027f02       ?state_case_percent@?$output_processor@_WV?$stream_output_adapter@_W@__crt_stdio_output@@V?$positional_parameter_base@_WV?$stream_output_adapter@_W@__crt_stdio_output@@@2@@__crt_stdio_output@@AAE_NXZ 10028f02 f i libucrt:output.obj
 0001:00027f20       ?state_case_percent@?$output_processor@_WV?$stream_output_adapter@_W@__crt_stdio_output@@V?$standard_base@_WV?$stream_output_adapter@_W@__crt_stdio_output@@@2@@__crt_stdio_output@@AAE_NXZ 10028f20 f i libucrt:output.obj
 0001:00027f3e       ?state_case_percent@?$output_processor@_WV?$string_output_adapter@_W@__crt_stdio_output@@V?$format_validation_base@_WV?$string_output_adapter@_W@__crt_stdio_output@@@2@@__crt_stdio_output@@AAE_NXZ 10028f3e f i libucrt:output.obj
 0001:00027f5c       ?state_case_percent@?$output_processor@_WV?$string_output_adapter@_W@__crt_stdio_output@@V?$positional_parameter_base@_WV?$string_output_adapter@_W@__crt_stdio_output@@@2@@__crt_stdio_output@@AAE_NXZ 10028f5c f i libucrt:output.obj
 0001:00027f7a       ?state_case_percent@?$output_processor@_WV?$string_output_adapter@_W@__crt_stdio_output@@V?$standard_base@_WV?$string_output_adapter@_W@__crt_stdio_output@@@2@@__crt_stdio_output@@AAE_NXZ 10028f7a f i libucrt:output.obj
 0001:00027f98       ?state_case_precision@?$output_processor@DV?$stream_output_adapter@D@__crt_stdio_output@@V?$format_validation_base@DV?$stream_output_adapter@D@__crt_stdio_output@@@2@@__crt_stdio_output@@AAE_NXZ 10028f98 f i libucrt:output.obj
 0001:00027fca       ?state_case_precision@?$output_processor@DV?$stream_output_adapter@D@__crt_stdio_output@@V?$positional_parameter_base@DV?$stream_output_adapter@D@__crt_stdio_output@@@2@@__crt_stdio_output@@AAE_NXZ 10028fca f i libucrt:output.obj
 0001:00028012       ?state_case_precision@?$output_processor@DV?$stream_output_adapter@D@__crt_stdio_output@@V?$standard_base@DV?$stream_output_adapter@D@__crt_stdio_output@@@2@@__crt_stdio_output@@AAE_NXZ 10029012 f i libucrt:output.obj
 0001:00028044       ?state_case_precision@?$output_processor@DV?$string_output_adapter@D@__crt_stdio_output@@V?$format_validation_base@DV?$string_output_adapter@D@__crt_stdio_output@@@2@@__crt_stdio_output@@AAE_NXZ 10029044 f i libucrt:output.obj
 0001:00028076       ?state_case_precision@?$output_processor@DV?$string_output_adapter@D@__crt_stdio_output@@V?$positional_parameter_base@DV?$string_output_adapter@D@__crt_stdio_output@@@2@@__crt_stdio_output@@AAE_NXZ 10029076 f i libucrt:output.obj
 0001:000280be       ?state_case_precision@?$output_processor@DV?$string_output_adapter@D@__crt_stdio_output@@V?$standard_base@DV?$string_output_adapter@D@__crt_stdio_output@@@2@@__crt_stdio_output@@AAE_NXZ 100290be f i libucrt:output.obj
 0001:000280f0       ?state_case_precision@?$output_processor@_WV?$stream_output_adapter@_W@__crt_stdio_output@@V?$format_validation_base@_WV?$stream_output_adapter@_W@__crt_stdio_output@@@2@@__crt_stdio_output@@AAE_NXZ 100290f0 f i libucrt:output.obj
 0001:00028123       ?state_case_precision@?$output_processor@_WV?$stream_output_adapter@_W@__crt_stdio_output@@V?$positional_parameter_base@_WV?$stream_output_adapter@_W@__crt_stdio_output@@@2@@__crt_stdio_output@@AAE_NXZ 10029123 f i libucrt:output.obj
 0001:0002816c       ?state_case_precision@?$output_processor@_WV?$stream_output_adapter@_W@__crt_stdio_output@@V?$standard_base@_WV?$stream_output_adapter@_W@__crt_stdio_output@@@2@@__crt_stdio_output@@AAE_NXZ 1002916c f i libucrt:output.obj
 0001:0002819f       ?state_case_precision@?$output_processor@_WV?$string_output_adapter@_W@__crt_stdio_output@@V?$format_validation_base@_WV?$string_output_adapter@_W@__crt_stdio_output@@@2@@__crt_stdio_output@@AAE_NXZ 1002919f f i libucrt:output.obj
 0001:000281d2       ?state_case_precision@?$output_processor@_WV?$string_output_adapter@_W@__crt_stdio_output@@V?$positional_parameter_base@_WV?$string_output_adapter@_W@__crt_stdio_output@@@2@@__crt_stdio_output@@AAE_NXZ 100291d2 f i libucrt:output.obj
 0001:0002821b       ?state_case_precision@?$output_processor@_WV?$string_output_adapter@_W@__crt_stdio_output@@V?$standard_base@_WV?$string_output_adapter@_W@__crt_stdio_output@@@2@@__crt_stdio_output@@AAE_NXZ 1002921b f i libucrt:output.obj
 0001:0002824e       ?state_case_size@?$output_processor@DV?$stream_output_adapter@D@__crt_stdio_output@@V?$format_validation_base@DV?$stream_output_adapter@D@__crt_stdio_output@@@2@@__crt_stdio_output@@AAE_NXZ 1002924e f i libucrt:output.obj
 0001:00028411       ?state_case_size@?$output_processor@DV?$stream_output_adapter@D@__crt_stdio_output@@V?$positional_parameter_base@DV?$stream_output_adapter@D@__crt_stdio_output@@@2@@__crt_stdio_output@@AAE_NXZ 10029411 f i libucrt:output.obj
 0001:000285d4       ?state_case_size@?$output_processor@DV?$stream_output_adapter@D@__crt_stdio_output@@V?$standard_base@DV?$stream_output_adapter@D@__crt_stdio_output@@@2@@__crt_stdio_output@@AAE_NXZ 100295d4 f i libucrt:output.obj
 0001:00028797       ?state_case_size@?$output_processor@DV?$string_output_adapter@D@__crt_stdio_output@@V?$format_validation_base@DV?$string_output_adapter@D@__crt_stdio_output@@@2@@__crt_stdio_output@@AAE_NXZ 10029797 f i libucrt:output.obj
 0001:0002895a       ?state_case_size@?$output_processor@DV?$string_output_adapter@D@__crt_stdio_output@@V?$positional_parameter_base@DV?$string_output_adapter@D@__crt_stdio_output@@@2@@__crt_stdio_output@@AAE_NXZ 1002995a f i libucrt:output.obj
 0001:00028b1d       ?state_case_size@?$output_processor@DV?$string_output_adapter@D@__crt_stdio_output@@V?$standard_base@DV?$string_output_adapter@D@__crt_stdio_output@@@2@@__crt_stdio_output@@AAE_NXZ 10029b1d f i libucrt:output.obj
 0001:00028ce0       ?state_case_size@?$output_processor@_WV?$stream_output_adapter@_W@__crt_stdio_output@@V?$format_validation_base@_WV?$stream_output_adapter@_W@__crt_stdio_output@@@2@@__crt_stdio_output@@AAE_NXZ 10029ce0 f i libucrt:output.obj
 0001:00028ebb       ?state_case_size@?$output_processor@_WV?$stream_output_adapter@_W@__crt_stdio_output@@V?$positional_parameter_base@_WV?$stream_output_adapter@_W@__crt_stdio_output@@@2@@__crt_stdio_output@@AAE_NXZ 10029ebb f i libucrt:output.obj
 0001:00029096       ?state_case_size@?$output_processor@_WV?$stream_output_adapter@_W@__crt_stdio_output@@V?$standard_base@_WV?$stream_output_adapter@_W@__crt_stdio_output@@@2@@__crt_stdio_output@@AAE_NXZ 1002a096 f i libucrt:output.obj
 0001:00029271       ?state_case_size@?$output_processor@_WV?$string_output_adapter@_W@__crt_stdio_output@@V?$format_validation_base@_WV?$string_output_adapter@_W@__crt_stdio_output@@@2@@__crt_stdio_output@@AAE_NXZ 1002a271 f i libucrt:output.obj
 0001:0002944c       ?state_case_size@?$output_processor@_WV?$string_output_adapter@_W@__crt_stdio_output@@V?$positional_parameter_base@_WV?$string_output_adapter@_W@__crt_stdio_output@@@2@@__crt_stdio_output@@AAE_NXZ 1002a44c f i libucrt:output.obj
 0001:00029627       ?state_case_size@?$output_processor@_WV?$string_output_adapter@_W@__crt_stdio_output@@V?$standard_base@_WV?$string_output_adapter@_W@__crt_stdio_output@@@2@@__crt_stdio_output@@AAE_NXZ 1002a627 f i libucrt:output.obj
 0001:00029802       ?state_case_type@?$output_processor@DV?$stream_output_adapter@D@__crt_stdio_output@@V?$format_validation_base@DV?$stream_output_adapter@D@__crt_stdio_output@@@2@@__crt_stdio_output@@AAE_NXZ 1002a802 f i libucrt:output.obj
 0001:00029abc       ?state_case_type@?$output_processor@DV?$stream_output_adapter@D@__crt_stdio_output@@V?$positional_parameter_base@DV?$stream_output_adapter@D@__crt_stdio_output@@@2@@__crt_stdio_output@@AAE_NXZ 1002aabc f i libucrt:output.obj
 0001:00029d84       ?state_case_type@?$output_processor@DV?$stream_output_adapter@D@__crt_stdio_output@@V?$standard_base@DV?$stream_output_adapter@D@__crt_stdio_output@@@2@@__crt_stdio_output@@AAE_NXZ 1002ad84 f i libucrt:output.obj
 0001:0002a03e       ?state_case_type@?$output_processor@DV?$string_output_adapter@D@__crt_stdio_output@@V?$format_validation_base@DV?$string_output_adapter@D@__crt_stdio_output@@@2@@__crt_stdio_output@@AAE_NXZ 1002b03e f i libucrt:output.obj
 0001:0002a2f8       ?state_case_type@?$output_processor@DV?$string_output_adapter@D@__crt_stdio_output@@V?$positional_parameter_base@DV?$string_output_adapter@D@__crt_stdio_output@@@2@@__crt_stdio_output@@AAE_NXZ 1002b2f8 f i libucrt:output.obj
 0001:0002a5c0       ?state_case_type@?$output_processor@DV?$string_output_adapter@D@__crt_stdio_output@@V?$standard_base@DV?$string_output_adapter@D@__crt_stdio_output@@@2@@__crt_stdio_output@@AAE_NXZ 1002b5c0 f i libucrt:output.obj
 0001:0002a87a       ?state_case_type@?$output_processor@_WV?$stream_output_adapter@_W@__crt_stdio_output@@V?$format_validation_base@_WV?$stream_output_adapter@_W@__crt_stdio_output@@@2@@__crt_stdio_output@@AAE_NXZ 1002b87a f i libucrt:output.obj
 0001:0002ab6e       ?state_case_type@?$output_processor@_WV?$stream_output_adapter@_W@__crt_stdio_output@@V?$positional_parameter_base@_WV?$stream_output_adapter@_W@__crt_stdio_output@@@2@@__crt_stdio_output@@AAE_NXZ 1002bb6e f i libucrt:output.obj
 0001:0002ae75       ?state_case_type@?$output_processor@_WV?$stream_output_adapter@_W@__crt_stdio_output@@V?$standard_base@_WV?$stream_output_adapter@_W@__crt_stdio_output@@@2@@__crt_stdio_output@@AAE_NXZ 1002be75 f i libucrt:output.obj
 0001:0002b169       ?state_case_type@?$output_processor@_WV?$string_output_adapter@_W@__crt_stdio_output@@V?$format_validation_base@_WV?$string_output_adapter@_W@__crt_stdio_output@@@2@@__crt_stdio_output@@AAE_NXZ 1002c169 f i libucrt:output.obj
 0001:0002b45d       ?state_case_type@?$output_processor@_WV?$string_output_adapter@_W@__crt_stdio_output@@V?$positional_parameter_base@_WV?$string_output_adapter@_W@__crt_stdio_output@@@2@@__crt_stdio_output@@AAE_NXZ 1002c45d f i libucrt:output.obj
 0001:0002b764       ?state_case_type@?$output_processor@_WV?$string_output_adapter@_W@__crt_stdio_output@@V?$standard_base@_WV?$string_output_adapter@_W@__crt_stdio_output@@@2@@__crt_stdio_output@@AAE_NXZ 1002c764 f i libucrt:output.obj
 0001:0002ba58       ?state_case_width@?$output_processor@DV?$stream_output_adapter@D@__crt_stdio_output@@V?$format_validation_base@DV?$stream_output_adapter@D@__crt_stdio_output@@@2@@__crt_stdio_output@@AAE_NXZ 1002ca58 f i libucrt:output.obj
 0001:0002ba8d       ?state_case_width@?$output_processor@DV?$stream_output_adapter@D@__crt_stdio_output@@V?$positional_parameter_base@DV?$stream_output_adapter@D@__crt_stdio_output@@@2@@__crt_stdio_output@@AAE_NXZ 1002ca8d f i libucrt:output.obj
 0001:0002badd       ?state_case_width@?$output_processor@DV?$stream_output_adapter@D@__crt_stdio_output@@V?$standard_base@DV?$stream_output_adapter@D@__crt_stdio_output@@@2@@__crt_stdio_output@@AAE_NXZ 1002cadd f i libucrt:output.obj
 0001:0002bb12       ?state_case_width@?$output_processor@DV?$string_output_adapter@D@__crt_stdio_output@@V?$format_validation_base@DV?$string_output_adapter@D@__crt_stdio_output@@@2@@__crt_stdio_output@@AAE_NXZ 1002cb12 f i libucrt:output.obj
 0001:0002bb47       ?state_case_width@?$output_processor@DV?$string_output_adapter@D@__crt_stdio_output@@V?$positional_parameter_base@DV?$string_output_adapter@D@__crt_stdio_output@@@2@@__crt_stdio_output@@AAE_NXZ 1002cb47 f i libucrt:output.obj
 0001:0002bb97       ?state_case_width@?$output_processor@DV?$string_output_adapter@D@__crt_stdio_output@@V?$standard_base@DV?$string_output_adapter@D@__crt_stdio_output@@@2@@__crt_stdio_output@@AAE_NXZ 1002cb97 f i libucrt:output.obj
 0001:0002bbcc       ?state_case_width@?$output_processor@_WV?$stream_output_adapter@_W@__crt_stdio_output@@V?$format_validation_base@_WV?$stream_output_adapter@_W@__crt_stdio_output@@@2@@__crt_stdio_output@@AAE_NXZ 1002cbcc f i libucrt:output.obj
 0001:0002bc03       ?state_case_width@?$output_processor@_WV?$stream_output_adapter@_W@__crt_stdio_output@@V?$positional_parameter_base@_WV?$stream_output_adapter@_W@__crt_stdio_output@@@2@@__crt_stdio_output@@AAE_NXZ 1002cc03 f i libucrt:output.obj
 0001:0002bc54       ?state_case_width@?$output_processor@_WV?$stream_output_adapter@_W@__crt_stdio_output@@V?$standard_base@_WV?$stream_output_adapter@_W@__crt_stdio_output@@@2@@__crt_stdio_output@@AAE_NXZ 1002cc54 f i libucrt:output.obj
 0001:0002bc8b       ?state_case_width@?$output_processor@_WV?$string_output_adapter@_W@__crt_stdio_output@@V?$format_validation_base@_WV?$string_output_adapter@_W@__crt_stdio_output@@@2@@__crt_stdio_output@@AAE_NXZ 1002cc8b f i libucrt:output.obj
 0001:0002bcc2       ?state_case_width@?$output_processor@_WV?$string_output_adapter@_W@__crt_stdio_output@@V?$positional_parameter_base@_WV?$string_output_adapter@_W@__crt_stdio_output@@@2@@__crt_stdio_output@@AAE_NXZ 1002ccc2 f i libucrt:output.obj
 0001:0002bd13       ?state_case_width@?$output_processor@_WV?$string_output_adapter@_W@__crt_stdio_output@@V?$standard_base@_WV?$string_output_adapter@_W@__crt_stdio_output@@@2@@__crt_stdio_output@@AAE_NXZ 1002cd13 f i libucrt:output.obj
 0001:0002bd4a       ?state_count@?$format_validation_base@DV?$stream_output_adapter@D@__crt_stdio_output@@@__crt_stdio_output@@KAIXZ 1002cd4a f i libucrt:output.obj
 0001:0002bd4e       ?state_count@?$format_validation_base@DV?$string_output_adapter@D@__crt_stdio_output@@@__crt_stdio_output@@KAIXZ 1002cd4e f i libucrt:output.obj
 0001:0002bd52       ?state_count@?$format_validation_base@_WV?$stream_output_adapter@_W@__crt_stdio_output@@@__crt_stdio_output@@KAIXZ 1002cd52 f i libucrt:output.obj
 0001:0002bd56       ?state_count@?$format_validation_base@_WV?$string_output_adapter@_W@__crt_stdio_output@@@__crt_stdio_output@@KAIXZ 1002cd56 f i libucrt:output.obj
 0001:0002bd5a       ?state_count@?$standard_base@DV?$stream_output_adapter@D@__crt_stdio_output@@@__crt_stdio_output@@KAIXZ 1002cd5a f i libucrt:output.obj
 0001:0002bd5e       ?state_count@?$standard_base@DV?$string_output_adapter@D@__crt_stdio_output@@@__crt_stdio_output@@KAIXZ 1002cd5e f i libucrt:output.obj
 0001:0002bd62       ?state_count@?$standard_base@_WV?$stream_output_adapter@_W@__crt_stdio_output@@@__crt_stdio_output@@KAIXZ 1002cd62 f i libucrt:output.obj
 0001:0002bd66       ?state_count@?$standard_base@_WV?$string_output_adapter@_W@__crt_stdio_output@@@__crt_stdio_output@@KAIXZ 1002cd66 f i libucrt:output.obj
 0001:0002bd6a       ?state_transition_table@?$format_validation_base@DV?$stream_output_adapter@D@__crt_stdio_output@@@__crt_stdio_output@@KAPBEXZ 1002cd6a f i libucrt:output.obj
 0001:0002bd70       ?state_transition_table@?$format_validation_base@DV?$string_output_adapter@D@__crt_stdio_output@@@__crt_stdio_output@@KAPBEXZ 1002cd70 f i libucrt:output.obj
 0001:0002bd76       ?state_transition_table@?$format_validation_base@_WV?$stream_output_adapter@_W@__crt_stdio_output@@@__crt_stdio_output@@KAPBEXZ 1002cd76 f i libucrt:output.obj
 0001:0002bd7c       ?state_transition_table@?$format_validation_base@_WV?$string_output_adapter@_W@__crt_stdio_output@@@__crt_stdio_output@@KAPBEXZ 1002cd7c f i libucrt:output.obj
 0001:0002bd82       ?state_transition_table@?$standard_base@DV?$stream_output_adapter@D@__crt_stdio_output@@@__crt_stdio_output@@KAPBEXZ 1002cd82 f i libucrt:output.obj
 0001:0002bd88       ?state_transition_table@?$standard_base@DV?$string_output_adapter@D@__crt_stdio_output@@@__crt_stdio_output@@KAPBEXZ 1002cd88 f i libucrt:output.obj
 0001:0002bd8e       ?state_transition_table@?$standard_base@_WV?$stream_output_adapter@_W@__crt_stdio_output@@@__crt_stdio_output@@KAPBEXZ 1002cd8e f i libucrt:output.obj
 0001:0002bd94       ?state_transition_table@?$standard_base@_WV?$string_output_adapter@_W@__crt_stdio_output@@@__crt_stdio_output@@KAPBEXZ 1002cd94 f i libucrt:output.obj
 0001:0002bd9a       ?to_integer_size@__crt_stdio_output@@YAIW4length_modifier@1@@Z 1002cd9a f i libucrt:output.obj
 0001:0002be0d       ?type_case_X@?$output_processor@DV?$stream_output_adapter@D@__crt_stdio_output@@V?$format_validation_base@DV?$stream_output_adapter@D@__crt_stdio_output@@@2@@__crt_stdio_output@@AAE_NXZ 1002ce0d f i libucrt:output.obj
 0001:0002be19       ?type_case_X@?$output_processor@DV?$stream_output_adapter@D@__crt_stdio_output@@V?$positional_parameter_base@DV?$stream_output_adapter@D@__crt_stdio_output@@@2@@__crt_stdio_output@@AAE_NXZ 1002ce19 f i libucrt:output.obj
 0001:0002be25       ?type_case_X@?$output_processor@DV?$stream_output_adapter@D@__crt_stdio_output@@V?$standard_base@DV?$stream_output_adapter@D@__crt_stdio_output@@@2@@__crt_stdio_output@@AAE_NXZ 1002ce25 f i libucrt:output.obj
 0001:0002be31       ?type_case_X@?$output_processor@DV?$string_output_adapter@D@__crt_stdio_output@@V?$format_validation_base@DV?$string_output_adapter@D@__crt_stdio_output@@@2@@__crt_stdio_output@@AAE_NXZ 1002ce31 f i libucrt:output.obj
 0001:0002be3d       ?type_case_X@?$output_processor@DV?$string_output_adapter@D@__crt_stdio_output@@V?$positional_parameter_base@DV?$string_output_adapter@D@__crt_stdio_output@@@2@@__crt_stdio_output@@AAE_NXZ 1002ce3d f i libucrt:output.obj
 0001:0002be49       ?type_case_X@?$output_processor@DV?$string_output_adapter@D@__crt_stdio_output@@V?$standard_base@DV?$string_output_adapter@D@__crt_stdio_output@@@2@@__crt_stdio_output@@AAE_NXZ 1002ce49 f i libucrt:output.obj
 0001:0002be55       ?type_case_X@?$output_processor@_WV?$stream_output_adapter@_W@__crt_stdio_output@@V?$format_validation_base@_WV?$stream_output_adapter@_W@__crt_stdio_output@@@2@@__crt_stdio_output@@AAE_NXZ 1002ce55 f i libucrt:output.obj
 0001:0002be61       ?type_case_X@?$output_processor@_WV?$stream_output_adapter@_W@__crt_stdio_output@@V?$positional_parameter_base@_WV?$stream_output_adapter@_W@__crt_stdio_output@@@2@@__crt_stdio_output@@AAE_NXZ 1002ce61 f i libucrt:output.obj
 0001:0002be6d       ?type_case_X@?$output_processor@_WV?$stream_output_adapter@_W@__crt_stdio_output@@V?$standard_base@_WV?$stream_output_adapter@_W@__crt_stdio_output@@@2@@__crt_stdio_output@@AAE_NXZ 1002ce6d f i libucrt:output.obj
 0001:0002be79       ?type_case_X@?$output_processor@_WV?$string_output_adapter@_W@__crt_stdio_output@@V?$format_validation_base@_WV?$string_output_adapter@_W@__crt_stdio_output@@@2@@__crt_stdio_output@@AAE_NXZ 1002ce79 f i libucrt:output.obj
 0001:0002be85       ?type_case_X@?$output_processor@_WV?$string_output_adapter@_W@__crt_stdio_output@@V?$positional_parameter_base@_WV?$string_output_adapter@_W@__crt_stdio_output@@@2@@__crt_stdio_output@@AAE_NXZ 1002ce85 f i libucrt:output.obj
 0001:0002be91       ?type_case_X@?$output_processor@_WV?$string_output_adapter@_W@__crt_stdio_output@@V?$standard_base@_WV?$string_output_adapter@_W@__crt_stdio_output@@@2@@__crt_stdio_output@@AAE_NXZ 1002ce91 f i libucrt:output.obj
 0001:0002be9d       ?type_case_Z@?$output_processor@DV?$stream_output_adapter@D@__crt_stdio_output@@V?$format_validation_base@DV?$stream_output_adapter@D@__crt_stdio_output@@@2@@__crt_stdio_output@@AAE_NXZ 1002ce9d f i libucrt:output.obj
 0001:0002bf18       ?type_case_Z@?$output_processor@DV?$stream_output_adapter@D@__crt_stdio_output@@V?$positional_parameter_base@DV?$stream_output_adapter@D@__crt_stdio_output@@@2@@__crt_stdio_output@@AAE_NXZ 1002cf18 f i libucrt:output.obj
 0001:0002bfb6       ?type_case_Z@?$output_processor@DV?$stream_output_adapter@D@__crt_stdio_output@@V?$standard_base@DV?$stream_output_adapter@D@__crt_stdio_output@@@2@@__crt_stdio_output@@AAE_NXZ 1002cfb6 f i libucrt:output.obj
 0001:0002c031       ?type_case_Z@?$output_processor@DV?$string_output_adapter@D@__crt_stdio_output@@V?$format_validation_base@DV?$string_output_adapter@D@__crt_stdio_output@@@2@@__crt_stdio_output@@AAE_NXZ 1002d031 f i libucrt:output.obj
 0001:0002c0ac       ?type_case_Z@?$output_processor@DV?$string_output_adapter@D@__crt_stdio_output@@V?$positional_parameter_base@DV?$string_output_adapter@D@__crt_stdio_output@@@2@@__crt_stdio_output@@AAE_NXZ 1002d0ac f i libucrt:output.obj
 0001:0002c14a       ?type_case_Z@?$output_processor@DV?$string_output_adapter@D@__crt_stdio_output@@V?$standard_base@DV?$string_output_adapter@D@__crt_stdio_output@@@2@@__crt_stdio_output@@AAE_NXZ 1002d14a f i libucrt:output.obj
 0001:0002c1c5       ?type_case_Z@?$output_processor@_WV?$stream_output_adapter@_W@__crt_stdio_output@@V?$format_validation_base@_WV?$stream_output_adapter@_W@__crt_stdio_output@@@2@@__crt_stdio_output@@AAE_NXZ 1002d1c5 f i libucrt:output.obj
 0001:0002c240       ?type_case_Z@?$output_processor@_WV?$stream_output_adapter@_W@__crt_stdio_output@@V?$positional_parameter_base@_WV?$stream_output_adapter@_W@__crt_stdio_output@@@2@@__crt_stdio_output@@AAE_NXZ 1002d240 f i libucrt:output.obj
 0001:0002c2de       ?type_case_Z@?$output_processor@_WV?$stream_output_adapter@_W@__crt_stdio_output@@V?$standard_base@_WV?$stream_output_adapter@_W@__crt_stdio_output@@@2@@__crt_stdio_output@@AAE_NXZ 1002d2de f i libucrt:output.obj
 0001:0002c359       ?type_case_Z@?$output_processor@_WV?$string_output_adapter@_W@__crt_stdio_output@@V?$format_validation_base@_WV?$string_output_adapter@_W@__crt_stdio_output@@@2@@__crt_stdio_output@@AAE_NXZ 1002d359 f i libucrt:output.obj
 0001:0002c3d4       ?type_case_Z@?$output_processor@_WV?$string_output_adapter@_W@__crt_stdio_output@@V?$positional_parameter_base@_WV?$string_output_adapter@_W@__crt_stdio_output@@@2@@__crt_stdio_output@@AAE_NXZ 1002d3d4 f i libucrt:output.obj
 0001:0002c472       ?type_case_Z@?$output_processor@_WV?$string_output_adapter@_W@__crt_stdio_output@@V?$standard_base@_WV?$string_output_adapter@_W@__crt_stdio_output@@@2@@__crt_stdio_output@@AAE_NXZ 1002d472 f i libucrt:output.obj
 0001:0002c4ed       ?type_case_a@?$output_processor@DV?$stream_output_adapter@D@__crt_stdio_output@@V?$format_validation_base@DV?$stream_output_adapter@D@__crt_stdio_output@@@2@@__crt_stdio_output@@AAE_NXZ 1002d4ed f i libucrt:output.obj
 0001:0002c69d       ?type_case_a@?$output_processor@DV?$stream_output_adapter@D@__crt_stdio_output@@V?$positional_parameter_base@DV?$stream_output_adapter@D@__crt_stdio_output@@@2@@__crt_stdio_output@@AAE_NXZ 1002d69d f i libucrt:output.obj
 0001:0002c874       ?type_case_a@?$output_processor@DV?$stream_output_adapter@D@__crt_stdio_output@@V?$standard_base@DV?$stream_output_adapter@D@__crt_stdio_output@@@2@@__crt_stdio_output@@AAE_NXZ 1002d874 f i libucrt:output.obj
 0001:0002ca24       ?type_case_a@?$output_processor@DV?$string_output_adapter@D@__crt_stdio_output@@V?$format_validation_base@DV?$string_output_adapter@D@__crt_stdio_output@@@2@@__crt_stdio_output@@AAE_NXZ 1002da24 f i libucrt:output.obj
 0001:0002cbd4       ?type_case_a@?$output_processor@DV?$string_output_adapter@D@__crt_stdio_output@@V?$positional_parameter_base@DV?$string_output_adapter@D@__crt_stdio_output@@@2@@__crt_stdio_output@@AAE_NXZ 1002dbd4 f i libucrt:output.obj
 0001:0002cdab       ?type_case_a@?$output_processor@DV?$string_output_adapter@D@__crt_stdio_output@@V?$standard_base@DV?$string_output_adapter@D@__crt_stdio_output@@@2@@__crt_stdio_output@@AAE_NXZ 1002ddab f i libucrt:output.obj
 0001:0002cf5b       ?type_case_a@?$output_processor@_WV?$stream_output_adapter@_W@__crt_stdio_output@@V?$format_validation_base@_WV?$stream_output_adapter@_W@__crt_stdio_output@@@2@@__crt_stdio_output@@AAE_NXZ 1002df5b f i libucrt:output.obj
 0001:0002d129       ?type_case_a@?$output_processor@_WV?$stream_output_adapter@_W@__crt_stdio_output@@V?$positional_parameter_base@_WV?$stream_output_adapter@_W@__crt_stdio_output@@@2@@__crt_stdio_output@@AAE_NXZ 1002e129 f i libucrt:output.obj
 0001:0002d31e       ?type_case_a@?$output_processor@_WV?$stream_output_adapter@_W@__crt_stdio_output@@V?$standard_base@_WV?$stream_output_adapter@_W@__crt_stdio_output@@@2@@__crt_stdio_output@@AAE_NXZ 1002e31e f i libucrt:output.obj
 0001:0002d4ec       ?type_case_a@?$output_processor@_WV?$string_output_adapter@_W@__crt_stdio_output@@V?$format_validation_base@_WV?$string_output_adapter@_W@__crt_stdio_output@@@2@@__crt_stdio_output@@AAE_NXZ 1002e4ec f i libucrt:output.obj
 0001:0002d6ba       ?type_case_a@?$output_processor@_WV?$string_output_adapter@_W@__crt_stdio_output@@V?$positional_parameter_base@_WV?$string_output_adapter@_W@__crt_stdio_output@@@2@@__crt_stdio_output@@AAE_NXZ 1002e6ba f i libucrt:output.obj
 0001:0002d8af       ?type_case_a@?$output_processor@_WV?$string_output_adapter@_W@__crt_stdio_output@@V?$standard_base@_WV?$string_output_adapter@_W@__crt_stdio_output@@@2@@__crt_stdio_output@@AAE_NXZ 1002e8af f i libucrt:output.obj
 0001:0002da7d       ?type_case_c@?$output_processor@DV?$stream_output_adapter@D@__crt_stdio_output@@V?$format_validation_base@DV?$stream_output_adapter@D@__crt_stdio_output@@@2@@__crt_stdio_output@@AAE_NXZ 1002ea7d f i libucrt:output.obj
 0001:0002da87       ?type_case_c@?$output_processor@DV?$stream_output_adapter@D@__crt_stdio_output@@V?$positional_parameter_base@DV?$stream_output_adapter@D@__crt_stdio_output@@@2@@__crt_stdio_output@@AAE_NXZ 1002ea87 f i libucrt:output.obj
 0001:0002da91       ?type_case_c@?$output_processor@DV?$stream_output_adapter@D@__crt_stdio_output@@V?$standard_base@DV?$stream_output_adapter@D@__crt_stdio_output@@@2@@__crt_stdio_output@@AAE_NXZ 1002ea91 f i libucrt:output.obj
 0001:0002da9b       ?type_case_c@?$output_processor@DV?$string_output_adapter@D@__crt_stdio_output@@V?$format_validation_base@DV?$string_output_adapter@D@__crt_stdio_output@@@2@@__crt_stdio_output@@AAE_NXZ 1002ea9b f i libucrt:output.obj
 0001:0002daa5       ?type_case_c@?$output_processor@DV?$string_output_adapter@D@__crt_stdio_output@@V?$positional_parameter_base@DV?$string_output_adapter@D@__crt_stdio_output@@@2@@__crt_stdio_output@@AAE_NXZ 1002eaa5 f i libucrt:output.obj
 0001:0002daaf       ?type_case_c@?$output_processor@DV?$string_output_adapter@D@__crt_stdio_output@@V?$standard_base@DV?$string_output_adapter@D@__crt_stdio_output@@@2@@__crt_stdio_output@@AAE_NXZ 1002eaaf f i libucrt:output.obj
 0001:0002dab9       ?type_case_c@?$output_processor@_WV?$stream_output_adapter@_W@__crt_stdio_output@@V?$format_validation_base@_WV?$stream_output_adapter@_W@__crt_stdio_output@@@2@@__crt_stdio_output@@AAE_NXZ 1002eab9 f i libucrt:output.obj
 0001:0002dac3       ?type_case_c@?$output_processor@_WV?$stream_output_adapter@_W@__crt_stdio_output@@V?$positional_parameter_base@_WV?$stream_output_adapter@_W@__crt_stdio_output@@@2@@__crt_stdio_output@@AAE_NXZ 1002eac3 f i libucrt:output.obj
 0001:0002dacd       ?type_case_c@?$output_processor@_WV?$stream_output_adapter@_W@__crt_stdio_output@@V?$standard_base@_WV?$stream_output_adapter@_W@__crt_stdio_output@@@2@@__crt_stdio_output@@AAE_NXZ 1002eacd f i libucrt:output.obj
 0001:0002dad7       ?type_case_c@?$output_processor@_WV?$string_output_adapter@_W@__crt_stdio_output@@V?$format_validation_base@_WV?$string_output_adapter@_W@__crt_stdio_output@@@2@@__crt_stdio_output@@AAE_NXZ 1002ead7 f i libucrt:output.obj
 0001:0002dae1       ?type_case_c@?$output_processor@_WV?$string_output_adapter@_W@__crt_stdio_output@@V?$positional_parameter_base@_WV?$string_output_adapter@_W@__crt_stdio_output@@@2@@__crt_stdio_output@@AAE_NXZ 1002eae1 f i libucrt:output.obj
 0001:0002daeb       ?type_case_c@?$output_processor@_WV?$string_output_adapter@_W@__crt_stdio_output@@V?$standard_base@_WV?$string_output_adapter@_W@__crt_stdio_output@@@2@@__crt_stdio_output@@AAE_NXZ 1002eaeb f i libucrt:output.obj
 0001:0002daf5       ?type_case_c_tchar@?$output_processor@DV?$stream_output_adapter@D@__crt_stdio_output@@V?$format_validation_base@DV?$stream_output_adapter@D@__crt_stdio_output@@@2@@__crt_stdio_output@@AAE_ND@Z 1002eaf5 f i libucrt:output.obj
 0001:0002dba9       ?type_case_c_tchar@?$output_processor@DV?$stream_output_adapter@D@__crt_stdio_output@@V?$positional_parameter_base@DV?$stream_output_adapter@D@__crt_stdio_output@@@2@@__crt_stdio_output@@AAE_ND@Z 1002eba9 f i libucrt:output.obj
 0001:0002dc99       ?type_case_c_tchar@?$output_processor@DV?$stream_output_adapter@D@__crt_stdio_output@@V?$standard_base@DV?$stream_output_adapter@D@__crt_stdio_output@@@2@@__crt_stdio_output@@AAE_ND@Z 1002ec99 f i libucrt:output.obj
 0001:0002dd4d       ?type_case_c_tchar@?$output_processor@DV?$string_output_adapter@D@__crt_stdio_output@@V?$format_validation_base@DV?$string_output_adapter@D@__crt_stdio_output@@@2@@__crt_stdio_output@@AAE_ND@Z 1002ed4d f i libucrt:output.obj
 0001:0002de01       ?type_case_c_tchar@?$output_processor@DV?$string_output_adapter@D@__crt_stdio_output@@V?$positional_parameter_base@DV?$string_output_adapter@D@__crt_stdio_output@@@2@@__crt_stdio_output@@AAE_ND@Z 1002ee01 f i libucrt:output.obj
 0001:0002def1       ?type_case_c_tchar@?$output_processor@DV?$string_output_adapter@D@__crt_stdio_output@@V?$standard_base@DV?$string_output_adapter@D@__crt_stdio_output@@@2@@__crt_stdio_output@@AAE_ND@Z 1002eef1 f i libucrt:output.obj
 0001:0002dfa5       ?type_case_c_tchar@?$output_processor@_WV?$stream_output_adapter@_W@__crt_stdio_output@@V?$format_validation_base@_WV?$stream_output_adapter@_W@__crt_stdio_output@@@2@@__crt_stdio_output@@AAE_N_W@Z 1002efa5 f i libucrt:output.obj
 0001:0002e063       ?type_case_c_tchar@?$output_processor@_WV?$stream_output_adapter@_W@__crt_stdio_output@@V?$positional_parameter_base@_WV?$stream_output_adapter@_W@__crt_stdio_output@@@2@@__crt_stdio_output@@AAE_N_W@Z 1002f063 f i libucrt:output.obj
 0001:0002e13d       ?type_case_c_tchar@?$output_processor@_WV?$stream_output_adapter@_W@__crt_stdio_output@@V?$standard_base@_WV?$stream_output_adapter@_W@__crt_stdio_output@@@2@@__crt_stdio_output@@AAE_N_W@Z 1002f13d f i libucrt:output.obj
 0001:0002e1fb       ?type_case_c_tchar@?$output_processor@_WV?$string_output_adapter@_W@__crt_stdio_output@@V?$format_validation_base@_WV?$string_output_adapter@_W@__crt_stdio_output@@@2@@__crt_stdio_output@@AAE_N_W@Z 1002f1fb f i libucrt:output.obj
 0001:0002e2b9       ?type_case_c_tchar@?$output_processor@_WV?$string_output_adapter@_W@__crt_stdio_output@@V?$positional_parameter_base@_WV?$string_output_adapter@_W@__crt_stdio_output@@@2@@__crt_stdio_output@@AAE_N_W@Z 1002f2b9 f i libucrt:output.obj
 0001:0002e393       ?type_case_c_tchar@?$output_processor@_WV?$string_output_adapter@_W@__crt_stdio_output@@V?$standard_base@_WV?$string_output_adapter@_W@__crt_stdio_output@@@2@@__crt_stdio_output@@AAE_N_W@Z 1002f393 f i libucrt:output.obj
 0001:0002e451       ?type_case_d@?$output_processor@DV?$stream_output_adapter@D@__crt_stdio_output@@V?$format_validation_base@DV?$stream_output_adapter@D@__crt_stdio_output@@@2@@__crt_stdio_output@@AAE_NXZ 1002f451 f i libucrt:output.obj
 0001:0002e462       ?type_case_d@?$output_processor@DV?$stream_output_adapter@D@__crt_stdio_output@@V?$positional_parameter_base@DV?$stream_output_adapter@D@__crt_stdio_output@@@2@@__crt_stdio_output@@AAE_NXZ 1002f462 f i libucrt:output.obj
 0001:0002e473       ?type_case_d@?$output_processor@DV?$stream_output_adapter@D@__crt_stdio_output@@V?$standard_base@DV?$stream_output_adapter@D@__crt_stdio_output@@@2@@__crt_stdio_output@@AAE_NXZ 1002f473 f i libucrt:output.obj
 0001:0002e484       ?type_case_d@?$output_processor@DV?$string_output_adapter@D@__crt_stdio_output@@V?$format_validation_base@DV?$string_output_adapter@D@__crt_stdio_output@@@2@@__crt_stdio_output@@AAE_NXZ 1002f484 f i libucrt:output.obj
 0001:0002e495       ?type_case_d@?$output_processor@DV?$string_output_adapter@D@__crt_stdio_output@@V?$positional_parameter_base@DV?$string_output_adapter@D@__crt_stdio_output@@@2@@__crt_stdio_output@@AAE_NXZ 1002f495 f i libucrt:output.obj
 0001:0002e4a6       ?type_case_d@?$output_processor@DV?$string_output_adapter@D@__crt_stdio_output@@V?$standard_base@DV?$string_output_adapter@D@__crt_stdio_output@@@2@@__crt_stdio_output@@AAE_NXZ 1002f4a6 f i libucrt:output.obj
 0001:0002e4b7       ?type_case_d@?$output_processor@_WV?$stream_output_adapter@_W@__crt_stdio_output@@V?$format_validation_base@_WV?$stream_output_adapter@_W@__crt_stdio_output@@@2@@__crt_stdio_output@@AAE_NXZ 1002f4b7 f i libucrt:output.obj
 0001:0002e4c8       ?type_case_d@?$output_processor@_WV?$stream_output_adapter@_W@__crt_stdio_output@@V?$positional_parameter_base@_WV?$stream_output_adapter@_W@__crt_stdio_output@@@2@@__crt_stdio_output@@AAE_NXZ 1002f4c8 f i libucrt:output.obj
 0001:0002e4d9       ?type_case_d@?$output_processor@_WV?$stream_output_adapter@_W@__crt_stdio_output@@V?$standard_base@_WV?$stream_output_adapter@_W@__crt_stdio_output@@@2@@__crt_stdio_output@@AAE_NXZ 1002f4d9 f i libucrt:output.obj
 0001:0002e4ea       ?type_case_d@?$output_processor@_WV?$string_output_adapter@_W@__crt_stdio_output@@V?$format_validation_base@_WV?$string_output_adapter@_W@__crt_stdio_output@@@2@@__crt_stdio_output@@AAE_NXZ 1002f4ea f i libucrt:output.obj
 0001:0002e4fb       ?type_case_d@?$output_processor@_WV?$string_output_adapter@_W@__crt_stdio_output@@V?$positional_parameter_base@_WV?$string_output_adapter@_W@__crt_stdio_output@@@2@@__crt_stdio_output@@AAE_NXZ 1002f4fb f i libucrt:output.obj
 0001:0002e50c       ?type_case_d@?$output_processor@_WV?$string_output_adapter@_W@__crt_stdio_output@@V?$standard_base@_WV?$string_output_adapter@_W@__crt_stdio_output@@@2@@__crt_stdio_output@@AAE_NXZ 1002f50c f i libucrt:output.obj
 0001:0002e51d       ?type_case_integer@?$output_processor@DV?$stream_output_adapter@D@__crt_stdio_output@@V?$format_validation_base@DV?$stream_output_adapter@D@__crt_stdio_output@@@2@@__crt_stdio_output@@AAE_NI_N@Z 1002f51d f i libucrt:output.obj
 0001:0002e6b9       ?type_case_integer@?$output_processor@DV?$stream_output_adapter@D@__crt_stdio_output@@V?$positional_parameter_base@DV?$stream_output_adapter@D@__crt_stdio_output@@@2@@__crt_stdio_output@@AAE_NI_N@Z 1002f6b9 f i libucrt:output.obj
 0001:0002e896       ?type_case_integer@?$output_processor@DV?$stream_output_adapter@D@__crt_stdio_output@@V?$standard_base@DV?$stream_output_adapter@D@__crt_stdio_output@@@2@@__crt_stdio_output@@AAE_NI_N@Z 1002f896 f i libucrt:output.obj
 0001:0002ea32       ?type_case_integer@?$output_processor@DV?$string_output_adapter@D@__crt_stdio_output@@V?$format_validation_base@DV?$string_output_adapter@D@__crt_stdio_output@@@2@@__crt_stdio_output@@AAE_NI_N@Z 1002fa32 f i libucrt:output.obj
 0001:0002ebce       ?type_case_integer@?$output_processor@DV?$string_output_adapter@D@__crt_stdio_output@@V?$positional_parameter_base@DV?$string_output_adapter@D@__crt_stdio_output@@@2@@__crt_stdio_output@@AAE_NI_N@Z 1002fbce f i libucrt:output.obj
 0001:0002edab       ?type_case_integer@?$output_processor@DV?$string_output_adapter@D@__crt_stdio_output@@V?$standard_base@DV?$string_output_adapter@D@__crt_stdio_output@@@2@@__crt_stdio_output@@AAE_NI_N@Z 1002fdab f i libucrt:output.obj
 0001:0002ef47       ?type_case_integer@?$output_processor@_WV?$stream_output_adapter@_W@__crt_stdio_output@@V?$format_validation_base@_WV?$stream_output_adapter@_W@__crt_stdio_output@@@2@@__crt_stdio_output@@AAE_NI_N@Z 1002ff47 f i libucrt:output.obj
 0001:0002f0e3       ?type_case_integer@?$output_processor@_WV?$stream_output_adapter@_W@__crt_stdio_output@@V?$positional_parameter_base@_WV?$stream_output_adapter@_W@__crt_stdio_output@@@2@@__crt_stdio_output@@AAE_NI_N@Z 100300e3 f i libucrt:output.obj
 0001:0002f2c0       ?type_case_integer@?$output_processor@_WV?$stream_output_adapter@_W@__crt_stdio_output@@V?$standard_base@_WV?$stream_output_adapter@_W@__crt_stdio_output@@@2@@__crt_stdio_output@@AAE_NI_N@Z 100302c0 f i libucrt:output.obj
 0001:0002f45c       ?type_case_integer@?$output_processor@_WV?$string_output_adapter@_W@__crt_stdio_output@@V?$format_validation_base@_WV?$string_output_adapter@_W@__crt_stdio_output@@@2@@__crt_stdio_output@@AAE_NI_N@Z 1003045c f i libucrt:output.obj
 0001:0002f5f8       ?type_case_integer@?$output_processor@_WV?$string_output_adapter@_W@__crt_stdio_output@@V?$positional_parameter_base@_WV?$string_output_adapter@_W@__crt_stdio_output@@@2@@__crt_stdio_output@@AAE_NI_N@Z 100305f8 f i libucrt:output.obj
 0001:0002f7d5       ?type_case_integer@?$output_processor@_WV?$string_output_adapter@_W@__crt_stdio_output@@V?$standard_base@_WV?$string_output_adapter@_W@__crt_stdio_output@@@2@@__crt_stdio_output@@AAE_NI_N@Z 100307d5 f i libucrt:output.obj
 0001:0002f971       ?type_case_n@?$output_processor@DV?$stream_output_adapter@D@__crt_stdio_output@@V?$format_validation_base@DV?$stream_output_adapter@D@__crt_stdio_output@@@2@@__crt_stdio_output@@AAE_NXZ 10030971 f i libucrt:output.obj
 0001:0002fa02       ?type_case_n@?$output_processor@DV?$stream_output_adapter@D@__crt_stdio_output@@V?$positional_parameter_base@DV?$stream_output_adapter@D@__crt_stdio_output@@@2@@__crt_stdio_output@@AAE_NXZ 10030a02 f i libucrt:output.obj
 0001:0002fac1       ?type_case_n@?$output_processor@DV?$stream_output_adapter@D@__crt_stdio_output@@V?$standard_base@DV?$stream_output_adapter@D@__crt_stdio_output@@@2@@__crt_stdio_output@@AAE_NXZ 10030ac1 f i libucrt:output.obj
 0001:0002fb52       ?type_case_n@?$output_processor@DV?$string_output_adapter@D@__crt_stdio_output@@V?$format_validation_base@DV?$string_output_adapter@D@__crt_stdio_output@@@2@@__crt_stdio_output@@AAE_NXZ 10030b52 f i libucrt:output.obj
 0001:0002fbe3       ?type_case_n@?$output_processor@DV?$string_output_adapter@D@__crt_stdio_output@@V?$positional_parameter_base@DV?$string_output_adapter@D@__crt_stdio_output@@@2@@__crt_stdio_output@@AAE_NXZ 10030be3 f i libucrt:output.obj
 0001:0002fca2       ?type_case_n@?$output_processor@DV?$string_output_adapter@D@__crt_stdio_output@@V?$standard_base@DV?$string_output_adapter@D@__crt_stdio_output@@@2@@__crt_stdio_output@@AAE_NXZ 10030ca2 f i libucrt:output.obj
 0001:0002fd33       ?type_case_n@?$output_processor@_WV?$stream_output_adapter@_W@__crt_stdio_output@@V?$format_validation_base@_WV?$stream_output_adapter@_W@__crt_stdio_output@@@2@@__crt_stdio_output@@AAE_NXZ 10030d33 f i libucrt:output.obj
 0001:0002fdc4       ?type_case_n@?$output_processor@_WV?$stream_output_adapter@_W@__crt_stdio_output@@V?$positional_parameter_base@_WV?$stream_output_adapter@_W@__crt_stdio_output@@@2@@__crt_stdio_output@@AAE_NXZ 10030dc4 f i libucrt:output.obj
 0001:0002fe83       ?type_case_n@?$output_processor@_WV?$stream_output_adapter@_W@__crt_stdio_output@@V?$standard_base@_WV?$stream_output_adapter@_W@__crt_stdio_output@@@2@@__crt_stdio_output@@AAE_NXZ 10030e83 f i libucrt:output.obj
 0001:0002ff14       ?type_case_n@?$output_processor@_WV?$string_output_adapter@_W@__crt_stdio_output@@V?$format_validation_base@_WV?$string_output_adapter@_W@__crt_stdio_output@@@2@@__crt_stdio_output@@AAE_NXZ 10030f14 f i libucrt:output.obj
 0001:0002ffa5       ?type_case_n@?$output_processor@_WV?$string_output_adapter@_W@__crt_stdio_output@@V?$positional_parameter_base@_WV?$string_output_adapter@_W@__crt_stdio_output@@@2@@__crt_stdio_output@@AAE_NXZ 10030fa5 f i libucrt:output.obj
 0001:00030064       ?type_case_n@?$output_processor@_WV?$string_output_adapter@_W@__crt_stdio_output@@V?$standard_base@_WV?$string_output_adapter@_W@__crt_stdio_output@@@2@@__crt_stdio_output@@AAE_NXZ 10031064 f i libucrt:output.obj
 0001:000300f5       ?type_case_o@?$output_processor@DV?$stream_output_adapter@D@__crt_stdio_output@@V?$format_validation_base@DV?$stream_output_adapter@D@__crt_stdio_output@@@2@@__crt_stdio_output@@AAE_NXZ 100310f5 f i libucrt:output.obj
 0001:0003011b       ?type_case_o@?$output_processor@DV?$stream_output_adapter@D@__crt_stdio_output@@V?$positional_parameter_base@DV?$stream_output_adapter@D@__crt_stdio_output@@@2@@__crt_stdio_output@@AAE_NXZ 1003111b f i libucrt:output.obj
 0001:00030141       ?type_case_o@?$output_processor@DV?$stream_output_adapter@D@__crt_stdio_output@@V?$standard_base@DV?$stream_output_adapter@D@__crt_stdio_output@@@2@@__crt_stdio_output@@AAE_NXZ 10031141 f i libucrt:output.obj
 0001:00030167       ?type_case_o@?$output_processor@DV?$string_output_adapter@D@__crt_stdio_output@@V?$format_validation_base@DV?$string_output_adapter@D@__crt_stdio_output@@@2@@__crt_stdio_output@@AAE_NXZ 10031167 f i libucrt:output.obj
 0001:0003018d       ?type_case_o@?$output_processor@DV?$string_output_adapter@D@__crt_stdio_output@@V?$positional_parameter_base@DV?$string_output_adapter@D@__crt_stdio_output@@@2@@__crt_stdio_output@@AAE_NXZ 1003118d f i libucrt:output.obj
 0001:000301b3       ?type_case_o@?$output_processor@DV?$string_output_adapter@D@__crt_stdio_output@@V?$standard_base@DV?$string_output_adapter@D@__crt_stdio_output@@@2@@__crt_stdio_output@@AAE_NXZ 100311b3 f i libucrt:output.obj
 0001:000301d9       ?type_case_o@?$output_processor@_WV?$stream_output_adapter@_W@__crt_stdio_output@@V?$format_validation_base@_WV?$stream_output_adapter@_W@__crt_stdio_output@@@2@@__crt_stdio_output@@AAE_NXZ 100311d9 f i libucrt:output.obj
 0001:000301ff       ?type_case_o@?$output_processor@_WV?$stream_output_adapter@_W@__crt_stdio_output@@V?$positional_parameter_base@_WV?$stream_output_adapter@_W@__crt_stdio_output@@@2@@__crt_stdio_output@@AAE_NXZ 100311ff f i libucrt:output.obj
 0001:00030225       ?type_case_o@?$output_processor@_WV?$stream_output_adapter@_W@__crt_stdio_output@@V?$standard_base@_WV?$stream_output_adapter@_W@__crt_stdio_output@@@2@@__crt_stdio_output@@AAE_NXZ 10031225 f i libucrt:output.obj
 0001:0003024b       ?type_case_o@?$output_processor@_WV?$string_output_adapter@_W@__crt_stdio_output@@V?$format_validation_base@_WV?$string_output_adapter@_W@__crt_stdio_output@@@2@@__crt_stdio_output@@AAE_NXZ 1003124b f i libucrt:output.obj
 0001:00030271       ?type_case_o@?$output_processor@_WV?$string_output_adapter@_W@__crt_stdio_output@@V?$positional_parameter_base@_WV?$string_output_adapter@_W@__crt_stdio_output@@@2@@__crt_stdio_output@@AAE_NXZ 10031271 f i libucrt:output.obj
 0001:00030297       ?type_case_o@?$output_processor@_WV?$string_output_adapter@_W@__crt_stdio_output@@V?$standard_base@_WV?$string_output_adapter@_W@__crt_stdio_output@@@2@@__crt_stdio_output@@AAE_NXZ 10031297 f i libucrt:output.obj
 0001:000302bd       ?type_case_p@?$output_processor@DV?$stream_output_adapter@D@__crt_stdio_output@@V?$format_validation_base@DV?$stream_output_adapter@D@__crt_stdio_output@@@2@@__crt_stdio_output@@AAE_NXZ 100312bd f i libucrt:output.obj
 0001:000302db       ?type_case_p@?$output_processor@DV?$stream_output_adapter@D@__crt_stdio_output@@V?$positional_parameter_base@DV?$stream_output_adapter@D@__crt_stdio_output@@@2@@__crt_stdio_output@@AAE_NXZ 100312db f i libucrt:output.obj
 0001:000302f9       ?type_case_p@?$output_processor@DV?$stream_output_adapter@D@__crt_stdio_output@@V?$standard_base@DV?$stream_output_adapter@D@__crt_stdio_output@@@2@@__crt_stdio_output@@AAE_NXZ 100312f9 f i libucrt:output.obj
 0001:00030317       ?type_case_p@?$output_processor@DV?$string_output_adapter@D@__crt_stdio_output@@V?$format_validation_base@DV?$string_output_adapter@D@__crt_stdio_output@@@2@@__crt_stdio_output@@AAE_NXZ 10031317 f i libucrt:output.obj
 0001:00030335       ?type_case_p@?$output_processor@DV?$string_output_adapter@D@__crt_stdio_output@@V?$positional_parameter_base@DV?$string_output_adapter@D@__crt_stdio_output@@@2@@__crt_stdio_output@@AAE_NXZ 10031335 f i libucrt:output.obj
 0001:00030353       ?type_case_p@?$output_processor@DV?$string_output_adapter@D@__crt_stdio_output@@V?$standard_base@DV?$string_output_adapter@D@__crt_stdio_output@@@2@@__crt_stdio_output@@AAE_NXZ 10031353 f i libucrt:output.obj
 0001:00030371       ?type_case_p@?$output_processor@_WV?$stream_output_adapter@_W@__crt_stdio_output@@V?$format_validation_base@_WV?$stream_output_adapter@_W@__crt_stdio_output@@@2@@__crt_stdio_output@@AAE_NXZ 10031371 f i libucrt:output.obj
 0001:0003038f       ?type_case_p@?$output_processor@_WV?$stream_output_adapter@_W@__crt_stdio_output@@V?$positional_parameter_base@_WV?$stream_output_adapter@_W@__crt_stdio_output@@@2@@__crt_stdio_output@@AAE_NXZ 1003138f f i libucrt:output.obj
 0001:000303ad       ?type_case_p@?$output_processor@_WV?$stream_output_adapter@_W@__crt_stdio_output@@V?$standard_base@_WV?$stream_output_adapter@_W@__crt_stdio_output@@@2@@__crt_stdio_output@@AAE_NXZ 100313ad f i libucrt:output.obj
 0001:000303cb       ?type_case_p@?$output_processor@_WV?$string_output_adapter@_W@__crt_stdio_output@@V?$format_validation_base@_WV?$string_output_adapter@_W@__crt_stdio_output@@@2@@__crt_stdio_output@@AAE_NXZ 100313cb f i libucrt:output.obj
 0001:000303e9       ?type_case_p@?$output_processor@_WV?$string_output_adapter@_W@__crt_stdio_output@@V?$positional_parameter_base@_WV?$string_output_adapter@_W@__crt_stdio_output@@@2@@__crt_stdio_output@@AAE_NXZ 100313e9 f i libucrt:output.obj
 0001:00030407       ?type_case_p@?$output_processor@_WV?$string_output_adapter@_W@__crt_stdio_output@@V?$standard_base@_WV?$string_output_adapter@_W@__crt_stdio_output@@@2@@__crt_stdio_output@@AAE_NXZ 10031407 f i libucrt:output.obj
 0001:00030425       ?type_case_s@?$output_processor@DV?$stream_output_adapter@D@__crt_stdio_output@@V?$format_validation_base@DV?$stream_output_adapter@D@__crt_stdio_output@@@2@@__crt_stdio_output@@AAE_NXZ 10031425 f i libucrt:output.obj
 0001:000304b4       ?type_case_s@?$output_processor@DV?$stream_output_adapter@D@__crt_stdio_output@@V?$positional_parameter_base@DV?$stream_output_adapter@D@__crt_stdio_output@@@2@@__crt_stdio_output@@AAE_NXZ 100314b4 f i libucrt:output.obj
 0001:0003054f       ?type_case_s@?$output_processor@DV?$stream_output_adapter@D@__crt_stdio_output@@V?$standard_base@DV?$stream_output_adapter@D@__crt_stdio_output@@@2@@__crt_stdio_output@@AAE_NXZ 1003154f f i libucrt:output.obj
 0001:000305de       ?type_case_s@?$output_processor@DV?$string_output_adapter@D@__crt_stdio_output@@V?$format_validation_base@DV?$string_output_adapter@D@__crt_stdio_output@@@2@@__crt_stdio_output@@AAE_NXZ 100315de f i libucrt:output.obj
 0001:0003066d       ?type_case_s@?$output_processor@DV?$string_output_adapter@D@__crt_stdio_output@@V?$positional_parameter_base@DV?$string_output_adapter@D@__crt_stdio_output@@@2@@__crt_stdio_output@@AAE_NXZ 1003166d f i libucrt:output.obj
 0001:00030708       ?type_case_s@?$output_processor@DV?$string_output_adapter@D@__crt_stdio_output@@V?$standard_base@DV?$string_output_adapter@D@__crt_stdio_output@@@2@@__crt_stdio_output@@AAE_NXZ 10031708 f i libucrt:output.obj
 0001:00030797       ?type_case_s@?$output_processor@_WV?$stream_output_adapter@_W@__crt_stdio_output@@V?$format_validation_base@_WV?$stream_output_adapter@_W@__crt_stdio_output@@@2@@__crt_stdio_output@@AAE_NXZ 10031797 f i libucrt:output.obj
 0001:00030828       ?type_case_s@?$output_processor@_WV?$stream_output_adapter@_W@__crt_stdio_output@@V?$positional_parameter_base@_WV?$stream_output_adapter@_W@__crt_stdio_output@@@2@@__crt_stdio_output@@AAE_NXZ 10031828 f i libucrt:output.obj
 0001:000308c5       ?type_case_s@?$output_processor@_WV?$stream_output_adapter@_W@__crt_stdio_output@@V?$standard_base@_WV?$stream_output_adapter@_W@__crt_stdio_output@@@2@@__crt_stdio_output@@AAE_NXZ 100318c5 f i libucrt:output.obj
 0001:00030956       ?type_case_s@?$output_processor@_WV?$string_output_adapter@_W@__crt_stdio_output@@V?$format_validation_base@_WV?$string_output_adapter@_W@__crt_stdio_output@@@2@@__crt_stdio_output@@AAE_NXZ 10031956 f i libucrt:output.obj
 0001:000309e7       ?type_case_s@?$output_processor@_WV?$string_output_adapter@_W@__crt_stdio_output@@V?$positional_parameter_base@_WV?$string_output_adapter@_W@__crt_stdio_output@@@2@@__crt_stdio_output@@AAE_NXZ 100319e7 f i libucrt:output.obj
 0001:00030a84       ?type_case_s@?$output_processor@_WV?$string_output_adapter@_W@__crt_stdio_output@@V?$standard_base@_WV?$string_output_adapter@_W@__crt_stdio_output@@@2@@__crt_stdio_output@@AAE_NXZ 10031a84 f i libucrt:output.obj
 0001:00030b15       ?type_case_s_compute_narrow_string_length@?$output_processor@DV?$stream_output_adapter@D@__crt_stdio_output@@V?$format_validation_base@DV?$stream_output_adapter@D@__crt_stdio_output@@@2@@__crt_stdio_output@@ABEHHD@Z 10031b15 f i libucrt:output.obj
 0001:00030b30       ?type_case_s_compute_narrow_string_length@?$output_processor@DV?$stream_output_adapter@D@__crt_stdio_output@@V?$positional_parameter_base@DV?$stream_output_adapter@D@__crt_stdio_output@@@2@@__crt_stdio_output@@ABEHHD@Z 10031b30 f i libucrt:output.obj
 0001:00030b4b       ?type_case_s_compute_narrow_string_length@?$output_processor@DV?$stream_output_adapter@D@__crt_stdio_output@@V?$standard_base@DV?$stream_output_adapter@D@__crt_stdio_output@@@2@@__crt_stdio_output@@ABEHHD@Z 10031b4b f i libucrt:output.obj
 0001:00030b66       ?type_case_s_compute_narrow_string_length@?$output_processor@DV?$string_output_adapter@D@__crt_stdio_output@@V?$format_validation_base@DV?$string_output_adapter@D@__crt_stdio_output@@@2@@__crt_stdio_output@@ABEHHD@Z 10031b66 f i libucrt:output.obj
 0001:00030b81       ?type_case_s_compute_narrow_string_length@?$output_processor@DV?$string_output_adapter@D@__crt_stdio_output@@V?$positional_parameter_base@DV?$string_output_adapter@D@__crt_stdio_output@@@2@@__crt_stdio_output@@ABEHHD@Z 10031b81 f i libucrt:output.obj
 0001:00030b9c       ?type_case_s_compute_narrow_string_length@?$output_processor@DV?$string_output_adapter@D@__crt_stdio_output@@V?$standard_base@DV?$string_output_adapter@D@__crt_stdio_output@@@2@@__crt_stdio_output@@ABEHHD@Z 10031b9c f i libucrt:output.obj
 0001:00030bb7       ?type_case_s_compute_narrow_string_length@?$output_processor@_WV?$stream_output_adapter@_W@__crt_stdio_output@@V?$format_validation_base@_WV?$stream_output_adapter@_W@__crt_stdio_output@@@2@@__crt_stdio_output@@ABEHH_W@Z 10031bb7 f i libucrt:output.obj
 0001:00030c07       ?type_case_s_compute_narrow_string_length@?$output_processor@_WV?$stream_output_adapter@_W@__crt_stdio_output@@V?$positional_parameter_base@_WV?$stream_output_adapter@_W@__crt_stdio_output@@@2@@__crt_stdio_output@@ABEHH_W@Z 10031c07 f i libucrt:output.obj
 0001:00030c57       ?type_case_s_compute_narrow_string_length@?$output_processor@_WV?$stream_output_adapter@_W@__crt_stdio_output@@V?$standard_base@_WV?$stream_output_adapter@_W@__crt_stdio_output@@@2@@__crt_stdio_output@@ABEHH_W@Z 10031c57 f i libucrt:output.obj
 0001:00030ca7       ?type_case_s_compute_narrow_string_length@?$output_processor@_WV?$string_output_adapter@_W@__crt_stdio_output@@V?$format_validation_base@_WV?$string_output_adapter@_W@__crt_stdio_output@@@2@@__crt_stdio_output@@ABEHH_W@Z 10031ca7 f i libucrt:output.obj
 0001:00030cf7       ?type_case_s_compute_narrow_string_length@?$output_processor@_WV?$string_output_adapter@_W@__crt_stdio_output@@V?$positional_parameter_base@_WV?$string_output_adapter@_W@__crt_stdio_output@@@2@@__crt_stdio_output@@ABEHH_W@Z 10031cf7 f i libucrt:output.obj
 0001:00030d47       ?type_case_s_compute_narrow_string_length@?$output_processor@_WV?$string_output_adapter@_W@__crt_stdio_output@@V?$standard_base@_WV?$string_output_adapter@_W@__crt_stdio_output@@@2@@__crt_stdio_output@@ABEHH_W@Z 10031d47 f i libucrt:output.obj
 0001:00030d97       ?type_case_u@?$output_processor@DV?$stream_output_adapter@D@__crt_stdio_output@@V?$format_validation_base@DV?$stream_output_adapter@D@__crt_stdio_output@@@2@@__crt_stdio_output@@AAE_NXZ 10031d97 f i libucrt:output.obj
 0001:00030da3       ?type_case_u@?$output_processor@DV?$stream_output_adapter@D@__crt_stdio_output@@V?$positional_parameter_base@DV?$stream_output_adapter@D@__crt_stdio_output@@@2@@__crt_stdio_output@@AAE_NXZ 10031da3 f i libucrt:output.obj
 0001:00030daf       ?type_case_u@?$output_processor@DV?$stream_output_adapter@D@__crt_stdio_output@@V?$standard_base@DV?$stream_output_adapter@D@__crt_stdio_output@@@2@@__crt_stdio_output@@AAE_NXZ 10031daf f i libucrt:output.obj
 0001:00030dbb       ?type_case_u@?$output_processor@DV?$string_output_adapter@D@__crt_stdio_output@@V?$format_validation_base@DV?$string_output_adapter@D@__crt_stdio_output@@@2@@__crt_stdio_output@@AAE_NXZ 10031dbb f i libucrt:output.obj
 0001:00030dc7       ?type_case_u@?$output_processor@DV?$string_output_adapter@D@__crt_stdio_output@@V?$positional_parameter_base@DV?$string_output_adapter@D@__crt_stdio_output@@@2@@__crt_stdio_output@@AAE_NXZ 10031dc7 f i libucrt:output.obj
 0001:00030dd3       ?type_case_u@?$output_processor@DV?$string_output_adapter@D@__crt_stdio_output@@V?$standard_base@DV?$string_output_adapter@D@__crt_stdio_output@@@2@@__crt_stdio_output@@AAE_NXZ 10031dd3 f i libucrt:output.obj
 0001:00030ddf       ?type_case_u@?$output_processor@_WV?$stream_output_adapter@_W@__crt_stdio_output@@V?$format_validation_base@_WV?$stream_output_adapter@_W@__crt_stdio_output@@@2@@__crt_stdio_output@@AAE_NXZ 10031ddf f i libucrt:output.obj
 0001:00030deb       ?type_case_u@?$output_processor@_WV?$stream_output_adapter@_W@__crt_stdio_output@@V?$positional_parameter_base@_WV?$stream_output_adapter@_W@__crt_stdio_output@@@2@@__crt_stdio_output@@AAE_NXZ 10031deb f i libucrt:output.obj
 0001:00030df7       ?type_case_u@?$output_processor@_WV?$stream_output_adapter@_W@__crt_stdio_output@@V?$standard_base@_WV?$stream_output_adapter@_W@__crt_stdio_output@@@2@@__crt_stdio_output@@AAE_NXZ 10031df7 f i libucrt:output.obj
 0001:00030e03       ?type_case_u@?$output_processor@_WV?$string_output_adapter@_W@__crt_stdio_output@@V?$format_validation_base@_WV?$string_output_adapter@_W@__crt_stdio_output@@@2@@__crt_stdio_output@@AAE_NXZ 10031e03 f i libucrt:output.obj
 0001:00030e0f       ?type_case_u@?$output_processor@_WV?$string_output_adapter@_W@__crt_stdio_output@@V?$positional_parameter_base@_WV?$string_output_adapter@_W@__crt_stdio_output@@@2@@__crt_stdio_output@@AAE_NXZ 10031e0f f i libucrt:output.obj
 0001:00030e1b       ?type_case_u@?$output_processor@_WV?$string_output_adapter@_W@__crt_stdio_output@@V?$standard_base@_WV?$string_output_adapter@_W@__crt_stdio_output@@@2@@__crt_stdio_output@@AAE_NXZ 10031e1b f i libucrt:output.obj
 0001:00030e27       ?type_case_x@?$output_processor@DV?$stream_output_adapter@D@__crt_stdio_output@@V?$format_validation_base@DV?$stream_output_adapter@D@__crt_stdio_output@@@2@@__crt_stdio_output@@AAE_NXZ 10031e27 f i libucrt:output.obj
 0001:00030e33       ?type_case_x@?$output_processor@DV?$stream_output_adapter@D@__crt_stdio_output@@V?$positional_parameter_base@DV?$stream_output_adapter@D@__crt_stdio_output@@@2@@__crt_stdio_output@@AAE_NXZ 10031e33 f i libucrt:output.obj
 0001:00030e3f       ?type_case_x@?$output_processor@DV?$stream_output_adapter@D@__crt_stdio_output@@V?$standard_base@DV?$stream_output_adapter@D@__crt_stdio_output@@@2@@__crt_stdio_output@@AAE_NXZ 10031e3f f i libucrt:output.obj
 0001:00030e4b       ?type_case_x@?$output_processor@DV?$string_output_adapter@D@__crt_stdio_output@@V?$format_validation_base@DV?$string_output_adapter@D@__crt_stdio_output@@@2@@__crt_stdio_output@@AAE_NXZ 10031e4b f i libucrt:output.obj
 0001:00030e57       ?type_case_x@?$output_processor@DV?$string_output_adapter@D@__crt_stdio_output@@V?$positional_parameter_base@DV?$string_output_adapter@D@__crt_stdio_output@@@2@@__crt_stdio_output@@AAE_NXZ 10031e57 f i libucrt:output.obj
 0001:00030e63       ?type_case_x@?$output_processor@DV?$string_output_adapter@D@__crt_stdio_output@@V?$standard_base@DV?$string_output_adapter@D@__crt_stdio_output@@@2@@__crt_stdio_output@@AAE_NXZ 10031e63 f i libucrt:output.obj
 0001:00030e6f       ?type_case_x@?$output_processor@_WV?$stream_output_adapter@_W@__crt_stdio_output@@V?$format_validation_base@_WV?$stream_output_adapter@_W@__crt_stdio_output@@@2@@__crt_stdio_output@@AAE_NXZ 10031e6f f i libucrt:output.obj
 0001:00030e7b       ?type_case_x@?$output_processor@_WV?$stream_output_adapter@_W@__crt_stdio_output@@V?$positional_parameter_base@_WV?$stream_output_adapter@_W@__crt_stdio_output@@@2@@__crt_stdio_output@@AAE_NXZ 10031e7b f i libucrt:output.obj
 0001:00030e87       ?type_case_x@?$output_processor@_WV?$stream_output_adapter@_W@__crt_stdio_output@@V?$standard_base@_WV?$stream_output_adapter@_W@__crt_stdio_output@@@2@@__crt_stdio_output@@AAE_NXZ 10031e87 f i libucrt:output.obj
 0001:00030e93       ?type_case_x@?$output_processor@_WV?$string_output_adapter@_W@__crt_stdio_output@@V?$format_validation_base@_WV?$string_output_adapter@_W@__crt_stdio_output@@@2@@__crt_stdio_output@@AAE_NXZ 10031e93 f i libucrt:output.obj
 0001:00030e9f       ?type_case_x@?$output_processor@_WV?$string_output_adapter@_W@__crt_stdio_output@@V?$positional_parameter_base@_WV?$string_output_adapter@_W@__crt_stdio_output@@@2@@__crt_stdio_output@@AAE_NXZ 10031e9f f i libucrt:output.obj
 0001:00030eab       ?type_case_x@?$output_processor@_WV?$string_output_adapter@_W@__crt_stdio_output@@V?$standard_base@_WV?$string_output_adapter@_W@__crt_stdio_output@@@2@@__crt_stdio_output@@AAE_NXZ 10031eab f i libucrt:output.obj
 0001:00030eb7       ?unset_flag@?$output_processor@DV?$stream_output_adapter@D@__crt_stdio_output@@V?$format_validation_base@DV?$stream_output_adapter@D@__crt_stdio_output@@@2@@__crt_stdio_output@@AAEXI@Z 10031eb7 f i libucrt:output.obj
 0001:00030ecc       ?unset_flag@?$output_processor@DV?$stream_output_adapter@D@__crt_stdio_output@@V?$positional_parameter_base@DV?$stream_output_adapter@D@__crt_stdio_output@@@2@@__crt_stdio_output@@AAEXI@Z 10031ecc f i libucrt:output.obj
 0001:00030ee1       ?unset_flag@?$output_processor@DV?$stream_output_adapter@D@__crt_stdio_output@@V?$standard_base@DV?$stream_output_adapter@D@__crt_stdio_output@@@2@@__crt_stdio_output@@AAEXI@Z 10031ee1 f i libucrt:output.obj
 0001:00030ef6       ?unset_flag@?$output_processor@DV?$string_output_adapter@D@__crt_stdio_output@@V?$format_validation_base@DV?$string_output_adapter@D@__crt_stdio_output@@@2@@__crt_stdio_output@@AAEXI@Z 10031ef6 f i libucrt:output.obj
 0001:00030f0b       ?unset_flag@?$output_processor@DV?$string_output_adapter@D@__crt_stdio_output@@V?$positional_parameter_base@DV?$string_output_adapter@D@__crt_stdio_output@@@2@@__crt_stdio_output@@AAEXI@Z 10031f0b f i libucrt:output.obj
 0001:00030f20       ?unset_flag@?$output_processor@DV?$string_output_adapter@D@__crt_stdio_output@@V?$standard_base@DV?$string_output_adapter@D@__crt_stdio_output@@@2@@__crt_stdio_output@@AAEXI@Z 10031f20 f i libucrt:output.obj
 0001:00030f35       ?unset_flag@?$output_processor@_WV?$stream_output_adapter@_W@__crt_stdio_output@@V?$format_validation_base@_WV?$stream_output_adapter@_W@__crt_stdio_output@@@2@@__crt_stdio_output@@AAEXI@Z 10031f35 f i libucrt:output.obj
 0001:00030f4a       ?unset_flag@?$output_processor@_WV?$stream_output_adapter@_W@__crt_stdio_output@@V?$positional_parameter_base@_WV?$stream_output_adapter@_W@__crt_stdio_output@@@2@@__crt_stdio_output@@AAEXI@Z 10031f4a f i libucrt:output.obj
 0001:00030f5f       ?unset_flag@?$output_processor@_WV?$stream_output_adapter@_W@__crt_stdio_output@@V?$standard_base@_WV?$stream_output_adapter@_W@__crt_stdio_output@@@2@@__crt_stdio_output@@AAEXI@Z 10031f5f f i libucrt:output.obj
 0001:00030f74       ?unset_flag@?$output_processor@_WV?$string_output_adapter@_W@__crt_stdio_output@@V?$format_validation_base@_WV?$string_output_adapter@_W@__crt_stdio_output@@@2@@__crt_stdio_output@@AAEXI@Z 10031f74 f i libucrt:output.obj
 0001:00030f89       ?unset_flag@?$output_processor@_WV?$string_output_adapter@_W@__crt_stdio_output@@V?$positional_parameter_base@_WV?$string_output_adapter@_W@__crt_stdio_output@@@2@@__crt_stdio_output@@AAEXI@Z 10031f89 f i libucrt:output.obj
 0001:00030f9e       ?unset_flag@?$output_processor@_WV?$string_output_adapter@_W@__crt_stdio_output@@V?$standard_base@_WV?$string_output_adapter@_W@__crt_stdio_output@@@2@@__crt_stdio_output@@AAEXI@Z 10031f9e f i libucrt:output.obj
 0001:00030fb3       ?update_field_width@?$positional_parameter_base@DV?$stream_output_adapter@D@__crt_stdio_output@@@__crt_stdio_output@@IAE_NXZ 10031fb3 f i libucrt:output.obj
 0001:00031096       ?update_field_width@?$positional_parameter_base@DV?$string_output_adapter@D@__crt_stdio_output@@@__crt_stdio_output@@IAE_NXZ 10032096 f i libucrt:output.obj
 0001:00031179       ?update_field_width@?$positional_parameter_base@_WV?$stream_output_adapter@_W@__crt_stdio_output@@@__crt_stdio_output@@IAE_NXZ 10032179 f i libucrt:output.obj
 0001:0003125d       ?update_field_width@?$positional_parameter_base@_WV?$string_output_adapter@_W@__crt_stdio_output@@@__crt_stdio_output@@IAE_NXZ 1003225d f i libucrt:output.obj
 0001:00031341       ?update_field_width@?$standard_base@DV?$stream_output_adapter@D@__crt_stdio_output@@@__crt_stdio_output@@IAE_NXZ 10032341 f i libucrt:output.obj
 0001:00031355       ?update_field_width@?$standard_base@DV?$string_output_adapter@D@__crt_stdio_output@@@__crt_stdio_output@@IAE_NXZ 10032355 f i libucrt:output.obj
 0001:00031369       ?update_field_width@?$standard_base@_WV?$stream_output_adapter@_W@__crt_stdio_output@@@__crt_stdio_output@@IAE_NXZ 10032369 f i libucrt:output.obj
 0001:0003137d       ?update_field_width@?$standard_base@_WV?$string_output_adapter@_W@__crt_stdio_output@@@__crt_stdio_output@@IAE_NXZ 1003237d f i libucrt:output.obj
 0001:00031391       ?update_precision@?$positional_parameter_base@DV?$stream_output_adapter@D@__crt_stdio_output@@@__crt_stdio_output@@IAE_NXZ 10032391 f i libucrt:output.obj
 0001:00031474       ?update_precision@?$positional_parameter_base@DV?$string_output_adapter@D@__crt_stdio_output@@@__crt_stdio_output@@IAE_NXZ 10032474 f i libucrt:output.obj
 0001:00031557       ?update_precision@?$positional_parameter_base@_WV?$stream_output_adapter@_W@__crt_stdio_output@@@__crt_stdio_output@@IAE_NXZ 10032557 f i libucrt:output.obj
 0001:0003163b       ?update_precision@?$positional_parameter_base@_WV?$string_output_adapter@_W@__crt_stdio_output@@@__crt_stdio_output@@IAE_NXZ 1003263b f i libucrt:output.obj
 0001:0003171f       ?update_precision@?$standard_base@DV?$stream_output_adapter@D@__crt_stdio_output@@@__crt_stdio_output@@IAE_NXZ 1003271f f i libucrt:output.obj
 0001:00031733       ?update_precision@?$standard_base@DV?$string_output_adapter@D@__crt_stdio_output@@@__crt_stdio_output@@IAE_NXZ 10032733 f i libucrt:output.obj
 0001:00031747       ?update_precision@?$standard_base@_WV?$stream_output_adapter@_W@__crt_stdio_output@@@__crt_stdio_output@@IAE_NXZ 10032747 f i libucrt:output.obj
 0001:0003175b       ?update_precision@?$standard_base@_WV?$string_output_adapter@_W@__crt_stdio_output@@@__crt_stdio_output@@IAE_NXZ 1003275b f i libucrt:output.obj
 0001:0003176f       ?valid@__crt_stdio_stream@@QBE_NXZ 1003276f f i libucrt:output.obj
 0001:00031779       ?validate@?$stream_output_adapter@D@__crt_stdio_output@@QBE_NXZ 10032779 f i libucrt:output.obj
 0001:000317a2       ?validate@?$stream_output_adapter@_W@__crt_stdio_output@@QBE_NXZ 100327a2 f i libucrt:output.obj
 0001:000317c3       ?validate@?$string_output_adapter@D@__crt_stdio_output@@QBE_NXZ 100327c3 f i libucrt:output.obj
 0001:000317e4       ?validate@?$string_output_adapter@_W@__crt_stdio_output@@QBE_NXZ 100327e4 f i libucrt:output.obj
 0001:00031805       ?validate_and_store_parameter_data@?$positional_parameter_base@DV?$stream_output_adapter@D@__crt_stdio_output@@@__crt_stdio_output@@AAE_NAAUparameter_data@12@W4parameter_type@12@DW4length_modifier@2@@Z 10032805 f i libucrt:output.obj
 0001:00031862       ?validate_and_store_parameter_data@?$positional_parameter_base@DV?$string_output_adapter@D@__crt_stdio_output@@@__crt_stdio_output@@AAE_NAAUparameter_data@12@W4parameter_type@12@DW4length_modifier@2@@Z 10032862 f i libucrt:output.obj
 0001:000318bf       ?validate_and_store_parameter_data@?$positional_parameter_base@_WV?$stream_output_adapter@_W@__crt_stdio_output@@@__crt_stdio_output@@AAE_NAAUparameter_data@12@W4parameter_type@12@_WW4length_modifier@2@@Z 100328bf f i libucrt:output.obj
 0001:0003191f       ?validate_and_store_parameter_data@?$positional_parameter_base@_WV?$string_output_adapter@_W@__crt_stdio_output@@@__crt_stdio_output@@AAE_NAAUparameter_data@12@W4parameter_type@12@_WW4length_modifier@2@@Z 1003291f f i libucrt:output.obj
 0001:0003197f       ?validate_and_update_state_at_beginning_of_format_character@?$positional_parameter_base@DV?$stream_output_adapter@D@__crt_stdio_output@@@__crt_stdio_output@@IAE_NXZ 1003297f f i libucrt:output.obj
 0001:00031ab5       ?validate_and_update_state_at_beginning_of_format_character@?$positional_parameter_base@DV?$string_output_adapter@D@__crt_stdio_output@@@__crt_stdio_output@@IAE_NXZ 10032ab5 f i libucrt:output.obj
 0001:00031beb       ?validate_and_update_state_at_beginning_of_format_character@?$positional_parameter_base@_WV?$stream_output_adapter@_W@__crt_stdio_output@@@__crt_stdio_output@@IAE_NXZ 10032beb f i libucrt:output.obj
 0001:00031d2d       ?validate_and_update_state_at_beginning_of_format_character@?$positional_parameter_base@_WV?$string_output_adapter@_W@__crt_stdio_output@@@__crt_stdio_output@@IAE_NXZ 10032d2d f i libucrt:output.obj
 0001:00031e6f       ?validate_and_update_state_at_beginning_of_format_character@?$standard_base@DV?$stream_output_adapter@D@__crt_stdio_output@@@__crt_stdio_output@@IAE_NXZ 10032e6f f i libucrt:output.obj
 0001:00031e72       ?validate_and_update_state_at_beginning_of_format_character@?$standard_base@DV?$string_output_adapter@D@__crt_stdio_output@@@__crt_stdio_output@@IAE_NXZ 10032e72 f i libucrt:output.obj
 0001:00031e75       ?validate_and_update_state_at_beginning_of_format_character@?$standard_base@_WV?$stream_output_adapter@_W@__crt_stdio_output@@@__crt_stdio_output@@IAE_NXZ 10032e75 f i libucrt:output.obj
 0001:00031e78       ?validate_and_update_state_at_beginning_of_format_character@?$standard_base@_WV?$string_output_adapter@_W@__crt_stdio_output@@@__crt_stdio_output@@IAE_NXZ 10032e78 f i libucrt:output.obj
 0001:00031e7b       ?validate_and_update_state_at_end_of_format_string@?$format_validation_base@DV?$stream_output_adapter@D@__crt_stdio_output@@@__crt_stdio_output@@IBE_NXZ 10032e7b f i libucrt:output.obj
 0001:00031ea5       ?validate_and_update_state_at_end_of_format_string@?$format_validation_base@DV?$string_output_adapter@D@__crt_stdio_output@@@__crt_stdio_output@@IBE_NXZ 10032ea5 f i libucrt:output.obj
 0001:00031ecf       ?validate_and_update_state_at_end_of_format_string@?$format_validation_base@_WV?$stream_output_adapter@_W@__crt_stdio_output@@@__crt_stdio_output@@IBE_NXZ 10032ecf f i libucrt:output.obj
 0001:00031ef9       ?validate_and_update_state_at_end_of_format_string@?$format_validation_base@_WV?$string_output_adapter@_W@__crt_stdio_output@@@__crt_stdio_output@@IBE_NXZ 10032ef9 f i libucrt:output.obj
 0001:00031f23       ?validate_and_update_state_at_end_of_format_string@?$positional_parameter_base@DV?$stream_output_adapter@D@__crt_stdio_output@@@__crt_stdio_output@@IAE_NXZ 10032f23 f i libucrt:output.obj
 0001:00031fc3       ?validate_and_update_state_at_end_of_format_string@?$positional_parameter_base@DV?$string_output_adapter@D@__crt_stdio_output@@@__crt_stdio_output@@IAE_NXZ 10032fc3 f i libucrt:output.obj
 0001:00032063       ?validate_and_update_state_at_end_of_format_string@?$positional_parameter_base@_WV?$stream_output_adapter@_W@__crt_stdio_output@@@__crt_stdio_output@@IAE_NXZ 10033063 f i libucrt:output.obj
 0001:00032103       ?validate_and_update_state_at_end_of_format_string@?$positional_parameter_base@_WV?$string_output_adapter@_W@__crt_stdio_output@@@__crt_stdio_output@@IAE_NXZ 10033103 f i libucrt:output.obj
 0001:000321a3       ?validate_and_update_state_at_end_of_format_string@?$standard_base@DV?$stream_output_adapter@D@__crt_stdio_output@@@__crt_stdio_output@@IBE_NXZ 100331a3 f i libucrt:output.obj
 0001:000321a6       ?validate_and_update_state_at_end_of_format_string@?$standard_base@DV?$string_output_adapter@D@__crt_stdio_output@@@__crt_stdio_output@@IBE_NXZ 100331a6 f i libucrt:output.obj
 0001:000321a9       ?validate_and_update_state_at_end_of_format_string@?$standard_base@_WV?$stream_output_adapter@_W@__crt_stdio_output@@@__crt_stdio_output@@IBE_NXZ 100331a9 f i libucrt:output.obj
 0001:000321ac       ?validate_and_update_state_at_end_of_format_string@?$standard_base@_WV?$string_output_adapter@_W@__crt_stdio_output@@@__crt_stdio_output@@IBE_NXZ 100331ac f i libucrt:output.obj
 0001:000321af       ?validate_state_for_type_case_a@?$positional_parameter_base@DV?$stream_output_adapter@D@__crt_stdio_output@@@__crt_stdio_output@@IAE_NXZ 100331af f i libucrt:output.obj
 0001:00032216       ?validate_state_for_type_case_a@?$positional_parameter_base@DV?$string_output_adapter@D@__crt_stdio_output@@@__crt_stdio_output@@IAE_NXZ 10033216 f i libucrt:output.obj
 0001:0003227d       ?validate_state_for_type_case_a@?$positional_parameter_base@_WV?$stream_output_adapter@_W@__crt_stdio_output@@@__crt_stdio_output@@IAE_NXZ 1003327d f i libucrt:output.obj
 0001:000322e4       ?validate_state_for_type_case_a@?$positional_parameter_base@_WV?$string_output_adapter@_W@__crt_stdio_output@@@__crt_stdio_output@@IAE_NXZ 100332e4 f i libucrt:output.obj
 0001:0003234b       ?validate_state_for_type_case_a@?$standard_base@DV?$stream_output_adapter@D@__crt_stdio_output@@@__crt_stdio_output@@IBE_NXZ 1003334b f i libucrt:output.obj
 0001:0003234e       ?validate_state_for_type_case_a@?$standard_base@DV?$string_output_adapter@D@__crt_stdio_output@@@__crt_stdio_output@@IBE_NXZ 1003334e f i libucrt:output.obj
 0001:00032351       ?validate_state_for_type_case_a@?$standard_base@_WV?$stream_output_adapter@_W@__crt_stdio_output@@@__crt_stdio_output@@IBE_NXZ 10033351 f i libucrt:output.obj
 0001:00032354       ?validate_state_for_type_case_a@?$standard_base@_WV?$string_output_adapter@_W@__crt_stdio_output@@@__crt_stdio_output@@IBE_NXZ 10033354 f i libucrt:output.obj
 0001:00032357       ?validate_stream_is_ansi_if_required@?$__acrt_stdio_char_traits@D@@SA_NQAU_iobuf@@@Z 10033357 f i libucrt:output.obj
 0001:000323f9       ?validate_stream_is_ansi_if_required@?$__acrt_stdio_char_traits@_W@@SA_NQAU_iobuf@@@Z 100333f9 f i libucrt:output.obj
 0001:000323fc       ?wide_null_string@?$output_processor@DV?$stream_output_adapter@D@__crt_stdio_output@@V?$format_validation_base@DV?$stream_output_adapter@D@__crt_stdio_output@@@2@@__crt_stdio_output@@CAPA_WXZ 100333fc f i libucrt:output.obj
 0001:00032402       ?wide_null_string@?$output_processor@DV?$stream_output_adapter@D@__crt_stdio_output@@V?$positional_parameter_base@DV?$stream_output_adapter@D@__crt_stdio_output@@@2@@__crt_stdio_output@@CAPA_WXZ 10033402 f i libucrt:output.obj
 0001:00032408       ?wide_null_string@?$output_processor@DV?$stream_output_adapter@D@__crt_stdio_output@@V?$standard_base@DV?$stream_output_adapter@D@__crt_stdio_output@@@2@@__crt_stdio_output@@CAPA_WXZ 10033408 f i libucrt:output.obj
 0001:0003240e       ?wide_null_string@?$output_processor@DV?$string_output_adapter@D@__crt_stdio_output@@V?$format_validation_base@DV?$string_output_adapter@D@__crt_stdio_output@@@2@@__crt_stdio_output@@CAPA_WXZ 1003340e f i libucrt:output.obj
 0001:00032414       ?wide_null_string@?$output_processor@DV?$string_output_adapter@D@__crt_stdio_output@@V?$positional_parameter_base@DV?$string_output_adapter@D@__crt_stdio_output@@@2@@__crt_stdio_output@@CAPA_WXZ 10033414 f i libucrt:output.obj
 0001:0003241a       ?wide_null_string@?$output_processor@DV?$string_output_adapter@D@__crt_stdio_output@@V?$standard_base@DV?$string_output_adapter@D@__crt_stdio_output@@@2@@__crt_stdio_output@@CAPA_WXZ 1003341a f i libucrt:output.obj
 0001:00032420       ?wide_null_string@?$output_processor@_WV?$stream_output_adapter@_W@__crt_stdio_output@@V?$format_validation_base@_WV?$stream_output_adapter@_W@__crt_stdio_output@@@2@@__crt_stdio_output@@CAPA_WXZ 10033420 f i libucrt:output.obj
 0001:00032426       ?wide_null_string@?$output_processor@_WV?$stream_output_adapter@_W@__crt_stdio_output@@V?$positional_parameter_base@_WV?$stream_output_adapter@_W@__crt_stdio_output@@@2@@__crt_stdio_output@@CAPA_WXZ 10033426 f i libucrt:output.obj
 0001:0003242c       ?wide_null_string@?$output_processor@_WV?$stream_output_adapter@_W@__crt_stdio_output@@V?$standard_base@_WV?$stream_output_adapter@_W@__crt_stdio_output@@@2@@__crt_stdio_output@@CAPA_WXZ 1003342c f i libucrt:output.obj
 0001:00032432       ?wide_null_string@?$output_processor@_WV?$string_output_adapter@_W@__crt_stdio_output@@V?$format_validation_base@_WV?$string_output_adapter@_W@__crt_stdio_output@@@2@@__crt_stdio_output@@CAPA_WXZ 10033432 f i libucrt:output.obj
 0001:00032438       ?wide_null_string@?$output_processor@_WV?$string_output_adapter@_W@__crt_stdio_output@@V?$positional_parameter_base@_WV?$string_output_adapter@_W@__crt_stdio_output@@@2@@__crt_stdio_output@@CAPA_WXZ 10033438 f i libucrt:output.obj
 0001:0003243e       ?wide_null_string@?$output_processor@_WV?$string_output_adapter@_W@__crt_stdio_output@@V?$standard_base@_WV?$string_output_adapter@_W@__crt_stdio_output@@@2@@__crt_stdio_output@@CAPA_WXZ 1003343e f i libucrt:output.obj
 0001:00032444       ?write_character@?$stream_output_adapter@D@__crt_stdio_output@@QBEXDQAH@Z 10033444 f i libucrt:output.obj
 0001:00032490       ?write_character@?$stream_output_adapter@_W@__crt_stdio_output@@QBEX_WQAH@Z 10033490 f i libucrt:output.obj
 0001:000324e0       ?write_character@?$string_output_adapter@D@__crt_stdio_output@@QBE_NDQAH@Z 100334e0 f i libucrt:output.obj
 0001:00032532       ?write_character@?$string_output_adapter@_W@__crt_stdio_output@@QBE_N_WQAH@Z 10033532 f i libucrt:output.obj
 0001:00032588       ?write_stored_string_tchar@?$output_processor@DV?$stream_output_adapter@D@__crt_stdio_output@@V?$format_validation_base@DV?$stream_output_adapter@D@__crt_stdio_output@@@2@@__crt_stdio_output@@AAE_ND@Z 10033588 f i libucrt:output.obj
 0001:00032658       ?write_stored_string_tchar@?$output_processor@DV?$stream_output_adapter@D@__crt_stdio_output@@V?$positional_parameter_base@DV?$stream_output_adapter@D@__crt_stdio_output@@@2@@__crt_stdio_output@@AAE_ND@Z 10033658 f i libucrt:output.obj
 0001:00032728       ?write_stored_string_tchar@?$output_processor@DV?$stream_output_adapter@D@__crt_stdio_output@@V?$standard_base@DV?$stream_output_adapter@D@__crt_stdio_output@@@2@@__crt_stdio_output@@AAE_ND@Z 10033728 f i libucrt:output.obj
 0001:000327f8       ?write_stored_string_tchar@?$output_processor@DV?$string_output_adapter@D@__crt_stdio_output@@V?$format_validation_base@DV?$string_output_adapter@D@__crt_stdio_output@@@2@@__crt_stdio_output@@AAE_ND@Z 100337f8 f i libucrt:output.obj
 0001:000328c8       ?write_stored_string_tchar@?$output_processor@DV?$string_output_adapter@D@__crt_stdio_output@@V?$positional_parameter_base@DV?$string_output_adapter@D@__crt_stdio_output@@@2@@__crt_stdio_output@@AAE_ND@Z 100338c8 f i libucrt:output.obj
 0001:00032998       ?write_stored_string_tchar@?$output_processor@DV?$string_output_adapter@D@__crt_stdio_output@@V?$standard_base@DV?$string_output_adapter@D@__crt_stdio_output@@@2@@__crt_stdio_output@@AAE_ND@Z 10033998 f i libucrt:output.obj
 0001:00032a68       ?write_stored_string_tchar@?$output_processor@_WV?$stream_output_adapter@_W@__crt_stdio_output@@V?$format_validation_base@_WV?$stream_output_adapter@_W@__crt_stdio_output@@@2@@__crt_stdio_output@@AAE_N_W@Z 10033a68 f i libucrt:output.obj
 0001:00032b15       ?write_stored_string_tchar@?$output_processor@_WV?$stream_output_adapter@_W@__crt_stdio_output@@V?$positional_parameter_base@_WV?$stream_output_adapter@_W@__crt_stdio_output@@@2@@__crt_stdio_output@@AAE_N_W@Z 10033b15 f i libucrt:output.obj
 0001:00032bc2       ?write_stored_string_tchar@?$output_processor@_WV?$stream_output_adapter@_W@__crt_stdio_output@@V?$standard_base@_WV?$stream_output_adapter@_W@__crt_stdio_output@@@2@@__crt_stdio_output@@AAE_N_W@Z 10033bc2 f i libucrt:output.obj
 0001:00032c6f       ?write_stored_string_tchar@?$output_processor@_WV?$string_output_adapter@_W@__crt_stdio_output@@V?$format_validation_base@_WV?$string_output_adapter@_W@__crt_stdio_output@@@2@@__crt_stdio_output@@AAE_N_W@Z 10033c6f f i libucrt:output.obj
 0001:00032d1c       ?write_stored_string_tchar@?$output_processor@_WV?$string_output_adapter@_W@__crt_stdio_output@@V?$positional_parameter_base@_WV?$string_output_adapter@_W@__crt_stdio_output@@@2@@__crt_stdio_output@@AAE_N_W@Z 10033d1c f i libucrt:output.obj
 0001:00032dc9       ?write_stored_string_tchar@?$output_processor@_WV?$string_output_adapter@_W@__crt_stdio_output@@V?$standard_base@_WV?$string_output_adapter@_W@__crt_stdio_output@@@2@@__crt_stdio_output@@AAE_N_W@Z 10033dc9 f i libucrt:output.obj
 0001:00032e76       ?write_string@?$stream_output_adapter@D@__crt_stdio_output@@QBEXQBDHQAH1@Z 10033e76 f i libucrt:output.obj
 0001:00032f22       ?write_string@?$stream_output_adapter@_W@__crt_stdio_output@@QBEXQB_WHQAH1@Z 10033f22 f i libucrt:output.obj
 0001:00032fd2       ?write_string@?$string_output_adapter@D@__crt_stdio_output@@QBEXQBDHQAH1@Z 10033fd2 f i libucrt:output.obj
 0001:00033089       ?write_string@?$string_output_adapter@_W@__crt_stdio_output@@QBEXQB_WHQAH1@Z 10034089 f i libucrt:output.obj
 0001:00033149       ___acrt_isleadbyte_l_noupdate 10034149 f i libucrt:output.obj
 0001:0003316a       ___acrt_locale_changed     1003416a f i libucrt:output.obj
 0001:0003317b       ___stdio_common_vfprintf   1003417b f   libucrt:output.obj
 0001:0003320f       ___stdio_common_vfprintf_p 1003420f f   libucrt:output.obj
 0001:000332a3       ___stdio_common_vfprintf_s 100342a3 f   libucrt:output.obj
 0001:00033337       ___stdio_common_vfwprintf  10034337 f   libucrt:output.obj
 0001:000333cb       ___stdio_common_vfwprintf_p 100343cb f   libucrt:output.obj
 0001:0003345f       ___stdio_common_vfwprintf_s 1003445f f   libucrt:output.obj
 0001:000334f3       ___stdio_common_vsnprintf_s 100344f3 f   libucrt:output.obj
 0001:00033523       ___stdio_common_vsnwprintf_s 10034523 f   libucrt:output.obj
 0001:00033553       ___stdio_common_vsprintf   10034553 f   libucrt:output.obj
 0001:00033580       ___stdio_common_vsprintf_p 10034580 f   libucrt:output.obj
 0001:000335ad       ___stdio_common_vsprintf_s 100345ad f   libucrt:output.obj
 0001:000335da       ___stdio_common_vswprintf  100345da f   libucrt:output.obj
 0001:00033607       ___stdio_common_vswprintf_p 10034607 f   libucrt:output.obj
 0001:00033634       ___stdio_common_vswprintf_s 10034634 f   libucrt:output.obj
 0001:00033661       _calloc                    10034661 f   libucrt:calloc.obj
 0001:0003366e       _realloc                   1003466e f   libucrt:realloc.obj
 0001:0003367b       ??$?B$$A6GXPAXK0@Z@__crt_fast_encoded_nullptr_t@@QBEP6GXPAXK0@ZXZ 1003467b f i libucrt:exit.obj
 0001:00033699       ??$__crt_fast_decode_pointer@P6GXPAXK0@Z@@YAP6GXPAXK0@ZQ6GX0K0@Z@Z 10034699 f i libucrt:exit.obj
 0001:000336b4       ??$__crt_fast_encode_pointer@P6GXPAXK0@Z@@YAP6GXPAXK0@ZQ6GX0K0@Z@Z 100346b4 f i libucrt:exit.obj
 0001:000336da       ??$__crt_get_proc_address@P6GXI@Z@@YAP6GXI@ZQAUHINSTANCE__@@QBD@Z 100346da f i libucrt:exit.obj
 0001:000336f1       ??0?$__crt_unique_handle_t@U__crt_hmodule_traits@@@@QAE@QAUHINSTANCE__@@@Z 100346f1 f i libucrt:exit.obj
 0001:00033705       ??1?$__crt_unique_handle_t@U__crt_hmodule_traits@@@@QAE@XZ 10034705 f i libucrt:exit.obj
 0001:00033738       ?close@?$__crt_unique_handle_t@U__crt_hmodule_traits@@@@QAEXXZ 10034738 f i libucrt:exit.obj
 0001:00033754       ?close@__crt_hmodule_traits@@SA_NPAUHINSTANCE__@@@Z 10034754 f i libucrt:exit.obj
 0001:0003391f       ?get@?$__crt_unique_handle_t@U__crt_hmodule_traits@@@@QBEPAUHINSTANCE__@@XZ 1003491f f i libucrt:exit.obj
 0001:00033922       ?get_address_of@?$__crt_unique_handle_t@U__crt_hmodule_traits@@@@QAEPAPAUHINSTANCE__@@XZ 10034922 f i libucrt:exit.obj
 0001:00033925       ?get_invalid_value@__crt_hmodule_traits@@SAPAUHINSTANCE__@@XZ 10034925 f i libucrt:exit.obj
 0001:00033a22       __Exit                     10034a22 f   libucrt:exit.obj
 0001:00033a3d       ___acrt_initialize_thread_local_exit_callback 10034a3d f   libucrt:exit.obj
 0001:00033a4f       __c_exit                   10034a4f f   libucrt:exit.obj
 0001:00033a61       __cexit                    10034a61 f   libucrt:exit.obj
 0001:00033a73       __exit                     10034a73 f   libucrt:exit.obj
 0001:00033a8e       __is_c_termination_complete 10034a8e f   libucrt:exit.obj
 0001:00033a94       __register_thread_local_exe_atexit_callback 10034a94 f   libucrt:exit.obj
 0001:00033ada       _exit                      10034ada f   libucrt:exit.obj
 0001:00033af5       _quick_exit                10034af5 f   libucrt:exit.obj
 0001:00033b10       _strncat                   10034b10 f   libucrt:strncat.obj
 0001:00033ca0       _strncpy                   10034ca0 f   libucrt:strncpy.obj
 0001:00033e0d       ?is_in_use@__crt_stdio_stream@@QBE_NXZ 10034e0d f i libucrt:fclose.obj
 0001:00033e1c       __fclose_nolock            10034e1c f   libucrt:fclose.obj
 0001:00033eaf       _fclose                    10034eaf f   libucrt:fclose.obj
 0001:000341e1       ??$open_file@ABQBDABQBDABHPAU_iobuf@@@?$__crt_char_traits@D@@SAPAU_iobuf@@ABQBD0ABH$$QAPAU1@@Z 100351e1 f i libucrt:fopen.obj
 0001:0003420c       ??$open_file@ABQB_WABQB_WABHPAU_iobuf@@@?$__crt_char_traits@_W@@SAPAU_iobuf@@ABQB_W0ABH$$QAPAU1@@Z 1003520c f i libucrt:fopen.obj
 0001:00034237       ?unlock@__crt_stdio_stream@@QBEXXZ 10035237 f i libucrt:fopen.obj
 0001:00034242       __fsopen                   10035242 f   libucrt:fopen.obj
 0001:0003424f       __wfopen                   1003524f f   libucrt:fopen.obj
 0001:0003426b       __wfopen_s                 1003526b f   libucrt:fopen.obj
 0001:000342c3       __wfsopen                  100352c3 f   libucrt:fopen.obj
 0001:000342d0       _fopen                     100352d0 f   libucrt:fopen.obj
 0001:000342ec       _fopen_s                   100352ec f   libucrt:fopen.obj
 0001:00034344       ?has_any_buffer@__crt_stdio_stream@@QBE_NXZ 10035344 f i libucrt:fread.obj
 0001:00034359       ?has_any_of@__crt_stdio_stream@@QBE_NJ@Z 10035359 f i libucrt:fread.obj
 0001:00034375       ?set_flags@__crt_stdio_stream@@QBE_NJ@Z 10035375 f i libucrt:fread.obj
 0001:000343a5       __fread_nolock             100353a5 f   libucrt:fread.obj
 0001:000343c9       __fread_nolock_s           100353c9 f   libucrt:fread.obj
 0001:00034608       _fread                     10035608 f   libucrt:fread.obj
 0001:0003462c       _fread_s                   1003562c f   libucrt:fread.obj
 0001:00034784       ??$?RV<lambda_11b4f7b0d3157825a5656a18eba1ae27>@@AAV<lambda_b51c0495177f500e782686251704ae76>@@V<lambda_cf89b47920b5017557bfe891e78aca36>@@@?$__crt_seh_guarded_call@I@@QAEI$$QAV<lambda_11b4f7b0d3157825a5656a18eba1ae27>@@AAV<lambda_b51c0495177f500e782686251704ae76>@@$$QAV<lambda_cf89b47920b5017557bfe891e78aca36>@@@Z 10035784 f i libucrt:fwrite.obj
 0001:000347e9       ??$__acrt_lock_stream_and_call@V<lambda_b51c0495177f500e782686251704ae76>@@@@YAIQAU_iobuf@@$$QAV<lambda_b51c0495177f500e782686251704ae76>@@@Z 100357e9 f i libucrt:fwrite.obj
 0001:000348de       ?has_big_buffer@__crt_stdio_stream@@QBE_NXZ 100358de f i libucrt:fwrite.obj
 0001:000348ef       __fwrite_nolock            100358ef f   libucrt:fwrite.obj
 0001:00034ac6       _fwrite                    10035ac6 f   libucrt:fwrite.obj
 0001:00034b34       ??$?R_W@__crt_internal_free_policy@@QBEXQB_W@Z 10035b34 f i libucrt:unlink.obj
 0001:00034b4a       ??0?$__crt_unique_heap_ptr@_WU__crt_internal_free_policy@@@@QAE@QA_W@Z 10035b4a f i libucrt:unlink.obj
 0001:00034b5e       ??1?$__crt_unique_heap_ptr@_WU__crt_internal_free_policy@@@@QAE@XZ 10035b5e f i libucrt:unlink.obj
 0001:00034b74       ?get@?$__crt_unique_heap_ptr@_WU__crt_internal_free_policy@@@@QBEPA_WXZ 10035b74 f i libucrt:unlink.obj
 0001:00034b77       ?get_address_of@?$__crt_unique_heap_ptr@_WU__crt_internal_free_policy@@@@QAEPAPA_WXZ 10035b77 f i libucrt:unlink.obj
 0001:00034b7a       ?release@?$__crt_unique_heap_ptr@_WU__crt_internal_free_policy@@@@QAEXXZ 10035b7a f i libucrt:unlink.obj
 0001:00034b90       __unlink                   10035b90 f   libucrt:unlink.obj
 0001:00034b9d       _remove                    10035b9d f   libucrt:unlink.obj
 0001:00034bfd       ?__acrt_stdio_reset_buffer@@YAXV__crt_stdio_stream@@@Z 10035bfd f i libucrt:rewind.obj
 0001:00034c18       ?has_all_of@__crt_stdio_stream@@QBE_NJ@Z 10035c18 f i libucrt:rewind.obj
 0001:00034c37       ?unset_flags@__crt_stdio_stream@@QBE_NJ@Z 10035c37 f i libucrt:rewind.obj
 0001:00034c6b       _rewind                    10035c6b f   libucrt:rewind.obj
 0001:00034d6c       _ldexp                     10035d6c f   libucrt:ldexp.obj
 0001:00034fd0       _fmod                      10035fd0 f   libucrt:87fmod.obj
 0001:00034fda       __CIfmod                   10035fda f   libucrt:87fmod.obj
 0001:00035000       _ceil                      10036000 f   libucrt:ceil_pentium4.obj
 0001:00035040       __ceil_pentium4            10036040 f   libucrt:ceil_pentium4.obj
 0001:00035164       ??$__vcrt_va_start_verify_argument_type@QB_W@@YAXXZ 10036164 f i libucrt:assert.obj
 0001:00036101       ??$ftprintf@PAU_iobuf@@PBDABQBDABQBDABI@?$__crt_char_traits@D@@SAH$$QAPAU_iobuf@@$$QAPBDABQBD2ABI@Z 10037101 f i libucrt:assert.obj
 0001:00036133       ??$ftprintf@PAU_iobuf@@PB_WABQB_WABQB_WABI@?$__crt_char_traits@_W@@SAH$$QAPAU_iobuf@@$$QAPB_WABQB_W2ABI@Z 10037133 f i libucrt:assert.obj
 0001:00036165       ??$get_module_file_name@AAPAUHINSTANCE__@@AAY0BAF@DK@?$__crt_char_traits@D@@SAKAAPAUHINSTANCE__@@AAY0BAF@D$$QAK@Z 10037165 f i libucrt:assert.obj
 0001:00036185       ??$get_module_file_name@AAPAUHINSTANCE__@@AAY0BAF@_WK@?$__crt_char_traits@_W@@SAKAAPAUHINSTANCE__@@AAY0BAF@_W$$QAK@Z 10037185 f i libucrt:assert.obj
 0001:000361a5       ??$itot_s@ABIQAD$$CBIH@?$__crt_char_traits@D@@SAHABI$$QBQAD$$QBI$$QAH@Z 100371a5 f i libucrt:assert.obj
 0001:000361d0       ??$itot_s@ABIQA_W$$CBIH@?$__crt_char_traits@_W@@SAHABI$$QBQA_W$$QBI$$QAH@Z 100371d0 f i libucrt:assert.obj
 0001:000361fb       ??$show_message_box@AAY0CEA@DPBDJ@?$__crt_char_traits@D@@SAHAAY0CEA@D$$QAPBD$$QAJ@Z 100371fb f i libucrt:assert.obj
 0001:0003621e       ??$show_message_box@AAY0CEA@_WPB_WJ@?$__crt_char_traits@_W@@SAHAAY0CEA@_W$$QAPB_W$$QAJ@Z 1003721e f i libucrt:assert.obj
 0001:00036241       ??$tcscat_s@ABQADABIAAPAD@?$__crt_char_traits@D@@SAHABQADABIAAPAD@Z 10037241 f i libucrt:assert.obj
 0001:00036266       ??$tcscat_s@ABQADABIABQBD@?$__crt_char_traits@D@@SAHABQADABIABQBD@Z 10037266 f i libucrt:assert.obj
 0001:0003628b       ??$tcscat_s@ABQADABIPBD@?$__crt_char_traits@D@@SAHABQADABI$$QAPBD@Z 1003728b f i libucrt:assert.obj
 0001:000362b0       ??$tcscat_s@ABQA_WABIAAPA_W@?$__crt_char_traits@_W@@SAHABQA_WABIAAPA_W@Z 100372b0 f i libucrt:assert.obj
 0001:000362d5       ??$tcscat_s@ABQA_WABIABQB_W@?$__crt_char_traits@_W@@SAHABQA_WABIABQB_W@Z 100372d5 f i libucrt:assert.obj
 0001:000362fa       ??$tcscat_s@ABQA_WABIPB_W@?$__crt_char_traits@_W@@SAHABQA_WABI$$QAPB_W@Z 100372fa f i libucrt:assert.obj
 0001:0003631f       ??$tcscpy_s@AAY0BAF@DIPBD@?$__crt_char_traits@D@@SAHAAY0BAF@D$$QAI$$QAPBD@Z 1003731f f i libucrt:assert.obj
 0001:00036342       ??$tcscpy_s@AAY0BAF@_WIPB_W@?$__crt_char_traits@_W@@SAHAAY0BAF@_W$$QAI$$QAPB_W@Z 10037342 f i libucrt:assert.obj
 0001:00036365       ??$tcscpy_s@ABQADABIPBD@?$__crt_char_traits@D@@SAHABQADABI$$QAPBD@Z 10037365 f i libucrt:assert.obj
 0001:0003638a       ??$tcscpy_s@ABQA_WABIPB_W@?$__crt_char_traits@_W@@SAHABQA_WABI$$QAPB_W@Z 1003738a f i libucrt:assert.obj
 0001:000363af       ??$tcslen@AAY0BAF@D@?$__crt_char_traits@D@@SAIAAY0BAF@D@Z 100373af f i libucrt:assert.obj
 0001:000363ca       ??$tcslen@AAY0BAF@_W@?$__crt_char_traits@_W@@SAIAAY0BAF@_W@Z 100373ca f i libucrt:assert.obj
 0001:000363ed       ??$tcslen@ABQAD@?$__crt_char_traits@D@@SAIABQAD@Z 100373ed f i libucrt:assert.obj
 0001:0003640b       ??$tcslen@ABQA_W@?$__crt_char_traits@_W@@SAIABQA_W@Z 1003740b f i libucrt:assert.obj
 0001:00036430       ??$tcslen@ABQBD@?$__crt_char_traits@D@@SAIABQBD@Z 10037430 f i libucrt:assert.obj
 0001:0003644e       ??$tcslen@ABQB_W@?$__crt_char_traits@_W@@SAIABQB_W@Z 1003744e f i libucrt:assert.obj
 0001:00036473       ??$tcsncat_s@ABQADABIAAPBD$$CBI@?$__crt_char_traits@D@@SAHABQADABIAAPBD$$QBI@Z 10037473 f i libucrt:assert.obj
 0001:0003649e       ??$tcsncat_s@ABQADABIABQBDABI@?$__crt_char_traits@D@@SAHABQADABIABQBD1@Z 1003749e f i libucrt:assert.obj
 0001:000364c9       ??$tcsncat_s@ABQADABIPBD$$CBI@?$__crt_char_traits@D@@SAHABQADABI$$QAPBD$$QBI@Z 100374c9 f i libucrt:assert.obj
 0001:000364f4       ??$tcsncat_s@ABQA_WABIAAPB_W$$CBI@?$__crt_char_traits@_W@@SAHABQA_WABIAAPB_W$$QBI@Z 100374f4 f i libucrt:assert.obj
 0001:0003651f       ??$tcsncat_s@ABQA_WABIABQB_WABI@?$__crt_char_traits@_W@@SAHABQA_WABIABQB_W1@Z 1003751f f i libucrt:assert.obj
 0001:0003654a       ??$tcsncat_s@ABQA_WABIPB_W$$CBI@?$__crt_char_traits@_W@@SAHABQA_WABI$$QAPB_W$$QBI@Z 1003754a f i libucrt:assert.obj
 0001:000366ef       __assert                   100376ef f   libucrt:assert.obj
 0001:00036749       __invoke_watson_if_error   10037749 f i libucrt:assert.obj
 0001:00036773       __vfwprintf_l              10037773 f i libucrt:assert.obj
 0001:000367a1       __vswprintf_c_l            100377a1 f i libucrt:assert.obj
 0001:000367db       __wassert                  100377db f   libucrt:assert.obj
 0001:00036835       _fwprintf                  10037835 f i libucrt:assert.obj
 0001:000368f7       _swprintf                  100378f7 f i libucrt:assert.obj
 0001:0003691c       __errcode                  1003791c f   libucrt:fpexcept.obj
 0001:0003695d       __except1                  1003795d f   libucrt:fpexcept.obj
 0001:00036a5e       __except2                  10037a5e f   libucrt:fpexcept.obj
 0001:00036ba7       __handle_exc               10037ba7 f   libucrt:fpexcept.obj
 0001:00036dff       __handle_qnan2             10037dff f   libucrt:fpexcept.obj
 0001:00036e0f       __raise_exc                10037e0f f   libucrt:fpexcept.obj
 0001:00036e3a       __raise_exc_ex             10037e3a f   libucrt:fpexcept.obj
 0001:000371e7       __raise_excf               100381e7 f   libucrt:fpexcept.obj
 0001:00037212       __set_errno_from_matherr   10038212 f   libucrt:fpexcept.obj
 0001:0003724c       __umatherr                 1003824c f   libucrt:fpexcept.obj
 0001:00037316       __initterm                 10038316 f   libucrt:initterm.obj
 0001:00037389       __initterm_e               10038389 f   libucrt:initterm.obj
 0001:0003740c       __seh_filter_dll           1003840c f   libucrt:exception_filter.obj
 0001:00037434       __seh_filter_exe           10038434 f   libucrt:exception_filter.obj
 0001:00037603       ??$?RPAD@__crt_internal_free_policy@@QBEXQBQAD@Z 10038603 f i libucrt:environment_initialization.obj
 0001:00037619       ??$?RPA_W@__crt_internal_free_policy@@QBEXQBQA_W@Z 10038619 f i libucrt:environment_initialization.obj
 0001:00037af7       ??$get_environment_from_os@$$$V@?$__crt_char_traits@D@@SAPADXZ 10038af7 f i libucrt:environment_initialization.obj
 0001:00037afc       ??$get_environment_from_os@$$$V@?$__crt_char_traits@_W@@SAPA_WXZ 10038afc f i libucrt:environment_initialization.obj
 0001:00037c36       ??$set_variable_in_environment_nolock@PADH@?$__crt_char_traits@D@@SAH$$QAPAD$$QAH@Z 10038c36 f i libucrt:environment_initialization.obj
 0001:00037c54       ??$set_variable_in_environment_nolock@PA_WH@?$__crt_char_traits@_W@@SAH$$QAPA_W$$QAH@Z 10038c54 f i libucrt:environment_initialization.obj
 0001:00037c72       ??$tcscpy_s@PADABIAAPAD@?$__crt_char_traits@D@@SAH$$QAPADABIAAPAD@Z 10038c72 f i libucrt:environment_initialization.obj
 0001:00037c97       ??$tcscpy_s@PA_WABIAAPA_W@?$__crt_char_traits@_W@@SAH$$QAPA_WABIAAPA_W@Z 10038c97 f i libucrt:environment_initialization.obj
 0001:00037cbc       ??$tcslen@AAPAD@?$__crt_char_traits@D@@SAIAAPAD@Z 10038cbc f i libucrt:environment_initialization.obj
 0001:00037cda       ??$tcslen@AAPA_W@?$__crt_char_traits@_W@@SAIAAPA_W@Z 10038cda f i libucrt:environment_initialization.obj
 0001:00037cff       ??$uninitialize@A6AXAAPAPAD@Z@?$dual_state_global@PAPAD@__crt_state_management@@QAEXA6AXAAPAPAD@Z@Z 10038cff f i libucrt:environment_initialization.obj
 0001:00037d4f       ??$uninitialize@A6AXAAPAPA_W@Z@?$dual_state_global@PAPA_W@__crt_state_management@@QAEXA6AXAAPAPA_W@Z@Z 10038d4f f i libucrt:environment_initialization.obj
 0001:00037de1       ??0?$__crt_unique_heap_ptr@PADU__crt_internal_free_policy@@@@QAE@QAPAD@Z 10038de1 f i libucrt:environment_initialization.obj
 0001:00037df5       ??0?$__crt_unique_heap_ptr@PA_WU__crt_internal_free_policy@@@@QAE@QAPA_W@Z 10038df5 f i libucrt:environment_initialization.obj
 0001:00037e09       ??1?$__crt_unique_heap_ptr@PADU__crt_internal_free_policy@@@@QAE@XZ 10038e09 f i libucrt:environment_initialization.obj
 0001:00037e1f       ??1?$__crt_unique_heap_ptr@PA_WU__crt_internal_free_policy@@@@QAE@XZ 10038e1f f i libucrt:environment_initialization.obj
 0001:00037e35       ??B?$__crt_unique_heap_ptr@PADU__crt_internal_free_policy@@@@QBE_NXZ 10038e35 f i libucrt:environment_initialization.obj
 0001:00037e3f       ??B?$__crt_unique_heap_ptr@PA_WU__crt_internal_free_policy@@@@QBE_NXZ 10038e3f f i libucrt:environment_initialization.obj
 0001:00037e49       ??B?$__crt_unique_heap_ptr@_WU__crt_internal_free_policy@@@@QBE_NXZ 10038e49 f i libucrt:environment_initialization.obj
 0001:00037e53       ?__crt_compute_required_transform_buffer_count@@YAIIQBD@Z 10038e53 f i libucrt:environment_initialization.obj
 0001:00037e73       ?__crt_compute_required_transform_buffer_count@@YAIIQB_W@Z 10038e73 f i libucrt:environment_initialization.obj
 0001:00037e96       ?__crt_transform_string@@YAIIQBDQA_WI@Z 10038e96 f i libucrt:environment_initialization.obj
 0001:00037eba       ?__crt_transform_string@@YAIIQB_WQADI@Z 10038eba f i libucrt:environment_initialization.obj
 0001:00037ee2       ?detach@?$__crt_unique_heap_ptr@DU__crt_internal_free_policy@@@@QAEPADXZ 10038ee2 f i libucrt:environment_initialization.obj
 0001:00037ee8       ?detach@?$__crt_unique_heap_ptr@PADU__crt_internal_free_policy@@@@QAEPAPADXZ 10038ee8 f i libucrt:environment_initialization.obj
 0001:00037eee       ?detach@?$__crt_unique_heap_ptr@PA_WU__crt_internal_free_policy@@@@QAEPAPA_WXZ 10038eee f i libucrt:environment_initialization.obj
 0001:00037ef4       ?detach@?$__crt_unique_heap_ptr@_WU__crt_internal_free_policy@@@@QAEPA_WXZ 10038ef4 f i libucrt:environment_initialization.obj
 0001:00037efa       ?get@?$__crt_unique_heap_ptr@PADU__crt_internal_free_policy@@@@QBEPAPADXZ 10038efa f i libucrt:environment_initialization.obj
 0001:00037efd       ?get@?$__crt_unique_heap_ptr@PA_WU__crt_internal_free_policy@@@@QBEPAPA_WXZ 10038efd f i libucrt:environment_initialization.obj
 0001:00037f00       ?get_current_state_index@__crt_state_management@@YAIXZ 10038f00 f i libucrt:environment_initialization.obj
 0001:00037f27       ?initialize@?$dual_state_global@PAPAD@__crt_state_management@@QAEXQAPAD@Z 10038f27 f i libucrt:environment_initialization.obj
 0001:00037f64       ?initialize@?$dual_state_global@PAPA_W@__crt_state_management@@QAEXQAPA_W@Z 10038f64 f i libucrt:environment_initialization.obj
 0001:00037fa1       ?is_valid@?$__crt_unique_heap_ptr@PADU__crt_internal_free_policy@@@@QBE_NXZ 10038fa1 f i libucrt:environment_initialization.obj
 0001:00037fab       ?is_valid@?$__crt_unique_heap_ptr@PA_WU__crt_internal_free_policy@@@@QBE_NXZ 10038fab f i libucrt:environment_initialization.obj
 0001:00037fb5       ?is_valid@?$__crt_unique_heap_ptr@_WU__crt_internal_free_policy@@@@QBE_NXZ 10038fb5 f i libucrt:environment_initialization.obj
 0001:00037fc5       ?release@?$__crt_unique_heap_ptr@PADU__crt_internal_free_policy@@@@QAEXXZ 10038fc5 f i libucrt:environment_initialization.obj
 0001:00037fdb       ?release@?$__crt_unique_heap_ptr@PA_WU__crt_internal_free_policy@@@@QAEXXZ 10038fdb f i libucrt:environment_initialization.obj
 0001:00037ff1       ?value@?$dual_state_global@PAPAD@__crt_state_management@@QAEAAPAPADXZ 10038ff1 f i libucrt:environment_initialization.obj
 0001:00037ff4       ?value@?$dual_state_global@PAPA_W@__crt_state_management@@QAEAAPAPA_WXZ 10038ff4 f i libucrt:environment_initialization.obj
 0001:00037ff7       ___dcrt_get_or_create_narrow_environment_nolock 10038ff7 f   libucrt:environment_initialization.obj
 0001:00037ffc       ___dcrt_get_or_create_wide_environment_nolock 10038ffc f   libucrt:environment_initialization.obj
 0001:00038001       ___dcrt_uninitialize_environments_nolock 10039001 f   libucrt:environment_initialization.obj
 0001:00038045       ___p__environ              10039045 f   libucrt:environment_initialization.obj
 0001:0003804b       ___p__wenviron             1003904b f   libucrt:environment_initialization.obj
 0001:00038051       __get_initial_narrow_environment 10039051 f   libucrt:environment_initialization.obj
 0001:0003806a       __get_initial_wide_environment 1003906a f   libucrt:environment_initialization.obj
 0001:00038083       __initialize_narrow_environment 10039083 f   libucrt:environment_initialization.obj
 0001:00038088       __initialize_wide_environment 10039088 f   libucrt:environment_initialization.obj
 0001:0003808d       ??$?BP6AXXZ@__crt_fast_encoded_nullptr_t@@QBEPAP6AXXZXZ 1003908d f i libucrt:onexit.obj
 0001:000380ab       ??$?RP6AXXZ@__crt_internal_free_policy@@QBEXQBQ6AXXZ@Z 100390ab f i libucrt:onexit.obj
 0001:000380c1       ??$?RV<lambda_800076c951b434888f4765a74a194fcc>@@AAV<lambda_4e60a939b0d047cfe11ddc22648dfba9>@@V<lambda_6dbb1268764f43b569ce7b67e331d33a>@@@?$__crt_seh_guarded_call@H@@QAEH$$QAV<lambda_800076c951b434888f4765a74a194fcc>@@AAV<lambda_4e60a939b0d047cfe11ddc22648dfba9>@@$$QAV<lambda_6dbb1268764f43b569ce7b67e331d33a>@@@Z 100390c1 f i libucrt:onexit.obj
 0001:00038126       ??$?RV<lambda_995298e7d72eb4c2aab26c0585b3abe5>@@AAV<lambda_275893d493268fdec8709772e3fcec0e>@@V<lambda_293819299cbf9a7022e18b56a874bb5c>@@@?$__crt_seh_guarded_call@H@@QAEH$$QAV<lambda_995298e7d72eb4c2aab26c0585b3abe5>@@AAV<lambda_275893d493268fdec8709772e3fcec0e>@@$$QAV<lambda_293819299cbf9a7022e18b56a874bb5c>@@@Z 10039126 f i libucrt:onexit.obj
 0001:0003818b       ??$__acrt_lock_and_call@V<lambda_275893d493268fdec8709772e3fcec0e>@@@@YAHW4__acrt_lock_id@@$$QAV<lambda_275893d493268fdec8709772e3fcec0e>@@@Z 1003918b f i libucrt:onexit.obj
 0001:000381bd       ??$__acrt_lock_and_call@V<lambda_4e60a939b0d047cfe11ddc22648dfba9>@@@@YAHW4__acrt_lock_id@@$$QAV<lambda_4e60a939b0d047cfe11ddc22648dfba9>@@@Z 100391bd f i libucrt:onexit.obj
 0001:000381ef       ??$__crt_fast_encode_pointer@P6AHXZ@@YAP6AHXZQ6AHXZ@Z 100391ef f i libucrt:onexit.obj
 0001:0003829c       ??0?$__crt_unique_heap_ptr@P6AXXZU__crt_internal_free_policy@@@@QAE@QAP6AXXZ@Z 1003929c f i libucrt:onexit.obj
 0001:000382b0       ??1?$__crt_unique_heap_ptr@P6AXXZU__crt_internal_free_policy@@@@QAE@XZ 100392b0 f i libucrt:onexit.obj
 0001:000385eb       ?detach@?$__crt_unique_heap_ptr@P6AXXZU__crt_internal_free_policy@@@@QAEPAP6AXXZXZ 100395eb f i libucrt:onexit.obj
 0001:000385f1       ?release@?$__crt_unique_heap_ptr@P6AXXZU__crt_internal_free_policy@@@@QAEXXZ 100395f1 f i libucrt:onexit.obj
 0001:00038607       __crt_at_quick_exit        10039607 f   libucrt:onexit.obj
 0001:00038622       __crt_atexit               10039622 f   libucrt:onexit.obj
 0001:0003863d       __execute_onexit_table     1003963d f   libucrt:onexit.obj
 0001:00038661       __initialize_onexit_table  10039661 f   libucrt:onexit.obj
 0001:000386ad       __register_onexit_function 100396ad f   libucrt:onexit.obj
 0001:00038814       ?initialize@?$dual_state_global@PAU__crt_locale_data@@@__crt_state_management@@QAEXQAU__crt_locale_data@@@Z 10039814 f i libucrt:initialization.obj
 0001:00038851       ___acrt_initialize         10039851 f   libucrt:initialization.obj
 0001:00038867       ___acrt_thread_attach      10039867 f   libucrt:initialization.obj
 0001:00038874       ___acrt_thread_detach      10039874 f   libucrt:initialization.obj
 0001:0003887e       ___acrt_uninitialize       1003987e f   libucrt:initialization.obj
 0001:00038894       ___acrt_uninitialize_critical 10039894 f   libucrt:initialization.obj
 0001:000388c5       __get_terminate            100398c5 f   libucrt:terminate.obj
 0001:000388db       _set_terminate             100398db f   libucrt:terminate.obj
 0001:00038903       _terminate                 10039903 f   libucrt:terminate.obj
 0001:0003894e       ??$__crt_interlocked_exchange_pointer@X$$T@@YAPAXPDSAX$$T@Z 1003994e f i libucrt:free_base.obj
 0001:00038966       ___acrt_get_msvcrt_heap_handle 10039966 f   libucrt:free_base.obj
 0001:000389f7       __free_base                100399f7 f   libucrt:free_base.obj
 0001:00038a3f       __malloc_base              10039a3f f   libucrt:malloc_base.obj
 0001:00038b10       _strcpy_s                  10039b10 f   libucrt:strcpy_s.obj
 0001:00038b80       __set_abort_behavior       10039b80 f   libucrt:abort.obj
 0001:00038ba9       _abort                     10039ba9 f   libucrt:abort.obj
 0001:00038bfc       __calloc_base              10039bfc f   libucrt:calloc_base.obj
 0001:00038c70       ??$is_overflow_condition@K@__crt_strtox@@YA_NIK@Z 10039c70 f i libucrt:atox.obj
 0001:00038caf       ??$is_overflow_condition@_K@__crt_strtox@@YA_NI_K@Z 10039caf f i libucrt:atox.obj
 0001:00038d02       ??$make_c_string_character_source@D$$T@__crt_strtox@@YA?AV?$c_string_character_source@D@0@QBD$$T@Z 10039d02 f i libucrt:atox.obj
 0001:00038d23       ??$make_c_string_character_source@_W$$T@__crt_strtox@@YA?AV?$c_string_character_source@_W@0@QB_W$$T@Z 10039d23 f i libucrt:atox.obj
 0001:00038d44       ??$parse_integer@KV?$c_string_character_source@D@__crt_strtox@@@__crt_strtox@@YAKQAU__crt_locale_pointers@@V?$c_string_character_source@D@0@H_N@Z 10039d44 f i libucrt:atox.obj
 0001:00038ff6       ??$parse_integer@KV?$c_string_character_source@_W@__crt_strtox@@@__crt_strtox@@YAKQAU__crt_locale_pointers@@V?$c_string_character_source@_W@0@H_N@Z 10039ff6 f i libucrt:atox.obj
 0001:00039894       ??$parse_integer@_KV?$c_string_character_source@D@__crt_strtox@@@__crt_strtox@@YA_KQAU__crt_locale_pointers@@V?$c_string_character_source@D@0@H_N@Z 1003a894 f i libucrt:atox.obj
 0001:00039be3       ??$parse_integer@_KV?$c_string_character_source@_W@__crt_strtox@@@__crt_strtox@@YA_KQAU__crt_locale_pointers@@V?$c_string_character_source@_W@0@H_N@Z 1003abe3 f i libucrt:atox.obj
 0001:0003a355       ??$parse_integer_from_string@JD$$T@__crt_strtox@@YAJQBD$$THQAU__crt_locale_pointers@@@Z 1003b355 f i libucrt:atox.obj
 0001:0003a38d       ??$parse_integer_from_string@J_W$$T@__crt_strtox@@YAJQB_W$$THQAU__crt_locale_pointers@@@Z 1003b38d f i libucrt:atox.obj
 0001:0003a3c5       ??$parse_integer_from_string@_JD$$T@__crt_strtox@@YA_JQBD$$THQAU__crt_locale_pointers@@@Z 1003b3c5 f i libucrt:atox.obj
 0001:0003a3fd       ??$parse_integer_from_string@_J_W$$T@__crt_strtox@@YA_JQB_W$$THQAU__crt_locale_pointers@@@Z 1003b3fd f i libucrt:atox.obj
 0001:0003a435       ??0?$c_string_character_source@D@__crt_strtox@@QAE@QBDQAPBD@Z 1003b435 f i libucrt:atox.obj
 0001:0003a458       ??0?$c_string_character_source@_W@__crt_strtox@@QAE@QB_WQAPB_W@Z 1003b458 f i libucrt:atox.obj
 0001:0003a47b       ??1?$c_string_character_source@D@__crt_strtox@@QAE@XZ 1003b47b f i libucrt:atox.obj
 0001:0003a48a       ??1?$c_string_character_source@_W@__crt_strtox@@QAE@XZ 1003b48a f i libucrt:atox.obj
 0001:0003a499       ?get@?$c_string_character_source@D@__crt_strtox@@QAEDXZ 1003b499 f i libucrt:atox.obj
 0001:0003a4a3       ?get@?$c_string_character_source@_W@__crt_strtox@@QAE_WXZ 1003b4a3 f i libucrt:atox.obj
 0001:0003a4b0       ?is_space@__crt_strtox@@YA_NDQAU__crt_locale_pointers@@@Z 1003b4b0 f i libucrt:atox.obj
 0001:0003a4d6       ?is_space@__crt_strtox@@YA_N_WPAU__crt_locale_pointers@@@Z 1003b4d6 f i libucrt:atox.obj
 0001:0003a4f5       ?maximum_signed_value@__crt_strtox@@YAJK@Z 1003b4f5 f i libucrt:atox.obj
 0001:0003a4fb       ?maximum_signed_value@__crt_strtox@@YA_J_K@Z 1003b4fb f i libucrt:atox.obj
 0001:0003a506       ?minimum_signed_value@__crt_strtox@@YAJK@Z 1003b506 f i libucrt:atox.obj
 0001:0003a50c       ?minimum_signed_value@__crt_strtox@@YA_J_K@Z 1003b50c f i libucrt:atox.obj
 0001:0003a516       ?parse_digit@__crt_strtox@@YAID@Z 1003b516 f i libucrt:atox.obj
 0001:0003a55e       ?parse_digit@__crt_strtox@@YAI_W@Z 1003b55e f i libucrt:atox.obj
 0001:0003a7bb       ?restore_state@?$c_string_character_source@D@__crt_strtox@@QAE_NQBD@Z 1003b7bb f i libucrt:atox.obj
 0001:0003a7cf       ?restore_state@?$c_string_character_source@_W@__crt_strtox@@QAE_NQB_W@Z 1003b7cf f i libucrt:atox.obj
 0001:0003a7e3       ?save_state@?$c_string_character_source@D@__crt_strtox@@QBEPBDXZ 1003b7e3 f i libucrt:atox.obj
 0001:0003a7e6       ?save_state@?$c_string_character_source@_W@__crt_strtox@@QBEPB_WXZ 1003b7e6 f i libucrt:atox.obj
 0001:0003a7e9       ?unget@?$c_string_character_source@D@__crt_strtox@@QAEXD@Z 1003b7e9 f i libucrt:atox.obj
 0001:0003a81b       ?unget@?$c_string_character_source@_W@__crt_strtox@@QAEX_W@Z 1003b81b f i libucrt:atox.obj
 0001:0003a852       ?validate@?$c_string_character_source@D@__crt_strtox@@QBE_NXZ 1003b852 f i libucrt:atox.obj
 0001:0003a873       ?validate@?$c_string_character_source@_W@__crt_strtox@@QBE_NXZ 1003b873 f i libucrt:atox.obj
 0001:0003a894       ?wide_character_to_digit@__crt_strtox@@YAH_W@Z 1003b894 f i libucrt:atox.obj
 0001:0003aa9d       ___acrt_get_locale_data_prefix 1003ba9d f i libucrt:atox.obj
 0001:0003aaac       __atoi64                   1003baac f   libucrt:atox.obj
 0001:0003aae0       __atoi64_l                 1003bae0 f   libucrt:atox.obj
 0001:0003ab15       __atoi_l                   1003bb15 f   libucrt:atox.obj
 0001:0003ab4a       __atol_l                   1003bb4a f   libucrt:atox.obj
 0001:0003ab7f       __atoll_l                  1003bb7f f   libucrt:atox.obj
 0001:0003abb4       __chvalidchk_l             1003bbb4 f i libucrt:atox.obj
 0001:0003abe8       __ischartype_l             1003bbe8 f i libucrt:atox.obj
 0001:0003ac27       __wtoi                     1003bc27 f   libucrt:atox.obj
 0001:0003ac5b       __wtoi64                   1003bc5b f   libucrt:atox.obj
 0001:0003ac8f       __wtoi64_l                 1003bc8f f   libucrt:atox.obj
 0001:0003acc4       __wtoi_l                   1003bcc4 f   libucrt:atox.obj
 0001:0003acf9       __wtol                     1003bcf9 f   libucrt:atox.obj
 0001:0003ad2d       __wtol_l                   1003bd2d f   libucrt:atox.obj
 0001:0003ad62       __wtoll                    1003bd62 f   libucrt:atox.obj
 0001:0003ad96       __wtoll_l                  1003bd96 f   libucrt:atox.obj
 0001:0003adcb       _atoi                      1003bdcb f   libucrt:atox.obj
 0001:0003adff       _atol                      1003bdff f   libucrt:atox.obj
 0001:0003ae33       _atoll                     1003be33 f   libucrt:atox.obj
 0001:0003ae67       ??$__crt_fast_decode_pointer@P6AXPB_W00II@Z@@YAP6AXPB_W00II@ZQ6AX000II@Z@Z 1003be67 f i libucrt:invalid_parameter.obj
 0001:0003ae82       ??$__crt_fast_encode_pointer@P6AXPB_W00II@Z@@YAP6AXPB_W00II@ZQ6AX000II@Z@Z 1003be82 f i libucrt:invalid_parameter.obj
 0001:0003aea8       ?initialize@?$dual_state_global@P6AXPB_W00II@Z@__crt_state_management@@QAEXQ6AXPB_W00II@Z@Z 1003bea8 f i libucrt:invalid_parameter.obj
 0001:0003aee5       ?value@?$dual_state_global@P6AXPB_W00II@Z@__crt_state_management@@QAEAAP6AXPB_W00II@ZXZ 1003bee5 f i libucrt:invalid_parameter.obj
 0001:0003aee8       ___acrt_call_reportfault   1003bee8 f   libucrt:invalid_parameter.obj
 0001:0003b071       ___acrt_initialize_invalid_parameter_handler 1003c071 f   libucrt:invalid_parameter.obj
 0001:0003b08a       __get_invalid_parameter_handler 1003c08a f   libucrt:invalid_parameter.obj
 0001:0003b0a1       __get_thread_local_invalid_parameter_handler 1003c0a1 f   libucrt:invalid_parameter.obj
 0001:0003b0b6       __invalid_parameter        1003c0b6 f   libucrt:invalid_parameter.obj
 0001:0003b14f       __invalid_parameter_noinfo 1003c14f f   libucrt:invalid_parameter.obj
 0001:0003b163       __invalid_parameter_noinfo_noreturn 1003c163 f   libucrt:invalid_parameter.obj
 0001:0003b187       __invoke_watson            1003c187 f   libucrt:invalid_parameter.obj
 0001:0003b1c6       __set_invalid_parameter_handler 1003c1c6 f   libucrt:invalid_parameter.obj
 0001:0003b202       __set_thread_local_invalid_parameter_handler 1003c202 f   libucrt:invalid_parameter.obj
 0001:0003b226       ___acrt_errno_from_os_error 1003c226 f   libucrt:errno.obj
 0001:0003b279       ___acrt_errno_map_os_error 1003c279 f   libucrt:errno.obj
 0001:0003b2a4       ___doserrno                1003c2a4 f   libucrt:errno.obj
 0001:0003b2bb       __errno                    1003c2bb f   libucrt:errno.obj
 0001:0003b2d2       __get_doserrno             1003c2d2 f   libucrt:errno.obj
 0001:0003b300       __get_errno                1003c300 f   libucrt:errno.obj
 0001:0003b32e       __set_doserrno             1003c32e f   libucrt:errno.obj
 0001:0003b357       __set_errno                1003c357 f   libucrt:errno.obj
 0001:0003b3d7       ??$?B$$A6GHPA_WKJ@Z@__crt_fast_encoded_nullptr_t@@QBEP6GHPA_WKJ@ZXZ 1003c3d7 f i libucrt:winapi_thunks.obj
 0001:0003b3f5       ??$?RV<lambda_9227be29367c048ad7fd93a717dcb1a1>@@AAV<lambda_a463b7b0560cfcaf9b17f27c6ef46564>@@V<lambda_ccea11b5727ccf69be64f5f5d9a08d9f>@@@?$__crt_seh_guarded_call@H@@QAEH$$QAV<lambda_9227be29367c048ad7fd93a717dcb1a1>@@AAV<lambda_a463b7b0560cfcaf9b17f27c6ef46564>@@$$QAV<lambda_ccea11b5727ccf69be64f5f5d9a08d9f>@@@Z 1003c3f5 f i libucrt:winapi_thunks.obj
 0001:0003b49a       ??$__acrt_lock_and_call@V<lambda_a463b7b0560cfcaf9b17f27c6ef46564>@@@@YAHW4__acrt_lock_id@@$$QAV<lambda_a463b7b0560cfcaf9b17f27c6ef46564>@@@Z 1003c49a f i libucrt:winapi_thunks.obj
 0001:0003b4cc       ??$__crt_fast_decode_pointer@P6GHPA_WKJ@Z@@YAP6GHPA_WKJ@ZQ6GH0KJ@Z@Z 1003c4cc f i libucrt:winapi_thunks.obj
 0001:0003b4e7       ??$__crt_fast_encode_pointer@P6GHPA_WKJ@Z@@YAP6GHPA_WKJ@ZQ6GH0KJ@Z@Z 1003c4e7 f i libucrt:winapi_thunks.obj
 0001:0003bc14       ___acrt_AreFileApisANSI@0  1003cc14 f   libucrt:winapi_thunks.obj
 0001:0003bc75       ___acrt_CompareStringEx@36 1003cc75 f   libucrt:winapi_thunks.obj
 0001:0003bd06       ___acrt_EnumSystemLocalesEx@16 1003cd06 f   libucrt:winapi_thunks.obj
 0001:0003bd8e       ___acrt_FlsAlloc@4         1003cd8e f   libucrt:winapi_thunks.obj
 0001:0003bdf9       ___acrt_FlsFree@4          1003cdf9 f   libucrt:winapi_thunks.obj
 0001:0003be64       ___acrt_FlsGetValue@4      1003ce64 f   libucrt:winapi_thunks.obj
 0001:0003becf       ___acrt_FlsSetValue@8      1003cecf f   libucrt:winapi_thunks.obj
 0001:0003bf3e       ___acrt_GetDateFormatEx@28 1003cf3e f   libucrt:winapi_thunks.obj
 0001:0003bfe0       ___acrt_GetEnabledXStateFeatures@0 1003cfe0 f   libucrt:winapi_thunks.obj
 0001:0003c042       ___acrt_GetFileInformationByHandleEx@16 1003d042 f   libucrt:winapi_thunks.obj
 0001:0003c0bd       ___acrt_GetLocaleInfoEx@16 1003d0bd f   libucrt:winapi_thunks.obj
 0001:0003c141       ___acrt_GetSystemTimePreciseAsFileTime@4 1003d141 f   libucrt:winapi_thunks.obj
 0001:0003c1ac       ___acrt_GetTimeFormatEx@24 1003d1ac f   libucrt:winapi_thunks.obj
 0001:0003c238       ___acrt_GetUserDefaultLocaleName@8 1003d238 f   libucrt:winapi_thunks.obj
 0001:0003c2b8       ___acrt_GetXStateFeaturesMask@8 1003d2b8 f   libucrt:winapi_thunks.obj
 0001:0003c324       ___acrt_InitializeCriticalSectionEx@12 1003d324 f   libucrt:winapi_thunks.obj
 0001:0003c39e       ___acrt_IsValidLocaleName@4 1003d39e f   libucrt:winapi_thunks.obj
 0001:0003c419       ___acrt_LCIDToLocaleName@16 1003d419 f   libucrt:winapi_thunks.obj
 0001:0003c49d       ___acrt_LCMapStringEx@36   1003d49d f   libucrt:winapi_thunks.obj
 0001:0003c547       ___acrt_LocaleNameToLCID@8 1003d547 f   libucrt:winapi_thunks.obj
 0001:0003c5ba       ___acrt_LocateXStateFeature@12 1003d5ba f   libucrt:winapi_thunks.obj
 0001:0003c611       ___acrt_MessageBoxA@16     1003d611 f   libucrt:winapi_thunks.obj
 0001:0003c66c       ___acrt_MessageBoxW@16     1003d66c f   libucrt:winapi_thunks.obj
 0001:0003c6c7       ___acrt_RoInitialize@4     1003d6c7 f   libucrt:winapi_thunks.obj
 0001:0003c72d       ___acrt_RoUninitialize@0   1003d72d f   libucrt:winapi_thunks.obj
 0001:0003c788       ___acrt_RtlGenRandom@8     1003d788 f   libucrt:winapi_thunks.obj
 0001:0003c7f4       ___acrt_SetThreadStackGuarantee@4 1003d7f4 f   libucrt:winapi_thunks.obj
 0001:0003c85a       ___acrt_can_show_message_box 1003d85a f   libucrt:winapi_thunks.obj
 0001:0003c879       ___acrt_can_use_vista_locale_apis 1003d879 f   libucrt:winapi_thunks.obj
 0001:0003c888       ___acrt_can_use_xstate_apis 1003d888 f   libucrt:winapi_thunks.obj
 0001:0003c897       ___acrt_get_parent_window  1003d897 f   libucrt:winapi_thunks.obj
 0001:0003c935       ___acrt_initialize_winapi_thunks 1003d935 f   libucrt:winapi_thunks.obj
 0001:0003c964       ___acrt_is_interactive     1003d964 f   libucrt:winapi_thunks.obj
 0001:0003ca33       ___acrt_is_packaged_app    1003da33 f   libucrt:winapi_thunks.obj
 0001:0003cadb       ___acrt_uninitialize_winapi_thunks 1003dadb f   libucrt:winapi_thunks.obj
 0001:0003cb1e       ??0__crt_stdio_stream@@QAE@QAU__crt_stdio_stream_data@@@Z 1003db1e f i libucrt:closeall.obj
 0001:0003cb32       __fcloseall                1003db32 f   libucrt:closeall.obj
 0001:0003cbfa       ___acrt_stdio_flush_nolock 1003dbfa f   libucrt:fflush.obj
 0001:0003cc79       __fflush_nolock            1003dc79 f   libucrt:fflush.obj
 0001:0003ccd1       __flushall                 1003dcd1 f   libucrt:fflush.obj
 0001:0003cdea       _fflush                    1003ddea f   libucrt:fflush.obj
 0001:0003ce59       ?has_crt_buffer@__crt_stdio_stream@@QBE_NXZ 1003de59 f i libucrt:_freebuf.obj
 0001:0003ce68       ___acrt_stdio_free_buffer_nolock 1003de68 f   libucrt:_freebuf.obj
 0001:0003d0a5       ___acrt_initialize_lowio   1003e0a5 f   libucrt:ioinit.obj
 0001:0003d110       ___acrt_uninitialize_lowio 1003e110 f   libucrt:ioinit.obj
 0001:0003d162       ___isascii                 1003e162 f i libucrt:_ctype.obj
 0001:0003d178       ___iscsym                  1003e178 f i libucrt:_ctype.obj
 0001:0003d1a2       ___iscsymf                 1003e1a2 f i libucrt:_ctype.obj
 0001:0003d1c8       ___toascii                 1003e1c8 f i libucrt:_ctype.obj
 0001:0003d1d8       __isalnum_l                1003e1d8 f i libucrt:_ctype.obj
 0001:0003d221       __isalpha_l                1003e221 f i libucrt:_ctype.obj
 0001:0003d26a       __isblank_l                1003e26a f i libucrt:_ctype.obj
 0001:0003d2bd       __iscntrl_l                1003e2bd f i libucrt:_ctype.obj
 0001:0003d303       __iscsym_l                 1003e303 f i libucrt:_ctype.obj
 0001:0003d32e       __iscsymf_l                1003e32e f i libucrt:_ctype.obj
 0001:0003d359       __isdigit_l                1003e359 f i libucrt:_ctype.obj
 0001:0003d39f       __isgraph_l                1003e39f f i libucrt:_ctype.obj
 0001:0003d3e8       __islower_l                1003e3e8 f i libucrt:_ctype.obj
 0001:0003d42e       __isprint_l                1003e42e f i libucrt:_ctype.obj
 0001:0003d477       __ispunct_l                1003e477 f i libucrt:_ctype.obj
 0001:0003d4bd       __isspace_l                1003e4bd f i libucrt:_ctype.obj
 0001:0003d503       __isupper_l                1003e503 f i libucrt:_ctype.obj
 0001:0003d549       __isxdigit_l               1003e549 f i libucrt:_ctype.obj
 0001:0003d592       _isalnum                   1003e592 f i libucrt:_ctype.obj
 0001:0003d5cc       _isalpha                   1003e5cc f i libucrt:_ctype.obj
 0001:0003d606       _isblank                   1003e606 f i libucrt:_ctype.obj
 0001:0003d64a       _iscntrl                   1003e64a f i libucrt:_ctype.obj
 0001:0003d682       _isdigit                   1003e682 f i libucrt:_ctype.obj
 0001:0003d6ba       _isgraph                   1003e6ba f i libucrt:_ctype.obj
 0001:0003d6f4       _islower                   1003e6f4 f i libucrt:_ctype.obj
 0001:0003d72c       _isprint                   1003e72c f i libucrt:_ctype.obj
 0001:0003d766       _ispunct                   1003e766 f i libucrt:_ctype.obj
 0001:0003d79e       _isspace                   1003e79e f i libucrt:_ctype.obj
 0001:0003d7d6       _isupper                   1003e7d6 f i libucrt:_ctype.obj
 0001:0003d80e       _isxdigit                  1003e80e f i libucrt:_ctype.obj
 0001:0003dc06       __tolower                  1003ec06 f   libucrt:tolower_toupper.obj
 0001:0003dc16       __tolower_l                1003ec16 f   libucrt:tolower_toupper.obj
 0001:0003dc36       __toupper                  1003ec36 f   libucrt:tolower_toupper.obj
 0001:0003dc46       __toupper_l                1003ec46 f   libucrt:tolower_toupper.obj
 0001:0003dc66       _tolower                   1003ec66 f   libucrt:tolower_toupper.obj
 0001:0003dca2       _toupper                   1003eca2 f   libucrt:tolower_toupper.obj
 0001:0003dcde       ??$make_c_string_character_source@DPAPAD@__crt_strtox@@YA?AV?$c_string_character_source@D@0@QBDQAPAD@Z 1003ecde f i libucrt:strtox.obj
 0001:0003dcff       ??$make_c_string_character_source@_WPAPA_W@__crt_strtox@@YA?AV?$c_string_character_source@_W@0@QB_WQAPA_W@Z 1003ecff f i libucrt:strtox.obj
 0001:0003dd20       ??$parse_integer_from_string@JDPAPAD@__crt_strtox@@YAJQBDQAPADHQAU__crt_locale_pointers@@@Z 1003ed20 f i libucrt:strtox.obj
 0001:0003dd58       ??$parse_integer_from_string@J_WPAPA_W@__crt_strtox@@YAJQB_WQAPA_WHQAU__crt_locale_pointers@@@Z 1003ed58 f i libucrt:strtox.obj
 0001:0003dd90       ??$parse_integer_from_string@KDPAPAD@__crt_strtox@@YAKQBDQAPADHQAU__crt_locale_pointers@@@Z 1003ed90 f i libucrt:strtox.obj
 0001:0003ddc8       ??$parse_integer_from_string@K_WPAPA_W@__crt_strtox@@YAKQB_WQAPA_WHQAU__crt_locale_pointers@@@Z 1003edc8 f i libucrt:strtox.obj
 0001:0003de00       ??$parse_integer_from_string@_JDPAPAD@__crt_strtox@@YA_JQBDQAPADHQAU__crt_locale_pointers@@@Z 1003ee00 f i libucrt:strtox.obj
 0001:0003de38       ??$parse_integer_from_string@_J_WPAPA_W@__crt_strtox@@YA_JQB_WQAPA_WHQAU__crt_locale_pointers@@@Z 1003ee38 f i libucrt:strtox.obj
 0001:0003de70       ??$parse_integer_from_string@_KDPAPAD@__crt_strtox@@YA_KQBDQAPADHQAU__crt_locale_pointers@@@Z 1003ee70 f i libucrt:strtox.obj
 0001:0003dea8       ??$parse_integer_from_string@_K_WPAPA_W@__crt_strtox@@YA_KQB_WQAPA_WHQAU__crt_locale_pointers@@@Z 1003eea8 f i libucrt:strtox.obj
 0001:0003dee0       __strtoi64                 1003eee0 f   libucrt:strtox.obj
 0001:0003df17       __strtoi64_l               1003ef17 f   libucrt:strtox.obj
 0001:0003df4f       __strtoimax_l              1003ef4f f   libucrt:strtox.obj
 0001:0003df87       __strtol_l                 1003ef87 f   libucrt:strtox.obj
 0001:0003dfbf       __strtoll_l                1003efbf f   libucrt:strtox.obj
 0001:0003dff7       __strtoui64                1003eff7 f   libucrt:strtox.obj
 0001:0003e02e       __strtoui64_l              1003f02e f   libucrt:strtox.obj
 0001:0003e066       __strtoul_l                1003f066 f   libucrt:strtox.obj
 0001:0003e09e       __strtoull_l               1003f09e f   libucrt:strtox.obj
 0001:0003e0d6       __strtoumax_l              1003f0d6 f   libucrt:strtox.obj
 0001:0003e10e       __wcstoi64                 1003f10e f   libucrt:strtox.obj
 0001:0003e145       __wcstoi64_l               1003f145 f   libucrt:strtox.obj
 0001:0003e17d       __wcstoimax_l              1003f17d f   libucrt:strtox.obj
 0001:0003e1b5       __wcstol_l                 1003f1b5 f   libucrt:strtox.obj
 0001:0003e1ed       __wcstoll_l                1003f1ed f   libucrt:strtox.obj
 0001:0003e225       __wcstoui64                1003f225 f   libucrt:strtox.obj
 0001:0003e25c       __wcstoui64_l              1003f25c f   libucrt:strtox.obj
 0001:0003e294       __wcstoul_l                1003f294 f   libucrt:strtox.obj
 0001:0003e2cc       __wcstoull_l               1003f2cc f   libucrt:strtox.obj
 0001:0003e304       __wcstoumax_l              1003f304 f   libucrt:strtox.obj
 0001:0003e33c       _strtoimax                 1003f33c f   libucrt:strtox.obj
 0001:0003e373       _strtol                    1003f373 f   libucrt:strtox.obj
 0001:0003e3aa       _strtoll                   1003f3aa f   libucrt:strtox.obj
 0001:0003e3e1       _strtoul                   1003f3e1 f   libucrt:strtox.obj
 0001:0003e418       _strtoull                  1003f418 f   libucrt:strtox.obj
 0001:0003e44f       _strtoumax                 1003f44f f   libucrt:strtox.obj
 0001:0003e486       _wcstoimax                 1003f486 f   libucrt:strtox.obj
 0001:0003e4bd       _wcstol                    1003f4bd f   libucrt:strtox.obj
 0001:0003e4f4       _wcstoll                   1003f4f4 f   libucrt:strtox.obj
 0001:0003e52b       _wcstoul                   1003f52b f   libucrt:strtox.obj
 0001:0003e562       _wcstoull                  1003f562 f   libucrt:strtox.obj
 0001:0003e599       _wcstoumax                 1003f599 f   libucrt:strtox.obj
 0001:0003e5d0       __mbtowc_l                 1003f5d0 f   libucrt:mbtowc.obj
 0001:0003e708       _mbtowc                    1003f708 f   libucrt:mbtowc.obj
 0001:0003e728       __wctomb_l                 1003f728 f   libucrt:wctomb.obj
 0001:0003e78f       __wctomb_s_l               1003f78f f   libucrt:wctomb.obj
 0001:0003e8f8       _wctomb                    1003f8f8 f   libucrt:wctomb.obj
 0001:0003e939       _wctomb_s                  1003f939 f   libucrt:wctomb.obj
 0001:0003f051       ??1?$__crt_simd_cleanup_guard@$00@@QAE@XZ 10040051 f i libucrt:strnlen.obj
 0001:0003f055       ??1?$__crt_simd_cleanup_guard@$0A@@@QAE@XZ 10040055 f i libucrt:strnlen.obj
 0001:0003f056       ?compare_equals@?$__crt_simd_traits@$00E@@SA?AT__m256i@@T2@0@Z 10040056 f i libucrt:strnlen.obj
 0001:0003f05b       ?compare_equals@?$__crt_simd_traits@$00G@@SA?AT__m256i@@T2@0@Z 1004005b f i libucrt:strnlen.obj
 0001:0003f060       ?compare_equals@?$__crt_simd_traits@$0A@E@@SA?AT__m128i@@T2@0@Z 10040060 f i libucrt:strnlen.obj
 0001:0003f065       ?compare_equals@?$__crt_simd_traits@$0A@G@@SA?AT__m128i@@T2@0@Z 10040065 f i libucrt:strnlen.obj
 0001:0003f06a       ?compute_byte_mask@?$__crt_simd_pack_traits@$00@@SAHT__m256i@@@Z 1004006a f i libucrt:strnlen.obj
 0001:0003f06f       ?compute_byte_mask@?$__crt_simd_pack_traits@$0A@@@SAHT__m128i@@@Z 1004006f f i libucrt:strnlen.obj
 0001:0003f074       ?get_zero_pack@?$__crt_simd_pack_traits@$00@@SA?AT__m256i@@XZ 10040074 f i libucrt:strnlen.obj
 0001:0003f079       ?get_zero_pack@?$__crt_simd_pack_traits@$0A@@@SA?AT__m128i@@XZ 10040079 f i libucrt:strnlen.obj
 0001:0003f07e       _strnlen                   1004007e f   libucrt:strnlen.obj
 0001:0003f1ee       _wcsnlen                   100401ee f   libucrt:strnlen.obj
 0001:0003f412       ??$?RU__acrt_ptd@@@__crt_internal_free_policy@@QBEXQBU__acrt_ptd@@@Z 10040412 f i libucrt:per_thread_data.obj
 0001:0003f428       ??$?RV<lambda_3518db117f0e7cdb002338c5d3c47b6c>@@AAV<lambda_b2ea41f6bbb362cd97d94c6828d90b61>@@V<lambda_abdedf541bb04549bc734292b4a045d4>@@@?$__crt_seh_guarded_call@X@@QAEX$$QAV<lambda_3518db117f0e7cdb002338c5d3c47b6c>@@AAV<lambda_b2ea41f6bbb362cd97d94c6828d90b61>@@$$QAV<lambda_abdedf541bb04549bc734292b4a045d4>@@@Z 10040428 f i libucrt:per_thread_data.obj
 0001:0003f48c       ??$?RV<lambda_51b6e8b1eb166f2a3faf91f424b38130>@@AAV<lambda_6250bd4b2a391816dd638c3bf72b0bcb>@@V<lambda_0b5a4a3e68152e1d9b943535f5f47bed>@@@?$__crt_seh_guarded_call@X@@QAEX$$QAV<lambda_51b6e8b1eb166f2a3faf91f424b38130>@@AAV<lambda_6250bd4b2a391816dd638c3bf72b0bcb>@@$$QAV<lambda_0b5a4a3e68152e1d9b943535f5f47bed>@@@Z 1004048c f i libucrt:per_thread_data.obj
 0001:0003f505       ??$?RV<lambda_5b71d36f03204c0beab531769a5b5694>@@AAV<lambda_be2b3da3f62db62e9dad5dc70221a656>@@V<lambda_8f9ce462984622f9bf76b59e2aaaf805>@@@?$__crt_seh_guarded_call@X@@QAEX$$QAV<lambda_5b71d36f03204c0beab531769a5b5694>@@AAV<lambda_be2b3da3f62db62e9dad5dc70221a656>@@$$QAV<lambda_8f9ce462984622f9bf76b59e2aaaf805>@@@Z 10040505 f i libucrt:per_thread_data.obj
 0001:0003f562       ??$?RV<lambda_9df27f884b057bc3edfc946cb5b7cf47>@@AAV<lambda_e69574bed617af4e071282c136b37893>@@V<lambda_cc0d902bcbbeb830f749456577db4721>@@@?$__crt_seh_guarded_call@X@@QAEX$$QAV<lambda_9df27f884b057bc3edfc946cb5b7cf47>@@AAV<lambda_e69574bed617af4e071282c136b37893>@@$$QAV<lambda_cc0d902bcbbeb830f749456577db4721>@@@Z 10040562 f i libucrt:per_thread_data.obj
 0001:0003f5bc       ??$__acrt_lock_and_call@V<lambda_6250bd4b2a391816dd638c3bf72b0bcb>@@@@YAXW4__acrt_lock_id@@$$QAV<lambda_6250bd4b2a391816dd638c3bf72b0bcb>@@@Z 100405bc f i libucrt:per_thread_data.obj
 0001:0003f5ee       ??$__acrt_lock_and_call@V<lambda_b2ea41f6bbb362cd97d94c6828d90b61>@@@@YAXW4__acrt_lock_id@@$$QAV<lambda_b2ea41f6bbb362cd97d94c6828d90b61>@@@Z 100405ee f i libucrt:per_thread_data.obj
 0001:0003f620       ??$__acrt_lock_and_call@V<lambda_be2b3da3f62db62e9dad5dc70221a656>@@@@YAXW4__acrt_lock_id@@$$QAV<lambda_be2b3da3f62db62e9dad5dc70221a656>@@@Z 10040620 f i libucrt:per_thread_data.obj
 0001:0003f652       ??$__acrt_lock_and_call@V<lambda_e69574bed617af4e071282c136b37893>@@@@YAXW4__acrt_lock_id@@$$QAV<lambda_e69574bed617af4e071282c136b37893>@@@Z 10040652 f i libucrt:per_thread_data.obj
 0001:0003f78b       ??0?$__crt_unique_heap_ptr@U__acrt_ptd@@U__crt_internal_free_policy@@@@QAE@QAU__acrt_ptd@@@Z 1004078b f i libucrt:per_thread_data.obj
 0001:0003f79f       ??0__crt_scoped_get_last_error_reset@@QAE@XZ 1004079f f i libucrt:per_thread_data.obj
 0001:0003f7b4       ??1?$__crt_unique_heap_ptr@U__acrt_ptd@@U__crt_internal_free_policy@@@@QAE@XZ 100407b4 f i libucrt:per_thread_data.obj
 0001:0003f7ca       ??1__crt_scoped_get_last_error_reset@@QAE@XZ 100407ca f i libucrt:per_thread_data.obj
 0001:0003f7d5       ??B?$__crt_unique_heap_ptr@U__acrt_ptd@@U__crt_internal_free_policy@@@@QBE_NXZ 100407d5 f i libucrt:per_thread_data.obj
 0001:0003f94b       ?dangerous_get_state_array@?$dual_state_global@PAU__crt_locale_data@@@__crt_state_management@@QAEPAPAU__crt_locale_data@@XZ 1004094b f i libucrt:per_thread_data.obj
 0001:0003fa4f       ?detach@?$__crt_unique_heap_ptr@U__acrt_ptd@@U__crt_internal_free_policy@@@@QAEPAU__acrt_ptd@@XZ 10040a4f f i libucrt:per_thread_data.obj
 0001:0003fa55       ?get@?$__crt_unique_heap_ptr@U__acrt_ptd@@U__crt_internal_free_policy@@@@QBEPAU__acrt_ptd@@XZ 10040a55 f i libucrt:per_thread_data.obj
 0001:0003fb64       ?is_valid@?$__crt_unique_heap_ptr@U__acrt_ptd@@U__crt_internal_free_policy@@@@QBE_NXZ 10040b64 f i libucrt:per_thread_data.obj
 0001:0003fb6e       ?release@?$__crt_unique_heap_ptr@U__acrt_ptd@@U__crt_internal_free_policy@@@@QAEXXZ 10040b6e f i libucrt:per_thread_data.obj
 0001:0003fbfa       ?value@?$dual_state_global@PAU__crt_locale_data@@@__crt_state_management@@QAEAAPAU__crt_locale_data@@XZ 10040bfa f i libucrt:per_thread_data.obj
 0001:0003fbfd       ___acrt_freeptd            10040bfd f   libucrt:per_thread_data.obj
 0001:0003fc34       ___acrt_getptd             10040c34 f   libucrt:per_thread_data.obj
 0001:0003fcd9       ___acrt_getptd_noexit      10040cd9 f   libucrt:per_thread_data.obj
 0001:0003fd7f       ___acrt_initialize_ptd     10040d7f f   libucrt:per_thread_data.obj
 0001:0003fdb6       ___acrt_uninitialize_ptd   10040db6 f   libucrt:per_thread_data.obj
 0001:0003fdd6       ___threadhandle            10040dd6 f   libucrt:per_thread_data.obj
 0001:0003fddc       ___threadid                10040ddc f   libucrt:per_thread_data.obj
 0001:0003fde2       ___acrt_update_locale_info 10040de2 f   libucrt:locale_update.obj
 0001:0003fe1a       ___acrt_update_multibyte_info 10040e1a f   libucrt:locale_update.obj
 0001:0003fe52       ?__acrt_fp_classify@@YA?AW4__acrt_fp_class@@ABN@Z 10040e52 f i libucrt:cvt.obj
 0001:0003fed9       ?__acrt_fp_is_negative@@YA_NABN@Z 10040ed9 f i libucrt:cvt.obj
 0001:0004094c       ?strrchr@@YAPADQADH@Z      1004194c f i libucrt:cvt.obj
 0001:00040959       ___acrt_fp_format          10041959 f   libucrt:cvt.obj
 0001:00040b33       __fputwc_nolock            10041b33 f   libucrt:fputwc.obj
 0001:00040ca2       __fputwchar                10041ca2 f   libucrt:fputwc.obj
 0001:00040cc2       __putwc_nolock             10041cc2 f   libucrt:fputwc.obj
 0001:00040ccf       _fputwc                    10041ccf f   libucrt:fputwc.obj
 0001:00040d68       _putwc                     10041d68 f   libucrt:fputwc.obj
 0001:00040d75       _putwchar                  10041d75 f   libucrt:fputwc.obj
 0001:00040d82       ?lowio_handle@__crt_stdio_stream@@QBEHXZ 10041d82 f i libucrt:fileno.obj
 0001:00040d88       __fileno                   10041d88 f   libucrt:fileno.obj
 0001:00040db7       __fputc_nolock             10041db7 f   libucrt:fputc.obj
 0001:00040dea       __fputchar                 10041dea f   libucrt:fputc.obj
 0001:00040e0a       __putc_nolock              10041e0a f   libucrt:fputc.obj
 0001:00040e17       _fputc                     10041e17 f   libucrt:fputc.obj
 0001:00040f5c       _putc                      10041f5c f   libucrt:fputc.obj
 0001:00040f69       _putchar                   10041f69 f   libucrt:fputc.obj
 0001:00040f76       __get_printf_count_output  10041f76 f   libucrt:printf_count_output.obj
 0001:00040f90       __set_printf_count_output  10041f90 f   libucrt:printf_count_output.obj
 0001:00040fc4       ?has_temporary_buffer@__crt_stdio_stream@@QBE_NXZ 10041fc4 f i libucrt:_sftbuf.obj
 0001:00040fd3       ___acrt_stdio_begin_temporary_buffering_nolock 10041fd3 f   libucrt:_sftbuf.obj
 0001:000410b5       ___acrt_stdio_end_temporary_buffering_nolock 100420b5 f   libucrt:_sftbuf.obj
 0001:000410ff       ??$?RU__crt_locale_data@@@__crt_internal_free_policy@@QBEXQBU__crt_locale_data@@@Z 100420ff f i libucrt:wsetlocale.obj
 0001:00041115       ??$?RU__crt_locale_pointers@@@__crt_internal_free_policy@@QBEXQBU__crt_locale_pointers@@@Z 10042115 f i libucrt:wsetlocale.obj
 0001:0004112b       ??$?RU__crt_multibyte_data@@@__crt_internal_free_policy@@QBEXQBU__crt_multibyte_data@@@Z 1004212b f i libucrt:wsetlocale.obj
 0001:00041141       ??$?RV<lambda_70818de7b02deff9841e8b0962a60ed9>@@AAV<lambda_2af78c5f5901b1372d98f9ab3177dfa6>@@AAV<lambda_f51fe5fd7c79a33db34fc9310f277369>@@@?$__crt_seh_guarded_call@X@@QAEX$$QAV<lambda_70818de7b02deff9841e8b0962a60ed9>@@AAV<lambda_2af78c5f5901b1372d98f9ab3177dfa6>@@AAV<lambda_f51fe5fd7c79a33db34fc9310f277369>@@@Z 10042141 f i libucrt:wsetlocale.obj
 0001:0004118a       ??$?RV<lambda_76aaead6e312921abc834cb00a638bdd>@@AAV<lambda_176e34f99554166dd2fac165c457248c>@@V<lambda_998ee1c9f4290b119b936bcd6215875a>@@@?$__crt_seh_guarded_call@X@@QAEX$$QAV<lambda_76aaead6e312921abc834cb00a638bdd>@@AAV<lambda_176e34f99554166dd2fac165c457248c>@@$$QAV<lambda_998ee1c9f4290b119b936bcd6215875a>@@@Z 1004218a f i libucrt:wsetlocale.obj
 0001:000411e6       ??$?RV<lambda_c76fdea48760d5f9368b465f31df4405>@@AAV<lambda_e378711a6f6581bf7f0efd7cdf97f5d9>@@V<lambda_e927a58b2a85c081d733e8c6192ae2d2>@@@?$__crt_seh_guarded_call@X@@QAEX$$QAV<lambda_c76fdea48760d5f9368b465f31df4405>@@AAV<lambda_e378711a6f6581bf7f0efd7cdf97f5d9>@@$$QAV<lambda_e927a58b2a85c081d733e8c6192ae2d2>@@@Z 100421e6 f i libucrt:wsetlocale.obj
 0001:00041239       ??$?RV<lambda_c9469061b39d205f0f236529d4a41659>@@AAV<lambda_b7fb1a997d3ebc0cc0186c5835178808>@@V<lambda_14b92c79d699846b5cc916cd4cf280e4>@@@?$__crt_seh_guarded_call@X@@QAEX$$QAV<lambda_c9469061b39d205f0f236529d4a41659>@@AAV<lambda_b7fb1a997d3ebc0cc0186c5835178808>@@$$QAV<lambda_14b92c79d699846b5cc916cd4cf280e4>@@@Z 10042239 f i libucrt:wsetlocale.obj
 0001:00041293       ??$__acrt_lock_and_call@V<lambda_176e34f99554166dd2fac165c457248c>@@@@YAXW4__acrt_lock_id@@$$QAV<lambda_176e34f99554166dd2fac165c457248c>@@@Z 10042293 f i libucrt:wsetlocale.obj
 0001:000412c5       ??$__acrt_lock_and_call@V<lambda_b7fb1a997d3ebc0cc0186c5835178808>@@@@YAXW4__acrt_lock_id@@$$QAV<lambda_b7fb1a997d3ebc0cc0186c5835178808>@@@Z 100422c5 f i libucrt:wsetlocale.obj
 0001:000412f7       ??$__acrt_lock_and_call@V<lambda_e378711a6f6581bf7f0efd7cdf97f5d9>@@@@YAXW4__acrt_lock_id@@$$QAV<lambda_e378711a6f6581bf7f0efd7cdf97f5d9>@@@Z 100422f7 f i libucrt:wsetlocale.obj
 0001:00041329       ??$__crt_call_and_cleanup@V<lambda_2af78c5f5901b1372d98f9ab3177dfa6>@@V<lambda_f51fe5fd7c79a33db34fc9310f277369>@@@@YAX$$QAV<lambda_2af78c5f5901b1372d98f9ab3177dfa6>@@$$QAV<lambda_f51fe5fd7c79a33db34fc9310f277369>@@@Z 10042329 f i libucrt:wsetlocale.obj
 0001:0004134c       ??$__vcrt_va_start_verify_argument_type@H@@YAXXZ 1004234c f i libucrt:wsetlocale.obj
 0001:00041471       ??0?$__crt_unique_heap_ptr@U__crt_locale_data@@U__crt_internal_free_policy@@@@QAE@QAU__crt_locale_data@@@Z 10042471 f i libucrt:wsetlocale.obj
 0001:00041485       ??0?$__crt_unique_heap_ptr@U__crt_locale_pointers@@U__crt_internal_free_policy@@@@QAE@QAU__crt_locale_pointers@@@Z 10042485 f i libucrt:wsetlocale.obj
 0001:00041499       ??0?$__crt_unique_heap_ptr@U__crt_multibyte_data@@U__crt_internal_free_policy@@@@QAE@QAU__crt_multibyte_data@@@Z 10042499 f i libucrt:wsetlocale.obj
 0001:000414ad       ??1?$__crt_unique_heap_ptr@U__crt_locale_data@@U__crt_internal_free_policy@@@@QAE@XZ 100424ad f i libucrt:wsetlocale.obj
 0001:000414c3       ??1?$__crt_unique_heap_ptr@U__crt_locale_pointers@@U__crt_internal_free_policy@@@@QAE@XZ 100424c3 f i libucrt:wsetlocale.obj
 0001:000414d9       ??1?$__crt_unique_heap_ptr@U__crt_multibyte_data@@U__crt_internal_free_policy@@@@QAE@XZ 100424d9 f i libucrt:wsetlocale.obj
 0001:000414ef       ??B?$__crt_unique_heap_ptr@U__crt_locale_data@@U__crt_internal_free_policy@@@@QBE_NXZ 100424ef f i libucrt:wsetlocale.obj
 0001:000414f9       ??B?$__crt_unique_heap_ptr@U__crt_locale_pointers@@U__crt_internal_free_policy@@@@QBE_NXZ 100424f9 f i libucrt:wsetlocale.obj
 0001:00041503       ??B?$__crt_unique_heap_ptr@U__crt_multibyte_data@@U__crt_internal_free_policy@@@@QBE_NXZ 10042503 f i libucrt:wsetlocale.obj
 0001:0004172c       ?detach@?$__crt_unique_heap_ptr@U__crt_locale_data@@U__crt_internal_free_policy@@@@QAEPAU__crt_locale_data@@XZ 1004272c f i libucrt:wsetlocale.obj
 0001:00041732       ?detach@?$__crt_unique_heap_ptr@U__crt_locale_pointers@@U__crt_internal_free_policy@@@@QAEPAU__crt_locale_pointers@@XZ 10042732 f i libucrt:wsetlocale.obj
 0001:00041738       ?detach@?$__crt_unique_heap_ptr@U__crt_multibyte_data@@U__crt_internal_free_policy@@@@QAEPAU__crt_multibyte_data@@XZ 10042738 f i libucrt:wsetlocale.obj
 0001:0004173e       ?get@?$__crt_unique_heap_ptr@U__crt_locale_data@@U__crt_internal_free_policy@@@@QBEPAU__crt_locale_data@@XZ 1004273e f i libucrt:wsetlocale.obj
 0001:00041741       ?get@?$__crt_unique_heap_ptr@U__crt_locale_pointers@@U__crt_internal_free_policy@@@@QBEPAU__crt_locale_pointers@@XZ 10042741 f i libucrt:wsetlocale.obj
 0001:00041744       ?get@?$__crt_unique_heap_ptr@U__crt_multibyte_data@@U__crt_internal_free_policy@@@@QBEPAU__crt_multibyte_data@@XZ 10042744 f i libucrt:wsetlocale.obj
 0001:00041747       ?is_valid@?$__crt_unique_heap_ptr@U__crt_locale_data@@U__crt_internal_free_policy@@@@QBE_NXZ 10042747 f i libucrt:wsetlocale.obj
 0001:00041751       ?is_valid@?$__crt_unique_heap_ptr@U__crt_locale_pointers@@U__crt_internal_free_policy@@@@QBE_NXZ 10042751 f i libucrt:wsetlocale.obj
 0001:0004175b       ?is_valid@?$__crt_unique_heap_ptr@U__crt_multibyte_data@@U__crt_internal_free_policy@@@@QBE_NXZ 1004275b f i libucrt:wsetlocale.obj
 0001:00041765       ?release@?$__crt_unique_heap_ptr@U__crt_locale_data@@U__crt_internal_free_policy@@@@QAEXXZ 10042765 f i libucrt:wsetlocale.obj
 0001:0004177b       ?release@?$__crt_unique_heap_ptr@U__crt_locale_pointers@@U__crt_internal_free_policy@@@@QAEXXZ 1004277b f i libucrt:wsetlocale.obj
 0001:00041791       ?release@?$__crt_unique_heap_ptr@U__crt_multibyte_data@@U__crt_internal_free_policy@@@@QAEXXZ 10042791 f i libucrt:wsetlocale.obj
 0001:000417a7       ___acrt_copy_locale_name   100427a7 f   libucrt:wsetlocale.obj
 0001:00041826       ___acrt_set_locale_changed 10042826 f   libucrt:wsetlocale.obj
 0001:00041833       ___acrt_uninitialize_locale 10042833 f   libucrt:wsetlocale.obj
 0001:00041899       ___lc_lctowcs              10042899 f   libucrt:wsetlocale.obj
 0001:00041925       ___lc_wcstolc              10042925 f   libucrt:wsetlocale.obj
 0001:00041a9f       __configthreadlocale       10042a9f f   libucrt:wsetlocale.obj
 0001:00041b53       __create_locale            10042b53 f   libucrt:wsetlocale.obj
 0001:00041bd0       __expandlocale             10042bd0 f   libucrt:wsetlocale.obj
 0001:00042024       __free_locale              10043024 f   libucrt:wsetlocale.obj
 0001:0004210a       __get_current_locale       1004310a f   libucrt:wsetlocale.obj
 0001:000421a3       __wcreate_locale           100431a3 f   libucrt:wsetlocale.obj
 0001:000422ee       __wcscats                  100432ee f   libucrt:wsetlocale.obj
 0001:0004233f       __wsetlocale               1004333f f   libucrt:wsetlocale.obj
 0001:00042e65       ___p___mb_cur_max          10043e65 f   libucrt:nlsdata.obj
 0001:00042e95       __realloc_base             10043e95 f   libucrt:realloc_base.obj
 0001:00042f18       ___acrt_initialize_locks   10043f18 f   libucrt:locks.obj
 0001:00042f69       ___acrt_lock               10043f69 f   libucrt:locks.obj
 0001:00042f85       ___acrt_uninitialize_locks 10043f85 f   libucrt:locks.obj
 0001:00042fc2       ___acrt_unlock             10043fc2 f   libucrt:locks.obj
 0001:00042fde       __lock_locales             10043fde f   libucrt:locks.obj
 0001:00042fe9       __unlock_locales           10043fe9 f   libucrt:locks.obj
 0001:00042ff4       ??$?RV<lambda_123407a5e2ac06da108355a851863b7a>@@AAV<lambda_2fe9b910cf3cbf4a0ab98a02ba45b3ec>@@V<lambda_ae55bdf541ad94d75914d381c370e64d>@@@?$__crt_seh_guarded_call@H@@QAEH$$QAV<lambda_123407a5e2ac06da108355a851863b7a>@@AAV<lambda_2fe9b910cf3cbf4a0ab98a02ba45b3ec>@@$$QAV<lambda_ae55bdf541ad94d75914d381c370e64d>@@@Z 10043ff4 f i libucrt:close.obj
 0001:00043096       ??$__acrt_lowio_lock_fh_and_call@V<lambda_2fe9b910cf3cbf4a0ab98a02ba45b3ec>@@@@YAHH$$QAV<lambda_2fe9b910cf3cbf4a0ab98a02ba45b3ec>@@@Z 10044096 f i libucrt:close.obj
 0001:000431e9       __close                    100441e9 f   libucrt:close.obj
 0001:00043287       __close_nolock             10044287 f   libucrt:close.obj
 0001:0004334a       ??$?RU__crt_stdio_stream_data@@@__crt_internal_free_policy@@QBEXQBU__crt_stdio_stream_data@@@Z 1004434a f i libucrt:stream.obj
 0001:00043360       ??0?$__crt_unique_heap_ptr@U__crt_stdio_stream_data@@U__crt_internal_free_policy@@@@QAE@QAU__crt_stdio_stream_data@@@Z 10044360 f i libucrt:stream.obj
 0001:00043374       ??0__crt_stdio_stream@@QAE@XZ 10044374 f i libucrt:stream.obj
 0001:0004337a       ??1?$__crt_unique_heap_ptr@U__crt_stdio_stream_data@@U__crt_internal_free_policy@@@@QAE@XZ 1004437a f i libucrt:stream.obj
 0001:00043390       ?__acrt_stdio_allocate_stream@@YA?AV__crt_stdio_stream@@XZ 10044390 f   libucrt:stream.obj
 0001:00043406       ?__acrt_stdio_free_stream@@YAXV__crt_stdio_stream@@@Z 10044406 f   libucrt:stream.obj
 0001:0004344f       ?deallocate@__crt_stdio_stream@@QAEXXZ 1004444f f i libucrt:stream.obj
 0001:0004345b       ?detach@?$__crt_unique_heap_ptr@U__crt_stdio_stream_data@@U__crt_internal_free_policy@@@@QAEPAU__crt_stdio_stream_data@@XZ 1004445b f i libucrt:stream.obj
 0001:00043554       ?lock@__crt_stdio_stream@@QBEXXZ 10044554 f i libucrt:stream.obj
 0001:0004355f       ?release@?$__crt_unique_heap_ptr@U__crt_stdio_stream_data@@U__crt_internal_free_policy@@@@QAEXXZ 1004455f f i libucrt:stream.obj
 0001:00043575       ?try_allocate@__crt_stdio_stream@@QAE_NXZ 10044575 f i libucrt:stream.obj
 0001:0004359e       ??$__acrt_stdio_parse_mode@D@@YA?AU__acrt_stdio_stream_mode@@QBD@Z 1004459e f i libucrt:openfile.obj
 0001:0004385c       ??$__acrt_stdio_parse_mode@_W@@YA?AU__acrt_stdio_stream_mode@@QB_W@Z 1004485c f i libucrt:openfile.obj
 0001:00043c7d       ??$tcsncmp@AAPBDAAY02$$CBDI@?$__crt_char_traits@D@@SAHAAPBDAAY02$$CBD$$QAI@Z 10044c7d f i libucrt:openfile.obj
 0001:00043ca0       ??$tcsncmp@AAPB_WAAY02$$CB_WI@?$__crt_char_traits@_W@@SAHAAPB_WAAY02$$CB_W$$QAI@Z 10044ca0 f i libucrt:openfile.obj
 0001:00043cc3       ??$tcsnicmp@AAPBDAAY04$$CBDI@?$__crt_char_traits@D@@SAHAAPBDAAY04$$CBD$$QAI@Z 10044cc3 f i libucrt:openfile.obj
 0001:00043ce6       ??$tcsnicmp@AAPBDAAY06$$CBDI@?$__crt_char_traits@D@@SAHAAPBDAAY06$$CBD$$QAI@Z 10044ce6 f i libucrt:openfile.obj
 0001:00043d09       ??$tcsnicmp@AAPBDAAY07$$CBDI@?$__crt_char_traits@D@@SAHAAPBDAAY07$$CBD$$QAI@Z 10044d09 f i libucrt:openfile.obj
 0001:00043d2c       ??$tcsnicmp@AAPB_WAAY04$$CB_WI@?$__crt_char_traits@_W@@SAHAAPB_WAAY04$$CB_W$$QAI@Z 10044d2c f i libucrt:openfile.obj
 0001:00043d4f       ??$tcsnicmp@AAPB_WAAY06$$CB_WI@?$__crt_char_traits@_W@@SAHAAPB_WAAY06$$CB_W$$QAI@Z 10044d4f f i libucrt:openfile.obj
 0001:00043d72       ??$tcsnicmp@AAPB_WAAY07$$CB_WI@?$__crt_char_traits@_W@@SAHAAPB_WAAY07$$CB_W$$QAI@Z 10044d72 f i libucrt:openfile.obj
 0001:00043d95       ??$tsopen_s@PAHABQBDABHABHH@?$__crt_char_traits@D@@SAH$$QAPAHABQBDABH2$$QAH@Z 10044d95 f i libucrt:openfile.obj
 0001:00043dc7       ??$tsopen_s@PAHABQB_WABHABHH@?$__crt_char_traits@_W@@SAH$$QAPAHABQB_WABH2$$QAH@Z 10044dc7 f i libucrt:openfile.obj
 0001:00043df9       ?__acrt_stdio_parse_mode_D@@YA_NAAU__acrt_stdio_stream_mode@@@Z 10044df9 f i libucrt:openfile.obj
 0001:00043e1a       ?__acrt_stdio_parse_mode_N@@YA_NAAU__acrt_stdio_stream_mode@@@Z 10044e1a f i libucrt:openfile.obj
 0001:00043e30       ?__acrt_stdio_parse_mode_R@@YA_NAAU__acrt_stdio_stream_mode@@AA_N@Z 10044e30 f i libucrt:openfile.obj
 0001:00043e55       ?__acrt_stdio_parse_mode_S@@YA_NAAU__acrt_stdio_stream_mode@@AA_N@Z 10044e55 f i libucrt:openfile.obj
 0001:00043e7a       ?__acrt_stdio_parse_mode_T@@YA_NAAU__acrt_stdio_stream_mode@@@Z 10044e7a f i libucrt:openfile.obj
 0001:00043ea0       ?__acrt_stdio_parse_mode_b@@YA_NAAU__acrt_stdio_stream_mode@@@Z 10044ea0 f i libucrt:openfile.obj
 0001:00043ec8       ?__acrt_stdio_parse_mode_c@@YA_NAAU__acrt_stdio_stream_mode@@AA_N@Z 10044ec8 f i libucrt:openfile.obj
 0001:00043ef2       ?__acrt_stdio_parse_mode_n@@YA_NAAU__acrt_stdio_stream_mode@@AA_N@Z 10044ef2 f i libucrt:openfile.obj
 0001:00043f1c       ?__acrt_stdio_parse_mode_plus@@YA_NAAU__acrt_stdio_stream_mode@@AA_N@Z 10044f1c f i libucrt:openfile.obj
 0001:00043f5e       ?__acrt_stdio_parse_mode_t@@YA_NAAU__acrt_stdio_stream_mode@@@Z 10044f5e f i libucrt:openfile.obj
 0001:00043f86       __openfile                 10044f86 f   libucrt:openfile.obj
 0001:00043f93       __wopenfile                10044f93 f   libucrt:openfile.obj
 0001:00044638       __read                     10045638 f   libucrt:read.obj
 0001:0004478f       __read_nolock              1004578f f   libucrt:read.obj
 0001:00045127       ___acrt_stdio_refill_and_read_narrow_nolock 10046127 f   libucrt:_filbuf.obj
 0001:00045134       ___acrt_stdio_refill_and_read_wide_nolock 10046134 f   libucrt:_filbuf.obj
 0001:00045893       __write                    10046893 f   libucrt:write.obj
 0001:000459b8       __write_nolock             100469b8 f   libucrt:write.obj
 0001:000460fe       ___acrt_stdio_flush_and_write_narrow_nolock 100470fe f   libucrt:_flsbuf.obj
 0001:0004610b       ___acrt_stdio_flush_and_write_wide_nolock 1004710b f   libucrt:_flsbuf.obj
 0001:00046118       ___acrt_copy_path_to_wide_string 10047118 f   libucrt:string_utilities.obj
 0001:00046210       ___acrt_copy_to_char       10047210 f   libucrt:string_utilities.obj
 0001:000462fb       __wremove                  100472fb f   libucrt:wunlink.obj
 0001:0004632d       __wunlink                  1004732d f   libucrt:wunlink.obj
 0001:000467a1       __lseek                    100477a1 f   libucrt:lseek.obj
 0001:000467ae       __lseek_nolock             100477ae f   libucrt:lseek.obj
 0001:000467bb       __lseeki64                 100477bb f   libucrt:lseek.obj
 0001:000467dc       __lseeki64_nolock          100477dc f   libucrt:lseek.obj
 0001:000467fd       __chgsign                  100477fd f   libucrt:ieeemisc.obj
 0001:00046837       __chgsignf                 10047837 f   libucrt:ieeemisc.obj
 0001:00046862       __copysign                 10047862 f   libucrt:ieeemisc.obj
 0001:00046896       __copysignf                10047896 f   libucrt:ieeemisc.obj
 0001:000468bb       __finite                   100478bb f   libucrt:ieeemisc.obj
 0001:000468db       __fpclass                  100478db f   libucrt:ieeemisc.obj
 0001:000469a8       __isnan                    100479a8 f   libucrt:ieeemisc.obj
 0001:000469eb       __logb                     100479eb f   libucrt:ieeemisc.obj
 0001:00046af0       __nextafter                10047af0 f   libucrt:ieeemisc.obj
 0001:00046b16       __scalb                    10047b16 f   libucrt:ieeemisc.obj
 0001:00046b36       __add_exp                  10047b36 f   libucrt:util.obj
 0001:00046b70       __decomp                   10047b70 f   libucrt:util.obj
 0001:00046c79       __get_exp                  10047c79 f   libucrt:util.obj
 0001:00046c98       __set_bexp                 10047c98 f   libucrt:util.obj
 0001:00046ccb       __set_exp                  10047ccb f   libucrt:util.obj
 0001:00046d05       __sptype                   10047d05 f   libucrt:util.obj
 0001:00046d7a       ___clrfp_sse2              10047d7a f   libucrt:fpctrl.obj
 0001:00046da3       ___ctrlfp_sse2             10047da3 f   libucrt:fpctrl.obj
 0001:00046dec       ___fclrf_sse2              10047dec f   libucrt:fpctrl.obj
 0001:00046e12       ___get_fpsr_sse2           10047e12 f   libucrt:fpctrl.obj
 0001:00046e37       ___set_fpsr_sse2           10047e37 f   libucrt:fpctrl.obj
 0001:00046eca       ___set_statfp_sse2         10047eca f   libucrt:fpctrl.obj
 0001:00046eeb       ___statfp_sse2             10047eeb f   libucrt:fpctrl.obj
 0001:00046f05       __clrfp                    10047f05 f   libucrt:fpctrl.obj
 0001:00046f1c       __ctrlfp                   10047f1c f   libucrt:fpctrl.obj
 0001:00046f53       __set_statfp               10047f53 f   libucrt:fpctrl.obj
 0001:00046fc4       __statfp                   10047fc4 f   libucrt:fpctrl.obj
 0001:00046fe0       __cintrindisp2             10047fe0 f   libucrt:87cdisp.obj
 0001:00047024       __cintrindisp1             10048024 f   libucrt:87cdisp.obj
 0001:00047067       __ctrandisp2               10048067 f   libucrt:87cdisp.obj
 0001:000471f6       __ctrandisp1               100481f6 f   libucrt:87cdisp.obj
 0001:00047229       __fload                    10048229 f   libucrt:87cdisp.obj
 0001:00047310       __trandisp1                10048310 f   libucrt:87disp.obj
 0001:00047377       __trandisp2                10048377 f   libucrt:87disp.obj
 0001:00047403       __rttospopde               10048403     libucrt:87disp.obj
 0001:00047408       __rttospop                 10048408     libucrt:87disp.obj
 0001:0004740a       __rtnospop                 1004840a     libucrt:87disp.obj
 0001:0004740c       __rttosnpop                1004840c     libucrt:87disp.obj
 0001:0004740d       __rtnospopde               1004840d     libucrt:87disp.obj
 0001:00047414       __rtzeropop                10048414     libucrt:87disp.obj
 0001:00047416       __rtzeronpop               10048416     libucrt:87disp.obj
 0001:0004741b       __rtzerospop               1004841b     libucrt:87disp.obj
 0001:00047428       __rtonepop                 10048428     libucrt:87disp.obj
 0001:0004742a       __rtonenpop                1004842a     libucrt:87disp.obj
 0001:0004742f       __tosnan1                  1004842f     libucrt:87disp.obj
 0001:0004745a       __nosnan2                  1004845a     libucrt:87disp.obj
 0001:0004745c       __tosnan2                  1004845c     libucrt:87disp.obj
 0001:00047484       __nan2                     10048484     libucrt:87disp.obj
 0001:000474c3       __rtindfpop                100484c3     libucrt:87disp.obj
 0001:000474c5       __rtindfnpop               100484c5     libucrt:87disp.obj
 0001:000474d6       __rttosnpopde              100484d6     libucrt:87disp.obj
 0001:000474e0       __rtatan2inf               100484e0     libucrt:87disp.obj
 0001:000474fd       __rtchsifneg               100484fd     libucrt:87disp.obj
 0001:00047581       ___libm_error_support      10048581 f   libucrt:libm_error.obj
 0001:0004781f       ___libm_setusermatherr     1004881f f   libucrt:libm_error.obj
 0001:00047858       ___acrt_initialize_sse2    10048858 f   libucrt:mathfcns.obj
 0001:0004786a       __set_SSE2_enable          1004886a f   libucrt:mathfcns.obj
 0001:00047893       __ceil_default             10048893 f   libucrt:ceil.obj
 0001:00047a41       ___acrt_report_runtime_error 10048a41 f   libucrt:report_runtime_error.obj
 0001:00047ba7       __query_app_type           10048ba7 f   libucrt:report_runtime_error.obj
 0001:00047bad       __set_app_type             10048bad f   libucrt:report_runtime_error.obj
 0001:00048099       __i64toa                   10049099 f   libucrt:xtoa.obj
 0001:000480ec       __i64toa_s                 100490ec f   libucrt:xtoa.obj
 0001:0004813d       __i64tow                   1004913d f   libucrt:xtoa.obj
 0001:00048190       __i64tow_s                 10049190 f   libucrt:xtoa.obj
 0001:000481e1       __itoa                     100491e1 f   libucrt:xtoa.obj
 0001:00048225       __itoa_s                   10049225 f   libucrt:xtoa.obj
 0001:00048267       __itow                     10049267 f   libucrt:xtoa.obj
 0001:000482ab       __itow_s                   100492ab f   libucrt:xtoa.obj
 0001:000482ed       __ltoa                     100492ed f   libucrt:xtoa.obj
 0001:00048331       __ltoa_s                   10049331 f   libucrt:xtoa.obj
 0001:00048373       __ltow                     10049373 f   libucrt:xtoa.obj
 0001:000483b7       __ltow_s                   100493b7 f   libucrt:xtoa.obj
 0001:000483f9       __ui64toa                  100493f9 f   libucrt:xtoa.obj
 0001:00048423       __ui64toa_s                10049423 f   libucrt:xtoa.obj
 0001:0004844b       __ui64tow                  1004944b f   libucrt:xtoa.obj
 0001:00048475       __ui64tow_s                10049475 f   libucrt:xtoa.obj
 0001:0004849d       __ultoa                    1004949d f   libucrt:xtoa.obj
 0001:000484c3       __ultoa_s                  100494c3 f   libucrt:xtoa.obj
 0001:000484e7       __ultow                    100494e7 f   libucrt:xtoa.obj
 0001:0004850d       __ultow_s                  1004950d f   libucrt:xtoa.obj
 0001:00048531       __set_error_mode           10049531 f   libucrt:set_error_mode.obj
 0001:0004860d       _wcscat_s                  1004960d f   libucrt:wcscat_s.obj
 0001:00048717       _wcscpy_s                  10049717 f   libucrt:wcscpy_s.obj
 0001:000488b7       _wcsncat_s                 100498b7 f   libucrt:wcsncat_s.obj
 0001:00048947       _strcat_s                  10049947 f   libucrt:strcat_s.obj
 0001:00048ace       _strncat_s                 10049ace f   libucrt:strncat_s.obj
 0001:00048cf9       ??$message_box@$$TAAPBDAAPBDAAI@?$__crt_char_traits@D@@SAH$$QA$$TAAPBD1AAI@Z 10049cf9 f i libucrt:crtmbox.obj
 0001:00048d21       ??$message_box@$$TAAPB_WAAPB_WAAI@?$__crt_char_traits@_W@@SAH$$QA$$TAAPB_W1AAI@Z 10049d21 f i libucrt:crtmbox.obj
 0001:00048d49       ??$message_box@$$TABQBDABQBDK@?$__crt_char_traits@D@@SAH$$QA$$TABQBD1$$QAK@Z 10049d49 f i libucrt:crtmbox.obj
 0001:00048d71       ??$message_box@$$TABQB_WABQB_WK@?$__crt_char_traits@_W@@SAH$$QA$$TABQB_W1$$QAK@Z 10049d71 f i libucrt:crtmbox.obj
 0001:00048d99       ??$message_box@PAUHWND__@@ABQBDABQBDABI@?$__crt_char_traits@D@@SAH$$QAPAUHWND__@@ABQBD1ABI@Z 10049d99 f i libucrt:crtmbox.obj
 0001:00048dc1       ??$message_box@PAUHWND__@@ABQB_WABQB_WABI@?$__crt_char_traits@_W@@SAH$$QAPAUHWND__@@ABQB_W1ABI@Z 10049dc1 f i libucrt:crtmbox.obj
 0001:00048e3d       ??$output_debug_string@ABQBD@?$__crt_char_traits@D@@SAXABQBD@Z 10049e3d f i libucrt:crtmbox.obj
 0001:00048e53       ??$output_debug_string@ABQB_W@?$__crt_char_traits@_W@@SAXABQB_W@Z 10049e53 f i libucrt:crtmbox.obj
 0001:00048e69       ??0?$__crt_unique_handle_t@U__crt_handle_traits@@@@QAE@QAX@Z 10049e69 f i libucrt:crtmbox.obj
 0001:00048e7d       ??1?$__crt_unique_handle_t@U__crt_handle_traits@@@@QAE@XZ 10049e7d f i libucrt:crtmbox.obj
 0001:00048e99       ??B?$__crt_unique_handle_t@U__crt_handle_traits@@@@QBE_NXZ 10049e99 f i libucrt:crtmbox.obj
 0001:00048ea4       ?close@?$__crt_unique_handle_t@U__crt_handle_traits@@@@QAEXXZ 10049ea4 f i libucrt:crtmbox.obj
 0001:00048ec0       ?close@__crt_handle_traits@@SA_NPAX@Z 10049ec0 f i libucrt:crtmbox.obj
 0001:00048edb       ?get@?$__crt_unique_handle_t@U__crt_handle_traits@@@@QBEPAXXZ 10049edb f i libucrt:crtmbox.obj
 0001:00048ede       ?get_invalid_value@__crt_handle_traits@@SAPAXXZ 10049ede f i libucrt:crtmbox.obj
 0001:00048ee2       ?is_valid@?$__crt_unique_handle_t@U__crt_handle_traits@@@@QBE_NXZ 10049ee2 f i libucrt:crtmbox.obj
 0001:00048eed       ___acrt_show_narrow_message_box 10049eed f   libucrt:crtmbox.obj
 0001:00048efa       ___acrt_show_wide_message_box 10049efa f   libucrt:crtmbox.obj
 0001:00048f07       ??$?RV<lambda_d92cfe8357b99225085016881b624cb0>@@AAV<lambda_b721fa326cdb32351d23dfa67958c160>@@V<lambda_42d75b0848218ec137fa420c8ba9fdf9>@@@?$__crt_seh_guarded_call@H@@QAEH$$QAV<lambda_d92cfe8357b99225085016881b624cb0>@@AAV<lambda_b721fa326cdb32351d23dfa67958c160>@@$$QAV<lambda_42d75b0848218ec137fa420c8ba9fdf9>@@@Z 10049f07 f i libucrt:setvbuf.obj
 0001:00048f6c       ??$__acrt_lock_stream_and_call@V<lambda_b721fa326cdb32351d23dfa67958c160>@@@@YAHQAU_iobuf@@$$QAV<lambda_b721fa326cdb32351d23dfa67958c160>@@@Z 10049f6c f i libucrt:setvbuf.obj
 0001:00049109       _setvbuf                   1004a109 f   libucrt:setvbuf.obj
 0001:0004919c       ??$?B$$A6AXH@Z@__crt_fast_encoded_nullptr_t@@QBEP6AXH@ZXZ 1004a19c f i libucrt:signal.obj
 0001:000491ba       ??$?RV<lambda_a048d3beccc847880fc8490e18b82769>@@AAV<lambda_ec61778202f4f5fc7e7711acc23c3bca>@@V<lambda_f7496a158712204296dd6628a163878e>@@@?$__crt_seh_guarded_call@P6AXH@Z@@QAEP6AXH@Z$$QAV<lambda_a048d3beccc847880fc8490e18b82769>@@AAV<lambda_ec61778202f4f5fc7e7711acc23c3bca>@@$$QAV<lambda_f7496a158712204296dd6628a163878e>@@@Z 1004a1ba f i libucrt:signal.obj
 0001:0004922a       ??$__acrt_lock_and_call@V<lambda_ec61778202f4f5fc7e7711acc23c3bca>@@@@YAP6AXH@ZW4__acrt_lock_id@@$$QAV<lambda_ec61778202f4f5fc7e7711acc23c3bca>@@@Z 1004a22a f i libucrt:signal.obj
 0001:0004925c       ??$__crt_fast_decode_pointer@P6AXH@Z@@YAP6AXH@ZQ6AXH@Z@Z 1004a25c f i libucrt:signal.obj
 0001:00049277       ??$__crt_fast_encode_pointer@P6AXH@Z@@YAP6AXH@ZQ6AXH@Z@Z 1004a277 f i libucrt:signal.obj
 0001:00049421       ?initialize@?$dual_state_global@P6AXH@Z@__crt_state_management@@QAEXQ6AXH@Z@Z 1004a421 f i libucrt:signal.obj
 0001:000494cd       ?value@?$dual_state_global@P6AXH@Z@__crt_state_management@@QAEAAP6AXH@ZXZ 1004a4cd f i libucrt:signal.obj
 0001:000494d0       ___acrt_get_sigabrt_handler 1004a4d0 f   libucrt:signal.obj
 0001:000494ec       ___acrt_initialize_signal_handlers 1004a4ec f   libucrt:signal.obj
 0001:00049535       ___fpecode                 1004a535 f   libucrt:signal.obj
 0001:00049540       ___pxcptinfoptrs           1004a540 f   libucrt:signal.obj
 0001:0004954b       _raise                     1004a54b f   libucrt:signal.obj
 0001:000497d5       _signal                    1004a7d5 f   libucrt:signal.obj
 0001:000499f3       ??$__crt_fast_decode_pointer@P6AHPAU_exception@@@Z@@YAP6AHPAU_exception@@@ZQ6AH0@Z@Z 1004a9f3 f i libucrt:matherr.obj
 0001:00049a0e       ??$__crt_fast_encode_pointer@P6AHPAU_exception@@@Z@@YAP6AHPAU_exception@@@ZQ6AH0@Z@Z 1004aa0e f i libucrt:matherr.obj
 0001:00049a34       ?initialize@?$dual_state_global@P6AHPAU_exception@@@Z@__crt_state_management@@QAEXQ6AHPAU_exception@@@Z@Z 1004aa34 f i libucrt:matherr.obj
 0001:00049a71       ?value@?$dual_state_global@P6AHPAU_exception@@@Z@__crt_state_management@@QAEAAP6AHPAU_exception@@@ZXZ 1004aa71 f i libucrt:matherr.obj
 0001:00049a74       ___acrt_has_user_matherr   1004aa74 f   libucrt:matherr.obj
 0001:00049a93       ___acrt_initialize_user_matherr 1004aa93 f   libucrt:matherr.obj
 0001:00049aac       ___acrt_invoke_user_matherr 1004aaac f   libucrt:matherr.obj
 0001:00049b07       ___setusermatherr          1004ab07 f   libucrt:matherr.obj
 0001:00049b21       ??$?RV<lambda_978dc153c237d78434369da87b74ff60>@@AAV<lambda_ad1ced32f4ac17aa236e5ef05d6b3b7c>@@V<lambda_4a8533e2866a575feecb8298ce776b0d>@@@?$__crt_seh_guarded_call@X@@QAEX$$QAV<lambda_978dc153c237d78434369da87b74ff60>@@AAV<lambda_ad1ced32f4ac17aa236e5ef05d6b3b7c>@@$$QAV<lambda_4a8533e2866a575feecb8298ce776b0d>@@@Z 1004ab21 f i libucrt:mbctype.obj
 0001:00049b74       ??$__acrt_lock_and_call@V<lambda_ad1ced32f4ac17aa236e5ef05d6b3b7c>@@@@YAXW4__acrt_lock_id@@$$QAV<lambda_ad1ced32f4ac17aa236e5ef05d6b3b7c>@@@Z 1004ab74 f i libucrt:mbctype.obj
 0001:0004a185       ___acrt_initialize_multibyte 1004b185 f   libucrt:mbctype.obj
 0001:0004a1aa       ___acrt_update_thread_multibyte_data 1004b1aa f   libucrt:mbctype.obj
 0001:0004a274       ___p__mbcasemap            1004b274 f   libucrt:mbctype.obj
 0001:0004a27a       ___p__mbctype              1004b27a f   libucrt:mbctype.obj
 0001:0004a280       __getmbcp                  1004b280 f   libucrt:mbctype.obj
 0001:0004a2c3       __setmbcp                  1004b2c3 f   libucrt:mbctype.obj
 0001:0004a2da       __setmbcp_nolock           1004b2da f   libucrt:mbctype.obj
 0001:0004a5e8       ??0?$__crt_unique_handle_t@Uenvironment_strings_traits@?A0x29f97c20@@@@QAE@QA_W@Z 1004b5e8 f i libucrt:get_environment_from_os.obj
 0001:0004a5fc       ??1?$__crt_unique_handle_t@Uenvironment_strings_traits@?A0x29f97c20@@@@QAE@XZ 1004b5fc f i libucrt:get_environment_from_os.obj
 0001:0004a618       ??B?$__crt_unique_handle_t@Uenvironment_strings_traits@?A0x29f97c20@@@@QBE_NXZ 1004b618 f i libucrt:get_environment_from_os.obj
 0001:0004a622       ?close@?$__crt_unique_handle_t@Uenvironment_strings_traits@?A0x29f97c20@@@@QAEXXZ 1004b622 f i libucrt:get_environment_from_os.obj
 0001:0004a63e       ?close@environment_strings_traits@?A0x29f97c20@@SA_NPA_W@Z 1004b63e f i libucrt:get_environment_from_os.obj
 0001:0004a698       ?get@?$__crt_unique_handle_t@Uenvironment_strings_traits@?A0x29f97c20@@@@QBEPA_WXZ 1004b698 f i libucrt:get_environment_from_os.obj
 0001:0004a69b       ?get_invalid_value@environment_strings_traits@?A0x29f97c20@@SAPA_WXZ 1004b69b f i libucrt:get_environment_from_os.obj
 0001:0004a69e       ?is_valid@?$__crt_unique_handle_t@Uenvironment_strings_traits@?A0x29f97c20@@@@QBE_NXZ 1004b69e f i libucrt:get_environment_from_os.obj
 0001:0004a6a8       ___dcrt_get_narrow_environment_from_os 1004b6a8 f   libucrt:get_environment_from_os.obj
 0001:0004a74b       ___dcrt_get_wide_environment_from_os 1004b74b f   libucrt:get_environment_from_os.obj
 0001:0004afe3       ??$get_or_create_environment_nolock@$$$V@?$__crt_char_traits@D@@SAPAPADXZ 1004bfe3 f i libucrt:setenv.obj
 0001:0004afe8       ??$get_or_create_environment_nolock@$$$V@?$__crt_char_traits@_W@@SAPAPA_WXZ 1004bfe8 f i libucrt:setenv.obj
 0001:0004afed       ??$set_environment_variable@ABQADQAD@?$__crt_char_traits@D@@SAHABQAD$$QBQAD@Z 1004bfed f i libucrt:setenv.obj
 0001:0004b009       ??$set_environment_variable@ABQA_WQA_W@?$__crt_char_traits@_W@@SAHABQA_W$$QBQA_W@Z 1004c009 f i libucrt:setenv.obj
 0001:0004b025       ??$tcschr@ABQADD@?$__crt_char_traits@D@@SAPADABQAD$$QAD@Z 1004c025 f i libucrt:setenv.obj
 0001:0004b045       ??$tcschr@ABQA_WD@?$__crt_char_traits@_W@@SAPA_WABQA_W$$QAD@Z 1004c045 f i libucrt:setenv.obj
 0001:0004b06a       ??$tcscpy_s@AAPADABIAAPAD@?$__crt_char_traits@D@@SAHAAPADABI0@Z 1004c06a f i libucrt:setenv.obj
 0001:0004b08f       ??$tcscpy_s@AAPA_WABIAAPA_W@?$__crt_char_traits@_W@@SAHAAPA_WABI0@Z 1004c08f f i libucrt:setenv.obj
 0001:0004b0b4       ??$tcscpy_s@ABQADABIABQAD@?$__crt_char_traits@D@@SAHABQADABI0@Z 1004c0b4 f i libucrt:setenv.obj
 0001:0004b0d9       ??$tcscpy_s@ABQA_WABIABQA_W@?$__crt_char_traits@_W@@SAHABQA_WABI0@Z 1004c0d9 f i libucrt:setenv.obj
 0001:0004b0fe       ??$tcsnicoll@ABQBDAAPADABI@?$__crt_char_traits@D@@SAHABQBDAAPADABI@Z 1004c0fe f i libucrt:setenv.obj
 0001:0004b123       ??$tcsnicoll@ABQB_WAAPA_WABI@?$__crt_char_traits@_W@@SAHABQB_WAAPA_WABI@Z 1004c123 f i libucrt:setenv.obj
 0001:0004b16c       ?strchr@@YAPADQADH@Z       1004c16c f i libucrt:setenv.obj
 0001:0004b179       ?wcschr@@YAPA_WPA_W_W@Z    1004c179 f i libucrt:setenv.obj
 0001:0004b186       ___dcrt_set_variable_in_narrow_environment_nolock 1004c186 f   libucrt:setenv.obj
 0001:0004b193       ___dcrt_set_variable_in_wide_environment_nolock 1004c193 f   libucrt:setenv.obj
 0001:0004b1a0       __recalloc                 1004c1a0 f   libucrt:recalloc.obj
 0001:0004b1ad       __recalloc_base            1004c1ad f   libucrt:recalloc.obj
 0001:0004b235       ___acrt_getheap            1004c235 f   libucrt:heap_handle.obj
 0001:0004b23b       ___acrt_initialize_heap    1004c23b f   libucrt:heap_handle.obj
 0001:0004b250       ___acrt_uninitialize_heap  1004c250 f   libucrt:heap_handle.obj
 0001:0004b25c       __get_heap_handle          1004c25c f   libucrt:heap_handle.obj
 0001:0004b262       ___acrt_initialize_command_line 1004c262 f   libucrt:argv_data.obj
 0001:0004b281       ___acrt_uninitialize_command_line 1004c281 f   libucrt:argv_data.obj
 0001:0004b284       ___p___argc                1004c284 f   libucrt:argv_data.obj
 0001:0004b28a       ___p___argv                1004c28a f   libucrt:argv_data.obj
 0001:0004b290       ___p___wargv               1004c290 f   libucrt:argv_data.obj
 0001:0004b296       ___p__acmdln               1004c296 f   libucrt:argv_data.obj
 0001:0004b29c       ___p__pgmptr               1004c29c f   libucrt:argv_data.obj
 0001:0004b2a2       ___p__wcmdln               1004c2a2 f   libucrt:argv_data.obj
 0001:0004b2a8       ___p__wpgmptr              1004c2a8 f   libucrt:argv_data.obj
 0001:0004b2ae       __get_pgmptr               1004c2ae f   libucrt:argv_data.obj
 0001:0004b2eb       __get_wpgmptr              1004c2eb f   libucrt:argv_data.obj
 0001:0004b328       ___acrt_execute_initializers 1004c328 f   libucrt:shared_initialization.obj
 0001:0004b3cb       ___acrt_execute_uninitializers 1004c3cb f   libucrt:shared_initialization.obj
 0001:0004b42b       ??$?B$$A6AHI@Z@__crt_fast_encoded_nullptr_t@@QBEP6AHI@ZXZ 1004c42b f i libucrt:new_handler.obj
 0001:0004b449       ??$__crt_fast_decode_pointer@P6AHI@Z@@YAP6AHI@ZQ6AHI@Z@Z 1004c449 f i libucrt:new_handler.obj
 0001:0004b464       ??$__crt_fast_encode_pointer@P6AHI@Z@@YAP6AHI@ZQ6AHI@Z@Z 1004c464 f i libucrt:new_handler.obj
 0001:0004b48a       ?_set_new_handler@@YAP6AHI@ZH@Z 1004c48a f   libucrt:new_handler.obj
 0001:0004b4b0       ?initialize@?$dual_state_global@P6AHI@Z@__crt_state_management@@QAEXQ6AHI@Z@Z 1004c4b0 f i libucrt:new_handler.obj
 0001:0004b4ed       ?value@?$dual_state_global@P6AHI@Z@__crt_state_management@@QAEAAP6AHI@ZXZ 1004c4ed f i libucrt:new_handler.obj
 0001:0004b4f0       ___acrt_initialize_new_handler 1004c4f0 f   libucrt:new_handler.obj
 0001:0004b509       __callnewh                 1004c509 f   libucrt:new_handler.obj
 0001:0004b55e       __query_new_handler        1004c55e f   libucrt:new_handler.obj
 0001:0004b5c4       __set_new_handler          1004c5c4 f   libucrt:new_handler.obj
 0001:0004b63c       ?value@?$dual_state_global@J@__crt_state_management@@QAEAAJXZ 1004c63c f i libucrt:new_mode.obj
 0001:0004b63f       __query_new_mode           1004c63f f   libucrt:new_mode.obj
 0001:0004b645       __set_new_mode             1004c645 f   libucrt:new_mode.obj
 0001:0004b67f       ___pctype_func             1004c67f f   libucrt:ctype.obj
 0001:0004b6ae       ___pwctype_func            1004c6ae f   libucrt:ctype.obj
 0001:0004b6b4       __iswctype_l               1004c6b4 f   libucrt:iswctype.obj
 0001:0004b6cd       _iswctype                  1004c6cd f   libucrt:iswctype.obj
 0001:0004b743       __isctype                  1004c743 f   libucrt:isctype.obj
 0001:0004b780       __isctype_l                1004c780 f   libucrt:isctype.obj
 0001:0004ba47       ___acrt_DownlevelLCIDToLocaleName 1004ca47 f   libucrt:lcidtoname_downlevel.obj
 0001:0004bb1b       ___acrt_DownlevelLocaleNameToLCID 1004cb1b f   libucrt:lcidtoname_downlevel.obj
 0001:0004bb52       ??$?RV<lambda_61cee617f5178ae960314fd4d05640a0>@@AAV<lambda_6978c1fb23f02e42e1d9e99668cc68aa>@@V<lambda_9cd88cf8ad10232537feb2133f08c833>@@@?$__crt_seh_guarded_call@H@@QAEH$$QAV<lambda_61cee617f5178ae960314fd4d05640a0>@@AAV<lambda_6978c1fb23f02e42e1d9e99668cc68aa>@@$$QAV<lambda_9cd88cf8ad10232537feb2133f08c833>@@@Z 1004cb52 f i libucrt:commit.obj
 0001:0004bc10       ??$__acrt_lowio_lock_fh_and_call@V<lambda_6978c1fb23f02e42e1d9e99668cc68aa>@@@@YAHH$$QAV<lambda_6978c1fb23f02e42e1d9e99668cc68aa>@@@Z 1004cc10 f i libucrt:commit.obj
 0001:0004bd02       __commit                   1004cd02 f   libucrt:commit.obj
 0001:0004bd8c       ??$?RU__crt_lowio_handle_data@@@__crt_internal_free_policy@@QBEXQBU__crt_lowio_handle_data@@@Z 1004cd8c f i libucrt:osfinfo.obj
 0001:0004bda2       ??0?$__crt_unique_heap_ptr@U__crt_lowio_handle_data@@U__crt_internal_free_policy@@@@QAE@QAU__crt_lowio_handle_data@@@Z 1004cda2 f i libucrt:osfinfo.obj
 0001:0004bdb6       ??1?$__crt_unique_heap_ptr@U__crt_lowio_handle_data@@U__crt_internal_free_policy@@@@QAE@XZ 1004cdb6 f i libucrt:osfinfo.obj
 0001:0004bdcc       ??B?$__crt_unique_heap_ptr@U__crt_lowio_handle_data@@U__crt_internal_free_policy@@@@QBE_NXZ 1004cdcc f i libucrt:osfinfo.obj
 0001:0004bdd6       ?detach@?$__crt_unique_heap_ptr@U__crt_lowio_handle_data@@U__crt_internal_free_policy@@@@QAEPAU__crt_lowio_handle_data@@XZ 1004cdd6 f i libucrt:osfinfo.obj
 0001:0004bddc       ?get@?$__crt_unique_heap_ptr@U__crt_lowio_handle_data@@U__crt_internal_free_policy@@@@QBEPAU__crt_lowio_handle_data@@XZ 1004cddc f i libucrt:osfinfo.obj
 0001:0004bddf       ?is_valid@?$__crt_unique_heap_ptr@U__crt_lowio_handle_data@@U__crt_internal_free_policy@@@@QBE_NXZ 1004cddf f i libucrt:osfinfo.obj
 0001:0004bde9       ?release@?$__crt_unique_heap_ptr@U__crt_lowio_handle_data@@U__crt_internal_free_policy@@@@QAEXXZ 1004cde9 f i libucrt:osfinfo.obj
 0001:0004bdff       ___acrt_lowio_create_handle_array 1004cdff f   libucrt:osfinfo.obj
 0001:0004be97       ___acrt_lowio_destroy_handle_array 1004ce97 f   libucrt:osfinfo.obj
 0001:0004bed9       ___acrt_lowio_ensure_fh_exists 1004ced9 f   libucrt:osfinfo.obj
 0001:0004bf97       ___acrt_lowio_lock_fh      1004cf97 f   libucrt:osfinfo.obj
 0001:0004bfc2       ___acrt_lowio_set_os_handle 1004cfc2 f   libucrt:osfinfo.obj
 0001:0004c07b       ___acrt_lowio_unlock_fh    1004d07b f   libucrt:osfinfo.obj
 0001:0004c0a6       __alloc_osfhnd             1004d0a6 f   libucrt:osfinfo.obj
 0001:0004c1fc       __free_osfhnd              1004d1fc f   libucrt:osfinfo.obj
 0001:0004c2b1       __get_osfhandle            1004d2b1 f   libucrt:osfinfo.obj
 0001:0004c335       __open_osfhandle           1004d335 f   libucrt:osfinfo.obj
 0001:0004c486       ___iswcsym                 1004d486 f i libucrt:_wctype.obj
 0001:0004c4b5       ___iswcsymf                1004d4b5 f i libucrt:_wctype.obj
 0001:0004c4e4       __isleadbyte_l             1004d4e4 f i libucrt:_wctype.obj
 0001:0004c52b       __iswalnum_l               1004d52b f i libucrt:_wctype.obj
 0001:0004c546       __iswalpha_l               1004d546 f i libucrt:_wctype.obj
 0001:0004c561       __iswblank_l               1004d561 f i libucrt:_wctype.obj
 0001:0004c585       __iswcntrl_l               1004d585 f i libucrt:_wctype.obj
 0001:0004c59c       __iswcsym_l                1004d59c f i libucrt:_wctype.obj
 0001:0004c5cb       __iswcsymf_l               1004d5cb f i libucrt:_wctype.obj
 0001:0004c5fa       __iswdigit_l               1004d5fa f i libucrt:_wctype.obj
 0001:0004c611       __iswgraph_l               1004d611 f i libucrt:_wctype.obj
 0001:0004c62c       __iswlower_l               1004d62c f i libucrt:_wctype.obj
 0001:0004c643       __iswprint_l               1004d643 f i libucrt:_wctype.obj
 0001:0004c65e       __iswpunct_l               1004d65e f i libucrt:_wctype.obj
 0001:0004c675       __iswspace_l               1004d675 f i libucrt:_wctype.obj
 0001:0004c68c       __iswupper_l               1004d68c f i libucrt:_wctype.obj
 0001:0004c6a3       __iswxdigit_l              1004d6a3 f i libucrt:_wctype.obj
 0001:0004c6be       _isleadbyte                1004d6be f i libucrt:_wctype.obj
 0001:0004c6d5       _iswalnum                  1004d6d5 f i libucrt:_wctype.obj
 0001:0004c6f0       _iswalpha                  1004d6f0 f i libucrt:_wctype.obj
 0001:0004c70b       _iswascii                  1004d70b f i libucrt:_wctype.obj
 0001:0004c724       _iswblank                  1004d724 f i libucrt:_wctype.obj
 0001:0004c748       _iswcntrl                  1004d748 f i libucrt:_wctype.obj
 0001:0004c75f       _iswdigit                  1004d75f f i libucrt:_wctype.obj
 0001:0004c776       _iswgraph                  1004d776 f i libucrt:_wctype.obj
 0001:0004c791       _iswlower                  1004d791 f i libucrt:_wctype.obj
 0001:0004c7a8       _iswprint                  1004d7a8 f i libucrt:_wctype.obj
 0001:0004c7c3       _iswpunct                  1004d7c3 f i libucrt:_wctype.obj
 0001:0004c7da       _iswspace                  1004d7da f i libucrt:_wctype.obj
 0001:0004c7f1       _iswupper                  1004d7f1 f i libucrt:_wctype.obj
 0001:0004c808       _iswxdigit                 1004d808 f i libucrt:_wctype.obj
 0001:0004c823       ??0?$__crt_scoped_stack_ptr@_W@@QAE@U?$__crt_scoped_stack_ptr_tag@_W@@@Z 1004d823 f i libucrt:lcmapstringa.obj
 0001:0004c837       ??0?$__crt_scoped_stack_ptr_tag@_W@@QAE@QA_W@Z 1004d837 f i libucrt:lcmapstringa.obj
 0001:0004c84b       ??1?$__crt_scoped_stack_ptr@_W@@QAE@XZ 1004d84b f i libucrt:lcmapstringa.obj
 0001:0004c856       ??B?$__crt_scoped_stack_ptr@_W@@QBE_NXZ 1004d856 f i libucrt:lcmapstringa.obj
 0001:0004cb04       ?get@?$__crt_scoped_stack_ptr@_W@@QBEPA_WXZ 1004db04 f i libucrt:lcmapstringa.obj
 0001:0004cb07       __MallocaComputeSize       1004db07 f i libucrt:lcmapstringa.obj
 0001:0004cb1e       __MarkAllocaS              1004db1e f i libucrt:lcmapstringa.obj
 0001:0004cb39       ___acrt_LCMapStringA       1004db39 f   libucrt:lcmapstringa.obj
 0001:0004cb96       __freea_crt                1004db96 f i libucrt:lcmapstringa.obj
 0001:0004cbbe       ??$?RE@__crt_internal_free_policy@@QBEXQBE@Z 1004dbbe f i libucrt:initctype.obj
 0001:0004cbd4       ??$?RG@__crt_internal_free_policy@@QBEXQBG@Z 1004dbd4 f i libucrt:initctype.obj
 0001:0004cbea       ??$?RJ@__crt_internal_free_policy@@QBEXQBJ@Z 1004dbea f i libucrt:initctype.obj
 0001:0004cc00       ??0?$__crt_unique_heap_ptr@EU__crt_internal_free_policy@@@@QAE@QAE@Z 1004dc00 f i libucrt:initctype.obj
 0001:0004cc14       ??0?$__crt_unique_heap_ptr@GU__crt_internal_free_policy@@@@QAE@QAG@Z 1004dc14 f i libucrt:initctype.obj
 0001:0004cc28       ??0?$__crt_unique_heap_ptr@JU__crt_internal_free_policy@@@@QAE@QAJ@Z 1004dc28 f i libucrt:initctype.obj
 0001:0004cc3c       ??1?$__crt_unique_heap_ptr@EU__crt_internal_free_policy@@@@QAE@XZ 1004dc3c f i libucrt:initctype.obj
 0001:0004cc52       ??1?$__crt_unique_heap_ptr@GU__crt_internal_free_policy@@@@QAE@XZ 1004dc52 f i libucrt:initctype.obj
 0001:0004cc68       ??1?$__crt_unique_heap_ptr@JU__crt_internal_free_policy@@@@QAE@XZ 1004dc68 f i libucrt:initctype.obj
 0001:0004cc7e       ?detach@?$__crt_unique_heap_ptr@EU__crt_internal_free_policy@@@@QAEPAEXZ 1004dc7e f i libucrt:initctype.obj
 0001:0004cc84       ?detach@?$__crt_unique_heap_ptr@GU__crt_internal_free_policy@@@@QAEPAGXZ 1004dc84 f i libucrt:initctype.obj
 0001:0004cc8a       ?detach@?$__crt_unique_heap_ptr@JU__crt_internal_free_policy@@@@QAEPAJXZ 1004dc8a f i libucrt:initctype.obj
 0001:0004cc90       ?release@?$__crt_unique_heap_ptr@EU__crt_internal_free_policy@@@@QAEXXZ 1004dc90 f i libucrt:initctype.obj
 0001:0004cca6       ?release@?$__crt_unique_heap_ptr@GU__crt_internal_free_policy@@@@QAEXXZ 1004dca6 f i libucrt:initctype.obj
 0001:0004ccbc       ?release@?$__crt_unique_heap_ptr@JU__crt_internal_free_policy@@@@QAEXXZ 1004dcbc f i libucrt:initctype.obj
 0001:0004ccd2       ____lc_codepage_func       1004dcd2 f   libucrt:initctype.obj
 0001:0004cd02       ____lc_collate_cp_func     1004dd02 f   libucrt:initctype.obj
 0001:0004cd32       ____lc_locale_name_func    1004dd32 f   libucrt:initctype.obj
 0001:0004cd65       ____mb_cur_max_func        1004dd65 f   libucrt:initctype.obj
 0001:0004cd95       ____mb_cur_max_l_func      1004dd95 f   libucrt:initctype.obj
 0001:0004cdb4       ___acrt_locale_initialize_ctype 1004ddb4 f   libucrt:initctype.obj
 0001:0004d239       ___acrt_add_locale_ref     1004e239 f   libucrt:locale_refcounting.obj
 0001:0004d2d5       ___acrt_free_locale        1004e2d5 f   libucrt:locale_refcounting.obj
 0001:0004d471       ___acrt_locale_add_lc_time_reference 1004e471 f   libucrt:locale_refcounting.obj
 0001:0004d4a4       ___acrt_locale_free_lc_time_if_unreferenced 1004e4a4 f   libucrt:locale_refcounting.obj
 0001:0004d4e0       ___acrt_locale_release_lc_time_reference 1004e4e0 f   libucrt:locale_refcounting.obj
 0001:0004d513       ___acrt_release_locale_ref 1004e513 f   libucrt:locale_refcounting.obj
 0001:0004d5b4       ___acrt_update_thread_locale_data 1004e5b4 f   libucrt:locale_refcounting.obj
 0001:0004d648       __updatetlocinfoEx_nolock  1004e648 f   libucrt:locale_refcounting.obj
 0001:0004d6ac       ___acrt_fp_strflt_to_string 1004e6ac f   libucrt:_fptostr.obj
 0001:0004eee0       ??0big_integer@__crt_strtox@@QAE@ABU01@@Z 1004fee0 f i libucrt:cfout.obj
 0001:0004ef20       ??0big_integer@__crt_strtox@@QAE@XZ 1004ff20 f i libucrt:cfout.obj
 0001:0004ef2b       ??0scoped_fp_state_reset@?A0x3568b024@@QAE@XZ 1004ff2b f i libucrt:cfout.obj
 0001:0004ef5f       ??1scoped_fp_state_reset@?A0x3568b024@@QAE@XZ 1004ff5f f i libucrt:cfout.obj
 0001:0004ef70       ??4big_integer@__crt_strtox@@QAEAAU01@ABU01@@Z 1004ff70 f i libucrt:cfout.obj
 0001:0004efb0       ??8__crt_strtox@@YA_NABUbig_integer@0@0@Z 1004ffb0 f i libucrt:cfout.obj
 0001:0004f000       ??9__crt_strtox@@YA_NABUbig_integer@0@0@Z 10050000 f i libucrt:cfout.obj
 0001:0004f060       ?add_carry@__crt_strtox@@YAIAAIII@Z 10050060 f i libucrt:cfout.obj
 0001:0004f090       ?add_multiply_carry@__crt_strtox@@YAIAAIIII@Z 10050090 f i libucrt:cfout.obj
 0001:0004f0c0       ?bit_scan_reverse@__crt_strtox@@YAII@Z 100500c0 f i libucrt:cfout.obj
 0001:0004f0f0       ?count_sequential_high_zeroes@__crt_strtox@@YAII@Z 100500f0 f i libucrt:cfout.obj
 0001:0004f120       ?divide@__crt_strtox@@YA_KAAUbig_integer@1@ABU21@@Z 10050120 f i libucrt:cfout.obj
 0001:0004f700       ?is_zero@__crt_strtox@@YA_NABUbig_integer@1@@Z 10050700 f i libucrt:cfout.obj
 0001:0004f720       ?make_big_integer@__crt_strtox@@YA?AUbig_integer@1@_K@Z 10050720 f i libucrt:cfout.obj
 0001:0004f750       ?make_big_integer_power_of_two@__crt_strtox@@YA?AUbig_integer@1@I@Z 10050750 f i libucrt:cfout.obj
 0001:0004f7b0       ?multiply@__crt_strtox@@YA_NAAUbig_integer@1@ABU21@@Z 100507b0 f i libucrt:cfout.obj
 0001:0004fc60       ?multiply@__crt_strtox@@YA_NAAUbig_integer@1@I@Z 10050c60 f i libucrt:cfout.obj
 0001:0004fd60       ?multiply_64_32@__crt_strtox@@YA_K_KI@Z 10050d60 f i libucrt:cfout.obj
 0001:0004fd80       ?multiply_by_power_of_ten@__crt_strtox@@YA_NAAUbig_integer@1@I@Z 10050d80 f i libucrt:cfout.obj
 0001:00050480       ?multiply_core@__crt_strtox@@YAIQAIII@Z 10051480 f i libucrt:cfout.obj
 0001:000504d0       ?shift_left@__crt_strtox@@YA_NAAUbig_integer@1@I@Z 100514d0 f i libucrt:cfout.obj
 0001:00050672       ___acrt_fltout             10051672 f   libucrt:cfout.obj
 0001:00051f96       __isatty                   10052f96 f   libucrt:isatty.obj
 0001:00052001       ??$?RUlconv@@@__crt_internal_free_policy@@QBEXQBUlconv@@@Z 10053001 f i libucrt:initmon.obj
 0001:00052017       ??0?$__crt_unique_heap_ptr@Ulconv@@U__crt_internal_free_policy@@@@QAE@QAUlconv@@@Z 10053017 f i libucrt:initmon.obj
 0001:0005202b       ??1?$__crt_unique_heap_ptr@Ulconv@@U__crt_internal_free_policy@@@@QAE@XZ 1005302b f i libucrt:initmon.obj
 0001:00052041       ?detach@?$__crt_unique_heap_ptr@Ulconv@@U__crt_internal_free_policy@@@@QAEPAUlconv@@XZ 10053041 f i libucrt:initmon.obj
 0001:00052047       ?release@?$__crt_unique_heap_ptr@Ulconv@@U__crt_internal_free_policy@@@@QAEXXZ 10053047 f i libucrt:initmon.obj
 0001:0005205d       ___acrt_locale_free_monetary 1005305d f   libucrt:initmon.obj
 0001:0005219a       ___acrt_locale_initialize_monetary 1005319a f   libucrt:initmon.obj
 0001:0005268d       ___acrt_locale_free_numeric 1005368d f   libucrt:initnum.obj
 0001:00052710       ___acrt_locale_initialize_numeric 10053710 f   libucrt:initnum.obj
 0001:000529fb       ??$?RU__crt_lc_time_data@@@__crt_internal_free_policy@@QBEXQBU__crt_lc_time_data@@@Z 100539fb f i libucrt:inittime.obj
 0001:00052a9b       ??0?$__crt_unique_heap_ptr@U__crt_lc_time_data@@U__crt_internal_free_policy@@@@QAE@QAU__crt_lc_time_data@@@Z 10053a9b f i libucrt:inittime.obj
 0001:00052aaf       ??1?$__crt_unique_heap_ptr@U__crt_lc_time_data@@U__crt_internal_free_policy@@@@QAE@XZ 10053aaf f i libucrt:inittime.obj
 0001:00052ac5       ??B?$__crt_unique_heap_ptr@U__crt_lc_time_data@@U__crt_internal_free_policy@@@@QBE_NXZ 10053ac5 f i libucrt:inittime.obj
 0001:00052acf       ?detach@?$__crt_unique_heap_ptr@U__crt_lc_time_data@@U__crt_internal_free_policy@@@@QAEPAU__crt_lc_time_data@@XZ 10053acf f i libucrt:inittime.obj
 0001:00052b20       ?get@?$__crt_unique_heap_ptr@U__crt_lc_time_data@@U__crt_internal_free_policy@@@@QBEPAU__crt_lc_time_data@@XZ 10053b20 f i libucrt:inittime.obj
 0001:00052eb8       ?is_valid@?$__crt_unique_heap_ptr@U__crt_lc_time_data@@U__crt_internal_free_policy@@@@QBE_NXZ 10053eb8 f i libucrt:inittime.obj
 0001:00052ec2       ?release@?$__crt_unique_heap_ptr@U__crt_lc_time_data@@U__crt_internal_free_policy@@@@QAEXXZ 10053ec2 f i libucrt:inittime.obj
 0001:00052ed8       ___acrt_locale_free_time   10053ed8 f   libucrt:inittime.obj
 0001:00052ff5       ___acrt_locale_initialize_time 10053ff5 f   libucrt:inittime.obj
 0001:00053193       _wcsncpy_s                 10054193 f   libucrt:wcsncpy_s.obj
 0001:000531a0       _wcscspn                   100541a0 f   libucrt:wcscspn.obj
 0001:00053204       _wcsncmp                   10054204 f   libucrt:wcsncmp.obj
 0001:0005324c       _wcspbrk                   1005424c f   libucrt:wcspbrk.obj
 0001:000532a2       ___acrt_GetStringTypeA     100542a2 f   libucrt:getstringtypea.obj
 0001:00053d16       ___acrt_get_qualified_locale 10054d16 f   libucrt:get_qualified_locale.obj
 0001:000548bd       ___acrt_get_qualified_locale_downlevel 100558bd f   libucrt:getqloc_downlevel.obj
 0001:00054b45       _localeconv                10055b45 f   libucrt:localeconv.obj
 0001:00054b79       __wcsnicmp                 10055b79 f   libucrt:wcsnicmp.obj
 0001:00054c5f       __wcsnicmp_l               10055c5f f   libucrt:wcsnicmp.obj
 0001:00054da0       _strncmp                   10055da0 f   libucrt:strncmp.obj
 0001:00054e36       __strnicmp                 10055e36 f   libucrt:strnicmp.obj
 0001:00054ebd       __strnicmp_l               10055ebd f   libucrt:strnicmp.obj
 0001:00054fa1       ??$__vcrt_va_start_verify_argument_type@$$CBH@@YAXXZ 10055fa1 f i libucrt:open.obj
 0001:00055358       ??$tsopen_nolock@PAHABQAHABQBDABHABHABHABH@?$__crt_char_traits@D@@SAH$$QAPAHABQAHABQBDABH333@Z 10056358 f i libucrt:open.obj
 0001:00055396       ??$tsopen_nolock@PAHABQAHABQB_WABHABHABHABH@?$__crt_char_traits@_W@@SAH$$QAPAHABQAHABQB_WABH333@Z 10056396 f i libucrt:open.obj
 0001:000553d4       ??$tsopen_nolock@PAHPAHABQBDABHHABHH@?$__crt_char_traits@D@@SAH$$QAPAH0ABQBDABH$$QAH23@Z 100563d4 f i libucrt:open.obj
 0001:00055412       ??$tsopen_nolock@PAHPAHABQB_WABHHABHH@?$__crt_char_traits@_W@@SAH$$QAPAH0ABQB_WABH$$QAH23@Z 10056412 f i libucrt:open.obj
 0001:00055be0       __open                     10056be0 f   libucrt:open.obj
 0001:00055bfe       __sopen                    10056bfe f   libucrt:open.obj
 0001:00055c40       __sopen_dispatch           10056c40 f   libucrt:open.obj
 0001:00055c4d       __sopen_nolock             10056c4d f   libucrt:open.obj
 0001:00055cb2       __sopen_s                  10056cb2 f   libucrt:open.obj
 0001:00055cda       __wopen                    10056cda f   libucrt:open.obj
 0001:00055cf8       __wsopen                   10056cf8 f   libucrt:open.obj
 0001:00055d3a       __wsopen_dispatch          10056d3a f   libucrt:open.obj
 0001:00055d47       __wsopen_nolock            10056d47 f   libucrt:open.obj
 0001:0005613a       __wsopen_s                 1005713a f   libucrt:open.obj
 0001:00056162       ___p__commode              10057162 f   libucrt:ncommode.obj
 0001:00056168       ___acrt_stdio_allocate_buffer_nolock 10057168 f   libucrt:_getbuf.obj
 0001:000561dc       ??$?RV<lambda_4980db0136e49a56f91ef52c46ca659a>@@AAV<lambda_6e3e78bb6855d1e4040e022c1b427e22>@@V<lambda_9c074eaf62197b4fd0274ed9e7824161>@@@?$__crt_seh_guarded_call@G@@QAEG$$QAV<lambda_4980db0136e49a56f91ef52c46ca659a>@@AAV<lambda_6e3e78bb6855d1e4040e022c1b427e22>@@$$QAV<lambda_9c074eaf62197b4fd0274ed9e7824161>@@@Z 100571dc f i libucrt:putwch.obj
 0001:00056251       ??$__acrt_lock_and_call@V<lambda_6e3e78bb6855d1e4040e022c1b427e22>@@@@YAGW4__acrt_lock_id@@$$QAV<lambda_6e3e78bb6855d1e4040e022c1b427e22>@@@Z 10057251 f i libucrt:putwch.obj
 0001:000562e9       __putwch                   100572e9 f   libucrt:putwch.obj
 0001:0005630d       __putwch_nolock            1005730d f   libucrt:putwch.obj
 0001:00056363       _nextafter                 10057363 f   libucrt:nextafter.obj
 0001:00056389       ___setfflag                10057389 f   libucrt:fp_flags.obj
 0001:000563a3       __87except                 100573a3 f   libucrt:87except.obj
 0001:000564f0       __frnd                     100574f0 f   libucrt:frnd.obj
 0001:0005651d       __wcsnicoll                1005751d f   libucrt:wcsnicol.obj
 0001:00056621       __wcsnicoll_l              10057621 f   libucrt:wcsnicol.obj
 0001:00056799       __strnicoll                10057799 f   libucrt:strnicol.obj
 0001:000567cc       __strnicoll_l              100577cc f   libucrt:strnicol.obj
 0001:00056907       __msize                    10057907 f   libucrt:msize.obj
 0001:00056946       ___strncnt                 10057946 f   libucrt:strncnt.obj
 0001:00056aa2       ___acrt_GetLocaleInfoA     10057aa2 f   libucrt:getlocaleinfoa.obj
 0001:00056cc0       _fegetenv                  10057cc0 f   libucrt:fegetenv.obj
 0001:00056ce4       _fesetenv                  10057ce4 f   libucrt:fesetenv.obj
 0001:00056d3f       _feholdexcept              10057d3f f   libucrt:feholdexcept.obj
 0001:00056db0       _log10                     10057db0 f   libucrt:log10.obj
 0001:00056df0       __CIlog10                  10057df0 f   libucrt:log10.obj
 0001:00056e2b       __CIlog10_default          10057e2b f   libucrt:log10.obj
 0001:00056e3f       __log10_default            10057e3f     libucrt:log10.obj
 0001:00056f54       __wcsicmp                  10057f54 f   libucrt:wcsicmp.obj
 0001:0005700e       __wcsicmp_l                1005800e f   libucrt:wcsicmp.obj
 0001:00057126       __towlower_l               10058126 f   libucrt:towlower.obj
 0001:00057221       _towlower                  10058221 f   libucrt:towlower.obj
 0001:00057240       ___ascii_strnicmp          10058240 f   libucrt:_strnicm.obj
 0001:000572b9       ??$__crt_interlocked_read@H@@YAHPDH@Z 100582b9 f i libucrt:setmode.obj
 0001:000572c8       __get_fmode                100582c8 f   libucrt:setmode.obj
 0001:000572ff       __set_fmode                100582ff f   libucrt:setmode.obj
 0001:0005734b       __setmode                  1005834b f   libucrt:setmode.obj
 0001:0005749c       __setmode_nolock           1005849c f   libucrt:setmode.obj
 0001:000575a1       ??$?RV<lambda_4cfda81533ccf5a03113a1ca40a30445>@@AAV<lambda_1cffa78e445b1da5fba1a2e0e533226f>@@V<lambda_68c952aa1b860373b2109ef12d0bba9d>@@@?$__crt_seh_guarded_call@H@@QAEH$$QAV<lambda_4cfda81533ccf5a03113a1ca40a30445>@@AAV<lambda_1cffa78e445b1da5fba1a2e0e533226f>@@$$QAV<lambda_68c952aa1b860373b2109ef12d0bba9d>@@@Z 100585a1 f i libucrt:chsize.obj
 0001:0005764b       ??$__acrt_lowio_lock_fh_and_call@V<lambda_1cffa78e445b1da5fba1a2e0e533226f>@@@@YAHH$$QAV<lambda_1cffa78e445b1da5fba1a2e0e533226f>@@@Z 1005864b f i libucrt:chsize.obj
 0001:0005772d       __chsize                   1005872d f   libucrt:chsize.obj
 0001:00057750       __chsize_nolock            10058750 f   libucrt:chsize.obj
 0001:00057945       __chsize_s                 10058945 f   libucrt:chsize.obj
 0001:00057a06       __umask                    10058a06 f   libucrt:umask.obj
 0001:00057a34       __umask_s                  10058a34 f   libucrt:umask.obj
 0001:00057a7d       ___dcrt_lowio_initialize_console_output 10058a7d f   libucrt:initcon.obj
 0001:00057aa3       ___dcrt_terminate_console_output 10058aa3 f   libucrt:initcon.obj
 0001:00057abf       _nexttoward                10058abf f   libucrt:nexttoward.obj
 0001:00057c70       ___acrt_CompareStringW     10058c70 f   libucrt:comparestringw.obj
 0001:00058044       ___acrt_CompareStringA     10059044 f   libucrt:comparestringa.obj
 0001:0005817b       _strncpy_s                 1005917b f   libucrt:strncpy_s.obj
 0001:00058188       ___acrt_fenv_get_fp_status_word_from_exception_mask 10059188 f   libucrt:_fenvutils.obj
 0001:000585cb       __getfpcontrolword         100595cb f   libucrt:_fenvutils.obj
 0001:0005861e       __getfpstatusword          1005961e f   libucrt:_fenvutils.obj
 0001:000586f0       __setfpcontrolword         100596f0 f   libucrt:_fenvutils.obj
 0001:00058790       __setfpstatusword          10059790 f   libucrt:_fenvutils.obj
 0001:000589c6       ___control87_2             100599c6 f   libucrt:ieee87.obj
 0001:00058f9a       ___fpreset_sse2            10059f9a f   libucrt:ieee87.obj
 0001:000591ed       __clearfp                  1005a1ed f   libucrt:ieee87.obj
 0001:00059302       __control87                1005a302 f   libucrt:ieee87.obj
 0001:000596c4       __controlfp                1005a6c4 f   libucrt:ieee87.obj
 0001:000596e4       __fpreset                  1005a6e4 f   libucrt:ieee87.obj
 0001:000597e1       __set_controlfp            1005a7e1 f   libucrt:ieee87.obj
 0001:00059877       __statusfp                 1005a877 f   libucrt:ieee87.obj
 0001:0005993a       __statusfp2                1005a93a f   libucrt:ieee87.obj
 0001:000599c0       __CIlog10_pentium4         1005a9c0 f   libucrt:log10_pentium4.obj
 0001:000599d8       __log10_pentium4           1005a9d8     libucrt:log10_pentium4.obj
 0001:00059d11       __fFEXP                    1005ad11     libucrt:87tran.obj
 0001:00059d68       __rtinfpopse               1005ad68     libucrt:87tran.obj
 0001:00059d6a       __rtinfnpopse              1005ad6a     libucrt:87tran.obj
 0001:00059d7a       __fFLN                     1005ad7a     libucrt:87tran.obj
 0001:00059e2f       __rtinfpop                 1005ae2f     libucrt:87tran.obj
 0001:00059e31       __rtinfnpop                1005ae31     libucrt:87tran.obj
 0001:00059e4e       __ffexpm1                  1005ae4e     libucrt:87tran.obj
 0001:00059f80       __twoToTOS                 1005af80 f   libucrt:common.obj
 0001:00059f95       __load_CW                  1005af95 f   libucrt:common.obj
 0001:00059fac       __convertTOStoQNaN         1005afac f   libucrt:common.obj
 0001:00059fc5       __fload_withFB             1005afc5 f   libucrt:common.obj
 0001:0005a008       __checkTOS_withFB          1005b008 f   libucrt:common.obj
 0001:0005a01e       __fast_exit                1005b01e f   libucrt:common.obj
 0001:0005a02b       __math_exit                1005b02b f   libucrt:common.obj
 0001:0005a055       __check_overflow_exit      1005b055 f   libucrt:common.obj
 0001:0005a069       __check_range_exit         1005b069 f   libucrt:common.obj
 0001:0005a170       __startTwoArgErrorHandling 1005b170 f   libucrt:genexcep.obj
 0001:0005a187       __startOneArgErrorHandling 1005b187 f   libucrt:genexcep.obj
 0001:0005a1d7       ___acrt_LCMapStringW       1005b1d7 f   libucrt:lcmapstringw.obj
 0001:0005a224       ___p__fmode                1005b224 f   libucrt:txtmode.obj
 0001:0005a22a       __d_int                    1005b22a f   libucrt:_test.obj
 0001:0005a372       __dtest                    1005b372 f   libucrt:_test.obj
 0001:0005a3ef       __fd_int                   1005b3ef f   libucrt:_test.obj
 0001:0005a4f1       __fdtest                   1005b4f1 f   libucrt:_test.obj
 0001:0005a552       __fperrraise               1005b552 f   libucrt:_test.obj
 0001:0005a57d       __ld_int                   1005b57d f   libucrt:_test.obj
 0001:0005a58a       __ldtest                   1005b58a f   libucrt:_test.obj
 0001:0005a62f       __controlfp_s              1005b62f f   libucrt:contrlfp.obj
 0001:0005a6a5       __d_inttype                1005b6a5 f   libucrt:powhlp.obj
 0001:0005a729       __powhlp                   1005b729 f   libucrt:powhlp.obj
 0001:0005a89e       _fegetexceptflag           1005b89e f   libucrt:fegetexceptflag.obj
 0001:0005a8db       _fesetexceptflag           1005b8db f   libucrt:fesetexceptflag.obj
 0001:0005a93c       _fetestexcept              1005b93c f   libucrt:fetestexcept.obj
 0001:0005a970       __FindPESection            1005b970 f   LIBCMT:pesect.obj
 0001:0005a9d0       __IsNonwritableInCurrentImage 1005b9d0 f   LIBCMT:pesect.obj
 0001:0005aac0       __ValidateImageBase        1005bac0 f   LIBCMT:pesect.obj
 0001:0005ab00       __aulldvrm                 1005bb00 f   LIBCMT:ulldvrm.obj
 0001:0005abba       ??1type_info@@UAE@XZ       1005bbba f   LIBCMT:std_type_info_static.obj
 0001:0005abc1       ??_Etype_info@@UAEPAXI@Z   1005bbc1 f i LIBCMT:std_type_info_static.obj
 0001:0005abc1       ??_Gtype_info@@UAEPAXI@Z   1005bbc1 f i LIBCMT:std_type_info_static.obj
 0001:0005abf0       __SEH_prolog4_GS           1005bbf0 f   LIBCMT:_sehprolg4gs_.obj
 0001:0005ac39       __SEH_epilog4_GS           1005bc39 f   LIBCMT:_sehprolg4gs_.obj
 0001:0005ac60       __allmul                   1005bc60 f   LIBCMT:llmul.obj
 0001:0005acb0       __alldvrm                  1005bcb0 f   LIBCMT:lldvrm.obj
 0001:0005add0       __aullshr                  1005bdd0 f   LIBCMT:ullshr.obj
 0001:0005ae00       __alloca_probe             1005be00 f   LIBCMT:chkstk.obj
 0001:0005ae00       __chkstk                   1005be00 f   LIBCMT:chkstk.obj
 0001:0005ae40       __alloca_probe_16          1005be40 f   LIBCMT:alloca16.obj
 0001:0005ae56       __alloca_probe_8           1005be56     LIBCMT:alloca16.obj
 0001:0005ae80       __allshl                   1005be80 f   LIBCMT:llshl.obj
 0001:0005aeb0       __ftol2_sse                1005beb0 f   LIBCMT:_ftol2_.obj
 0001:0005aeb9       __ftol2_pentium4           1005beb9 f   LIBCMT:_ftol2_.obj
 0001:0005aecc       __ftol2_sse_excpt          1005becc f   LIBCMT:_ftol2_.obj
 0001:0005aef0       __ftol2                    1005bef0 f   LIBCMT:_ftol2_.obj
 0001:0005af92       __initialize_default_precision 1005bf92 f   LIBCMT:default_precision.obj
 0001:0005afbb       ??3@YAXPAXI@Z              1005bfbb f   LIBCMT:delete_scalar_size.obj
 0001:0005afcc       ??3@YAXPAX@Z               1005bfcc f   LIBCMT:delete_scalar.obj
 0001:0005afd2       _GetLastError@0            1005bfd2 f   kernel32:KERNEL32.dll
 0001:0005afd8       _GetModuleFileNameW@12     1005bfd8 f   kernel32:KERNEL32.dll
 0001:0005afde       _InterlockedPushEntrySList@8 1005bfde f   kernel32:KERNEL32.dll
 0001:0005afe4       _InterlockedFlushSList@4   1005bfe4 f   kernel32:KERNEL32.dll
 0001:0005afea       _InitializeCriticalSectionAndSpinCount@8 1005bfea f   kernel32:KERNEL32.dll
 0001:0005aff0       _TlsAlloc@0                1005bff0 f   kernel32:KERNEL32.dll
 0001:0005aff6       _TlsGetValue@4             1005bff6 f   kernel32:KERNEL32.dll
 0001:0005affc       _TlsSetValue@8             1005bffc f   kernel32:KERNEL32.dll
 0001:0005b002       _TlsFree@4                 1005c002 f   kernel32:KERNEL32.dll
 0001:0005b008       _FreeLibrary@4             1005c008 f   kernel32:KERNEL32.dll
 0001:0005b00e       _LoadLibraryExW@12         1005c00e f   kernel32:KERNEL32.dll
 0001:0005b014       _RtlUnwind@16              1005c014 f   kernel32:KERNEL32.dll
 0001:0005b01a       _SetLastError@4            1005c01a f   kernel32:KERNEL32.dll
 0001:0005b020       _EnterCriticalSection@4    1005c020 f   kernel32:KERNEL32.dll
 0001:0005b026       _LeaveCriticalSection@4    1005c026 f   kernel32:KERNEL32.dll
 0001:0005b02c       _DeleteCriticalSection@4   1005c02c f   kernel32:KERNEL32.dll
 0001:0005b032       _ExitProcess@4             1005c032 f   kernel32:KERNEL32.dll
 0001:0005b038       _GetModuleHandleExW@12     1005c038 f   kernel32:KERNEL32.dll
 0001:0005b03e       _GetStdHandle@4            1005c03e f   kernel32:KERNEL32.dll
 0001:0005b044       _GetFileType@4             1005c044 f   kernel32:KERNEL32.dll
 0001:0005b04a       _GetModuleFileNameA@12     1005c04a f   kernel32:KERNEL32.dll
 0001:0005b050       _WriteConsoleW@20          1005c050 f   kernel32:KERNEL32.dll
 0001:0005b056       _RaiseException@16         1005c056 f   kernel32:KERNEL32.dll
 0001:0005b05c       _MultiByteToWideChar@24    1005c05c f   kernel32:KERNEL32.dll
 0001:0005b062       _WideCharToMultiByte@32    1005c062 f   kernel32:KERNEL32.dll
 0001:0005b068       _HeapFree@12               1005c068 f   kernel32:KERNEL32.dll
 0001:0005b06e       _HeapAlloc@12              1005c06e f   kernel32:KERNEL32.dll
 0001:0005b074       _GetDateFormatW@24         1005c074 f   kernel32:KERNEL32.dll
 0001:0005b07a       _GetTimeFormatW@24         1005c07a f   kernel32:KERNEL32.dll
 0001:0005b080       _CompareStringW@24         1005c080 f   kernel32:KERNEL32.dll
 0001:0005b086       _LCMapStringW@24           1005c086 f   kernel32:KERNEL32.dll
 0001:0005b08c       _GetLocaleInfoW@16         1005c08c f   kernel32:KERNEL32.dll
 0001:0005b092       _IsValidLocale@8           1005c092 f   kernel32:KERNEL32.dll
 0001:0005b098       _GetUserDefaultLCID@0      1005c098 f   kernel32:KERNEL32.dll
 0001:0005b09e       _EnumSystemLocalesW@8      1005c09e f   kernel32:KERNEL32.dll
 0001:0005b0a4       _GetCurrentThread@0        1005c0a4 f   kernel32:KERNEL32.dll
 0001:0005b0aa       _GetACP@0                  1005c0aa f   kernel32:KERNEL32.dll
 0001:0005b0b0       _HeapReAlloc@16            1005c0b0 f   kernel32:KERNEL32.dll
 0001:0005b0b6       _CloseHandle@4             1005c0b6 f   kernel32:KERNEL32.dll
 0001:0005b0bc       _ReadFile@20               1005c0bc f   kernel32:KERNEL32.dll
 0001:0005b0c2       _GetConsoleMode@8          1005c0c2 f   kernel32:KERNEL32.dll
 0001:0005b0c8       _ReadConsoleW@20           1005c0c8 f   kernel32:KERNEL32.dll
 0001:0005b0ce       _WriteFile@20              1005c0ce f   kernel32:KERNEL32.dll
 0001:0005b0d4       _GetConsoleCP@0            1005c0d4 f   kernel32:KERNEL32.dll
 0001:0005b0da       _DeleteFileW@4             1005c0da f   kernel32:KERNEL32.dll
 0001:0005b0e0       _SetFilePointerEx@20       1005c0e0 f   kernel32:KERNEL32.dll
 0001:0005b0e6       _EncodePointer@4           1005c0e6 f   kernel32:KERNEL32.dll
 0001:0005b0ec       _DecodePointer@4           1005c0ec f   kernel32:KERNEL32.dll
 0001:0005b0f2       _OutputDebugStringA@4      1005c0f2 f   kernel32:KERNEL32.dll
 0001:0005b0f8       _OutputDebugStringW@4      1005c0f8 f   kernel32:KERNEL32.dll
 0001:0005b0fe       _WaitForSingleObjectEx@12  1005c0fe f   kernel32:KERNEL32.dll
 0001:0005b104       _CreateThread@24           1005c104 f   kernel32:KERNEL32.dll
 0001:0005b10a       _SetConsoleCtrlHandler@8   1005c10a f   kernel32:KERNEL32.dll
 0001:0005b110       _IsValidCodePage@4         1005c110 f   kernel32:KERNEL32.dll
 0001:0005b116       _GetOEMCP@0                1005c116 f   kernel32:KERNEL32.dll
 0001:0005b11c       _GetCPInfo@8               1005c11c f   kernel32:KERNEL32.dll
 0001:0005b122       _GetEnvironmentStringsW@0  1005c122 f   kernel32:KERNEL32.dll
 0001:0005b128       _FreeEnvironmentStringsW@4 1005c128 f   kernel32:KERNEL32.dll
 0001:0005b12e       _SetEnvironmentVariableA@8 1005c12e f   kernel32:KERNEL32.dll
 0001:0005b134       _SetEnvironmentVariableW@8 1005c134 f   kernel32:KERNEL32.dll
 0001:0005b13a       _GetProcessHeap@0          1005c13a f   kernel32:KERNEL32.dll
 0001:0005b140       _GetCommandLineA@0         1005c140 f   kernel32:KERNEL32.dll
 0001:0005b146       _GetCommandLineW@0         1005c146 f   kernel32:KERNEL32.dll
 0001:0005b14c       _GetStringTypeW@16         1005c14c f   kernel32:KERNEL32.dll
 0001:0005b152       _FlushFileBuffers@4        1005c152 f   kernel32:KERNEL32.dll
 0001:0005b158       _SetStdHandle@8            1005c158 f   kernel32:KERNEL32.dll
 0001:0005b15e       _CreateFileW@28            1005c15e f   kernel32:KERNEL32.dll
 0001:0005b164       _HeapSize@12               1005c164 f   kernel32:KERNEL32.dll
 0001:0005b16a       _SetEndOfFile@4            1005c16a f   kernel32:KERNEL32.dll
 0001:0005b170       _SystemFunction036@8       1005c170 f   advapi32:ADVAPI32.dll
 0001:0005b180       _strrchr                   1005c180 f   libvcruntime:strrchr.obj
 0001:0005b467       _memcmp                    1005c467 f   libvcruntime:_memcmp_.obj
 0001:0005ef4f       _wcschr                    1005ff4f f   libvcruntime:wcschr.obj
 0002:00000000       ___xc_a                    10062000     LIBCMT:initializers.obj
 0002:00000104       ___xc_z                    10062104     LIBCMT:initializers.obj
 0002:00000208       ___xi_a                    10062208     LIBCMT:initializers.obj
 0002:0000030c       ___acrt_stdio_initializer  1006230c     libucrt:stdio_initializer.obj
 0002:00000310       ___acrt_tran_sse2_initializer 10062310     libucrt:sse2_initializer.obj
 0002:00000314       ___acrt_multibyte_initializer 10062314     libucrt:multibyte_initializer.obj
 0002:0000041c       ___xi_z                    1006241c     LIBCMT:initializers.obj
 0002:00000520       ___xp_a                    10062520     LIBCMT:initializers.obj
 0002:00000624       ___acrt_locale_terminator  10062624     libucrt:locale_initializer.obj
 0002:00000628       ___dcrt_console_output_terminator 10062628     libucrt:console_output_initializer.obj
 0002:00000730       ___acrt_stdio_terminator   10062730     libucrt:stdio_initializer.obj
 0002:00000834       ___xp_z                    10062834     LIBCMT:initializers.obj
 0002:00000938       ___xt_a                    10062938     LIBCMT:initializers.obj
 0002:00000a3c       ___xt_z                    10062a3c     LIBCMT:initializers.obj
 0002:00000b40       _ptsetfilename             10062b40     xpctarget.obj
 0002:00000b44       _xmlfile                   10062b44     xpctarget.obj
 0002:00000b4c       ??_C@_04CEJDCDCH@test?$AA@ 10062b4c     xpctarget.obj
 0002:00000b54       ??_C@_03COLHFAIP@6?48?$AA@ 10062b54     xpctarget.obj
 0002:00000b58       ??_C@_01DNKMNLPK@?$HM?$AA@ 10062b58     xpctarget.obj
 0002:00000b60       __real@3fb999999999999a    10062b60     xpctarget.obj
 0002:00000b70       __real@4014000000000000    10062b70     xpctarget.obj
 0002:00000b80       _test_BIOMAP               10062b80     appmappingData.obj
 0002:00000b98       _test_LBLMAP               10062b98     appmappingData.obj
 0002:00000bb0       _test_SIDMAP               10062bb0     appmappingData.obj
 0002:00000bc8       _test_SBIO                 10062bc8     appmappingData.obj
 0002:00000bd0       _test_SLBL                 10062bd0     appmappingData.obj
 0002:00000bd8       _test_PTIDSMAP             10062bd8     appmappingData.obj
 0002:00000bf8       _test_PTNAMESMAP           10062bf8     appmappingData.obj
 0002:00000c18       _test_SPTMAP               10062c18     appmappingData.obj
 0002:00000c28       _test_dtmap                10062c28     appmappingData.obj
 0002:00000c38       _appInfo                   10062c38     appmappingData.obj
 0002:00000cb8       ??_C@_00CNPNBAHC@?$AA@     10062cb8     appmappingData.obj
 0002:00001520       ??_C@_0DJ@FHKINPLE@Unexpected?5itemKind?5?$DN?5DATA_ITEM?5@ 10063520     rt_logging.obj
 0002:00001564       ??_C@_0DA@IEHFPFCJ@Unexpected?5itemKind?$DN?$CFd?5in?5rt_Pro@ 10063564     rt_logging.obj
 0002:000015a0       ??_C@_0DA@IFLHJPBO@Unexpected?5itemKind?$DN?$CFd?5in?5rt_Pro@ 100635a0     rt_logging.obj
 0002:000015dc       ??_C@_0DA@IAPIIJJL@Unexpected?5itemKind?$DN?$CFd?5in?5rt_Pro@ 100635dc     rt_logging.obj
 0002:00001618       ??_C@_0BE@LCIGPJIG@MATLAB?55?40?5MAT?9file?$AA@ 10063618     rt_logging.obj
 0002:00001630       ??_C@_0FB@PCJEAJIB@?$CK?$CK?$CK?5Log?5variable?5?$CFs?5has?5wrapped?5@ 10063630     rt_logging.obj
 0002:00001698       ??_C@_0MG@NKMLMOGF@?$CK?$CK?$CK?5To?5avoid?5wrapping?0?5explicitl@ 10063698     rt_logging.obj
 0002:00001788       ??_C@_0N@IPAEOLLP@_rtw_tmw?4tmw?$AA@ 10063788     rt_logging.obj
 0002:00001798       ??_C@_04HDOCAJNK@?$CFs?$CFs?$AA@ 10063798     rt_logging.obj
 0002:000017a0       ??_C@_03ELIABIOC@w?$CLb?$AA@ 100637a0     rt_logging.obj
 0002:000017a4       ??_C@_0BF@JPILDDFA@?$CK?$CK?$CK?5Error?5opening?5?$CFs?$AA@ 100637a4     rt_logging.obj
 0002:000017c0       ??_C@_0BK@EEMDELA@unable?5to?5open?5data?5file?6?$AA@ 100637c0     rt_logging.obj
 0002:000017e0       ??_C@_04CGFJFPFD@none?$AA@ 100637e0     rt_logging.obj
 0002:000017e8       ??_C@_0EE@LCGFPNON@?$CK?$CK?$CK?5Error?5creating?5signals?5struc@ 100637e8     rt_logging.obj
 0002:0000183c       ??_C@_0CE@NHECEDMK@?$CK?$CK?$CK?5Error?5creating?5log?5variable?5@ 1006383c     rt_logging.obj
 0002:00001868       ??_C@_0DB@IOCGKAGH@?$CK?$CK?$CK?5Errors?5occurred?5when?5startin@ 10063868     rt_logging.obj
 0002:000018a4       ??_C@_0BO@BBLOGEBK@?$CK?$CK?$CK?5Memory?5allocation?5error?4?6?$AA@ 100638a4     rt_logging.obj
 0002:000018c8       ??_C@_0N@LGFBAGEL@?5?$CIreal?5part?$CJ?$AA@ 100638c8     rt_logging.obj
 0002:000018d8       ??_C@_0KH@CGNMHNFE@?5?5?5?5varName?5?5?5?5?5?5?5?5?5?5?$DN?5?$CFs?$CFs?6?5?5?5?5@ 100638d8     rt_logging.obj
 0002:000019a0       ??_C@_0LE@OALKKEFM@?5?5?5?5varName?5?5?5?5?5?5?5?5?5?5?$DN?5?$CFs?5?$CIcompl@ 100639a0     rt_logging.obj
 0002:00001a78       ??_C@_0KF@JDDLEOKO@?5?5?5?5varName?5?5?5?5?5?5?5?5?5?5?$DN?5?$CFs?6?5?5?5?5nR@ 10063a78     rt_logging.obj
 0002:00001b40       ??_C@_0DP@HPDMIOFM@?$CK?$CK?$CK?5Using?5a?5default?5buffer?5of?5si@ 10063b40     rt_logging.obj
 0002:00001b90       ??_C@_0KE@JEFOLKNF@?6?$CK?$CK?$CK?5Memory?5required?5to?5log?5vari@ 10063b90     rt_logging.obj
 0002:00001c58       ??_C@_0JP@DKLMHCBI@?$CK?$CK?$CK?5Details?3?6?5?5?5?5?5?5?5varName?5?5?5?5?5@ 10063c58     rt_logging.obj
 0002:00001d18       ??_C@_0CM@CAMILBED@?$CK?$CK?$CK?5Error?5allocating?5memory?5for?5@ 10063d18     rt_logging.obj
 0002:00001d4c       ??_C@_0DF@BBCNMOPM@?$CK?$CK?$CK?5Error?5allocating?5memory?5for?5@ 10063d4c     rt_logging.obj
 0002:00001d90       ??_C@_0JP@DBCLPCCI@?$CK?$CK?$CK?5Details?3?6?5?5?5?5?5?5?5varName?5?5?5?5?5@ 10063d90     rt_logging.obj
 0002:00001e50       ??_C@_0FK@DPGAOBGA@?$CK?$CK?$CK?5Error?5allocating?5memory?5for?5@ 10063e50     rt_logging.obj
 0002:00001ebc       ??_C@_0BI@GGDNPHLJ@?$CK?$CK?$CK?5Error?5writing?5to?5?$CFs?$AA@ 10063ebc     rt_logging.obj
 0002:00001ed8       ??_C@_0CB@IBGJGELG@?$CK?$CK?$CK?5Error?5writing?5?$CFs?5due?5to?3?5?$CFs?6@ 10063ed8     rt_logging.obj
 0002:00001f00       ??_C@_0CN@FLMCHCPB@?$CK?$CK?$CK?5Error?5writing?5log?5variable?5?$CF@ 10063f00     rt_logging.obj
 0002:00001f38       ??_C@_0DH@GAJCNOJP@?$CK?$CK?$CK?5Error?5writing?5structure?5log?5@ 10063f38     rt_logging.obj
 0002:00001f7c       ??_C@_0BD@POEALECL@?$CK?$CK?5created?5?$CFs?5?$CK?$CK?6?6?$AA@ 10063f7c     rt_logging.obj
 0002:00001f98       __real@0000000000000000    10063f98     rt_logging.obj
 0002:00001fa8       __real@3ff0000000000000    10063fa8     rt_logging.obj
 0002:00001fb8       __real@4020000000000000    10063fb8     rt_logging.obj
 0002:00001fc8       __real@41dfffffffc00000    10063fc8     rt_logging.obj
 0002:00001fd8       __real@41efffffffe00000    10063fd8     rt_logging.obj
 0002:00001fe8       __real@4330000000000000    10063fe8     rt_logging.obj
 0002:00001ff8       __real@8000000000000000    10063ff8     rt_logging.obj
 0002:00002008       __real@bfbf9add3afd2773    10064008     rt_logging.obj
 0002:00002018       __real@bff0000000000000    10064018     rt_logging.obj
 0002:00002028       __real@c000000000000000    10064028     rt_logging.obj
 0002:00002040       __xmm@20202020202020202020202020202020 10064040     rt_logging.obj
 0002:00002060       __xmm@41f00000000000000000000000000000 10064060     rt_logging.obj
 0002:00002074       _test_M                    10064074     test.obj
 0002:00002078       ??_C@_0BC@OJJPBDHH@FixedStepDiscrete?$AA@ 10064078     test.obj
 0002:00002090       ??_C@_04EPKDLPPB@tout?$AA@ 10064090     test.obj
 0002:00002098       ??_C@_03HBFGMJOD@rt_?$AA@  10064098     test.obj
 0002:000020a0       __real@3cb0000000000000    100640a0     test.obj
 0002:000020b0       __real@3fc999999999999a    100640b0     test.obj
 0002:000020c0       __real@3fe0000000000000    100640c0     test.obj
 0002:000020d0       __real@4024000000000000    100640d0     test.obj
 0002:000020e0       __real@41f0000000000000    100640e0     test.obj
 0002:000020f0       __xmm@00000051000000010000000800000002 100640f0     test.obj
 0002:00002110       __xmm@3fc999999999999a0000000000000000 10064110     test.obj
 0002:00002130       __xmm@7fffffffffffffff7fffffffffffffff 10064130     test.obj
 0002:0000228c       ??_C@_0BB@ECEPKPCF@u1_value?5?1Output?$AA@ 1006428c     test_capi.obj
 0002:000022a0       ??_C@_0BD@LDFCJHMN@u1_value?5?1Constant?$AA@ 100642a0     test_capi.obj
 0002:000022b8       ??_C@_05LPIJGKJ@Value?$AA@ 100642b8     test_capi.obj
 0002:000022c0       ??_C@_0BJ@DCLCCGJI@u1_value?5?1Look?9Up?5Table1?$AA@ 100642c0     test_capi.obj
 0002:000022e0       ??_C@_0BJ@GCDCIOIA@BreakpointsForDimension1?$AA@ 100642e0     test_capi.obj
 0002:00002300       ??_C@_02JENJILOE@u1?$AA@   10064300     test_capi.obj
 0002:00002304       ??_C@_06BNJCAIGJ@double?$AA@ 10064304     test_capi.obj
 0002:0000230c       ??_C@_06CNMIJIPB@real_T?$AA@ 1006430c     test_capi.obj
 0002:00002314       ??_C@_05KNFBNCOH@float?$AA@ 10064314     test_capi.obj
 0002:0000231c       ??_C@_0DL@PGGFBBLM@Error?3?5task?5ID?5?$CFd?5is?5out?5of?5rang@ 1006431c     test_xcp_TET.obj
 0002:00002368       __real@3e112e0be826d695    10064368     test_xcp_TET.obj
 0002:00002378       __real@3f847ae147ae147b    10064378     test_xcp_TET.obj
 0002:00002388       __real@3fefae147ae147ae    10064388     test_xcp_TET.obj
 0002:00002394       _serialfifoground          10064394     xpc_datatype_ground.obj
 0002:000023a0       _bcmsg1553ground           100643a0     xpc_datatype_ground.obj
 0002:000023b0       _bcstatground              100643b0     xpc_datatype_ground.obj
 0002:000023c8       _bmmsg1553ground           100643c8     xpc_datatype_ground.obj
 0002:00002404       ??_C@_0BI@INNPNFJN@Memory?5Allocation?5Error?$AA@ 10064404     rtw_modelmap_utils.obj
 0002:00002420       ??_C@_1HC@PKAJIAEN@?$AAC?$AA?3?$AA?2?$AAP?$AAR?$AAO?$AAG?$AAR?$AAA?$AA?$HO?$AA1?$AA?2?$AAM?$AAA?$AAT?$AAL?$AAA?$AAB?$AA?2?$AAR?$AA2?$AA0?$AA1?$AA8?$AAa?$AA?2?$AAr?$AAt?$AAw?$AA?2?$AAc?$AA?2@ 10064420     rtw_modelmap_utils.obj
 0002:000024a8       ??_C@_1CI@OEAJCJND@?$AAj?$AA?5?$AA?$DN?$AA?$DN?$AA?5?$AAe?$AAn?$AAc?$AAo?$AAd?$AAe?$AAd?$AAP?$AAa?$AAt?$AAh?$AAL?$AAe?$AAn?$AA?$AA@ 100644a8     rtw_modelmap_utils.obj
 0002:000024d8       ??_C@_1DC@NFAOIFKB@?$AAe?$AAn?$AAc?$AAo?$AAd?$AAe?$AAd?$AAP?$AAa?$AAt?$AAh?$AA?$FL?$AAj?$AA?9?$AA1?$AA?$FN?$AA?5?$AA?$DN?$AA?$DN?$AA?5?$AA?8?$AA?2?$AA0?$AA?8?$AA?$AA@ 100644d8     rtw_modelmap_utils.obj
 0002:00002514       ??_C@_1DI@FLNJGPEE@?$AAs?$AAi?$AAg?$AAC?$AAo?$AAm?$AAp?$AAl?$AAe?$AAx?$AAi?$AAt?$AAy?$AA?$FL?$AA?$CK?$AAs?$AAi?$AAg?$AAI?$AAd?$AAx?$AA?$FN?$AA?5?$AA?$CB?$AA?$DN?$AA?5?$AA1?$AA?$AA@ 10064514     rtw_modelmap_utils.obj
 0002:00002558       ??_C@_1KI@OFELMGBG@?$AA?$CI?$AA?$CI?$AA?$CI?$AAd?$AAa?$AAt?$AAa?$AAT?$AAy?$AAp?$AAe?$AAM?$AAa?$AAp?$AA?$CJ?$AA?$FL?$AA?$CI?$AA?$CI?$AA?$CI?$AAs?$AAt?$AAa?$AAt?$AAe?$AAs?$AA?$CJ?$AA?$FL?$AA?$CI?$AAi?$AA?$CJ?$AA?$FN?$AA?4@ 10064558     rtw_modelmap_utils.obj
 0002:00002624       ??_C@_1DA@ILCMPHNE@?$AAf?$AAu?$AAl?$AAl?$AAP?$AAa?$AAt?$AAh?$AA?5?$AA?$CB?$AA?$DN?$AA?5?$AA?$CI?$AA?$CI?$AAv?$AAo?$AAi?$AAd?$AA?5?$AA?$CK?$AA?$CJ?$AA0?$AA?$CJ?$AA?$AA@ 10064624     rtw_modelmap_utils.obj
 0002:00002660       ??_C@_1CI@OEPPFCCA@?$AAp?$AAa?$AAt?$AAh?$AA?5?$AA?$CB?$AA?$DN?$AA?5?$AA?$CI?$AA?$CI?$AAv?$AAo?$AAi?$AAd?$AA?5?$AA?$CK?$AA?$CJ?$AA0?$AA?$CJ?$AA?$AA@ 10064660     rtw_modelmap_utils.obj
 0002:00002690       ??_C@_1FK@GLJIMFHB@?$AA?$CI?$AA?$CI?$AAm?$AAm?$AAi?$AA?$CJ?$AA?9?$AA?$DO?$AAI?$AAn?$AAs?$AAt?$AAa?$AAn?$AAc?$AAe?$AAM?$AAa?$AAp?$AA?4?$AAf?$AAu?$AAl?$AAl?$AAP?$AAa?$AAt?$AAh?$AA?$CJ?$AA?5?$AA?$DN?$AA?$DN@ 10064690     rtw_modelmap_utils.obj
 0002:000026fc       ??_C@_1DG@HPCJGNCE@?$AAm?$AAm?$AAi?$AAP?$AAa?$AAt?$AAh?$AA?$FL?$AAp?$AAa?$AAt?$AAh?$AAL?$AAe?$AAn?$AA?9?$AA1?$AA?$FN?$AA?5?$AA?$DN?$AA?$DN?$AA?5?$AA?8?$AA?2?$AA0?$AA?8?$AA?$AA@ 100646fc     rtw_modelmap_utils.obj
 0002:0000273c       ??_C@_1DM@DBAOGGOO@?$AAm?$AAm?$AAi?$AAP?$AAa?$AAt?$AAh?$AA?$FL?$AAm?$AAm?$AAi?$AAP?$AAa?$AAt?$AAh?$AAL?$AAe?$AAn?$AA?9?$AA1?$AA?$FN?$AA?5?$AA?$DN?$AA?$DN?$AA?5?$AA?8?$AA?2?$AA0?$AA?8?$AA?$AA@ 1006473c     rtw_modelmap_utils.obj
 0002:00002784       ??_C@_1DC@LHIAKAFE@?$AAb?$AAl?$AAo?$AAc?$AAk?$AAP?$AAa?$AAt?$AAh?$AA?5?$AA?$CB?$AA?$DN?$AA?5?$AA?$CI?$AA?$CI?$AAv?$AAo?$AAi?$AAd?$AA?5?$AA?$CK?$AA?$CJ?$AA0?$AA?$CJ?$AA?$AA@ 10064784     rtw_modelmap_utils.obj
 0002:000027c0       ??_C@_1GI@KIEJKPGC@?$AAf?$AAu?$AAl?$AAl?$AAS?$AAt?$AAa?$AAt?$AAe?$AAB?$AAl?$AAo?$AAc?$AAk?$AAP?$AAa?$AAt?$AAh?$AA?$FL?$AAf?$AAu?$AAl?$AAl?$AAS?$AAt?$AAa?$AAt?$AAe?$AAB?$AAl?$AAo?$AAc@ 100647c0     rtw_modelmap_utils.obj
 0002:00002840       ??_C@_1EE@DNPIBJHC@?$AA?$CI?$AA?$CI?$AAd?$AAi?$AAm?$AAM?$AAa?$AAp?$AA?$CJ?$AA?$FL?$AA?$CI?$AAm?$AAa?$AAp?$AAI?$AAd?$AAx?$AA?$CJ?$AA?$FN?$AA?4?$AAn?$AAu?$AAm?$AAD?$AAi?$AAm?$AAs?$AA?$CJ?$AA?5?$AA?$DN?$AA?$DN?$AA?5@ 10064840     rtw_modelmap_utils.obj
 0002:00002894       ??_C@_06JFOKFOED@CSTATE?$AA@ 10064894     rtw_modelmap_utils.obj
 0002:0000289c       ??_C@_06FAENGAMN@DSTATE?$AA@ 1006489c     rtw_modelmap_utils.obj
 0002:000028a4       ??_C@_1BI@LEBJNOGG@?$AAc?$AAs?$AAv?$AAI?$AAd?$AAx?$AA?5?$AA?$DO?$AA?$DN?$AA?5?$AA0?$AA?$AA@ 100648a4     rtw_modelmap_utils.obj
 0002:000028c0       ??_C@_1BA@KDMGHCHP@?$AAT?$AAI?$AAD?$AA?$DN?$AA?$DN?$AA?9?$AA1?$AA?$AA@ 100648c0     rtw_modelmap_utils.obj
 0002:000028d4       ??_C@_1DM@DHGKBPCE@?$AAs?$AAi?$AAg?$AAP?$AAa?$AAt?$AAh?$AA?$FL?$AAs?$AAi?$AAg?$AAP?$AAa?$AAt?$AAh?$AAL?$AAe?$AAn?$AA?9?$AA1?$AA?$FN?$AA?5?$AA?$DN?$AA?$DN?$AA?5?$AA?8?$AA?2?$AA0?$AA?8?$AA?$AA@ 100648d4     rtw_modelmap_utils.obj
 0002:0000291c       ??_C@_0BK@EBKJELMI@maxfunc?5?$DN?5?$CFd?5at?5?$FL?$CFd?0?5?$CFd?$FN?6?$AA@ 1006491c     xpcruntime:xpcimports.obj
 0002:0000293c       ??_C@_0CC@DMFKNLL@VendorId?5?$DN?50x?$CFx?0?5DeviceId?5?$DN?50x?$CFx@ 1006493c     xpcruntime:xpcimports.obj
 0002:00002964       ??_C@_0DH@OHCBLNMG@Subsystem?5Device?5ID?5?$DN?50x?$CFx?6Subsy@ 10064964     xpcruntime:xpcimports.obj
 0002:000029a8       ??_C@_0BD@MMMMEFCM@Class?5Code?5?$DN?50x?$CFx?6?$AA@ 100649a8     xpcruntime:xpcimports.obj
 0002:000029c0       ??_C@_0BE@OLDDDNHM@InterruptLine?5?$DN?5?$CFd?6?$AA@ 100649c0     xpcruntime:xpcimports.obj
 0002:000029d8       ??_C@_0CE@IBMFFAPN@bus?5?$DN?5?$CFd?0?5slot?5?$DN?5?$CFd?0?5function?5?$DN?5@ 100649d8     xpcruntime:xpcimports.obj
 0002:00002a04       ??_C@_0CE@DGLLGDFH@?5?5?5?5Phys?5?5?5Virtual?5?5?5Length?5IO?1M@ 10064a04     xpcruntime:xpcimports.obj
 0002:00002a30       ??_C@_0BI@FEOPLEMG@?$CF08x?5?$CF08x?5?$CF08x?5?5?5?5?5?5?$CFc?6?$AA@ 10064a30     xpcruntime:xpcimports.obj
 0002:00002a4c       ??_C@_0BB@BNNCEDPC@rl32eScopeExists?$AA@ 10064a4c     xpcruntime:xpcimports.obj
 0002:00002a60       ??_C@_0BM@FJBFEGFG@rl32eScopeExists?5not?5found?6?$AA@ 10064a60     xpcruntime:xpcimports.obj
 0002:00002a84       ??_C@_0O@BNNGKJEA@rl32eDefScope?$AA@ 10064a84     xpcruntime:xpcimports.obj
 0002:00002a94       ??_C@_0BJ@CDNOENKA@rl32eDefScope?5not?5found?6?$AA@ 10064a94     xpcruntime:xpcimports.obj
 0002:00002ab4       ??_C@_0P@CKNKILDP@rl32eAddSignal?$AA@ 10064ab4     xpcruntime:xpcimports.obj
 0002:00002ac8       ??_C@_0BK@GMJAJBAI@rl32eAddSignal?5not?5found?6?$AA@ 10064ac8     xpcruntime:xpcimports.obj
 0002:00002ae8       ??_C@_0BB@LDMIHGCE@rl32eGetSignalNo?$AA@ 10064ae8     xpcruntime:xpcimports.obj
 0002:00002afc       ??_C@_0BM@LGAMBAID@rl32eGetSignalNo?5not?5found?6?$AA@ 10064afc     xpcruntime:xpcimports.obj
 0002:00002b20       ??_C@_0O@CFDGALBP@rl32eSetScope?$AA@ 10064b20     xpcruntime:xpcimports.obj
 0002:00002b30       ??_C@_0BJ@JCLHHIN@rl32eSetScope?5not?5found?6?$AA@ 10064b30     xpcruntime:xpcimports.obj
 0002:00002b50       ??_C@_0P@IKMCBMHH@xpceFSScopeSet?$AA@ 10064b50     xpcruntime:xpcimports.obj
 0002:00002b64       ??_C@_0BK@JODJPNNH@xpceFSScopeSet?5not?5found?6?$AA@ 10064b64     xpcruntime:xpcimports.obj
 0002:00002b84       ??_C@_0BE@DLACEEJM@rl32eSetTargetScope?$AA@ 10064b84     xpcruntime:xpcimports.obj
 0002:00002b9c       ??_C@_0BP@JCHFMKPJ@rl32eSetTargetScope?5not?5found?6?$AA@ 10064b9c     xpcruntime:xpcimports.obj
 0002:00002bc4       ??_C@_0BJ@LIDLNDHC@rl32eSetTargetScopeSigFt?$AA@ 10064bc4     xpcruntime:xpcimports.obj
 0002:00002be4       ??_C@_0CE@JLGHCFHI@rl32eSetTargetScopeSigFt?5not?5fou@ 10064be4     xpcruntime:xpcimports.obj
 0002:00002c10       ??_C@_0BI@JAPOIDNG@rl32eRestartAcquisition?$AA@ 10064c10     xpcruntime:xpcimports.obj
 0002:00002c2c       ??_C@_0CD@LLBEFFBO@rl32eRestartAcquisition?5not?5foun@ 10064c2c     xpcruntime:xpcimports.obj
 0002:00002c58       ??_C@_0P@IEIIADJB@xpceScopeAcqOK?$AA@ 10064c58     xpcruntime:xpcimports.obj
 0002:00002c6c       ??_C@_0BK@NJCKNFPN@xpceScopeAcqOK?5not?5found?6?$AA@ 10064c6c     xpcruntime:xpcimports.obj
 0002:00002c8c       ??_C@_0BA@IJINKAHF@xpceRegisterISR?$AA@ 10064c8c     xpcruntime:xpcimports.obj
 0002:00002ca0       ??_C@_0BL@NNDLOEJE@xpceRegisterISR?5not?5found?6?$AA@ 10064ca0     xpcruntime:xpcimports.obj
 0002:00002cc0       ??_C@_0BC@NLBADGKF@xpceDeRegisterISR?$AA@ 10064cc0     xpcruntime:xpcimports.obj
 0002:00002cd8       ??_C@_0BN@DCAIKFFD@xpceDeRegisterISR?5not?5found?6?$AA@ 10064cd8     xpcruntime:xpcimports.obj
 0002:00002cfc       ??_C@_07JPMEPILD@xpcInpB?$AA@ 10064cfc     xpcruntime:xpcimports.obj
 0002:00002d08       ??_C@_0BD@PGABEJOL@xpcInpB?5not?5found?6?$AA@ 10064d08     xpcruntime:xpcimports.obj
 0002:00002d20       ??_C@_07KIHBBOKH@xpcInpW?$AA@ 10064d20     xpcruntime:xpcimports.obj
 0002:00002d2c       ??_C@_0BD@FPCJFMCC@xpcInpW?5not?5found?6?$AA@ 10064d2c     xpcruntime:xpcimports.obj
 0002:00002d44       ??_C@_08KDIAJBOP@xpcInpDW?$AA@ 10064d44     xpcruntime:xpcimports.obj
 0002:00002d50       ??_C@_0BE@PIELDNIL@xpcInpDW?5not?5found?6?$AA@ 10064d50     xpcruntime:xpcimports.obj
 0002:00002d68       ??_C@_08PJFMOIGO@xpcOutpB?$AA@ 10064d68     xpcruntime:xpcimports.obj
 0002:00002d74       ??_C@_0BE@HCKNCEKF@xpcOutpB?5not?5found?6?$AA@ 10064d74     xpcruntime:xpcimports.obj
 0002:00002d8c       ??_C@_08MOOJAOHK@xpcOutpW?$AA@ 10064d8c     xpcruntime:xpcimports.obj
 0002:00002d98       ??_C@_0BE@NLIFDBGM@xpcOutpW?5not?5found?6?$AA@ 10064d98     xpcruntime:xpcimports.obj
 0002:00002db0       ??_C@_09FLIEKHJG@xpcOutpDW?$AA@ 10064db0     xpcruntime:xpcimports.obj
 0002:00002dbc       ??_C@_0BF@GJKLPNHB@xpcOutpDW?5not?5found?6?$AA@ 10064dbc     xpcruntime:xpcimports.obj
 0002:00002dd8       ??_C@_0BH@EHOLELHH@xpcReserveMemoryRegion?$AA@ 10064dd8     xpcruntime:xpcimports.obj
 0002:00002df4       ??_C@_0CC@KAAAGPI@xpcReserveMemoryRegion?5not?5found@ 10064df4     xpcruntime:xpcimports.obj
 0002:00002e1c       ??_C@_0BA@JGPMHGAF@rl32eShowPCIDev?$AA@ 10064e1c     xpcruntime:xpcimports.obj
 0002:00002e30       ??_C@_0BL@DDFFLNHI@rl32eShowPCIDev?5not?5found?6?$AA@ 10064e30     xpcruntime:xpcimports.obj
 0002:00002e50       ??_C@_0BB@KBCOJPFB@rl32eShowPCIInfo?$AA@ 10064e50     xpcruntime:xpcimports.obj
 0002:00002e64       ??_C@_0BM@IFDMAGLO@rl32eShowPCIInfo?5not?5found?6?$AA@ 10064e64     xpcruntime:xpcimports.obj
 0002:00002e88       ??_C@_0BA@BGPAADB@rl32eGetPCIInfo?$AA@ 10064e88     xpcruntime:xpcimports.obj
 0002:00002e9c       ??_C@_0BL@IGOMLDCK@rl32eGetPCIInfo?5not?5found?6?$AA@ 10064e9c     xpcruntime:xpcimports.obj
 0002:00002ebc       ??_C@_0BG@NJPFKFDP@rl32eGetPCIInfoAtSlot?$AA@ 10064ebc     xpcruntime:xpcimports.obj
 0002:00002ed8       ??_C@_0CB@BBKIPMLA@rl32eGetPCIInfoAtSlot?5not?5found?6@ 10064ed8     xpcruntime:xpcimports.obj
 0002:00002f00       ??_C@_0BH@OKBOPNFG@xpceAssignPCIInterrupt?$AA@ 10064f00     xpcruntime:xpcimports.obj
 0002:00002f1c       ??_C@_0CC@CDNDNJBJ@xpceAssignPCIInterrupt?5not?5found@ 10064f1c     xpcruntime:xpcimports.obj
 0002:00002f44       ??_C@_0BD@PCKOKHO@xpceGetSignalValue?$AA@ 10064f44     xpcruntime:xpcimports.obj
 0002:00002f5c       ??_C@_0BO@GCBDJHMB@xpceGetSignalValue?5not?5found?6?$AA@ 10064f5c     xpcruntime:xpcimports.obj
 0002:00002f80       ??_C@_0BB@BJONJAGA@xpceSetParameter?$AA@ 10064f80     xpcruntime:xpcimports.obj
 0002:00002f94       ??_C@_0BM@BJIKDLHA@xpceSetParameter?5not?5found?6?$AA@ 10064f94     xpcruntime:xpcimports.obj
 0002:00002fb8       ??_C@_0BB@GNFDFMCM@xpceGetParameter?$AA@ 10064fb8     xpcruntime:xpcimports.obj
 0002:00002fcc       ??_C@_0BM@POHNKBC@xpceGetParameter?5not?5found?6?$AA@ 10064fcc     xpcruntime:xpcimports.obj
 0002:00002ff0       ??_C@_0BB@CEIJLFCD@xpceGetParamDims?$AA@ 10064ff0     xpcruntime:xpcimports.obj
 0002:00003004       ??_C@_0BM@OABDBKAO@xpceGetParamDims?5not?5found?6?$AA@ 10065004     xpcruntime:xpcimports.obj
 0002:00003028       ??_C@_0L@OCBLLHBM@xpceGetTET?$AA@ 10065028     xpcruntime:xpcimports.obj
 0002:00003038       ??_C@_0BG@HNOFBOB@xpceGetTET?5not?5found?6?$AA@ 10065038     xpcruntime:xpcimports.obj
 0002:00003054       ??_C@_0P@OKGNGAGH@xpcIsModelInit?$AA@ 10065054     xpcruntime:xpcimports.obj
 0002:00003068       ??_C@_0BK@DHEMLBIM@xpcIsModelInit?5not?5found?6?$AA@ 10065068     xpcruntime:xpcimports.obj
 0002:00003088       ??_C@_0BH@KJJLCAOJ@xpcAllocPhysicalMemory?$AA@ 10065088     xpcruntime:xpcimports.obj
 0002:000030a4       ??_C@_0CC@MOJPNHKL@xpcAllocPhysicalMemory?5not?5found@ 100650a4     xpcruntime:xpcimports.obj
 0002:000030cc       ??_C@_0BG@CBNPGAEL@xpcFreePhysicalMemory?$AA@ 100650cc     xpcruntime:xpcimports.obj
 0002:000030e8       ??_C@_0CB@PKJEBPOG@xpcFreePhysicalMemory?5not?5found?6@ 100650e8     xpcruntime:xpcimports.obj
 0002:00003110       ??_C@_0BC@JGKNLICL@xpcGetElapsedTime?$AA@ 10065110     xpcruntime:xpcimports.obj
 0002:00003128       ??_C@_0BN@OEOAHCIO@xpcGetElapsedTime?5not?5found?6?$AA@ 10065128     xpcruntime:xpcimports.obj
 0002:0000314c       ??_C@_0M@ICBLMODA@xpcBusyWait?$AA@ 1006514c     xpcruntime:xpcimports.obj
 0002:0000315c       ??_C@_0BH@FBOPECBI@xpcBusyWait?5not?5found?6?$AA@ 1006515c     xpcruntime:xpcimports.obj
 0002:00003178       ??_C@_0N@LKKJEKKA@TBCreateSpin?$AA@ 10065178     xpcruntime:xpcimports.obj
 0002:00003188       ??_C@_0BI@FHKMLKOE@TBCreateSpin?5not?5found?6?$AA@ 10065188     xpcruntime:xpcimports.obj
 0002:000031a4       ??_C@_0N@HOAJHNBD@TBDeleteSpin?$AA@ 100651a4     xpcruntime:xpcimports.obj
 0002:000031b4       ??_C@_0BI@BKCPAAG@TBDeleteSpin?5not?5found?6?$AA@ 100651b4     xpcruntime:xpcimports.obj
 0002:000031d0       ??_C@_0P@DAHDDBJG@TBTakeSpinFast?$AA@ 100651d0     xpcruntime:xpcimports.obj
 0002:000031e4       ??_C@_0BK@NKAIBHGB@TBTakeSpinFast?5not?5found?6?$AA@ 100651e4     xpcruntime:xpcimports.obj
 0002:00003204       ??_C@_0P@FKNAAELA@TBGiveSpinFast?$AA@ 10065204     xpcruntime:xpcimports.obj
 0002:00003218       ??_C@_0BK@KGPJBJND@TBGiveSpinFast?5not?5found?6?$AA@ 10065218     xpcruntime:xpcimports.obj
 0002:00003238       ??_C@_0BE@IIGBFDHK@xpceCreateSemaphore?$AA@ 10065238     xpcruntime:xpcimports.obj
 0002:00003250       ??_C@_0BP@KFBAFFKJ@xpceCreateSemaphore?5not?5found?6?$AA@ 10065250     xpcruntime:xpcimports.obj
 0002:00003278       ??_C@_0BC@IFNIONKJ@xpceWaitSemaphore?$AA@ 10065278     xpcruntime:xpcimports.obj
 0002:00003290       ??_C@_0BN@NMFAADIO@xpceWaitSemaphore?5not?5found?6?$AA@ 10065290     xpcruntime:xpcimports.obj
 0002:000032b4       ??_C@_0BE@NNDIOBKE@xpceSignalSemaphore?$AA@ 100652b4     xpcruntime:xpcimports.obj
 0002:000032cc       ??_C@_0BP@LBANMHJP@xpceSignalSemaphore?5not?5found?6?$AA@ 100652cc     xpcruntime:xpcimports.obj
 0002:000032f4       ??_C@_0BE@MEBEKOIM@xpceDeleteSemaphore?$AA@ 100652f4     xpcruntime:xpcimports.obj
 0002:0000330c       ??_C@_0BP@OFNCKOJH@xpceDeleteSemaphore?5not?5found?6?$AA@ 1006530c     xpcruntime:xpcimports.obj
 0002:00003334       ??_C@_0BD@MFNDMBOF@FindUsbVideoDevice?$AA@ 10065334     xpcruntime:xpcimports.obj
 0002:0000334c       ??_C@_0BO@POKLDHMI@FindUsbVideoDevice?5not?5found?6?$AA@ 1006534c     xpcruntime:xpcimports.obj
 0002:00003370       ??_C@_0BA@PLPAPNAB@GetVideoConfigs?$AA@ 10065370     xpcruntime:xpcimports.obj
 0002:00003384       ??_C@_0BL@DALDHKHC@GetVideoConfigs?5not?5found?6?$AA@ 10065384     xpcruntime:xpcimports.obj
 0002:000033a4       ??_C@_0L@GBAEMHMH@StartVideo?$AA@ 100653a4     xpcruntime:xpcimports.obj
 0002:000033b4       ??_C@_0BG@HDCELEBP@StartVideo?5not?5found?6?$AA@ 100653b4     xpcruntime:xpcimports.obj
 0002:000033d0       ??_C@_0BA@FDNPOCLN@ReadFrameBuffer?$AA@ 100653d0     xpcruntime:xpcimports.obj
 0002:000033e4       ??_C@_0BL@JHGHPNBI@ReadFrameBuffer?5not?5found?6?$AA@ 100653e4     xpcruntime:xpcimports.obj
 0002:00003404       ??_C@_09FAHCLKAG@StopVideo?$AA@ 10065404     xpcruntime:xpcimports.obj
 0002:00003410       ??_C@_0BF@NKGKKADL@StopVideo?5not?5found?6?$AA@ 10065410     xpcruntime:xpcimports.obj
 0002:0000342c       ??_C@_0O@MCPKDLLL@ConvertUImage?$AA@ 1006542c     xpcruntime:xpcimports.obj
 0002:0000343c       ??_C@_0BJ@PHJKOAFL@ConvertUImage?5not?5found?6?$AA@ 1006543c     xpcruntime:xpcimports.obj
 0002:0000345c       ??_C@_0BD@NKCBPBJJ@CreateVideoDisplay?$AA@ 1006545c     xpcruntime:xpcimports.obj
 0002:00003474       ??_C@_0BO@HPPLLNFP@CreateVideoDisplay?5not?5found?6?$AA@ 10065474     xpcruntime:xpcimports.obj
 0002:00003498       ??_C@_0BE@KJCKGPHA@DestroyVideoDisplay?$AA@ 10065498     xpcruntime:xpcimports.obj
 0002:000034b0       ??_C@_0BP@FMGLJAIJ@DestroyVideoDisplay?5not?5found?6?$AA@ 100654b0     xpcruntime:xpcimports.obj
 0002:000034d8       ??_C@_0BC@HCMIMIDN@StartVideoDisplay?$AA@ 100654d8     xpcruntime:xpcimports.obj
 0002:000034f0       ??_C@_0BN@EFIEBGOO@StartVideoDisplay?5not?5found?6?$AA@ 100654f0     xpcruntime:xpcimports.obj
 0002:00003514       ??_C@_0BB@JBBLMILG@StopVideoDisplay?$AA@ 10065514     xpcruntime:xpcimports.obj
 0002:00003528       ??_C@_0BM@DBJBPLEL@StopVideoDisplay?5not?5found?6?$AA@ 10065528     xpcruntime:xpcimports.obj
 0002:0000354c       ??_C@_0M@MFJEGMHC@StreamVideo?$AA@ 1006554c     xpcruntime:xpcimports.obj
 0002:0000355c       ??_C@_0BH@OINCDMLA@StreamVideo?5not?5found?6?$AA@ 1006555c     xpcruntime:xpcimports.obj
 0002:00003578       ??_C@_0N@IGGLCIGE@xpceaddEvent?$AA@ 10065578     xpcruntime:xpcimports.obj
 0002:00003588       ??_C@_0BI@NHJNFMKH@xpceaddEvent?5not?5found?6?$AA@ 10065588     xpcruntime:xpcimports.obj
 0002:000035a4       ??_C@_0BC@MLJODBHJ@slrtStartProfiler?$AA@ 100655a4     xpcruntime:xpcimports.obj
 0002:000035bc       ??_C@_0BN@HLNCOKA@slrtStartProfiler?5not?5found?6?$AA@ 100655bc     xpcruntime:xpcimports.obj
 0002:000035e0       ??_C@_0BB@ONJONMCD@slrtStopProfiler?$AA@ 100655e0     xpcruntime:xpcimports.obj
 0002:000035f4       ??_C@_0BM@GAKJEGBA@slrtStopProfiler?5not?5found?6?$AA@ 100655f4     xpcruntime:xpcimports.obj
 0002:00003618       ??_C@_0BF@EILBHBBF@slrtGetProfilerState?$AA@ 10065618     xpcruntime:xpcimports.obj
 0002:00003634       ??_C@_0CA@EDDFOCLE@slrtGetProfilerState?5not?5found?6?$AA@ 10065634     xpcruntime:xpcimports.obj
 0002:0000365c       ??_C@_0BB@HDPOIJAB@xpceDAQPostEvent?$AA@ 1006565c     xpcruntime:xpcimports.obj
 0002:00003670       ??_C@_0BM@IHANBKGN@xpceDAQPostEvent?5not?5found?6?$AA@ 10065670     xpcruntime:xpcimports.obj
 0002:00003694       ??_C@_0BH@MBACMOD@xpceDAQUpdateTimeStamp?$AA@ 10065694     xpcruntime:xpcimports.obj
 0002:000036b0       ??_C@_0CC@DAKBBINL@xpceDAQUpdateTimeStamp?5not?5found@ 100656b0     xpcruntime:xpcimports.obj
 0002:000036d8       ??_C@_0BD@HLALHPHI@slrtRegisterSignal?$AA@ 100656d8     xpcruntime:xpcimports.obj
 0002:000036f0       ??_C@_0BO@BALEBHKF@slrtRegisterSignal?5not?5found?6?$AA@ 100656f0     xpcruntime:xpcimports.obj
 0002:00003714       ??_C@_0O@DKILEOIJ@slrtLogSignal?$AA@ 10065714     xpcruntime:xpcimports.obj
 0002:00003724       ??_C@_0BJ@FMKKIEDD@slrtLogSignal?5not?5found?6?$AA@ 10065724     xpcruntime:xpcimports.obj
 0002:00003744       ??_C@_0BG@CCHICKPN@slrteSetStepSizeDelta?$AA@ 10065744     xpcruntime:xpcimports.obj
 0002:00003760       ??_C@_0CB@MKHINEIJ@slrteSetStepSizeDelta?5not?5found?6@ 10065760     xpcruntime:xpcimports.obj
 0002:00003788       ??_C@_0BI@CLNBLDKJ@slrteGetCurrentStepSize?$AA@ 10065788     xpcruntime:xpcimports.obj
 0002:000037a4       ??_C@_0CD@GIOJPGJA@slrteGetCurrentStepSize?5not?5foun@ 100657a4     xpcruntime:xpcimports.obj
 0002:000037d0       ??_C@_0BE@FCLCBOC@registerPTPTimeRead?$AA@ 100657d0     xpcruntime:xpcimports.obj
 0002:000037e8       ??_C@_0BP@LHPKAJIP@registerPTPTimeRead?5not?5found?6?$AA@ 100657e8     xpcruntime:xpcimports.obj
 0002:00003810       ??_C@_0BG@KIGCDDJI@unRegisterPTPTimeRead?$AA@ 10065810     xpcruntime:xpcimports.obj
 0002:0000382c       ??_C@_0CB@MLFFBFCM@unRegisterPTPTimeRead?5not?5found?6@ 1006582c     xpcruntime:xpcimports.obj
 0002:00003854       ??_C@_0BB@IPMDDBHK@slTestInitialize?$AA@ 10065854     xpcruntime:xpcimports.obj
 0002:00003868       ??_C@_0BM@LAJFCCJH@slTestInitialize?5not?5found?6?$AA@ 10065868     xpcruntime:xpcimports.obj
 0002:0000388c       ??_C@_0BF@OOMPMEBC@slTestLogAssessments?$AA@ 1006588c     xpcruntime:xpcimports.obj
 0002:000038a8       ??_C@_0CA@FGJCEBAG@slTestLogAssessments?5not?5found?6?$AA@ 100658a8     xpcruntime:xpcimports.obj
 0002:000038d0       ??_C@_0BB@HJHKONHO@slTestEvalOnFail?$AA@ 100658d0     xpcruntime:xpcimports.obj
 0002:000038e4       ??_C@_0BM@JIKCFFNJ@slTestEvalOnFail?5not?5found?6?$AA@ 100658e4     xpcruntime:xpcimports.obj
 0002:00003908       ??_C@_0BA@LBHLABFP@slTestTerminate?$AA@ 10065908     xpcruntime:xpcimports.obj
 0002:0000391c       ??_C@_0BL@EMFGKAPA@slTestTerminate?5not?5found?6?$AA@ 1006591c     xpcruntime:xpcimports.obj
 0002:0000393c       ??_C@_0BE@JPNPBBEO@slTestRegAssessment?$AA@ 1006593c     xpcruntime:xpcimports.obj
 0002:00003954       ??_C@_0BP@FBDEJJJH@slTestRegAssessment?5not?5found?6?$AA@ 10065954     xpcruntime:xpcimports.obj
 0002:0000397c       ??_C@_0O@NCLGDNIB@slrteSetupMSI?$AA@ 1006597c     xpcruntime:xpcimports.obj
 0002:0000398c       ??_C@_0BJ@HEFMECLM@slrteSetupMSI?5not?5found?6?$AA@ 1006598c     xpcruntime:xpcimports.obj
 0002:000039ac       ??_C@_0BH@BPOLALHD@slrtGetCRBScratchSpace?$AA@ 100659ac     xpcruntime:xpcimports.obj
 0002:000039c8       ??_C@_0CC@KCKAJKKJ@slrtGetCRBScratchSpace?5not?5found@ 100659c8     xpcruntime:xpcimports.obj
 0002:000039f0       ??_C@_0BC@MKFDAKOL@slrtGetSgCRBSpace?$AA@ 100659f0     xpcruntime:xpcimports.obj
 0002:00003a08       ??_C@_0BN@JDPHPLHL@slrtGetSgCRBSpace?5not?5found?6?$AA@ 10065a08     xpcruntime:xpcimports.obj
 0002:00003a2c       ??_C@_0P@EPAPKLIF@slrtfsOpenFile?$AA@ 10065a2c     xpcruntime:xpcimports.obj
 0002:00003a40       ??_C@_0BK@FIHCBOHG@slrtfsOpenFile?5not?5found?6?$AA@ 10065a40     xpcruntime:xpcimports.obj
 0002:00003a60       ??_C@_0BA@LILAFDDL@slrtfsCloseFile?$AA@ 10065a60     xpcruntime:xpcimports.obj
 0002:00003a74       ??_C@_0BL@DEGHJFIB@slrtfsCloseFile?5not?5found?6?$AA@ 10065a74     xpcruntime:xpcimports.obj
 0002:00003a94       ??_C@_0BC@OKMJDIEH@slrtfsWriteToFile?$AA@ 10065a94     xpcruntime:xpcimports.obj
 0002:00003aac       ??_C@_0BN@KCFLCLAH@slrtfsWriteToFile?5not?5found?6?$AA@ 10065aac     xpcruntime:xpcimports.obj
 0002:00003ad0       ??_C@_0BK@GIPNFFFF@slrtfsGetFileErrorMessage?$AA@ 10065ad0     xpcruntime:xpcimports.obj
 0002:00003af0       ??_C@_0CF@BCBLMKLE@slrtfsGetFileErrorMessage?5not?5fo@ 10065af0     xpcruntime:xpcimports.obj
 0002:00003b1c       ??_C@_0BD@ICBOKMK@slrtfsGetFileError?$AA@ 10065b1c     xpcruntime:xpcimports.obj
 0002:00003b34       ??_C@_0BO@FNBANAE@slrtfsGetFileError?5not?5found?6?$AA@ 10065b34     xpcruntime:xpcimports.obj
 0002:00003b58       ??_C@_0BE@PPAJMHJP@slrtfsOpenFileAsync?$AA@ 10065b58     xpcruntime:xpcimports.obj
 0002:00003b70       ??_C@_0BP@HKBMMJOK@slrtfsOpenFileAsync?5not?5found?6?$AA@ 10065b70     xpcruntime:xpcimports.obj
 0002:00003b98       ??_C@_0BF@IGNDIBPF@slrtfsCloseFileAsync?$AA@ 10065b98     xpcruntime:xpcimports.obj
 0002:00003bb4       ??_C@_0CA@GJPFDBKN@slrtfsCloseFileAsync?5not?5found?6?$AA@ 10065bb4     xpcruntime:xpcimports.obj
 0002:00003bdc       ??_C@_0BE@IOLEBNB@slrtfsGetFileStatus?$AA@ 10065bdc     xpcruntime:xpcimports.obj
 0002:00003bf4       ??_C@_0BP@PEFHDGHL@slrtfsGetFileStatus?5not?5found?6?$AA@ 10065bf4     xpcruntime:xpcimports.obj
 0002:00003c1c       ??_C@_0M@HKIJIMG@slrtfsFread?$AA@ 10065c1c     xpcruntime:xpcimports.obj
 0002:00003c2c       ??_C@_0BH@OOKBGONO@slrtfsFread?5not?5found?6?$AA@ 10065c2c     xpcruntime:xpcimports.obj
 0002:00003c48       ??_C@_0BE@OGCMPLAP@slrtGetDefaultDrive?$AA@ 10065c48     xpcruntime:xpcimports.obj
 0002:00003c60       ??_C@_0BP@HKFGLHOE@slrtGetDefaultDrive?5not?5found?6?$AA@ 10065c60     xpcruntime:xpcimports.obj
 0002:00003c88       ??_C@_0N@NAJIKFFI@slrtLogEvent?$AA@ 10065c88     xpcruntime:xpcimports.obj
 0002:00003c98       ??_C@_0BI@NKCEACND@slrtLogEvent?5not?5found?6?$AA@ 10065c98     xpcruntime:xpcimports.obj
 0002:00003cb4       ??_C@_0N@IDKFJOHI@getlasterror?$AA@ 10065cb4     xpcruntime:xpcimports.obj
 0002:00003cc4       ??_C@_0BI@MIHMCHGL@getlasterror?5not?5found?6?$AA@ 10065cc4     xpcruntime:xpcimports.obj
 0002:00003ce0       ??_C@_0P@OKHGKJKN@geterrorstring?$AA@ 10065ce0     xpcruntime:xpcimports.obj
 0002:00003cf4       ??_C@_0BK@NOHFDMLP@geterrorstring?5not?5found?6?$AA@ 10065cf4     xpcruntime:xpcimports.obj
 0002:00003d14       ??_C@_0BD@HNFFKMGJ@slrtGetCPUTCelsius?$AA@ 10065d14     xpcruntime:xpcimports.obj
 0002:00003d2c       ??_C@_0BO@LHBFKLIH@slrtGetCPUTCelsius?5not?5found?6?$AA@ 10065d2c     xpcruntime:xpcimports.obj
 0002:00003d50       ??_C@_0M@OONCNCLM@slrtWarning?$AA@ 10065d50     xpcruntime:xpcimports.obj
 0002:00003d60       ??_C@_0BH@ICKGIEMB@slrtWarning?5not?5found?6?$AA@ 10065d60     xpcruntime:xpcimports.obj
 0002:00003d7c       ??_C@_0M@JACEPOPN@registerNIC?$AA@ 10065d7c     xpcruntime:xpcimports.obj
 0002:00003d8c       ??_C@_0BH@JMDHJIAC@registerNIC?5not?5found?6?$AA@ 10065d8c     xpcruntime:xpcimports.obj
 0002:00003da8       ??_C@_0M@KBKHECFH@NICSetIface?$AA@ 10065da8     xpcruntime:xpcimports.obj
 0002:00003db8       ??_C@_0BH@NJAHOBA@NICSetIface?5not?5found?6?$AA@ 10065db8     xpcruntime:xpcimports.obj
 0002:00003dd4       ??_C@_0M@FAILFBCK@NICGetIface?$AA@ 10065dd4     xpcruntime:xpcimports.obj
 0002:00003de4       ??_C@_0BH@KDLLDOGM@NICGetIface?5not?5found?6?$AA@ 10065de4     xpcruntime:xpcimports.obj
 0002:00003e00       ??_C@_0L@JNFPDPO@releaseNIC?$AA@ 10065e00     xpcruntime:xpcimports.obj
 0002:00003e10       ??_C@_0BG@EBGJANLA@releaseNIC?5not?5found?6?$AA@ 10065e10     xpcruntime:xpcimports.obj
 0002:00003e2c       ??_C@_0BC@HLDKJAG@SetIPTASKPriority?$AA@ 10065e2c     xpcruntime:xpcimports.obj
 0002:00003e44       ??_C@_0BN@OGKMHHAE@SetIPTASKPriority?5not?5found?6?$AA@ 10065e44     xpcruntime:xpcimports.obj
 0002:00003e68       ??_C@_0O@LHENMBDD@OpenInterface?$AA@ 10065e68     xpcruntime:xpcimports.obj
 0002:00003e78       ??_C@_0BJ@PFGDBKHB@OpenInterface?5not?5found?6?$AA@ 10065e78     xpcruntime:xpcimports.obj
 0002:00003e98       ??_C@_0P@IINFELKD@CloseInterface?$AA@ 10065e98     xpcruntime:xpcimports.obj
 0002:00003eac       ??_C@_0BK@PAPDNDBK@CloseInterface?5not?5found?6?$AA@ 10065eac     xpcruntime:xpcimports.obj
 0002:00003ecc       ??_C@_05LEFIAAOI@SetIP?$AA@ 10065ecc     xpcruntime:xpcimports.obj
 0002:00003ed4       ??_C@_0BB@CGLIBAMM@SetIP?5not?5found?6?$AA@ 10065ed4     xpcruntime:xpcimports.obj
 0002:00003ee8       ??_C@_0BA@HIJJHHMD@AddGatewayRoute?$AA@ 10065ee8     xpcruntime:xpcimports.obj
 0002:00003efc       ??_C@_0BL@BFCFMDMN@AddGatewayRoute?5not?5found?6?$AA@ 10065efc     xpcruntime:xpcimports.obj
 0002:00003f1c       ??_C@_0BC@OGIEOMEH@AddMulticastRoute?$AA@ 10065f1c     xpcruntime:xpcimports.obj
 0002:00003f34       ??_C@_0BN@IMNDPFCL@AddMulticastRoute?5not?5found?6?$AA@ 10065f34     xpcruntime:xpcimports.obj
 0002:00003f58       ??_C@_0M@PHMABFPI@DeleteRoute?$AA@ 10065f58     xpcruntime:xpcimports.obj
 0002:00003f68       ??_C@_0BH@JPJGLLID@DeleteRoute?5not?5found?6?$AA@ 10065f68     xpcruntime:xpcimports.obj
 0002:00003f84       ??_C@_0BA@FCDIMKIJ@GetHostTarIPAdd?$AA@ 10065f84     xpcruntime:xpcimports.obj
 0002:00003f98       ??_C@_0BL@MBKDGKBO@GetHostTarIPAdd?5not?5found?6?$AA@ 10065f98     xpcruntime:xpcimports.obj
 0002:00003fb8       ??_C@_0M@HPMIPIBI@GetDCUUsage?$AA@ 10065fb8     xpcruntime:xpcimports.obj
 0002:00003fc8       ??_C@_0BH@EBLJKCJC@GetDCUUsage?5not?5found?6?$AA@ 10065fc8     xpcruntime:xpcimports.obj
 0002:00003fe4       ??_C@_06MPKMECK@accept?$AA@ 10065fe4     xpcruntime:xpcimports.obj
 0002:00003fec       ??_C@_0BC@GBGIEMNO@accept?5not?5found?6?$AA@ 10065fec     xpcruntime:xpcimports.obj
 0002:00004004       ??_C@_04NPNJNMMP@bind?$AA@ 10066004     xpcruntime:xpcimports.obj
 0002:0000400c       ??_C@_0BA@DAJNENLO@bind?5not?5found?6?$AA@ 1006600c     xpcruntime:xpcimports.obj
 0002:00004020       ??_C@_0L@CKHNIFCM@setsockopt?$AA@ 10066020     xpcruntime:xpcimports.obj
 0002:00004030       ??_C@_0BG@MFIIOMFE@setsockopt?5not?5found?6?$AA@ 10066030     xpcruntime:xpcimports.obj
 0002:0000404c       ??_C@_0M@ODDJDCDK@closesocket?$AA@ 1006604c     xpcruntime:xpcimports.obj
 0002:0000405c       ??_C@_0BH@JHGHMIL@closesocket?5not?5found?6?$AA@ 1006605c     xpcruntime:xpcimports.obj
 0002:00004078       ??_C@_07KAIBNCHO@connect?$AA@ 10066078     xpcruntime:xpcimports.obj
 0002:00004084       ??_C@_0BD@MKLLMBM@connect?5not?5found?6?$AA@ 10066084     xpcruntime:xpcimports.obj
 0002:0000409c       ??_C@_0M@PBPOCKDG@ioctlsocket?$AA@ 1006609c     xpcruntime:xpcimports.obj
 0002:000040ac       ??_C@_0BH@NFCNHHIH@ioctlsocket?5not?5found?6?$AA@ 100660ac     xpcruntime:xpcimports.obj
 0002:000040c8       ??_C@_06OODDLKLE@listen?$AA@ 100660c8     xpcruntime:xpcimports.obj
 0002:000040d0       ??_C@_0BC@NHBILEKI@listen?5not?5found?6?$AA@ 100660d0     xpcruntime:xpcimports.obj
 0002:000040e8       ??_C@_08HMBBGFHE@recvfrom?$AA@ 100660e8     xpcruntime:xpcimports.obj
 0002:000040f4       ??_C@_0BE@BJAJFFLF@recvfrom?5not?5found?6?$AA@ 100660f4     xpcruntime:xpcimports.obj
 0002:0000410c       ??_C@_06MEPBGKEC@sendto?$AA@ 1006610c     xpcruntime:xpcimports.obj
 0002:00004114       ??_C@_0BC@BHPIMDJO@sendto?5not?5found?6?$AA@ 10066114     xpcruntime:xpcimports.obj
 0002:0000412c       ??_C@_09JKBDEEOB@inet_addr?$AA@ 1006612c     xpcruntime:xpcimports.obj
 0002:00004138       ??_C@_0BF@HKJPGECN@inet_addr?5not?5found?6?$AA@ 10066138     xpcruntime:xpcimports.obj
 0002:00004154       ??_C@_06HBELJPBO@socket?$AA@ 10066154     xpcruntime:xpcimports.obj
 0002:0000415c       ??_C@_0BC@NAGFFJGA@socket?5not?5found?6?$AA@ 1006615c     xpcruntime:xpcimports.obj
 0002:00004174       ??_C@_09ICJIFGNC@GetSocket?$AA@ 10066174     xpcruntime:xpcimports.obj
 0002:00004180       ??_C@_0BF@KDBCKMOJ@GetSocket?5not?5found?6?$AA@ 10066180     xpcruntime:xpcimports.obj
 0002:0000419c       ??_C@_0P@KJEGJMJI@GetSocketState?$AA@ 1006619c     xpcruntime:xpcimports.obj
 0002:000041b0       ??_C@_0BK@IALBJHEB@GetSocketState?5not?5found?6?$AA@ 100661b0     xpcruntime:xpcimports.obj
 0002:000041d0       ??_C@_0L@MEAJHNHB@SocketSend?$AA@ 100661d0     xpcruntime:xpcimports.obj
 0002:000041e0       ??_C@_0BG@EOCMBFJA@SocketSend?5not?5found?6?$AA@ 100661e0     xpcruntime:xpcimports.obj
 0002:000041fc       ??_C@_0O@PFPCLEMF@SocketReceive?$AA@ 100661fc     xpcruntime:xpcimports.obj
 0002:0000420c       ??_C@_0BJ@HIBADDFO@SocketReceive?5not?5found?6?$AA@ 1006620c     xpcruntime:xpcimports.obj
 0002:0000422c       ??_C@_0BD@OOGFNAIK@CreateServerSocket?$AA@ 1006622c     xpcruntime:xpcimports.obj
 0002:00004244       ??_C@_0BO@GKIJHIPH@CreateServerSocket?5not?5found?6?$AA@ 10066244     xpcruntime:xpcimports.obj
 0002:00004268       ??_C@_0BB@KGHJGFFO@OpenServerListen?$AA@ 10066268     xpcruntime:xpcimports.obj
 0002:0000427c       ??_C@_0BM@NFMMLIO@OpenServerListen?5not?5found?6?$AA@ 1006627c     xpcruntime:xpcimports.obj
 0002:000042a0       ??_C@_0BE@BAJLDJAH@ConnectServerSocket?$AA@ 100662a0     xpcruntime:xpcimports.obj
 0002:000042b8       ??_C@_0BP@KJNODIKE@ConnectServerSocket?5not?5found?6?$AA@ 100662b8     xpcruntime:xpcimports.obj
 0002:000042e0       ??_C@_0BC@PLKKJDIM@CloseServerSocket?$AA@ 100662e0     xpcruntime:xpcimports.obj
 0002:000042f8       ??_C@_0BN@KEJEPNMB@CloseServerSocket?5not?5found?6?$AA@ 100662f8     xpcruntime:xpcimports.obj
 0002:0000431c       ??_C@_0BC@IHMNIGFJ@ResetServerSocket?$AA@ 1006631c     xpcruntime:xpcimports.obj
 0002:00004334       ??_C@_0BN@NIOGJLCG@ResetServerSocket?5not?5found?6?$AA@ 10066334     xpcruntime:xpcimports.obj
 0002:00004358       ??_C@_0BD@MCLPKCPP@CreateClientSocket?$AA@ 10066358     xpcruntime:xpcimports.obj
 0002:00004370       ??_C@_0BO@DILAGPFN@CreateClientSocket?5not?5found?6?$AA@ 10066370     xpcruntime:xpcimports.obj
 0002:00004394       ??_C@_0BB@DAPKNNLG@BindClientSocket?$AA@ 10066394     xpcruntime:xpcimports.obj
 0002:000043a8       ??_C@_0BM@LLLMMDFN@BindClientSocket?5not?5found?6?$AA@ 100663a8     xpcruntime:xpcimports.obj
 0002:000043cc       ??_C@_0BE@DMEBELHC@ConnectClientSocket?$AA@ 100663cc     xpcruntime:xpcimports.obj
 0002:000043e4       ??_C@_0BP@PLOHCPAO@ConnectClientSocket?5not?5found?6?$AA@ 100663e4     xpcruntime:xpcimports.obj
 0002:0000440c       ??_C@_0BC@NHHAOBPJ@CloseClientSocket?$AA@ 1006640c     xpcruntime:xpcimports.obj
 0002:00004424       ??_C@_0BN@PGKNOKGL@CloseClientSocket?5not?5found?6?$AA@ 10066424     xpcruntime:xpcimports.obj
 0002:00004448       ??_C@_0BC@KLBHPECM@ResetClientSocket?$AA@ 10066448     xpcruntime:xpcimports.obj
 0002:00004460       ??_C@_0BN@IKNPIMIM@ResetClientSocket?5not?5found?6?$AA@ 10066460     xpcruntime:xpcimports.obj
 0002:00004484       ??_C@_0M@IJOPFCCE@UDPOpenSend?$AA@ 10066484     xpcruntime:xpcimports.obj
 0002:00004494       ??_C@_0BH@CCHBDPG@UDPOpenSend?5not?5found?6?$AA@ 10066494     xpcruntime:xpcimports.obj
 0002:000044b0       ??_C@_0P@MEPACHPD@UDPOpenReceive?$AA@ 100664b0     xpcruntime:xpcimports.obj
 0002:000044c4       ??_C@_0BK@PFMCPKIO@UDPOpenReceive?5not?5found?6?$AA@ 100664c4     xpcruntime:xpcimports.obj
 0002:000044e4       ??_C@_0BK@BGNLEHGA@UDPAddMulticastMembership?$AA@ 100664e4     xpcruntime:xpcimports.obj
 0002:00004504       ??_C@_0CF@CAEMAELE@UDPAddMulticastMembership?5not?5fo@ 10066504     xpcruntime:xpcimports.obj
 0002:00004530       ??_C@_0N@NMMOLOEM@UDPCloseSend?$AA@ 10066530     xpcruntime:xpcimports.obj
 0002:00004540       ??_C@_0BI@ENKCOCDG@UDPCloseSend?5not?5found?6?$AA@ 10066540     xpcruntime:xpcimports.obj
 0002:0000455c       ??_C@_0BA@DMJGBBIA@UDPCloseReceive?$AA@ 1006655c     xpcruntime:xpcimports.obj
 0002:00004570       ??_C@_0BL@PEBIMLNC@UDPCloseReceive?5not?5found?6?$AA@ 10066570     xpcruntime:xpcimports.obj
 0002:00004590       ??_C@_0P@NPOCJKPL@registerDFTask?$AA@ 10066590     xpcruntime:xpcimports.obj
 0002:000045a4       ??_C@_0BK@JHOOFMMI@registerDFTask?5not?5found?6?$AA@ 100665a4     xpcruntime:xpcimports.obj
 0002:000045c4       ??_C@_0BB@ICCLEIPB@deregisterDFTask?$AA@ 100665c4     xpcruntime:xpcimports.obj
 0002:000045d8       ??_C@_0BM@PEOCAIDM@deregisterDFTask?5not?5found?6?$AA@ 100665d8     xpcruntime:xpcimports.obj
 0002:000045fc       ??_C@_0O@PHHDMOJH@triggerDFTask?$AA@ 100665fc     xpcruntime:xpcimports.obj
 0002:0000460c       ??_C@_0BJ@IKKCFBJL@triggerDFTask?5not?5found?6?$AA@ 1006660c     xpcruntime:xpcimports.obj
 0002:0000462c       ??_C@_0O@IAHKGBOC@waitForDFTask?$AA@ 1006662c     xpcruntime:xpcimports.obj
 0002:0000463c       ??_C@_0BJ@FHLCNAKE@waitForDFTask?5not?5found?6?$AA@ 1006663c     xpcruntime:xpcimports.obj
 0002:0000470c       __pRawDllMain              1006670c     LIBCMT:dll_dllmain.obj
 0002:0000470c       __pDefaultRawDllMain       1006670c     LIBCMT:dll_dllmain.obj
 0002:00004710       __Microsoft_CRTProvider    10066710     libvcruntime:telemetry.obj
 0002:00004714       ??_C@_11LOCGONAA@?$AA?$AA@ 10066714     libvcruntime:telemetry.obj
 0002:00004718       ??_C@_0O@JEOPJOMI@Main?5Invoked?4?$AA@ 10066718     libvcruntime:telemetry.obj
 0002:00004728       ??_C@_0P@NEAEIBDO@Main?5Returned?4?$AA@ 10066728     libvcruntime:telemetry.obj
 0002:00004750       ??_C@_1BC@DNHGCMLG@?$AAa?$AAd?$AAv?$AAa?$AAp?$AAi?$AA3?$AA2?$AA?$AA@ 10066750     libvcruntime:winapi_downlevel.obj
 0002:00004768       ??_C@_1DM@KHCHBNEB@?$AAa?$AAp?$AAi?$AA?9?$AAm?$AAs?$AA?9?$AAw?$AAi?$AAn?$AA?9?$AAc?$AAo?$AAr?$AAe?$AA?9?$AAf?$AAi?$AAb?$AAe?$AAr?$AAs?$AA?9?$AAl?$AA1?$AA?9?$AA1?$AA?9?$AA1?$AA?$AA@ 10066768     libvcruntime:winapi_downlevel.obj
 0002:000047b0       ??_C@_1DK@LPPGFMPP@?$AAa?$AAp?$AAi?$AA?9?$AAm?$AAs?$AA?9?$AAw?$AAi?$AAn?$AA?9?$AAc?$AAo?$AAr?$AAe?$AA?9?$AAs?$AAy?$AAn?$AAc?$AAh?$AA?9?$AAl?$AA1?$AA?9?$AA2?$AA?9?$AA0?$AA?$AA@ 100667b0     libvcruntime:winapi_downlevel.obj
 0002:000047f8       ??_C@_1BC@GDMECMAK@?$AAk?$AAe?$AAr?$AAn?$AAe?$AAl?$AA3?$AA2?$AA?$AA@ 100667f8     libvcruntime:winapi_downlevel.obj
 0002:00004814       ??_C@_0O@BAMBGLIE@EventRegister?$AA@ 10066814     libvcruntime:winapi_downlevel.obj
 0002:00004828       ??_C@_0BE@BJEEGHGK@EventSetInformation?$AA@ 10066828     libvcruntime:winapi_downlevel.obj
 0002:00004844       ??_C@_0BA@FAKLIPIC@EventUnregister?$AA@ 10066844     libvcruntime:winapi_downlevel.obj
 0002:0000485c       ??_C@_0BD@PKLHJPHD@EventWriteTransfer?$AA@ 1006685c     libvcruntime:winapi_downlevel.obj
 0002:00004880       ??_C@_08KNHFBNJ@FlsAlloc?$AA@ 10066880     libvcruntime:winapi_downlevel.obj
 0002:00004898       ??_C@_07PEJMOBNF@FlsFree?$AA@ 10066898     libvcruntime:winapi_downlevel.obj
 0002:000048b0       ??_C@_0M@GDNOONDI@FlsGetValue?$AA@ 100668b0     libvcruntime:winapi_downlevel.obj
 0002:000048cc       ??_C@_0M@JCPCPOEF@FlsSetValue?$AA@ 100668cc     libvcruntime:winapi_downlevel.obj
 0002:000048e8       ??_C@_0BM@HCFOFFN@InitializeCriticalSectionEx?$AA@ 100668e8     libvcruntime:winapi_downlevel.obj
 0002:00004af0       ??_C@_08EHJDFFNH@__based?$CI?$AA@ 10066af0     libvcruntime:undname.obj
 0002:00004afc       ??_C@_07KOLFKCDI@__cdecl?$AA@ 10066afc     libvcruntime:undname.obj
 0002:00004b08       ??_C@_08GHMPAG@__pascal?$AA@ 10066b08     libvcruntime:undname.obj
 0002:00004b14       ??_C@_09IFJBGAPI@__stdcall?$AA@ 10066b14     libvcruntime:undname.obj
 0002:00004b20       ??_C@_0L@NPHFGOKO@__thiscall?$AA@ 10066b20     libvcruntime:undname.obj
 0002:00004b30       ??_C@_0L@JMKHOMEK@__fastcall?$AA@ 10066b30     libvcruntime:undname.obj
 0002:00004b40       ??_C@_0N@BCKKPABJ@__vectorcall?$AA@ 10066b40     libvcruntime:undname.obj
 0002:00004b50       ??_C@_09HIJEGCPM@__clrcall?$AA@ 10066b50     libvcruntime:undname.obj
 0002:00004b5c       ??_C@_06GHPCKEAG@__eabi?$AA@ 10066b5c     libvcruntime:undname.obj
 0002:00004b64       ??_C@_07JOMMBBKO@__ptr64?$AA@ 10066b64     libvcruntime:undname.obj
 0002:00004b70       ??_C@_0L@PILCLIHE@__restrict?$AA@ 10066b70     libvcruntime:undname.obj
 0002:00004b80       ??_C@_0M@GFIIJFMG@__unaligned?$AA@ 10066b80     libvcruntime:undname.obj
 0002:00004b90       ??_C@_09DHDLOLLB@restrict?$CI?$AA@ 10066b90     libvcruntime:undname.obj
 0002:00004b9c       ??_C@_04NIHEBCM@?5new?$AA@ 10066b9c     libvcruntime:undname.obj
 0002:00004ba4       ??_C@_07FPCDHGMM@?5delete?$AA@ 10066ba4     libvcruntime:undname.obj
 0002:00004bb0       ??_C@_01NEMOKFLO@?$DN?$AA@ 10066bb0     libvcruntime:undname.obj
 0002:00004bb4       ??_C@_02GPIOPFAK@?$DO?$DO?$AA@ 10066bb4     libvcruntime:undname.obj
 0002:00004bb8       ??_C@_02FODMEDOG@?$DM?$DM?$AA@ 10066bb8     libvcruntime:undname.obj
 0002:00004bbc       ??_C@_01DCLJPIOD@?$CB?$AA@ 10066bbc     libvcruntime:undname.obj
 0002:00004bc0       ??_C@_02EGOFBIJA@?$DN?$DN?$AA@ 10066bc0     libvcruntime:undname.obj
 0002:00004bc4       ??_C@_02FDNJECIE@?$CB?$DN?$AA@ 10066bc4     libvcruntime:undname.obj
 0002:00004bc8       ??_C@_02GPECMEKF@?$FL?$FN?$AA@ 10066bc8     libvcruntime:undname.obj
 0002:00004bcc       ??_C@_08LHJFAFGD@operator?$AA@ 10066bcc     libvcruntime:undname.obj
 0002:00004bd8       ??_C@_02HBOOOICD@?9?$DO?$AA@ 10066bd8     libvcruntime:undname.obj
 0002:00004bdc       ??_C@_01NBENCBCI@?$CK?$AA@ 10066bdc     libvcruntime:undname.obj
 0002:00004be0       ??_C@_02ECNGHCIF@?$CL?$CL?$AA@ 10066be0     libvcruntime:undname.obj
 0002:00004be4       ??_C@_02BAABKJLB@?9?9?$AA@ 10066be4     libvcruntime:undname.obj
 0002:00004be8       ??_C@_01JOAMLHOP@?9?$AA@   10066be8     libvcruntime:undname.obj
 0002:00004bec       ??_C@_01MIFGBAGJ@?$CL?$AA@ 10066bec     libvcruntime:undname.obj
 0002:00004bf0       ??_C@_01HNPIGOCE@?$CG?$AA@ 10066bf0     libvcruntime:undname.obj
 0002:00004bf4       ??_C@_03MNHNFDLC@?9?$DO?$CK?$AA@ 10066bf4     libvcruntime:undname.obj
 0002:00004bf8       ??_C@_01KMDKNFGN@?1?$AA@   10066bf8     libvcruntime:undname.obj
 0002:00004bfc       ??_C@_01FGNFDNOH@?$CF?$AA@ 10066bfc     libvcruntime:undname.obj
 0002:00004c00       ??_C@_01MNNFJEPP@?$DM?$AA@ 10066c00     libvcruntime:undname.obj
 0002:00004c04       ??_C@_02EHCHHCKH@?$DM?$DN?$AA@ 10066c04     libvcruntime:undname.obj
 0002:00004c08       ??_C@_01PPODPGHN@?$DO?$AA@ 10066c08     libvcruntime:undname.obj
 0002:00004c0c       ??_C@_02EEKDKGMJ@?$DO?$DN?$AA@ 10066c0c     libvcruntime:undname.obj
 0002:00004c10       ??_C@_01IHBHIGKO@?0?$AA@   10066c10     libvcruntime:undname.obj
 0002:00004c14       ??_C@_02HCKGKOFO@?$CI?$CJ?$AA@ 10066c14     libvcruntime:undname.obj
 0002:00004c18       ??_C@_01PJKLJHI@?$HO?$AA@  10066c18     libvcruntime:undname.obj
 0002:00004c1c       ??_C@_01JKBOJNNK@?$FO?$AA@ 10066c1c     libvcruntime:undname.obj
 0002:00004c20       ??_C@_02PPKAJPJL@?$CG?$CG?$AA@ 10066c20     libvcruntime:undname.obj
 0002:00004c24       ??_C@_02NONPIBCD@?$HM?$HM?$AA@ 10066c24     libvcruntime:undname.obj
 0002:00004c28       ??_C@_02FPIMKNGF@?$CK?$DN?$AA@ 10066c28     libvcruntime:undname.obj
 0002:00004c2c       ??_C@_02FOEOMHFC@?$CL?$DN?$AA@ 10066c2c     libvcruntime:undname.obj
 0002:00004c30       ??_C@_02FKMDLLOA@?9?$DN?$AA@ 10066c30     libvcruntime:undname.obj
 0002:00004c34       ??_C@_02FJEHGPIO@?1?$DN?$AA@ 10066c34     libvcruntime:undname.obj
 0002:00004c38       ??_C@_02FENAOKFI@?$CF?$DN?$AA@ 10066c38     libvcruntime:undname.obj
 0002:00004c3c       ??_C@_03IKFCCPFF@?$DO?$DO?$DN?$AA@ 10066c3c     libvcruntime:undname.obj
 0002:00004c40       ??_C@_03CDNPDDLA@?$DM?$DM?$DN?$AA@ 10066c40     libvcruntime:undname.obj
 0002:00004c44       ??_C@_02FGJGFEAB@?$CG?$DN?$AA@ 10066c44     libvcruntime:undname.obj
 0002:00004c48       ??_C@_02DHLNPPGH@?$HM?$DN?$AA@ 10066c48     libvcruntime:undname.obj
 0002:00004c4c       ??_C@_02MHEGNOJ@?$FO?$DN?$AA@ 10066c4c     libvcruntime:undname.obj
 0002:00004c50       ??_C@_09IFPLHPGF@?$GAvftable?8?$AA@ 10066c50     libvcruntime:undname.obj
 0002:00004c5c       ??_C@_09BLBHBJP@?$GAvbtable?8?$AA@ 10066c5c     libvcruntime:undname.obj
 0002:00004c68       ??_C@_07FEEIOKP@?$GAvcall?8?$AA@ 10066c68     libvcruntime:undname.obj
 0002:00004c74       ??_C@_08LLFFHHDJ@?$GAtypeof?8?$AA@ 10066c74     libvcruntime:undname.obj
 0002:00004c80       ??_C@_0BF@KDPPACIK@?$GAlocal?5static?5guard?8?$AA@ 10066c80     libvcruntime:undname.obj
 0002:00004c9c       ??_C@_08OBABFOLI@?$GAstring?8?$AA@ 10066c9c     libvcruntime:undname.obj
 0002:00004ca8       ??_C@_0BD@JDLKDPAB@?$GAvbase?5destructor?8?$AA@ 10066ca8     libvcruntime:undname.obj
 0002:00004cc0       ??_C@_0BN@DEGPLNFK@?$GAvector?5deleting?5destructor?8?$AA@ 10066cc0     libvcruntime:undname.obj
 0002:00004ce4       ??_C@_0BO@OBMKPJIG@?$GAdefault?5constructor?5closure?8?$AA@ 10066ce4     libvcruntime:undname.obj
 0002:00004d08       ??_C@_0BN@IMDCHIKM@?$GAscalar?5deleting?5destructor?8?$AA@ 10066d08     libvcruntime:undname.obj
 0002:00004d2c       ??_C@_0BO@PFGOCPJJ@?$GAvector?5constructor?5iterator?8?$AA@ 10066d2c     libvcruntime:undname.obj
 0002:00004d50       ??_C@_0BN@LFPFMEDL@?$GAvector?5destructor?5iterator?8?$AA@ 10066d50     libvcruntime:undname.obj
 0002:00004d74       ??_C@_0CE@IKBNEHA@?$GAvector?5vbase?5constructor?5iterat@ 10066d74     libvcruntime:undname.obj
 0002:00004da0       ??_C@_0BL@NILFHHPC@?$GAvirtual?5displacement?5map?8?$AA@ 10066da0     libvcruntime:undname.obj
 0002:00004dc0       ??_C@_0CB@JONCMFFK@?$GAeh?5vector?5constructor?5iterator?8@ 10066dc0     libvcruntime:undname.obj
 0002:00004de8       ??_C@_0CA@GCEOPDGL@?$GAeh?5vector?5destructor?5iterator?8?$AA@ 10066de8     libvcruntime:undname.obj
 0002:00004e10       ??_C@_0CH@OOJPLCPH@?$GAeh?5vector?5vbase?5constructor?5ite@ 10066e10     libvcruntime:undname.obj
 0002:00004e40       ??_C@_0BL@LLKPOHJI@?$GAcopy?5constructor?5closure?8?$AA@ 10066e40     libvcruntime:undname.obj
 0002:00004e60       ??_C@_0BA@KBCDOMBN@?$GAudt?5returning?8?$AA@ 10066e60     libvcruntime:undname.obj
 0002:00004e74       ??_C@_03KLGMFNMG@?$GAEH?$AA@ 10066e74     libvcruntime:undname.obj
 0002:00004e78       ??_C@_05KHLCHHI@?$GARTTI?$AA@ 10066e78     libvcruntime:undname.obj
 0002:00004e80       ??_C@_0BA@KKLDJDLB@?$GAlocal?5vftable?8?$AA@ 10066e80     libvcruntime:undname.obj
 0002:00004e94       ??_C@_0CE@IIHCMGGL@?$GAlocal?5vftable?5constructor?5closu@ 10066e94     libvcruntime:undname.obj
 0002:00004ec0       ??_C@_06FHBGPFGH@?5new?$FL?$FN?$AA@ 10066ec0     libvcruntime:undname.obj
 0002:00004ec8       ??_C@_09LBNFPBCA@?5delete?$FL?$FN?$AA@ 10066ec8     libvcruntime:undname.obj
 0002:00004ed4       ??_C@_0P@HJKNJFNN@?$GAomni?5callsig?8?$AA@ 10066ed4     libvcruntime:undname.obj
 0002:00004ee8       ??_C@_0BL@CNOONJFP@?$GAplacement?5delete?5closure?8?$AA@ 10066ee8     libvcruntime:undname.obj
 0002:00004f08       ??_C@_0BN@CKNJLHMB@?$GAplacement?5delete?$FL?$FN?5closure?8?$AA@ 10066f08     libvcruntime:undname.obj
 0002:00004f2c       ??_C@_0CG@CFDHKGGD@?$GAmanaged?5vector?5constructor?5iter@ 10066f2c     libvcruntime:undname.obj
 0002:00004f5c       ??_C@_0CF@IMGKMJNO@?$GAmanaged?5vector?5destructor?5itera@ 10066f5c     libvcruntime:undname.obj
 0002:00004f88       ??_C@_0CG@HLDDJMAG@?$GAeh?5vector?5copy?5constructor?5iter@ 10066f88     libvcruntime:undname.obj
 0002:00004fb8       ??_C@_0CM@FCBBDIGB@?$GAeh?5vector?5vbase?5copy?5constructo@ 10066fb8     libvcruntime:undname.obj
 0002:00004fec       ??_C@_0BL@CLIPGLGB@?$GAdynamic?5initializer?5for?5?8?$AA@ 10066fec     libvcruntime:undname.obj
 0002:0000500c       ??_C@_0CB@PDBIFEP@?$GAdynamic?5atexit?5destructor?5for?5?8@ 1006700c     libvcruntime:undname.obj
 0002:00005034       ??_C@_0CD@CGAJBKEJ@?$GAvector?5copy?5constructor?5iterato@ 10067034     libvcruntime:undname.obj
 0002:00005060       ??_C@_0CJ@GJELGAMM@?$GAvector?5vbase?5copy?5constructor?5i@ 10067060     libvcruntime:undname.obj
 0002:00005094       ??_C@_0CL@FGIJHLCE@?$GAmanaged?5vector?5copy?5constructor@ 10067094     libvcruntime:undname.obj
 0002:000050c8       ??_C@_0BM@PMGGMLDN@?$GAlocal?5static?5thread?5guard?8?$AA@ 100670c8     libvcruntime:undname.obj
 0002:000050ec       ??_C@_0N@BDNMDMOL@operator?5?$CC?$CC?5?$AA@ 100670ec     libvcruntime:undname.obj
 0002:000050fc       ??_C@_0BC@DAFEJGAK@?5Type?5Descriptor?8?$AA@ 100670fc     libvcruntime:undname.obj
 0002:00005114       ??_C@_0BM@LDKODKLH@?5Base?5Class?5Descriptor?5at?5?$CI?$AA@ 10067114     libvcruntime:undname.obj
 0002:00005138       ??_C@_0BD@LGICGFMM@?5Base?5Class?5Array?8?$AA@ 10067138     libvcruntime:undname.obj
 0002:00005150       ??_C@_0BN@MECKDCOJ@?5Class?5Hierarchy?5Descriptor?8?$AA@ 10067150     libvcruntime:undname.obj
 0002:00005174       ??_C@_0BK@CFCOFLF@?5Complete?5Object?5Locator?8?$AA@ 10067174     libvcruntime:undname.obj
 0002:00005194       ??_C@_04HEJADOOB@CV?3?5?$AA@ 10067194     libvcruntime:undname.obj
 0002:0000519c       ??_C@_02MOLJINC@?3?3?$AA@  1006719c     libvcruntime:undname.obj
 0002:000051a0       ??_C@_0BE@JAEOCHPE@template?9parameter?9?$AA@ 100671a0     libvcruntime:undname.obj
 0002:000051b8       ??_C@_0O@KHGCOMHP@generic?9type?9?$AA@ 100671b8     libvcruntime:undname.obj
 0002:000051c8       ??_C@_01NLNLIGKH@?$GA?$AA@ 100671c8     libvcruntime:undname.obj
 0002:000051cc       ??_C@_01GEODFPGF@?8?$AA@   100671cc     libvcruntime:undname.obj
 0002:000051d0       ??_C@_0BG@JNJLAMPM@?$GAanonymous?5namespace?8?$AA@ 100671d0     libvcruntime:undname.obj
 0002:000051ec       ??_C@_02OHHJMEON@?8?8?$AA@ 100671ec     libvcruntime:undname.obj
 0002:000051f0       ??_C@_0BN@IBLMMFAP@?$GAnon?9type?9template?9parameter?$AA@ 100671f0     libvcruntime:undname.obj
 0002:00005214       ??_C@_04GKJNKENE@void?$AA@ 10067214     libvcruntime:undname.obj
 0002:0000521c       ??_C@_0BE@EODMJLIF@?$GAtemplate?9parameter?$AA@ 1006721c     libvcruntime:undname.obj
 0002:00005234       ??_C@_03KHICJKCI@?4?4?4?$AA@ 10067234     libvcruntime:undname.obj
 0002:00005238       ??_C@_04HIBGFPH@NULL?$AA@  10067238     libvcruntime:undname.obj
 0002:00005240       ??_C@_02DPKJAMEF@?$CFd?$AA@ 10067240     libvcruntime:undname.obj
 0002:00005244       ??_C@_0BK@IHCCFNEL@?$GAtemplate?9type?9parameter?9?$AA@ 10067244     libvcruntime:undname.obj
 0002:00005264       ??_C@_0BK@OFCNNNKO@?$GAgeneric?9class?9parameter?9?$AA@ 10067264     libvcruntime:undname.obj
 0002:00005284       ??_C@_0BL@NGJBLFIL@?$GAgeneric?9method?9parameter?9?$AA@ 10067284     libvcruntime:undname.obj
 0002:000052a4       ??_C@_03OPGICMGF@?$HN?8?5?$AA@ 100672a4     libvcruntime:undname.obj
 0002:000052a8       ??_C@_02IGFCGPIL@?$HN?8?$AA@ 100672a8     libvcruntime:undname.obj
 0002:000052ac       ??_C@_01CLKCMJKC@?5?$AA@   100672ac     libvcruntime:undname.obj
 0002:000052b0       ??_C@_0N@CBHHHENL@?$GAvtordispex?$HL?$AA@ 100672b0     libvcruntime:undname.obj
 0002:000052c0       ??_C@_0L@GHPFDFH@?$GAvtordisp?$HL?$AA@ 100672c0     libvcruntime:undname.obj
 0002:000052d0       ??_C@_0L@HNGCOGAE@?$GAadjustor?$HL?$AA@ 100672d0     libvcruntime:undname.obj
 0002:000052e0       ??_C@_0CB@KJDOOODE@?$GAlocal?5static?5destructor?5helper?8@ 100672e0     libvcruntime:undname.obj
 0002:00005308       ??_C@_0DB@ILEFOCIJ@?$GAtemplate?5static?5data?5member?5con@ 10067308     libvcruntime:undname.obj
 0002:00005344       ??_C@_0DA@HGFJFBBE@?$GAtemplate?5static?5data?5member?5des@ 10067344     libvcruntime:undname.obj
 0002:00005380       ??_C@_07PGOEDBHP@static?5?$AA@ 10067380     libvcruntime:undname.obj
 0002:0000538c       ??_C@_08NIEOINHE@virtual?5?$AA@ 1006738c     libvcruntime:undname.obj
 0002:00005398       ??_C@_09LAPHOOG@private?3?5?$AA@ 10067398     libvcruntime:undname.obj
 0002:000053a4       ??_C@_0M@GAIFPFIP@protected?3?5?$AA@ 100673a4     libvcruntime:undname.obj
 0002:000053b4       ??_C@_08GPDDCMKI@public?3?5?$AA@ 100673b4     libvcruntime:undname.obj
 0002:000053c0       ??_C@_08KJLFOPNE@?$FLthunk?$FN?3?$AA@ 100673c0     libvcruntime:undname.obj
 0002:000053cc       ??_C@_0M@DHNBOJMP@extern?5?$CCC?$CC?5?$AA@ 100673cc     libvcruntime:undname.obj
 0002:000053dc       ??_C@_02KCKGHPCA@?$CJ?5?$AA@ 100673dc     libvcruntime:undname.obj
 0002:000053e0       ??_C@_05CIHEBHNO@char?5?$AA@ 100673e0     libvcruntime:undname.obj
 0002:000053e8       ??_C@_06EHJMALKF@short?5?$AA@ 100673e8     libvcruntime:undname.obj
 0002:000053f0       ??_C@_04LAHKHJMA@int?5?$AA@ 100673f0     libvcruntime:undname.obj
 0002:000053f8       ??_C@_05CJIMAING@long?5?$AA@ 100673f8     libvcruntime:undname.obj
 0002:00005400       ??_C@_09EBBEKKIH@unsigned?5?$AA@ 10067400     libvcruntime:undname.obj
 0002:0000540c       ??_C@_05BEFAKPML@void?5?$AA@ 1006740c     libvcruntime:undname.obj
 0002:00005414       ??_C@_08PABEKFH@volatile?$AA@ 10067414     libvcruntime:undname.obj
 0002:00005420       ??_C@_0P@GCOCNKDM@std?3?3nullptr_t?$AA@ 10067420     libvcruntime:undname.obj
 0002:00005434       ??_C@_0L@EGPHHEKN@?$DMellipsis?$DO?$AA@ 10067434     libvcruntime:undname.obj
 0002:00005444       ??_C@_04EENFHACM@?0?4?4?4?$AA@ 10067444     libvcruntime:undname.obj
 0002:0000544c       ??_C@_0M@ELJOJFFH@?0?$DMellipsis?$DO?$AA@ 1006744c     libvcruntime:undname.obj
 0002:0000545c       ??_C@_07HDJPLPEK@?5throw?$CI?$AA@ 1006745c     libvcruntime:undname.obj
 0002:00005468       ??_C@_03PBJBJNON@cpu?$AA@  10067468     libvcruntime:undname.obj
 0002:0000546c       ??_C@_03DCBBJBAA@amp?$AA@  1006746c     libvcruntime:undname.obj
 0002:00005470       ??_C@_02KEGNLNML@?0?5?$AA@ 10067470     libvcruntime:undname.obj
 0002:00005474       ??_C@_04ENMBGAPA@char?$AA@ 10067474     libvcruntime:undname.obj
 0002:0000547c       ??_C@_05BFKKPKCG@short?$AA@ 1006747c     libvcruntime:undname.obj
 0002:00005484       ??_C@_03JBIPMCLC@int?$AA@  10067484     libvcruntime:undname.obj
 0002:00005488       ??_C@_04GOKPGOLB@long?$AA@ 10067488     libvcruntime:undname.obj
 0002:00005490       ??_C@_04DDKJGDCM@bool?$AA@ 10067490     libvcruntime:undname.obj
 0002:00005498       ??_C@_06EBGKOKIG@__int8?$AA@ 10067498     libvcruntime:undname.obj
 0002:000054a0       ??_C@_07ICFHOGAF@__int16?$AA@ 100674a0     libvcruntime:undname.obj
 0002:000054ac       ??_C@_07OFLPPHGP@__int32?$AA@ 100674ac     libvcruntime:undname.obj
 0002:000054b8       ??_C@_07LFCOJCAC@__int64?$AA@ 100674b8     libvcruntime:undname.obj
 0002:000054c4       ??_C@_08GAHOLHEO@__int128?$AA@ 100674c4     libvcruntime:undname.obj
 0002:000054d0       ??_C@_09EEKGDCPH@?$DMunknown?$DO?$AA@ 100674d0     libvcruntime:undname.obj
 0002:000054dc       ??_C@_08HBIPOFJB@char16_t?$AA@ 100674dc     libvcruntime:undname.obj
 0002:000054e8       ??_C@_08IECNCBKG@char32_t?$AA@ 100674e8     libvcruntime:undname.obj
 0002:000054f4       ??_C@_07CLGGIAMF@wchar_t?$AA@ 100674f4     libvcruntime:undname.obj
 0002:00005500       ??_C@_06GCICPBLB@__w64?5?$AA@ 10067500     libvcruntime:undname.obj
 0002:00005508       ??_C@_07NFANNNEC@UNKNOWN?$AA@ 10067508     libvcruntime:undname.obj
 0002:00005514       ??_C@_07EDHNAJHC@signed?5?$AA@ 10067514     libvcruntime:undname.obj
 0002:00005520       ??_C@_05BNCCCJPP@const?$AA@ 10067520     libvcruntime:undname.obj
 0002:00005528       ??_C@_09EFNPDFFP@?5volatile?$AA@ 10067528     libvcruntime:undname.obj
 0002:00005534       ??_C@_0P@GCIFDJCJ@?$GAunknown?5ecsu?8?$AA@ 10067534     libvcruntime:undname.obj
 0002:00005548       ??_C@_06MOJHIBMG@union?5?$AA@ 10067548     libvcruntime:undname.obj
 0002:00005550       ??_C@_07DIBCDNGL@struct?5?$AA@ 10067550     libvcruntime:undname.obj
 0002:0000555c       ??_C@_06LJBABKPM@class?5?$AA@ 1006755c     libvcruntime:undname.obj
 0002:00005564       ??_C@_08KOFANOFK@coclass?5?$AA@ 10067564     libvcruntime:undname.obj
 0002:00005570       ??_C@_0N@DLIEFKNA@cointerface?5?$AA@ 10067570     libvcruntime:undname.obj
 0002:00005580       ??_C@_05LJGMCFOG@enum?5?$AA@ 10067580     libvcruntime:undname.obj
 0002:00005588       ??_C@_09GAIEOBLP@volatile?5?$AA@ 10067588     libvcruntime:undname.obj
 0002:00005594       ??_C@_06LIJLOJAG@const?5?$AA@ 10067594     libvcruntime:undname.obj
 0002:0000559c       ??_C@_02KJPKDIBN@?$CG?5?$AA@ 1006759c     libvcruntime:undname.obj
 0002:000055a0       ??_C@_03PCKGMOPB@?$CG?$CG?5?$AA@ 100675a0     libvcruntime:undname.obj
 0002:000055a4       ??_C@_0M@EALIELKG@cli?3?3array?$DM?$AA@ 100675a4     libvcruntime:undname.obj
 0002:000055b4       ??_C@_0O@GKABPPIF@cli?3?3pin_ptr?$DM?$AA@ 100675b4     libvcruntime:undname.obj
 0002:000055c4       ??_C@_02GOGNNPBN@?$CJ?$FL?$AA@ 100675c4     libvcruntime:undname.obj
 0002:000055c8       ??_C@_06EEGAIFAK@?$HLflat?$HN?$AA@ 100675c8     libvcruntime:undname.obj
 0002:000055d0       ??_C@_05JIBOFOHK@?$HLfor?5?$AA@ 100675d0     libvcruntime:undname.obj
 0002:000055d8       ??_C@_02MDINNEEG@s?5?$AA@  100675d8     libvcruntime:undname.obj
 0002:000055e0       ??_7DNameNode@@6B@         100675e0     libvcruntime:undname.obj
 0002:000055f4       ??_7charNode@@6B@          100675f4     libvcruntime:undname.obj
 0002:00005608       ??_7pcharNode@@6B@         10067608     libvcruntime:undname.obj
 0002:0000561c       ??_7pDNameNode@@6B@        1006761c     libvcruntime:undname.obj
 0002:00005630       ??_7DNameStatusNode@@6B@   10067630     libvcruntime:undname.obj
 0002:00005644       ??_7pairNode@@6B@          10067644     libvcruntime:undname.obj
 0002:00005654       ??_C@_04OKOHEJBO@?5?$DP?$DP?5?$AA@ 10067654     libvcruntime:undname.obj
 0002:00005660       _standard_lookup_table     10067660     libucrt:output.obj
 0002:000056d0       _format_validation_lookup_table 100676d0     libucrt:output.obj
 0002:00005740       ??_C@_06OJHGLDPL@?$CInull?$CJ?$AA@ 10067740     libucrt:output.obj
 0002:00005748       ??_C@_1O@CEDCILHN@?$AA?$CI?$AAn?$AAu?$AAl?$AAl?$AA?$CJ?$AA?$AA@ 10067748     libucrt:output.obj
 0002:00005758       _RtlNtPathSeperatorString  10067758     libucrt:exit.obj
 0002:00005764       ??_C@_13FPGAJAPJ@?$AA?2?$AA?$AA@ 10067764     libucrt:exit.obj
 0002:00005768       _RtlDosPathSeperatorsString 10067768     libucrt:exit.obj
 0002:00005774       ??_C@_15MNCACJLI@?$AA?2?$AA?1?$AA?$AA@ 10067774     libucrt:exit.obj
 0002:0000577c       _RtlAlternateDosPathSeperatorString 1006777c     libucrt:exit.obj
 0002:00005788       ??_C@_13CGOKJPIL@?$AA?1?$AA?$AA@ 10067788     libucrt:exit.obj
 0002:0000578c       ??_C@_1BI@BGOHAHKC@?$AAm?$AAs?$AAc?$AAo?$AAr?$AAe?$AAe?$AA?4?$AAd?$AAl?$AAl?$AA?$AA@ 1006778c     libucrt:exit.obj
 0002:000057a8       ??_C@_0P@MIGLKIOC@CorExitProcess?$AA@ 100677a8     libucrt:exit.obj
 0002:000057c0       __OP_FMODjmptab            100677c0     libucrt:87fmod.obj
 0002:00005878       ??_C@_0CF@GOGNBNAK@Microsoft?5Visual?5C?$CL?$CL?5Runtime?5Lib@ 10067878     libucrt:assert.obj
 0002:000058a8       ??_C@_1EK@MBDPDCGA@?$AAM?$AAi?$AAc?$AAr?$AAo?$AAs?$AAo?$AAf?$AAt?$AA?5?$AAV?$AAi?$AAs?$AAu?$AAa?$AAl?$AA?5?$AAC?$AA?$CL?$AA?$CL?$AA?5?$AAR?$AAu?$AAn?$AAt?$AAi?$AAm?$AAe?$AA?5?$AAL?$AAi?$AAb@ 100678a8     libucrt:assert.obj
 0002:00005900       ??_C@_0CK@CFPGFGGO@Assertion?5failed?3?5?$CFTs?0?5file?5?$CFTs?0@ 10067900     libucrt:assert.obj
 0002:00005938       ??_C@_1FE@LHBLIKM@?$AAA?$AAs?$AAs?$AAe?$AAr?$AAt?$AAi?$AAo?$AAn?$AA?5?$AAf?$AAa?$AAi?$AAl?$AAe?$AAd?$AA?3?$AA?5?$AA?$CF?$AAT?$AAs?$AA?0?$AA?5?$AAf?$AAi?$AAl?$AAe?$AA?5?$AA?$CF?$AAT?$AAs?$AA?0@ 10067938     libucrt:assert.obj
 0002:0000599c       ??_C@_0BC@LAIDCHCH@Assertion?5failed?$CB?$AA@ 1006799c     libucrt:assert.obj
 0002:000059b4       ??_C@_1CE@OJBNHDMO@?$AAA?$AAs?$AAs?$AAe?$AAr?$AAt?$AAi?$AAo?$AAn?$AA?5?$AAf?$AAa?$AAi?$AAl?$AAe?$AAd?$AA?$CB?$AA?$AA@ 100679b4     libucrt:assert.obj
 0002:000059e0       ??_C@_09KLGCKDOD@Program?3?5?$AA@ 100679e0     libucrt:assert.obj
 0002:000059ec       ??_C@_1BE@PHKBBGE@?$AAP?$AAr?$AAo?$AAg?$AAr?$AAa?$AAm?$AA?3?$AA?5?$AA?$AA@ 100679ec     libucrt:assert.obj
 0002:00005a04       ??_C@_06IGPBOHMJ@File?3?5?$AA@ 10067a04     libucrt:assert.obj
 0002:00005a0c       ??_C@_1O@HEMHKNDC@?$AAF?$AAi?$AAl?$AAe?$AA?3?$AA?5?$AA?$AA@ 10067a0c     libucrt:assert.obj
 0002:00005a1c       ??_C@_06FIEBOLOH@Line?3?5?$AA@ 10067a1c     libucrt:assert.obj
 0002:00005a24       ??_C@_1O@KCAFKHJE@?$AAL?$AAi?$AAn?$AAe?$AA?3?$AA?5?$AA?$AA@ 10067a24     libucrt:assert.obj
 0002:00005a34       ??_C@_0N@MEECIJGN@Expression?3?5?$AA@ 10067a34     libucrt:assert.obj
 0002:00005a44       ??_C@_1BK@PEDCIPMA@?$AAE?$AAx?$AAp?$AAr?$AAe?$AAs?$AAs?$AAi?$AAo?$AAn?$AA?3?$AA?5?$AA?$AA@ 10067a44     libucrt:assert.obj
 0002:00005a68       ??_C@_0HA@OJHAGA@For?5information?5on?5how?5your?5prog@ 10067a68     libucrt:assert.obj
 0002:00005af0       ??_C@_1OA@EGMLFBHJ@?$AAF?$AAo?$AAr?$AA?5?$AAi?$AAn?$AAf?$AAo?$AAr?$AAm?$AAa?$AAt?$AAi?$AAo?$AAn?$AA?5?$AAo?$AAn?$AA?5?$AAh?$AAo?$AAw?$AA?5?$AAy?$AAo?$AAu?$AAr?$AA?5?$AAp?$AAr?$AAo?$AAg@ 10067af0     libucrt:assert.obj
 0002:00005bfc       ??_C@_0DN@EBBNMLME@?$CIPress?5Retry?5to?5debug?5the?5applic@ 10067bfc     libucrt:assert.obj
 0002:00005c48       ??_C@_1HK@POCJMFGK@?$AA?$CI?$AAP?$AAr?$AAe?$AAs?$AAs?$AA?5?$AAR?$AAe?$AAt?$AAr?$AAy?$AA?5?$AAt?$AAo?$AA?5?$AAd?$AAe?$AAb?$AAu?$AAg?$AA?5?$AAt?$AAh?$AAe?$AA?5?$AAa?$AAp?$AAp?$AAl?$AAi?$AAc@ 10067c48     libucrt:assert.obj
 0002:00005cdc       ??_C@_17LGKOMLJ@?$AA?4?$AA?4?$AA?4?$AA?$AA@ 10067cdc     libucrt:assert.obj
 0002:00005ce8       ??_C@_01EEMJAFIK@?6?$AA@   10067ce8     libucrt:assert.obj
 0002:00005cec       ??_C@_13LBAGMAIH@?$AA?6?$AA?$AA@ 10067cec     libucrt:assert.obj
 0002:00005cf0       ??_C@_02PHMGELLB@?6?6?$AA@ 10067cf0     libucrt:assert.obj
 0002:00005cf4       ??_C@_15IABLJNFO@?$AA?6?$AA?6?$AA?$AA@ 10067cf4     libucrt:assert.obj
 0002:00005cfc       ??_C@_0BH@DNAGHKFM@?$DMprogram?5name?5unknown?$DO?$AA@ 10067cfc     libucrt:assert.obj
 0002:00005d18       ??_C@_1CO@EAEJAADC@?$AA?$DM?$AAp?$AAr?$AAo?$AAg?$AAr?$AAa?$AAm?$AA?5?$AAn?$AAa?$AAm?$AAe?$AA?5?$AAu?$AAn?$AAk?$AAn?$AAo?$AAw?$AAn?$AA?$DO?$AA?$AA@ 10067d18     libucrt:assert.obj
 0002:00005d50       ??_C@_04FJHINJAO@tanh?$AA@ 10067d50     libucrt:fpexcept.obj
 0002:00005d58       ??_C@_04FIHNOPOL@asin?$AA@ 10067d58     libucrt:fpexcept.obj
 0002:00005d60       ??_C@_04PDIFKINK@acos?$AA@ 10067d60     libucrt:fpexcept.obj
 0002:00005d68       ??_C@_04MLLJIGOK@atan?$AA@ 10067d68     libucrt:fpexcept.obj
 0002:00005d70       ??_C@_05KNGEOGJB@atan2?$AA@ 10067d70     libucrt:fpexcept.obj
 0002:00005d78       ??_C@_04EIAKFFMI@sqrt?$AA@ 10067d78     libucrt:fpexcept.obj
 0002:00005d80       ??_C@_03BLEJJJBH@sin?$AA@  10067d80     libucrt:fpexcept.obj
 0002:00005d84       ??_C@_03LALBNOCG@cos?$AA@  10067d84     libucrt:fpexcept.obj
 0002:00005d88       ??_C@_03IIINPABG@tan?$AA@  10067d88     libucrt:fpexcept.obj
 0002:00005d8c       ??_C@_04GFPJNGEK@ceil?$AA@ 10067d8c     libucrt:fpexcept.obj
 0002:00005d94       ??_C@_05PBJFFIGL@floor?$AA@ 10067d94     libucrt:fpexcept.obj
 0002:00005d9c       ??_C@_04ODHECPBC@fabs?$AA@ 10067d9c     libucrt:fpexcept.obj
 0002:00005da4       ??_C@_04EHEDPDJG@modf?$AA@ 10067da4     libucrt:fpexcept.obj
 0002:00005dac       ??_C@_05CEJMAHNP@ldexp?$AA@ 10067dac     libucrt:fpexcept.obj
 0002:00005db4       ??_C@_05KBKMEMPO@_cabs?$AA@ 10067db4     libucrt:fpexcept.obj
 0002:00005dbc       ??_C@_06MEIMCGCF@_hypot?$AA@ 10067dbc     libucrt:fpexcept.obj
 0002:00005dc4       ??_C@_04KEPJIHGP@fmod?$AA@ 10067dc4     libucrt:fpexcept.obj
 0002:00005dcc       ??_C@_05GKKHEGJL@frexp?$AA@ 10067dcc     libucrt:fpexcept.obj
 0002:00005dd4       ??_C@_03MJLDFKDL@_y0?$AA@  10067dd4     libucrt:fpexcept.obj
 0002:00005dd8       ??_C@_03NAKIGLHK@_y1?$AA@  10067dd8     libucrt:fpexcept.obj
 0002:00005ddc       ??_C@_03ONILCKOB@_yn?$AA@  10067ddc     libucrt:fpexcept.obj
 0002:00005de0       ??_C@_05JGDBENOH@_logb?$AA@ 10067de0     libucrt:fpexcept.obj
 0002:00005de8       ??_C@_0L@KDOEJCKC@_nextafter?$AA@ 10067de8     libucrt:fpexcept.obj
 0002:00005f10       ??_C@_03KHJOGHMM@exp?$AA@  10067f10     libucrt:fpexcept.obj
 0002:00005f14       ??_C@_03JGHBODFD@pow?$AA@  10067f14     libucrt:fpexcept.obj
 0002:00005f18       ??_C@_03MGHMBJCF@log?$AA@  10067f18     libucrt:fpexcept.obj
 0002:00005f1c       ??_C@_05HGHHAHAP@log10?$AA@ 10067f1c     libucrt:fpexcept.obj
 0002:00005f24       ??_C@_04COOMCNPB@sinh?$AA@ 10067f24     libucrt:fpexcept.obj
 0002:00005f2c       ??_C@_04HPJJNFIM@cosh?$AA@ 10067f2c     libucrt:fpexcept.obj
 0002:00005f38       ___acrt_exception_action_table 10067f38     libucrt:exception_filter.obj
 0002:00005fe4       ___acrt_signal_action_table_count 10067fe4     libucrt:exception_filter.obj
 0002:00005fe8       ___acrt_signal_action_table_size 10067fe8     libucrt:exception_filter.obj
 0002:00005fec       ___acrt_signal_action_first_fpe_index 10067fec     libucrt:exception_filter.obj
 0002:00005ff0       ___acrt_signal_action_fpe_count 10067ff0     libucrt:exception_filter.obj
 0002:00006088       ??_C@_1BG@HHIFPOEK@?$AAm?$AAs?$AAv?$AAc?$AAr?$AAt?$AA?4?$AAd?$AAl?$AAl?$AA?$AA@ 10068088     libucrt:free_base.obj
 0002:000060a4       __Fenv0                    100680a4     libucrt:atox.obj
 0002:000062c0       ??_C@_1EG@CNNIPFIM@?$AAa?$AAp?$AAi?$AA?9?$AAm?$AAs?$AA?9?$AAw?$AAi?$AAn?$AA?9?$AAa?$AAp?$AAp?$AAm?$AAo?$AAd?$AAe?$AAl?$AA?9?$AAr?$AAu?$AAn?$AAt?$AAi?$AAm?$AAe?$AA?9?$AAl?$AA1?$AA?9?$AA1@ 100682c0     libucrt:winapi_thunks.obj
 0002:00006318       ??_C@_1EA@JGEFHKEI@?$AAa?$AAp?$AAi?$AA?9?$AAm?$AAs?$AA?9?$AAw?$AAi?$AAn?$AA?9?$AAc?$AAo?$AAr?$AAe?$AA?9?$AAd?$AAa?$AAt?$AAe?$AAt?$AAi?$AAm?$AAe?$AA?9?$AAl?$AA1?$AA?9?$AA1?$AA?9?$AA1?$AA?$AA@ 10068318     libucrt:winapi_thunks.obj
 0002:00006364       ??_C@_1DI@GCIAAENM@?$AAa?$AAp?$AAi?$AA?9?$AAm?$AAs?$AA?9?$AAw?$AAi?$AAn?$AA?9?$AAc?$AAo?$AAr?$AAe?$AA?9?$AAf?$AAi?$AAl?$AAe?$AA?9?$AAl?$AA2?$AA?9?$AA1?$AA?9?$AA1?$AA?$AA@ 10068364     libucrt:winapi_thunks.obj
 0002:000063a8       ??_C@_1EI@MPIAOHOC@?$AAa?$AAp?$AAi?$AA?9?$AAm?$AAs?$AA?9?$AAw?$AAi?$AAn?$AA?9?$AAc?$AAo?$AAr?$AAe?$AA?9?$AAl?$AAo?$AAc?$AAa?$AAl?$AAi?$AAz?$AAa?$AAt?$AAi?$AAo?$AAn?$AA?9?$AAl?$AA1?$AA?9@ 100683a8     libucrt:winapi_thunks.obj
 0002:00006400       ??_C@_1FK@FPHCKFIE@?$AAa?$AAp?$AAi?$AA?9?$AAm?$AAs?$AA?9?$AAw?$AAi?$AAn?$AA?9?$AAc?$AAo?$AAr?$AAe?$AA?9?$AAl?$AAo?$AAc?$AAa?$AAl?$AAi?$AAz?$AAa?$AAt?$AAi?$AAo?$AAn?$AA?9?$AAo?$AAb?$AAs@ 10068400     libucrt:winapi_thunks.obj
 0002:00006470       ??_C@_1EM@DILCGIIO@?$AAa?$AAp?$AAi?$AA?9?$AAm?$AAs?$AA?9?$AAw?$AAi?$AAn?$AA?9?$AAc?$AAo?$AAr?$AAe?$AA?9?$AAp?$AAr?$AAo?$AAc?$AAe?$AAs?$AAs?$AAt?$AAh?$AAr?$AAe?$AAa?$AAd?$AAs?$AA?9?$AAl@ 10068470     libucrt:winapi_thunks.obj
 0002:000064cc       ??_C@_1DM@LNCGDDPN@?$AAa?$AAp?$AAi?$AA?9?$AAm?$AAs?$AA?9?$AAw?$AAi?$AAn?$AA?9?$AAc?$AAo?$AAr?$AAe?$AA?9?$AAs?$AAt?$AAr?$AAi?$AAn?$AAg?$AA?9?$AAl?$AA1?$AA?9?$AA1?$AA?9?$AA0?$AA?$AA@ 100684cc     libucrt:winapi_thunks.obj
 0002:00006514       ??_C@_1DO@FPAPJEMD@?$AAa?$AAp?$AAi?$AA?9?$AAm?$AAs?$AA?9?$AAw?$AAi?$AAn?$AA?9?$AAc?$AAo?$AAr?$AAe?$AA?9?$AAs?$AAy?$AAs?$AAi?$AAn?$AAf?$AAo?$AA?9?$AAl?$AA1?$AA?9?$AA2?$AA?9?$AA1?$AA?$AA@ 10068514     libucrt:winapi_thunks.obj
 0002:00006560       ??_C@_1DK@NDHNAHIO@?$AAa?$AAp?$AAi?$AA?9?$AAm?$AAs?$AA?9?$AAw?$AAi?$AAn?$AA?9?$AAc?$AAo?$AAr?$AAe?$AA?9?$AAw?$AAi?$AAn?$AAr?$AAt?$AA?9?$AAl?$AA1?$AA?9?$AA1?$AA?9?$AA0?$AA?$AA@ 10068560     libucrt:winapi_thunks.obj
 0002:000065a8       ??_C@_1DM@KGHDGBCM@?$AAa?$AAp?$AAi?$AA?9?$AAm?$AAs?$AA?9?$AAw?$AAi?$AAn?$AA?9?$AAc?$AAo?$AAr?$AAe?$AA?9?$AAx?$AAs?$AAt?$AAa?$AAt?$AAe?$AA?9?$AAl?$AA2?$AA?9?$AA1?$AA?9?$AA0?$AA?$AA@ 100685a8     libucrt:winapi_thunks.obj
 0002:000065f0       ??_C@_1EO@IJIOEFOH@?$AAa?$AAp?$AAi?$AA?9?$AAm?$AAs?$AA?9?$AAw?$AAi?$AAn?$AA?9?$AAr?$AAt?$AAc?$AAo?$AAr?$AAe?$AA?9?$AAn?$AAt?$AAu?$AAs?$AAe?$AAr?$AA?9?$AAw?$AAi?$AAn?$AAd?$AAo?$AAw?$AA?9@ 100685f0     libucrt:winapi_thunks.obj
 0002:00006650       ??_C@_1FG@HHGEKANL@?$AAa?$AAp?$AAi?$AA?9?$AAm?$AAs?$AA?9?$AAw?$AAi?$AAn?$AA?9?$AAs?$AAe?$AAc?$AAu?$AAr?$AAi?$AAt?$AAy?$AA?9?$AAs?$AAy?$AAs?$AAt?$AAe?$AAm?$AAf?$AAu?$AAn?$AAc?$AAt?$AAi@ 10068650     libucrt:winapi_thunks.obj
 0002:000066b8       ??_C@_1FG@NCKKOLKO@?$AAe?$AAx?$AAt?$AA?9?$AAm?$AAs?$AA?9?$AAw?$AAi?$AAn?$AA?9?$AAk?$AAe?$AAr?$AAn?$AAe?$AAl?$AA3?$AA2?$AA?9?$AAp?$AAa?$AAc?$AAk?$AAa?$AAg?$AAe?$AA?9?$AAc?$AAu?$AAr?$AAr@ 100686b8     libucrt:winapi_thunks.obj
 0002:00006720       ??_C@_1EG@DBIOJECG@?$AAe?$AAx?$AAt?$AA?9?$AAm?$AAs?$AA?9?$AAw?$AAi?$AAn?$AA?9?$AAn?$AAt?$AAu?$AAs?$AAe?$AAr?$AA?9?$AAd?$AAi?$AAa?$AAl?$AAo?$AAg?$AAb?$AAo?$AAx?$AA?9?$AAl?$AA1?$AA?9?$AA1@ 10068720     libucrt:winapi_thunks.obj
 0002:00006778       ??_C@_1EO@FIHMJCLF@?$AAe?$AAx?$AAt?$AA?9?$AAm?$AAs?$AA?9?$AAw?$AAi?$AAn?$AA?9?$AAn?$AAt?$AAu?$AAs?$AAe?$AAr?$AA?9?$AAw?$AAi?$AAn?$AAd?$AAo?$AAw?$AAs?$AAt?$AAa?$AAt?$AAi?$AAo?$AAn?$AA?9@ 10068778     libucrt:winapi_thunks.obj
 0002:000067d8       ??_C@_1O@BCCLBEOE@?$AAu?$AAs?$AAe?$AAr?$AA3?$AA2?$AA?$AA@ 100687d8     libucrt:winapi_thunks.obj
 0002:000067ec       ??_C@_0BA@FHFNEAED@AreFileApisANSI?$AA@ 100687ec     libucrt:winapi_thunks.obj
 0002:0000680c       ??_C@_0BA@IHGNDAEB@CompareStringEx?$AA@ 1006880c     libucrt:winapi_thunks.obj
 0002:0000682c       ??_C@_0BE@LJANKFHF@EnumSystemLocalesEx?$AA@ 1006882c     libucrt:winapi_thunks.obj
 0002:00006880       ??_C@_0BA@HNOPNCHB@GetActiveWindow?$AA@ 10068880     libucrt:winapi_thunks.obj
 0002:000068a0       ??_C@_0BE@JOGNEJCI@GetCurrentPackageId?$AA@ 100688a0     libucrt:winapi_thunks.obj
 0002:000068c4       ??_C@_0BA@EPCJIIPD@GetDateFormatEx?$AA@ 100688c4     libucrt:winapi_thunks.obj
 0002:000068e4       ??_C@_0BJ@DIBIJBHA@GetEnabledXStateFeatures?$AA@ 100688e4     libucrt:winapi_thunks.obj
 0002:00006910       ??_C@_0BN@NEEHBBPO@GetFileInformationByHandleEx?$AA@ 10068910     libucrt:winapi_thunks.obj
 0002:00006940       ??_C@_0BD@HHGDFDBJ@GetLastActivePopup?$AA@ 10068940     libucrt:winapi_thunks.obj
 0002:00006964       ??_C@_0BA@ONOKGCMP@GetLocaleInfoEx?$AA@ 10068964     libucrt:winapi_thunks.obj
 0002:00006984       ??_C@_0BI@DFKBFLJE@GetProcessWindowStation?$AA@ 10068984     libucrt:winapi_thunks.obj
 0002:000069a4       ??_C@_0BP@FPNJPEJC@GetSystemTimePreciseAsFileTime?$AA@ 100689a4     libucrt:winapi_thunks.obj
 0002:000069d8       ??_C@_0BA@CIJJKCJJ@GetTimeFormatEx?$AA@ 100689d8     libucrt:winapi_thunks.obj
 0002:000069f8       ??_C@_0BJ@PBCCBIPI@GetUserDefaultLocaleName?$AA@ 100689f8     libucrt:winapi_thunks.obj
 0002:00006a24       ??_C@_0BK@DEKFELLI@GetUserObjectInformationW?$AA@ 10068a24     libucrt:winapi_thunks.obj
 0002:00006a50       ??_C@_0BG@IKLDMBLM@GetXStateFeaturesMask?$AA@ 10068a50     libucrt:winapi_thunks.obj
 0002:00006a84       ??_C@_0BC@CELBKLLA@IsValidLocaleName?$AA@ 10068a84     libucrt:winapi_thunks.obj
 0002:00006aa8       ??_C@_0O@KKBNKAPF@LCMapStringEx?$AA@ 10068aa8     libucrt:winapi_thunks.obj
 0002:00006ac4       ??_C@_0BB@CDHDDLLP@LCIDToLocaleName?$AA@ 10068ac4     libucrt:winapi_thunks.obj
 0002:00006ae4       ??_C@_0BB@HBDEELFH@LocaleNameToLCID?$AA@ 10068ae4     libucrt:winapi_thunks.obj
 0002:00006b04       ??_C@_0BE@KINNKFDA@LocateXStateFeature?$AA@ 10068b04     libucrt:winapi_thunks.obj
 0002:00006b28       ??_C@_0M@CHKKJDAI@MessageBoxA?$AA@ 10068b28     libucrt:winapi_thunks.obj
 0002:00006b44       ??_C@_0M@DLDCCGNP@MessageBoxW?$AA@ 10068b44     libucrt:winapi_thunks.obj
 0002:00006b58       ??_C@_0N@PPOMPGGK@RoInitialize?$AA@ 10068b58     libucrt:winapi_thunks.obj
 0002:00006b6c       ??_C@_0P@LLFHBIJD@RoUninitialize?$AA@ 10068b6c     libucrt:winapi_thunks.obj
 0002:00006b8c       ??_C@_0BI@BKLFFAPO@SetThreadStackGuarantee?$AA@ 10068b8c     libucrt:winapi_thunks.obj
 0002:00006bb4       ??_C@_0BC@JEAENNKH@SystemFunction036?$AA@ 10068bb4     libucrt:winapi_thunks.obj
 0002:00006bcc       ??_C@_03OEIAHPBN@INF?$AA@  10068bcc     libucrt:cvt.obj
 0002:00006bd0       ??_C@_03OJHLLCGB@inf?$AA@  10068bd0     libucrt:cvt.obj
 0002:00006bd4       ??_C@_03LKNCIKJB@NAN?$AA@  10068bd4     libucrt:cvt.obj
 0002:00006bd8       ??_C@_03LHCJEHON@nan?$AA@  10068bd8     libucrt:cvt.obj
 0002:00006bdc       ??_C@_09OFJJIMPC@NAN?$CISNAN?$CJ?$AA@ 10068bdc     libucrt:cvt.obj
 0002:00006be8       ??_C@_09IPFBKMDL@nan?$CIsnan?$CJ?$AA@ 10068be8     libucrt:cvt.obj
 0002:00006bf4       ??_C@_08IKHNHAJ@NAN?$CIIND?$CJ?$AA@ 10068bf4     libucrt:cvt.obj
 0002:00006c00       ??_C@_08OFCDMILK@nan?$CIind?$CJ?$AA@ 10068c00     libucrt:cvt.obj
 0002:00006c0c       ??_C@_05KLBDPFGC@e?$CL000?$AA@ 10068c0c     libucrt:cvt.obj
 0002:00006c18       ___lc_category             10068c18     libucrt:wsetlocale.obj
 0002:00006c70       ??_C@_1O@GIFLHMA@?$AAL?$AAC?$AA_?$AAA?$AAL?$AAL?$AA?$AA@ 10068c70     libucrt:wsetlocale.obj
 0002:00006c80       ??_C@_1BG@PPOMIBNJ@?$AAL?$AAC?$AA_?$AAC?$AAO?$AAL?$AAL?$AAA?$AAT?$AAE?$AA?$AA@ 10068c80     libucrt:wsetlocale.obj
 0002:00006c9c       ??_C@_1BC@FFJGAPJM@?$AAL?$AAC?$AA_?$AAC?$AAT?$AAY?$AAP?$AAE?$AA?$AA@ 10068c9c     libucrt:wsetlocale.obj
 0002:00006cb4       ??_C@_1BI@PCKFNJFB@?$AAL?$AAC?$AA_?$AAM?$AAO?$AAN?$AAE?$AAT?$AAA?$AAR?$AAY?$AA?$AA@ 10068cb4     libucrt:wsetlocale.obj
 0002:00006cd0       ??_C@_1BG@ENIEDKID@?$AAL?$AAC?$AA_?$AAN?$AAU?$AAM?$AAE?$AAR?$AAI?$AAC?$AA?$AA@ 10068cd0     libucrt:wsetlocale.obj
 0002:00006cec       ??_C@_1BA@HAAOMIIG@?$AAL?$AAC?$AA_?$AAT?$AAI?$AAM?$AAE?$AA?$AA@ 10068cec     libucrt:wsetlocale.obj
 0002:00006d98       ??_C@_15NBPDDFIP@?$AA?$DN?$AA?$DL?$AA?$AA@ 10068d98     libucrt:wsetlocale.obj
 0002:00006da0       ??_C@_13PJJBFPED@?$AA?$DL?$AA?$AA@ 10068da0     libucrt:wsetlocale.obj
 0002:00006da4       ??_C@_13NMPKAAJP@?$AA?$DN?$AA?$AA@ 10068da4     libucrt:wsetlocale.obj
 0002:00006da8       ??_C@_13FHBKNHDA@?$AAC?$AA?$AA@ 10068da8     libucrt:wsetlocale.obj
 0002:00006dac       ??_C@_17MBJJLFDM@?$AA_?$AA?4?$AA?0?$AA?$AA@ 10068dac     libucrt:wsetlocale.obj
 0002:00006db8       ??_C@_13ENNFDPBH@?$AA_?$AA?$AA@ 10068db8     libucrt:wsetlocale.obj
 0002:00006dbc       ??_C@_13JOFGPIOO@?$AA?4?$AA?$AA@ 10068dbc     libucrt:wsetlocale.obj
 0002:00006dc0       ??_C@_03KOEHGMDN@Sun?$AA@  10068dc0     libucrt:nlsdata.obj
 0002:00006dc4       ??_C@_03PDAGKDH@Mon?$AA@   10068dc4     libucrt:nlsdata.obj
 0002:00006dc8       ??_C@_03NAGEINEP@Tue?$AA@  10068dc8     libucrt:nlsdata.obj
 0002:00006dcc       ??_C@_03MHOMLAJA@Wed?$AA@  10068dcc     libucrt:nlsdata.obj
 0002:00006dd0       ??_C@_03IOFIKPDN@Thu?$AA@  10068dd0     libucrt:nlsdata.obj
 0002:00006dd4       ??_C@_03IDIOELNC@Fri?$AA@  10068dd4     libucrt:nlsdata.obj
 0002:00006dd8       ??_C@_03FEFJNEK@Sat?$AA@   10068dd8     libucrt:nlsdata.obj
 0002:00006ddc       ??_C@_06OOPIFAJ@Sunday?$AA@ 10068ddc     libucrt:nlsdata.obj
 0002:00006de4       ??_C@_06JLEDEDGH@Monday?$AA@ 10068de4     libucrt:nlsdata.obj
 0002:00006dec       ??_C@_07BAAGCFCM@Tuesday?$AA@ 10068dec     libucrt:nlsdata.obj
 0002:00006df8       ??_C@_09DLIGFAKA@Wednesday?$AA@ 10068df8     libucrt:nlsdata.obj
 0002:00006e04       ??_C@_08HACCIKIA@Thursday?$AA@ 10068e04     libucrt:nlsdata.obj
 0002:00006e10       ??_C@_06JECMNKMI@Friday?$AA@ 10068e10     libucrt:nlsdata.obj
 0002:00006e18       ??_C@_08INBOOONO@Saturday?$AA@ 10068e18     libucrt:nlsdata.obj
 0002:00006e24       ??_C@_03JIHJHPIE@Jan?$AA@  10068e24     libucrt:nlsdata.obj
 0002:00006e28       ??_C@_03HJBDCHOM@Feb?$AA@  10068e28     libucrt:nlsdata.obj
 0002:00006e2c       ??_C@_03ODNJBKGA@Mar?$AA@  10068e2c     libucrt:nlsdata.obj
 0002:00006e30       ??_C@_03LEOLGMJP@Apr?$AA@  10068e30     libucrt:nlsdata.obj
 0002:00006e34       ??_C@_03CNMDKL@May?$AA@    10068e34     libucrt:nlsdata.obj
 0002:00006e38       ??_C@_03IDFGHECI@Jun?$AA@  10068e38     libucrt:nlsdata.obj
 0002:00006e3c       ??_C@_03LBGABGKK@Jul?$AA@  10068e3c     libucrt:nlsdata.obj
 0002:00006e40       ??_C@_03IFJFEIGA@Aug?$AA@  10068e40     libucrt:nlsdata.obj
 0002:00006e44       ??_C@_03GGCAPAJC@Sep?$AA@  10068e44     libucrt:nlsdata.obj
 0002:00006e48       ??_C@_03BMAOKBAD@Oct?$AA@  10068e48     libucrt:nlsdata.obj
 0002:00006e4c       ??_C@_03JPJOFNIA@Nov?$AA@  10068e4c     libucrt:nlsdata.obj
 0002:00006e50       ??_C@_03MKABNOCG@Dec?$AA@  10068e50     libucrt:nlsdata.obj
 0002:00006e54       ??_C@_07CGJPFGJA@January?$AA@ 10068e54     libucrt:nlsdata.obj
 0002:00006e60       ??_C@_08GNJGEPFN@February?$AA@ 10068e60     libucrt:nlsdata.obj
 0002:00006e6c       ??_C@_05HPCKOFNC@March?$AA@ 10068e6c     libucrt:nlsdata.obj
 0002:00006e74       ??_C@_05DMJDNLEJ@April?$AA@ 10068e74     libucrt:nlsdata.obj
 0002:00006e7c       ??_C@_04CNLMGBGM@June?$AA@ 10068e7c     libucrt:nlsdata.obj
 0002:00006e84       ??_C@_04MIEPOIFP@July?$AA@ 10068e84     libucrt:nlsdata.obj
 0002:00006e8c       ??_C@_06LBBHFDDG@August?$AA@ 10068e8c     libucrt:nlsdata.obj
 0002:00006e94       ??_C@_09BHHEALKD@September?$AA@ 10068e94     libucrt:nlsdata.obj
 0002:00006ea0       ??_C@_07JJNFCEND@October?$AA@ 10068ea0     libucrt:nlsdata.obj
 0002:00006eac       ??_C@_08HCHEGEOA@November?$AA@ 10068eac     libucrt:nlsdata.obj
 0002:00006eb8       ??_C@_08EDHMEBNP@December?$AA@ 10068eb8     libucrt:nlsdata.obj
 0002:00006ec4       ??_C@_02DEDBPAFC@AM?$AA@   10068ec4     libucrt:nlsdata.obj
 0002:00006ec8       ??_C@_02CJNFDJBF@PM?$AA@   10068ec8     libucrt:nlsdata.obj
 0002:00006ecc       ??_C@_08BPBNCDIB@MM?1dd?1yy?$AA@ 10068ecc     libucrt:nlsdata.obj
 0002:00006ed8       ??_C@_0BE@CKGJFCPC@dddd?0?5MMMM?5dd?0?5yyyy?$AA@ 10068ed8     libucrt:nlsdata.obj
 0002:00006ef0       ??_C@_08JCCMCCIL@HH?3mm?3ss?$AA@ 10068ef0     libucrt:nlsdata.obj
 0002:00006efc       ??_C@_17MBGCMIPB@?$AAS?$AAu?$AAn?$AA?$AA@ 10068efc     libucrt:nlsdata.obj
 0002:00006f08       ??_C@_17KBOMKBF@?$AAM?$AAo?$AAn?$AA?$AA@ 10068f08     libucrt:nlsdata.obj
 0002:00006f14       ??_C@_17BMKGEGOJ@?$AAT?$AAu?$AAe?$AA?$AA@ 10068f14     libucrt:nlsdata.obj
 0002:00006f20       ??_C@_17CJEDCEPE@?$AAW?$AAe?$AAd?$AA?$AA@ 10068f20     libucrt:nlsdata.obj
 0002:00006f2c       ??_C@_17PDPHAADD@?$AAT?$AAh?$AAu?$AA?$AA@ 10068f2c     libucrt:nlsdata.obj
 0002:00006f38       ??_C@_17HFOLPPLP@?$AAF?$AAr?$AAi?$AA?$AA@ 10068f38     libucrt:nlsdata.obj
 0002:00006f44       ??_C@_17GGIBDPIH@?$AAS?$AAa?$AAt?$AA?$AA@ 10068f44     libucrt:nlsdata.obj
 0002:00006f50       ??_C@_1O@IHNHDHPB@?$AAS?$AAu?$AAn?$AAd?$AAa?$AAy?$AA?$AA@ 10068f50     libucrt:nlsdata.obj
 0002:00006f60       ??_C@_1O@MMNBFLIA@?$AAM?$AAo?$AAn?$AAd?$AAa?$AAy?$AA?$AA@ 10068f60     libucrt:nlsdata.obj
 0002:00006f70       ??_C@_1BA@ENFBFFEK@?$AAT?$AAu?$AAe?$AAs?$AAd?$AAa?$AAy?$AA?$AA@ 10068f70     libucrt:nlsdata.obj
 0002:00006f84       ??_C@_1BE@EBOGMDOH@?$AAW?$AAe?$AAd?$AAn?$AAe?$AAs?$AAd?$AAa?$AAy?$AA?$AA@ 10068f84     libucrt:nlsdata.obj
 0002:00006f9c       ??_C@_1BC@HHMNLIHE@?$AAT?$AAh?$AAu?$AAr?$AAs?$AAd?$AAa?$AAy?$AA?$AA@ 10068f9c     libucrt:nlsdata.obj
 0002:00006fb4       ??_C@_1O@PDICJHAG@?$AAF?$AAr?$AAi?$AAd?$AAa?$AAy?$AA?$AA@ 10068fb4     libucrt:nlsdata.obj
 0002:00006fc4       ??_C@_1BC@ENMNNPAJ@?$AAS?$AAa?$AAt?$AAu?$AAr?$AAd?$AAa?$AAy?$AA?$AA@ 10068fc4     libucrt:nlsdata.obj
 0002:00006fdc       ??_C@_17DKNBKCHM@?$AAJ?$AAa?$AAn?$AA?$AA@ 10068fdc     libucrt:nlsdata.obj
 0002:00006fe8       ??_C@_17LMDJEKJN@?$AAF?$AAe?$AAb?$AA?$AA@ 10068fe8     libucrt:nlsdata.obj
 0002:00006ff4       ??_C@_17CKNLEDEC@?$AAM?$AAa?$AAr?$AA?$AA@ 10068ff4     libucrt:nlsdata.obj
 0002:00007000       ??_C@_17LFPOIHDD@?$AAA?$AAp?$AAr?$AA?$AA@ 10069000     libucrt:nlsdata.obj
 0002:0000700c       ??_C@_17PNNKMEED@?$AAM?$AAa?$AAy?$AA?$AA@ 1006900c     libucrt:nlsdata.obj
 0002:00007018       ??_C@_17KCJGOCPB@?$AAJ?$AAu?$AAn?$AA?$AA@ 10069018     libucrt:nlsdata.obj
 0002:00007024       ??_C@_17IJPCKHK@?$AAJ?$AAu?$AAl?$AA?$AA@ 10069024     libucrt:nlsdata.obj
 0002:00007030       ??_C@_17ICPELBCN@?$AAA?$AAu?$AAg?$AA?$AA@ 10069030     libucrt:nlsdata.obj
 0002:0000703c       ??_C@_17HCHCOKMG@?$AAS?$AAe?$AAp?$AA?$AA@ 1006903c     libucrt:nlsdata.obj
 0002:00007048       ??_C@_17FNLKOI@?$AAO?$AAc?$AAt?$AA?$AA@ 10069048     libucrt:nlsdata.obj
 0002:00007054       ??_C@_17BBDMLCIG@?$AAN?$AAo?$AAv?$AA?$AA@ 10069054     libucrt:nlsdata.obj
 0002:00007060       ??_C@_17EGKACKIF@?$AAD?$AAe?$AAc?$AA?$AA@ 10069060     libucrt:nlsdata.obj
 0002:0000706c       ??_C@_1BA@EFMEIEBA@?$AAJ?$AAa?$AAn?$AAu?$AAa?$AAr?$AAy?$AA?$AA@ 1006906c     libucrt:nlsdata.obj
 0002:00007080       ??_C@_1BC@JGDDFFAM@?$AAF?$AAe?$AAb?$AAr?$AAu?$AAa?$AAr?$AAy?$AA?$AA@ 10069080     libucrt:nlsdata.obj
 0002:00007098       ??_C@_1M@IKEENEDF@?$AAM?$AAa?$AAr?$AAc?$AAh?$AA?$AA@ 10069098     libucrt:nlsdata.obj
 0002:000070a8       ??_C@_1M@GJNLMHFD@?$AAA?$AAp?$AAr?$AAi?$AAl?$AA?$AA@ 100690a8     libucrt:nlsdata.obj
 0002:000070b8       ??_C@_19EPFLPGAP@?$AAJ?$AAu?$AAn?$AAe?$AA?$AA@ 100690b8     libucrt:nlsdata.obj
 0002:000070c4       ??_C@_19BIFMLPCD@?$AAJ?$AAu?$AAl?$AAy?$AA?$AA@ 100690c4     libucrt:nlsdata.obj
 0002:000070d0       ??_C@_1O@PAHLKOAC@?$AAA?$AAu?$AAg?$AAu?$AAs?$AAt?$AA?$AA@ 100690d0     libucrt:nlsdata.obj
 0002:000070e0       ??_C@_1BE@DKAAMBJL@?$AAS?$AAe?$AAp?$AAt?$AAe?$AAm?$AAb?$AAe?$AAr?$AA?$AA@ 100690e0     libucrt:nlsdata.obj
 0002:000070f8       ??_C@_1BA@EPANDLNG@?$AAO?$AAc?$AAt?$AAo?$AAb?$AAe?$AAr?$AA?$AA@ 100690f8     libucrt:nlsdata.obj
 0002:0000710c       ??_C@_1BC@BGLIFPF@?$AAN?$AAo?$AAv?$AAe?$AAm?$AAb?$AAe?$AAr?$AA?$AA@ 1006910c     libucrt:nlsdata.obj
 0002:00007124       ??_C@_1BC@FEMKIFH@?$AAD?$AAe?$AAc?$AAe?$AAm?$AAb?$AAe?$AAr?$AA?$AA@ 10069124     libucrt:nlsdata.obj
 0002:0000713c       ??_C@_15ODEHAHHF@?$AAA?$AAM?$AA?$AA@ 1006913c     libucrt:nlsdata.obj
 0002:00007144       ??_C@_15CLMNNGEL@?$AAP?$AAM?$AA?$AA@ 10069144     libucrt:nlsdata.obj
 0002:0000714c       ??_C@_1BC@IEBCMHCM@?$AAM?$AAM?$AA?1?$AAd?$AAd?$AA?1?$AAy?$AAy?$AA?$AA@ 1006914c     libucrt:nlsdata.obj
 0002:00007164       ??_C@_1CI@KNAKOEBC@?$AAd?$AAd?$AAd?$AAd?$AA?0?$AA?5?$AAM?$AAM?$AAM?$AAM?$AA?5?$AAd?$AAd?$AA?0?$AA?5?$AAy?$AAy?$AAy?$AAy?$AA?$AA@ 10069164     libucrt:nlsdata.obj
 0002:00007194       ??_C@_1BC@GDGBMEMK@?$AAH?$AAH?$AA?3?$AAm?$AAm?$AA?3?$AAs?$AAs?$AA?$AA@ 10069194     libucrt:nlsdata.obj
 0002:000071ac       ??_C@_1M@BMHNFIME@?$AAe?$AAn?$AA?9?$AAU?$AAS?$AA?$AA@ 100691ac     libucrt:nlsdata.obj
 0002:000071c0       ___lc_time_c               100691c0     libucrt:nlsdata.obj
 0002:0000736c       ?ccs@?BL@???$__acrt_stdio_parse_mode@D@@YA?AU__acrt_stdio_stream_mode@@QBD@Z@4QBDB 1006936c     libucrt:openfile.obj
 0002:00007370       ?utf8_encoding@?BL@???$__acrt_stdio_parse_mode@D@@YA?AU__acrt_stdio_stream_mode@@QBD@Z@4QBDB 10069370     libucrt:openfile.obj
 0002:00007378       ?utf16_encoding@?BL@???$__acrt_stdio_parse_mode@D@@YA?AU__acrt_stdio_stream_mode@@QBD@Z@4QBDB 10069378     libucrt:openfile.obj
 0002:00007384       ?unicode_encoding@?BL@???$__acrt_stdio_parse_mode@D@@YA?AU__acrt_stdio_stream_mode@@QBD@Z@4QBDB 10069384     libucrt:openfile.obj
 0002:0000738c       ?ccs@?BL@???$__acrt_stdio_parse_mode@_W@@YA?AU__acrt_stdio_stream_mode@@QB_W@Z@4QB_WB 1006938c     libucrt:openfile.obj
 0002:00007394       ?utf8_encoding@?BL@???$__acrt_stdio_parse_mode@_W@@YA?AU__acrt_stdio_stream_mode@@QB_W@Z@4QB_WB 10069394     libucrt:openfile.obj
 0002:000073a0       ?utf16_encoding@?BL@???$__acrt_stdio_parse_mode@_W@@YA?AU__acrt_stdio_stream_mode@@QB_W@Z@4QB_WB 100693a0     libucrt:openfile.obj
 0002:000073b4       ?unicode_encoding@?BL@???$__acrt_stdio_parse_mode@_W@@YA?AU__acrt_stdio_stream_mode@@QB_W@Z@4QB_WB 100693b4     libucrt:openfile.obj
 0002:000073c8       __d_inf                    100693c8     libucrt:util.obj
 0002:000073d8       __d_ind                    100693d8     libucrt:util.obj
 0002:000073e8       __d_max                    100693e8     libucrt:util.obj
 0002:000073f8       __d_min                    100693f8     libucrt:util.obj
 0002:00007408       __d_mzero                  10069408     libucrt:util.obj
 0002:00007480       __indefinite               10069480     libucrt:87disp.obj
 0002:0000748a       __piby2                    1006948a     libucrt:87disp.obj
 0002:00007494       __piby4                    10069494     libucrt:87disp.obj
 0002:00007560       ??_C@_1DE@JNGNBFGO@?$AAR?$AAu?$AAn?$AAt?$AAi?$AAm?$AAe?$AA?5?$AAE?$AAr?$AAr?$AAo?$AAr?$AA?$CB?$AA?6?$AA?6?$AAP?$AAr?$AAo?$AAg?$AAr?$AAa?$AAm?$AA?3?$AA?5?$AA?$AA@ 10069560     libucrt:report_runtime_error.obj
 0002:000075b4       ??_C@_1M@HPNHIDJI@?$AAj?$AAa?$AA?9?$AAJ?$AAP?$AA?$AA@ 100695b4     libucrt:mbctype.obj
 0002:000075c4       ??_C@_1M@BIBDDEMK@?$AAz?$AAh?$AA?9?$AAC?$AAN?$AA?$AA@ 100695c4     libucrt:mbctype.obj
 0002:000075d4       ??_C@_1M@JLOOOEGK@?$AAk?$AAo?$AA?9?$AAK?$AAR?$AA?$AA@ 100695d4     libucrt:mbctype.obj
 0002:000075e4       ??_C@_1M@CLNBBOPM@?$AAz?$AAh?$AA?9?$AAT?$AAW?$AA?$AA@ 100695e4     libucrt:mbctype.obj
 0002:000075f8       __wctype                   100695f8     libucrt:ctype.obj
 0002:00007868       ___newctype                10069868     libucrt:ctype.obj
 0002:00007c08       ___newclmap                10069c08     libucrt:ctype.obj
 0002:00007dd8       ___newcumap                10069dd8     libucrt:ctype.obj
 0002:00008834       ??_C@_15EMKDOKLE@?$AAa?$AAr?$AA?$AA@ 1006a834     libucrt:lcidtoname_downlevel.obj
 0002:0000883c       ??_C@_15KNPADPLH@?$AAb?$AAg?$AA?$AA@ 1006a83c     libucrt:lcidtoname_downlevel.obj
 0002:00008844       ??_C@_15EDMHLDMO@?$AAc?$AAa?$AA?$AA@ 1006a844     libucrt:lcidtoname_downlevel.obj
 0002:0000884c       ??_C@_1O@BPEAJADD@?$AAz?$AAh?$AA?9?$AAC?$AAH?$AAS?$AA?$AA@ 1006a84c     libucrt:lcidtoname_downlevel.obj
 0002:0000885c       ??_C@_15LJNHCMNK@?$AAc?$AAs?$AA?$AA@ 1006a85c     libucrt:lcidtoname_downlevel.obj
 0002:00008864       ??_C@_15FOMCIDHG@?$AAd?$AAa?$AA?$AA@ 1006a864     libucrt:lcidtoname_downlevel.obj
 0002:0000886c       ??_C@_15NBKABECB@?$AAd?$AAe?$AA?$AA@ 1006a86c     libucrt:lcidtoname_downlevel.obj
 0002:00008874       ??_C@_15GHPEIIAO@?$AAe?$AAl?$AA?$AA@ 1006a874     libucrt:lcidtoname_downlevel.obj
 0002:0000887c       ??_C@_15MNPNEAIF@?$AAe?$AAn?$AA?$AA@ 1006a87c     libucrt:lcidtoname_downlevel.obj
 0002:00008884       ??_C@_15GPIOMPMH@?$AAe?$AAs?$AA?$AA@ 1006a884     libucrt:lcidtoname_downlevel.obj
 0002:0000888c       ??_C@_15NGLOAKJC@?$AAf?$AAi?$AA?$AA@ 1006a88c     libucrt:lcidtoname_downlevel.obj
 0002:00008894       ??_C@_15FBKGNKAM@?$AAf?$AAr?$AA?$AA@ 1006a894     libucrt:lcidtoname_downlevel.obj
 0002:0000889c       ??_C@_15KGGCNEFK@?$AAh?$AAe?$AA?$AA@ 1006a89c     libucrt:lcidtoname_downlevel.obj
 0002:000088a4       ??_C@_15PGHLIDMF@?$AAh?$AAu?$AA?$AA@ 1006a8a4     libucrt:lcidtoname_downlevel.obj
 0002:000088ac       ??_C@_15BIEMAPLM@?$AAi?$AAs?$AA?$AA@ 1006a8ac     libucrt:lcidtoname_downlevel.obj
 0002:000088b4       ??_C@_15IFJLDHAF@?$AAi?$AAt?$AA?$AA@ 1006a8b4     libucrt:lcidtoname_downlevel.obj
 0002:000088bc       ??_C@_15GEMIOCAG@?$AAj?$AAa?$AA?$AA@ 1006a8bc     libucrt:lcidtoname_downlevel.obj
 0002:000088c4       ??_C@_15EPELEGJA@?$AAk?$AAo?$AA?$AA@ 1006a8c4     libucrt:lcidtoname_downlevel.obj
 0002:000088cc       ??_C@_15NDDHIMN@?$AAn?$AAl?$AA?$AA@ 1006a8cc     libucrt:lcidtoname_downlevel.obj
 0002:000088d4       ??_C@_15BPIGNHCD@?$AAn?$AAo?$AA?$AA@ 1006a8d4     libucrt:lcidtoname_downlevel.obj
 0002:000088dc       ??_C@_15DEOPBLCG@?$AAp?$AAl?$AA?$AA@ 1006a8dc     libucrt:lcidtoname_downlevel.obj
 0002:000088e4       ??_C@_15KBECGEFG@?$AAp?$AAt?$AA?$AA@ 1006a8e4     libucrt:lcidtoname_downlevel.obj
 0002:000088ec       ??_C@_15GLJCBFMD@?$AAr?$AAo?$AA?$AA@ 1006a8ec     libucrt:lcidtoname_downlevel.obj
 0002:000088f4       ??_C@_15FEDGKCDI@?$AAr?$AAu?$AA?$AA@ 1006a8f4     libucrt:lcidtoname_downlevel.obj
 0002:000088fc       ??_C@_15GLKMLLHM@?$AAh?$AAr?$AA?$AA@ 1006a8fc     libucrt:lcidtoname_downlevel.obj
 0002:00008904       ??_C@_15CPKMFBDB@?$AAs?$AAk?$AA?$AA@ 1006a904     libucrt:lcidtoname_downlevel.obj
 0002:0000890c       ??_C@_15BAAIOGMK@?$AAs?$AAq?$AA?$AA@ 1006a90c     libucrt:lcidtoname_downlevel.obj
 0002:00008914       ??_C@_15INNPNOHD@?$AAs?$AAv?$AA?$AA@ 1006a914     libucrt:lcidtoname_downlevel.obj
 0002:0000891c       ??_C@_15CABMMOGH@?$AAt?$AAh?$AA?$AA@ 1006a91c     libucrt:lcidtoname_downlevel.obj
 0002:00008924       ??_C@_15BPLIHJJM@?$AAt?$AAr?$AA?$AA@ 1006a924     libucrt:lcidtoname_downlevel.obj
 0002:0000892c       ??_C@_15NEOEKKDJ@?$AAu?$AAr?$AA?$AA@ 1006a92c     libucrt:lcidtoname_downlevel.obj
 0002:00008934       ??_C@_15NFICGAJK@?$AAi?$AAd?$AA?$AA@ 1006a934     libucrt:lcidtoname_downlevel.obj
 0002:0000893c       ??_C@_15PJPFLCCM@?$AAu?$AAk?$AA?$AA@ 1006a93c     libucrt:lcidtoname_downlevel.obj
 0002:00008944       ??_C@_15HPJPHDM@?$AAb?$AAe?$AA?$AA@ 1006a944     libucrt:lcidtoname_downlevel.obj
 0002:0000894c       ??_C@_15LCHLGJII@?$AAs?$AAl?$AA?$AA@ 1006a94c     libucrt:lcidtoname_downlevel.obj
 0002:00008954       ??_C@_15PCFJPHHO@?$AAe?$AAt?$AA?$AA@ 1006a954     libucrt:lcidtoname_downlevel.obj
 0002:0000895c       ??_C@_15HPFPGODN@?$AAl?$AAv?$AA?$AA@ 1006a95c     libucrt:lcidtoname_downlevel.obj
 0002:00008964       ??_C@_15NFFGKGLG@?$AAl?$AAt?$AA?$AA@ 1006a964     libucrt:lcidtoname_downlevel.obj
 0002:0000896c       ??_C@_15BDAKCCHN@?$AAf?$AAa?$AA?$AA@ 1006a96c     libucrt:lcidtoname_downlevel.obj
 0002:00008974       ??_C@_15NFGIAIAJ@?$AAv?$AAi?$AA?$AA@ 1006a974     libucrt:lcidtoname_downlevel.obj
 0002:0000897c       ??_C@_15LMKNDMHN@?$AAh?$AAy?$AA?$AA@ 1006a97c     libucrt:lcidtoname_downlevel.obj
 0002:00008984       ??_C@_15IJBHMCFL@?$AAa?$AAz?$AA?$AA@ 1006a984     libucrt:lcidtoname_downlevel.obj
 0002:0000898c       ??_C@_15EKOFJABL@?$AAe?$AAu?$AA?$AA@ 1006a98c     libucrt:lcidtoname_downlevel.obj
 0002:00008994       ??_C@_15BGHADCNK@?$AAm?$AAk?$AA?$AA@ 1006a994     libucrt:lcidtoname_downlevel.obj
 0002:0000899c       ??_C@_15JDNICKHM@?$AAa?$AAf?$AA?$AA@ 1006a99c     libucrt:lcidtoname_downlevel.obj
 0002:000089a4       ??_C@_15KPJEDBKD@?$AAk?$AAa?$AA?$AA@ 1006a9a4     libucrt:lcidtoname_downlevel.obj
 0002:000089ac       ??_C@_15PDNFFFEO@?$AAf?$AAo?$AA?$AA@ 1006a9ac     libucrt:lcidtoname_downlevel.obj
 0002:000089b4       ??_C@_15OMLEGLOC@?$AAh?$AAi?$AA?$AA@ 1006a9b4     libucrt:lcidtoname_downlevel.obj
 0002:000089bc       ??_C@_15IDNNENKK@?$AAm?$AAs?$AA?$AA@ 1006a9bc     libucrt:lcidtoname_downlevel.obj
 0002:000089c4       ??_C@_15MACJNBMH@?$AAk?$AAk?$AA?$AA@ 1006a9c4     libucrt:lcidtoname_downlevel.obj
 0002:000089cc       ??_C@_15DKDJEOND@?$AAk?$AAy?$AA?$AA@ 1006a9cc     libucrt:lcidtoname_downlevel.obj
 0002:000089d4       ??_C@_15DFGDLJBG@?$AAs?$AAw?$AA?$AA@ 1006a9d4     libucrt:lcidtoname_downlevel.obj
 0002:000089dc       ??_C@_15BBFAICNG@?$AAu?$AAz?$AA?$AA@ 1006a9dc     libucrt:lcidtoname_downlevel.obj
 0002:000089e4       ??_C@_15DKNDCGEA@?$AAt?$AAt?$AA?$AA@ 1006a9e4     libucrt:lcidtoname_downlevel.obj
 0002:000089ec       ??_C@_15MGIFMDPL@?$AAp?$AAa?$AA?$AA@ 1006a9ec     libucrt:lcidtoname_downlevel.obj
 0002:000089f4       ??_C@_15HCNDBBA@?$AAg?$AAu?$AA?$AA@ 1006a9f4     libucrt:lcidtoname_downlevel.obj
 0002:000089fc       ??_C@_15FNBEIBON@?$AAt?$AAa?$AA?$AA@ 1006a9fc     libucrt:lcidtoname_downlevel.obj
 0002:00008a04       ??_C@_15NCHGBGLK@?$AAt?$AAe?$AA?$AA@ 1006aa04     libucrt:lcidtoname_downlevel.obj
 0002:00008a0c       ??_C@_15PHPHCBPF@?$AAk?$AAn?$AA?$AA@ 1006aa0c     libucrt:lcidtoname_downlevel.obj
 0002:00008a14       ??_C@_15DLGBCKMP@?$AAm?$AAr?$AA?$AA@ 1006aa14     libucrt:lcidtoname_downlevel.obj
 0002:00008a1c       ??_C@_15EABBLBFF@?$AAs?$AAa?$AA?$AA@ 1006aa1c     libucrt:lcidtoname_downlevel.obj
 0002:00008a24       ??_C@_15CBKOMCOI@?$AAm?$AAn?$AA?$AA@ 1006aa24     libucrt:lcidtoname_downlevel.obj
 0002:00008a2c       ??_C@_15CKDMCJAF@?$AAg?$AAl?$AA?$AA@ 1006aa2c     libucrt:lcidtoname_downlevel.obj
 0002:00008a34       ??_C@_17CNJFBPG@?$AAk?$AAo?$AAk?$AA?$AA@ 1006aa34     libucrt:lcidtoname_downlevel.obj
 0002:00008a40       ??_C@_17FFBJICPL@?$AAs?$AAy?$AAr?$AA?$AA@ 1006aa40     libucrt:lcidtoname_downlevel.obj
 0002:00008a4c       ??_C@_17KPNDCPAF@?$AAd?$AAi?$AAv?$AA?$AA@ 1006aa4c     libucrt:lcidtoname_downlevel.obj
 0002:00008a58       ??_C@_1M@OKAHONE@?$AAa?$AAr?$AA?9?$AAS?$AAA?$AA?$AA@ 1006aa58     libucrt:lcidtoname_downlevel.obj
 0002:00008a68       ??_C@_1M@FFFIGIGK@?$AAb?$AAg?$AA?9?$AAB?$AAG?$AA?$AA@ 1006aa68     libucrt:lcidtoname_downlevel.obj
 0002:00008a78       ??_C@_1M@BJNKEDC@?$AAc?$AAa?$AA?9?$AAE?$AAS?$AA?$AA@ 1006aa78     libucrt:lcidtoname_downlevel.obj
 0002:00008a88       ??_C@_1M@IJJHFJHA@?$AAc?$AAs?$AA?9?$AAC?$AAZ?$AA?$AA@ 1006aa88     libucrt:lcidtoname_downlevel.obj
 0002:00008a98       ??_C@_1M@CLPEOBGI@?$AAd?$AAa?$AA?9?$AAD?$AAK?$AA?$AA@ 1006aa98     libucrt:lcidtoname_downlevel.obj
 0002:00008aa8       ??_C@_1M@MCMADGCB@?$AAd?$AAe?$AA?9?$AAD?$AAE?$AA?$AA@ 1006aaa8     libucrt:lcidtoname_downlevel.obj
 0002:00008ab8       ??_C@_1M@OOCKEMAM@?$AAe?$AAl?$AA?9?$AAG?$AAR?$AA?$AA@ 1006aab8     libucrt:lcidtoname_downlevel.obj
 0002:00008ac8       ??_C@_1M@DDNJFGID@?$AAf?$AAi?$AA?9?$AAF?$AAI?$AA?$AA@ 1006aac8     libucrt:lcidtoname_downlevel.obj
 0002:00008ad8       ??_C@_1M@GLIPPMAC@?$AAf?$AAr?$AA?9?$AAF?$AAR?$AA?$AA@ 1006aad8     libucrt:lcidtoname_downlevel.obj
 0002:00008ae8       ??_C@_1M@GFMCHPE@?$AAh?$AAe?$AA?9?$AAI?$AAL?$AA?$AA@ 1006aae8     libucrt:lcidtoname_downlevel.obj
 0002:00008af8       ??_C@_1M@MHLPGNKM@?$AAh?$AAu?$AA?9?$AAH?$AAU?$AA?$AA@ 1006aaf8     libucrt:lcidtoname_downlevel.obj
 0002:00008b08       ??_C@_1M@LPDDNNPN@?$AAi?$AAs?$AA?9?$AAI?$AAS?$AA?$AA@ 1006ab08     libucrt:lcidtoname_downlevel.obj
 0002:00008b18       ??_C@_1M@MADIPODN@?$AAi?$AAt?$AA?9?$AAI?$AAT?$AA?$AA@ 1006ab18     libucrt:lcidtoname_downlevel.obj
 0002:00008b28       ??_C@_1M@IHBJJGG@?$AAn?$AAl?$AA?9?$AAN?$AAL?$AA?$AA@ 1006ab28     libucrt:lcidtoname_downlevel.obj
 0002:00008b38       ??_C@_1M@EANAGDL@?$AAn?$AAb?$AA?9?$AAN?$AAO?$AA?$AA@ 1006ab38     libucrt:lcidtoname_downlevel.obj
 0002:00008b48       ??_C@_1M@NEIEMEGP@?$AAp?$AAl?$AA?9?$AAP?$AAL?$AA?$AA@ 1006ab48     libucrt:lcidtoname_downlevel.obj
 0002:00008b58       ??_C@_1M@BOCFIGEP@?$AAp?$AAt?$AA?9?$AAB?$AAR?$AA?$AA@ 1006ab58     libucrt:lcidtoname_downlevel.obj
 0002:00008b68       ??_C@_1M@IMPFOPBG@?$AAr?$AAo?$AA?9?$AAR?$AAO?$AA?$AA@ 1006ab68     libucrt:lcidtoname_downlevel.obj
 0002:00008b78       ??_C@_1M@IDNNEJMM@?$AAr?$AAu?$AA?9?$AAR?$AAU?$AA?$AA@ 1006ab78     libucrt:lcidtoname_downlevel.obj
 0002:00008b88       ??_C@_1M@LILEEOGM@?$AAh?$AAr?$AA?9?$AAH?$AAR?$AA?$AA@ 1006ab88     libucrt:lcidtoname_downlevel.obj
 0002:00008b98       ??_C@_1M@FKIFEHPB@?$AAs?$AAk?$AA?9?$AAS?$AAK?$AA?$AA@ 1006ab98     libucrt:lcidtoname_downlevel.obj
 0002:00008ba8       ??_C@_1M@LJMAMNPJ@?$AAs?$AAq?$AA?9?$AAA?$AAL?$AA?$AA@ 1006aba8     libucrt:lcidtoname_downlevel.obj
 0002:00008bb8       ??_C@_1M@GIAKDKJK@?$AAs?$AAv?$AA?9?$AAS?$AAE?$AA?$AA@ 1006abb8     libucrt:lcidtoname_downlevel.obj
 0002:00008bc8       ??_C@_1M@MKJKIKCL@?$AAt?$AAh?$AA?9?$AAT?$AAH?$AA?$AA@ 1006abc8     libucrt:lcidtoname_downlevel.obj
 0002:00008bd8       ??_C@_1M@MFLCCMPB@?$AAt?$AAr?$AA?9?$AAT?$AAR?$AA?$AA@ 1006abd8     libucrt:lcidtoname_downlevel.obj
 0002:00008be8       ??_C@_1M@OIJHDKJN@?$AAu?$AAr?$AA?9?$AAP?$AAK?$AA?$AA@ 1006abe8     libucrt:lcidtoname_downlevel.obj
 0002:00008bf8       ??_C@_1M@LHIPCIEK@?$AAi?$AAd?$AA?9?$AAI?$AAD?$AA?$AA@ 1006abf8     libucrt:lcidtoname_downlevel.obj
 0002:00008c08       ??_C@_1M@MFMOBGI@?$AAu?$AAk?$AA?9?$AAU?$AAA?$AA?$AA@ 1006ac08     libucrt:lcidtoname_downlevel.obj
 0002:00008c18       ??_C@_1M@OBGLJIPL@?$AAb?$AAe?$AA?9?$AAB?$AAY?$AA?$AA@ 1006ac18     libucrt:lcidtoname_downlevel.obj
 0002:00008c28       ??_C@_1M@BCFAJEAD@?$AAs?$AAl?$AA?9?$AAS?$AAI?$AA?$AA@ 1006ac28     libucrt:lcidtoname_downlevel.obj
 0002:00008c38       ??_C@_1M@FKFFEDDN@?$AAe?$AAt?$AA?9?$AAE?$AAE?$AA?$AA@ 1006ac38     libucrt:lcidtoname_downlevel.obj
 0002:00008c48       ??_C@_1M@KGKKAACI@?$AAl?$AAv?$AA?9?$AAL?$AAV?$AA?$AA@ 1006ac48     libucrt:lcidtoname_downlevel.obj
 0002:00008c58       ??_C@_1M@IFGBIJO@?$AAl?$AAt?$AA?9?$AAL?$AAT?$AA?$AA@ 1006ac58     libucrt:lcidtoname_downlevel.obj
 0002:00008c68       ??_C@_1M@FGEAHEDM@?$AAf?$AAa?$AA?9?$AAI?$AAR?$AA?$AA@ 1006ac68     libucrt:lcidtoname_downlevel.obj
 0002:00008c78       ??_C@_1M@KBMAIBFN@?$AAv?$AAi?$AA?9?$AAV?$AAN?$AA?$AA@ 1006ac78     libucrt:lcidtoname_downlevel.obj
 0002:00008c88       ??_C@_1M@GPCBKDJK@?$AAh?$AAy?$AA?9?$AAA?$AAM?$AA?$AA@ 1006ac88     libucrt:lcidtoname_downlevel.obj
 0002:00008c98       ??_C@_1BG@BECMDDJB@?$AAa?$AAz?$AA?9?$AAA?$AAZ?$AA?9?$AAL?$AAa?$AAt?$AAn?$AA?$AA@ 1006ac98     libucrt:lcidtoname_downlevel.obj
 0002:00008cb4       ??_C@_1M@MAOFCAEA@?$AAe?$AAu?$AA?9?$AAE?$AAS?$AA?$AA@ 1006acb4     libucrt:lcidtoname_downlevel.obj
 0002:00008cc4       ??_C@_1M@IGHABKPI@?$AAm?$AAk?$AA?9?$AAM?$AAK?$AA?$AA@ 1006acc4     libucrt:lcidtoname_downlevel.obj
 0002:00008cd4       ??_C@_1M@IAIGNEJG@?$AAt?$AAn?$AA?9?$AAZ?$AAA?$AA?$AA@ 1006acd4     libucrt:lcidtoname_downlevel.obj
 0002:00008ce4       ??_C@_1M@IIJCOJFA@?$AAx?$AAh?$AA?9?$AAZ?$AAA?$AA?$AA@ 1006ace4     libucrt:lcidtoname_downlevel.obj
 0002:00008cf4       ??_C@_1M@LGPJHNJH@?$AAz?$AAu?$AA?9?$AAZ?$AAA?$AA?$AA@ 1006acf4     libucrt:lcidtoname_downlevel.obj
 0002:00008d04       ??_C@_1M@HOKAOIO@?$AAa?$AAf?$AA?9?$AAZ?$AAA?$AA?$AA@ 1006ad04     libucrt:lcidtoname_downlevel.obj
 0002:00008d14       ??_C@_1M@DPCLHLIE@?$AAk?$AAa?$AA?9?$AAG?$AAE?$AA?$AA@ 1006ad14     libucrt:lcidtoname_downlevel.obj
 0002:00008d24       ??_C@_1M@BLKMHJBI@?$AAf?$AAo?$AA?9?$AAF?$AAO?$AA?$AA@ 1006ad24     libucrt:lcidtoname_downlevel.obj
 0002:00008d34       ??_C@_1M@LGGJAPPB@?$AAh?$AAi?$AA?9?$AAI?$AAN?$AA?$AA@ 1006ad34     libucrt:lcidtoname_downlevel.obj
 0002:00008d44       ??_C@_1M@FIKPIHFE@?$AAm?$AAt?$AA?9?$AAM?$AAT?$AA?$AA@ 1006ad44     libucrt:lcidtoname_downlevel.obj
 0002:00008d54       ??_C@_1M@HEGGPBFA@?$AAs?$AAe?$AA?9?$AAN?$AAO?$AA?$AA@ 1006ad54     libucrt:lcidtoname_downlevel.obj
 0002:00008d64       ??_C@_1M@EIBJEEPA@?$AAm?$AAs?$AA?9?$AAM?$AAY?$AA?$AA@ 1006ad64     libucrt:lcidtoname_downlevel.obj
 0002:00008d74       ??_C@_1M@FHLBGMPP@?$AAk?$AAk?$AA?9?$AAK?$AAZ?$AA?$AA@ 1006ad74     libucrt:lcidtoname_downlevel.obj
 0002:00008d84       ??_C@_1M@NGJJLCGI@?$AAk?$AAy?$AA?9?$AAK?$AAG?$AA?$AA@ 1006ad84     libucrt:lcidtoname_downlevel.obj
 0002:00008d94       ??_C@_1M@GIENNBFC@?$AAs?$AAw?$AA?9?$AAK?$AAE?$AA?$AA@ 1006ad94     libucrt:lcidtoname_downlevel.obj
 0002:00008da4       ??_C@_1BG@NDGMJIMJ@?$AAu?$AAz?$AA?9?$AAU?$AAZ?$AA?9?$AAL?$AAa?$AAt?$AAn?$AA?$AA@ 1006ada4     libucrt:lcidtoname_downlevel.obj
 0002:00008dc0       ??_C@_1M@IDCCIHBC@?$AAt?$AAt?$AA?9?$AAR?$AAU?$AA?$AA@ 1006adc0     libucrt:lcidtoname_downlevel.obj
 0002:00008dd0       ??_C@_1M@LOICPMOJ@?$AAb?$AAn?$AA?9?$AAI?$AAN?$AA?$AA@ 1006add0     libucrt:lcidtoname_downlevel.obj
 0002:00008de0       ??_C@_1M@KPKKNEAH@?$AAp?$AAa?$AA?9?$AAI?$AAN?$AA?$AA@ 1006ade0     libucrt:lcidtoname_downlevel.obj
 0002:00008df0       ??_C@_1M@PJGPPBOG@?$AAg?$AAu?$AA?9?$AAI?$AAN?$AA?$AA@ 1006adf0     libucrt:lcidtoname_downlevel.obj
 0002:00008e00       ??_C@_1M@KMKMOPHI@?$AAt?$AAa?$AA?9?$AAI?$AAN?$AA?$AA@ 1006ae00     libucrt:lcidtoname_downlevel.obj
 0002:00008e10       ??_C@_1M@KFEHEPAC@?$AAt?$AAe?$AA?9?$AAI?$AAN?$AA?$AA@ 1006ae10     libucrt:lcidtoname_downlevel.obj
 0002:00008e20       ??_C@_1M@CDCLMGHI@?$AAk?$AAn?$AA?9?$AAI?$AAN?$AA?$AA@ 1006ae20     libucrt:lcidtoname_downlevel.obj
 0002:00008e30       ??_C@_1M@MIODLDKF@?$AAm?$AAl?$AA?9?$AAI?$AAN?$AA?$AA@ 1006ae30     libucrt:lcidtoname_downlevel.obj
 0002:00008e40       ??_C@_1M@PBIEACPO@?$AAm?$AAr?$AA?9?$AAI?$AAN?$AA?$AA@ 1006ae40     libucrt:lcidtoname_downlevel.obj
 0002:00008e50       ??_C@_1M@NIDEAGPH@?$AAs?$AAa?$AA?9?$AAI?$AAN?$AA?$AA@ 1006ae50     libucrt:lcidtoname_downlevel.obj
 0002:00008e60       ??_C@_1M@FHIHCBIO@?$AAm?$AAn?$AA?9?$AAM?$AAN?$AA?$AA@ 1006ae60     libucrt:lcidtoname_downlevel.obj
 0002:00008e70       ??_C@_1M@JAIJPENP@?$AAc?$AAy?$AA?9?$AAG?$AAB?$AA?$AA@ 1006ae70     libucrt:lcidtoname_downlevel.obj
 0002:00008e80       ??_C@_1M@PHGFBEPN@?$AAg?$AAl?$AA?9?$AAE?$AAS?$AA?$AA@ 1006ae80     libucrt:lcidtoname_downlevel.obj
 0002:00008e90       ??_C@_1O@KPIPDNCP@?$AAk?$AAo?$AAk?$AA?9?$AAI?$AAN?$AA?$AA@ 1006ae90     libucrt:lcidtoname_downlevel.obj
 0002:00008ea0       ??_C@_1O@KNHJLDJA@?$AAs?$AAy?$AAr?$AA?9?$AAS?$AAY?$AA?$AA@ 1006aea0     libucrt:lcidtoname_downlevel.obj
 0002:00008eb0       ??_C@_1O@MKEKBLAH@?$AAd?$AAi?$AAv?$AA?9?$AAM?$AAV?$AA?$AA@ 1006aeb0     libucrt:lcidtoname_downlevel.obj
 0002:00008ec0       ??_C@_1O@OHDCKDDF@?$AAq?$AAu?$AAz?$AA?9?$AAB?$AAO?$AA?$AA@ 1006aec0     libucrt:lcidtoname_downlevel.obj
 0002:00008ed0       ??_C@_1M@LEPJNLFD@?$AAn?$AAs?$AA?9?$AAZ?$AAA?$AA?$AA@ 1006aed0     libucrt:lcidtoname_downlevel.obj
 0002:00008ee0       ??_C@_1M@OMLEIIJB@?$AAm?$AAi?$AA?9?$AAN?$AAZ?$AA?$AA@ 1006aee0     libucrt:lcidtoname_downlevel.obj
 0002:00008ef0       ??_C@_1M@PMPEAILG@?$AAa?$AAr?$AA?9?$AAI?$AAQ?$AA?$AA@ 1006aef0     libucrt:lcidtoname_downlevel.obj
 0002:00008f00       ??_C@_1M@CNKPNOEE@?$AAd?$AAe?$AA?9?$AAC?$AAH?$AA?$AA@ 1006af00     libucrt:lcidtoname_downlevel.obj
 0002:00008f10       ??_C@_1M@LKMGMLKO@?$AAe?$AAn?$AA?9?$AAG?$AAB?$AA?$AA@ 1006af10     libucrt:lcidtoname_downlevel.obj
 0002:00008f20       ??_C@_1M@PGKJFFGL@?$AAe?$AAs?$AA?9?$AAM?$AAX?$AA?$AA@ 1006af20     libucrt:lcidtoname_downlevel.obj
 0002:00008f30       ??_C@_1M@DNNANBDC@?$AAf?$AAr?$AA?9?$AAB?$AAE?$AA?$AA@ 1006af30     libucrt:lcidtoname_downlevel.obj
 0002:00008f40       ??_C@_1M@HLGMDFHM@?$AAi?$AAt?$AA?9?$AAC?$AAH?$AA?$AA@ 1006af40     libucrt:lcidtoname_downlevel.obj
 0002:00008f50       ??_C@_1M@CLLBGJH@?$AAn?$AAl?$AA?9?$AAB?$AAE?$AA?$AA@ 1006af50     libucrt:lcidtoname_downlevel.obj
 0002:00008f60       ??_C@_1M@BODBOGLF@?$AAn?$AAn?$AA?9?$AAN?$AAO?$AA?$AA@ 1006af60     libucrt:lcidtoname_downlevel.obj
 0002:00008f70       ??_C@_1M@HFFAHKAD@?$AAp?$AAt?$AA?9?$AAP?$AAT?$AA?$AA@ 1006af70     libucrt:lcidtoname_downlevel.obj
 0002:00008f80       ??_C@_1BG@LNOAKHIE@?$AAs?$AAr?$AA?9?$AAS?$AAP?$AA?9?$AAL?$AAa?$AAt?$AAn?$AA?$AA@ 1006af80     libucrt:lcidtoname_downlevel.obj
 0002:00008f9c       ??_C@_1M@HBMHBGAK@?$AAs?$AAv?$AA?9?$AAF?$AAI?$AA?$AA@ 1006af9c     libucrt:lcidtoname_downlevel.obj
 0002:00008fac       ??_C@_1BG@DGCJGJBE@?$AAa?$AAz?$AA?9?$AAA?$AAZ?$AA?9?$AAC?$AAy?$AAr?$AAl?$AA?$AA@ 1006afac     libucrt:lcidtoname_downlevel.obj
 0002:00008fc8       ??_C@_1M@KEJDAAHB@?$AAs?$AAe?$AA?9?$AAS?$AAE?$AA?$AA@ 1006afc8     libucrt:lcidtoname_downlevel.obj
 0002:00008fd8       ??_C@_1M@HEIBJJAD@?$AAm?$AAs?$AA?9?$AAB?$AAN?$AA?$AA@ 1006afd8     libucrt:lcidtoname_downlevel.obj
 0002:00008fe8       ??_C@_1BG@PBGJMCEM@?$AAu?$AAz?$AA?9?$AAU?$AAZ?$AA?9?$AAC?$AAy?$AAr?$AAl?$AA?$AA@ 1006afe8     libucrt:lcidtoname_downlevel.obj
 0002:00009004       ??_C@_1O@LAOBCMDF@?$AAq?$AAu?$AAz?$AA?9?$AAE?$AAC?$AA?$AA@ 1006b004     libucrt:lcidtoname_downlevel.obj
 0002:00009014       ??_C@_1M@POEEMAIO@?$AAa?$AAr?$AA?9?$AAE?$AAG?$AA?$AA@ 1006b014     libucrt:lcidtoname_downlevel.obj
 0002:00009024       ??_C@_1M@EFAKDEDL@?$AAz?$AAh?$AA?9?$AAH?$AAK?$AA?$AA@ 1006b024     libucrt:lcidtoname_downlevel.obj
 0002:00009034       ??_C@_1M@HKKIJHGI@?$AAd?$AAe?$AA?9?$AAA?$AAT?$AA?$AA@ 1006b034     libucrt:lcidtoname_downlevel.obj
 0002:00009044       ??_C@_1M@KBFBEHJF@?$AAe?$AAn?$AA?9?$AAA?$AAU?$AA?$AA@ 1006b044     libucrt:lcidtoname_downlevel.obj
 0002:00009054       ??_C@_1M@MNPLFAAH@?$AAe?$AAs?$AA?9?$AAE?$AAS?$AA?$AA@ 1006b054     libucrt:lcidtoname_downlevel.obj
 0002:00009064       ??_C@_1M@HJOOJFMA@?$AAf?$AAr?$AA?9?$AAC?$AAA?$AA?$AA@ 1006b064     libucrt:lcidtoname_downlevel.obj
 0002:00009074       ??_C@_1BG@JPOFPNAB@?$AAs?$AAr?$AA?9?$AAS?$AAP?$AA?9?$AAC?$AAy?$AAr?$AAl?$AA?$AA@ 1006b074     libucrt:lcidtoname_downlevel.obj
 0002:00009090       ??_C@_1M@LNFOCMOB@?$AAs?$AAe?$AA?9?$AAF?$AAI?$AA?$AA@ 1006b090     libucrt:lcidtoname_downlevel.obj
 0002:000090a0       ??_C@_1O@MGJBOAMB@?$AAq?$AAu?$AAz?$AA?9?$AAP?$AAE?$AA?$AA@ 1006b0a0     libucrt:lcidtoname_downlevel.obj
 0002:000090b0       ??_C@_1M@GJINLBOK@?$AAa?$AAr?$AA?9?$AAL?$AAY?$AA?$AA@ 1006b0b0     libucrt:lcidtoname_downlevel.obj
 0002:000090c0       ??_C@_1M@GGMNHJNL@?$AAz?$AAh?$AA?9?$AAS?$AAG?$AA?$AA@ 1006b0c0     libucrt:lcidtoname_downlevel.obj
 0002:000090d0       ??_C@_1M@HOIKODND@?$AAd?$AAe?$AA?9?$AAL?$AAU?$AA?$AA@ 1006b0d0     libucrt:lcidtoname_downlevel.obj
 0002:000090e0       ??_C@_1M@DDOCCGFG@?$AAe?$AAn?$AA?9?$AAC?$AAA?$AA?$AA@ 1006b0e0     libucrt:lcidtoname_downlevel.obj
 0002:000090f0       ??_C@_1M@BNOEMJLF@?$AAe?$AAs?$AA?9?$AAG?$AAT?$AA?$AA@ 1006b0f0     libucrt:lcidtoname_downlevel.obj
 0002:00009100       ??_C@_1M@EOGNKEK@?$AAf?$AAr?$AA?9?$AAC?$AAH?$AA?$AA@ 1006b100     libucrt:lcidtoname_downlevel.obj
 0002:00009110       ??_C@_1M@FLIDJFHL@?$AAh?$AAr?$AA?9?$AAB?$AAA?$AA?$AA@ 1006b110     libucrt:lcidtoname_downlevel.obj
 0002:00009120       ??_C@_1O@FMCELNAJ@?$AAs?$AAm?$AAj?$AA?9?$AAN?$AAO?$AA?$AA@ 1006b120     libucrt:lcidtoname_downlevel.obj
 0002:00009130       ??_C@_1M@JHGLJMGJ@?$AAa?$AAr?$AA?9?$AAD?$AAZ?$AA?$AA@ 1006b130     libucrt:lcidtoname_downlevel.obj
 0002:00009140       ??_C@_1M@JKKFDCNP@?$AAz?$AAh?$AA?9?$AAM?$AAO?$AA?$AA@ 1006b140     libucrt:lcidtoname_downlevel.obj
 0002:00009150       ??_C@_1M@GEEFALPE@?$AAd?$AAe?$AA?9?$AAL?$AAI?$AA?$AA@ 1006b150     libucrt:lcidtoname_downlevel.obj
 0002:00009160       ??_C@_1M@IGEOFBG@?$AAe?$AAn?$AA?9?$AAN?$AAZ?$AA?$AA@ 1006b160     libucrt:lcidtoname_downlevel.obj
 0002:00009170       ??_C@_1M@KDBONEHP@?$AAe?$AAs?$AA?9?$AAC?$AAR?$AA?$AA@ 1006b170     libucrt:lcidtoname_downlevel.obj
 0002:00009180       ??_C@_1M@FHMDOHNN@?$AAf?$AAr?$AA?9?$AAL?$AAU?$AA?$AA@ 1006b180     libucrt:lcidtoname_downlevel.obj
 0002:00009190       ??_C@_1BG@NFKKMAFG@?$AAb?$AAs?$AA?9?$AAB?$AAA?$AA?9?$AAL?$AAa?$AAt?$AAn?$AA?$AA@ 1006b190     libucrt:lcidtoname_downlevel.obj
 0002:000091ac       ??_C@_1O@IMNBEMCI@?$AAs?$AAm?$AAj?$AA?9?$AAS?$AAE?$AA?$AA@ 1006b1ac     libucrt:lcidtoname_downlevel.obj
 0002:000091bc       ??_C@_1M@DHHMBNDP@?$AAa?$AAr?$AA?9?$AAM?$AAA?$AA?$AA@ 1006b1bc     libucrt:lcidtoname_downlevel.obj
 0002:000091cc       ??_C@_1M@BNBLJCGH@?$AAe?$AAn?$AA?9?$AAI?$AAE?$AA?$AA@ 1006b1cc     libucrt:lcidtoname_downlevel.obj
 0002:000091dc       ??_C@_1M@GEPAFMDL@?$AAe?$AAs?$AA?9?$AAP?$AAA?$AA?$AA@ 1006b1dc     libucrt:lcidtoname_downlevel.obj
 0002:000091ec       ??_C@_1M@OJONDMDL@?$AAf?$AAr?$AA?9?$AAM?$AAC?$AA?$AA@ 1006b1ec     libucrt:lcidtoname_downlevel.obj
 0002:000091fc       ??_C@_1BG@OBCNFJB@?$AAs?$AAr?$AA?9?$AAB?$AAA?$AA?9?$AAL?$AAa?$AAt?$AAn?$AA?$AA@ 1006b1fc     libucrt:lcidtoname_downlevel.obj
 0002:00009218       ??_C@_1O@KEMEEGPO@?$AAs?$AAm?$AAa?$AA?9?$AAN?$AAO?$AA?$AA@ 1006b218     libucrt:lcidtoname_downlevel.obj
 0002:00009228       ??_C@_1M@ELMGFODK@?$AAa?$AAr?$AA?9?$AAT?$AAN?$AA?$AA@ 1006b228     libucrt:lcidtoname_downlevel.obj
 0002:00009238       ??_C@_1M@BHDLHFAF@?$AAe?$AAn?$AA?9?$AAZ?$AAA?$AA?$AA@ 1006b238     libucrt:lcidtoname_downlevel.obj
 0002:00009248       ??_C@_1M@BMGIGLIF@?$AAe?$AAs?$AA?9?$AAD?$AAO?$AA?$AA@ 1006b248     libucrt:lcidtoname_downlevel.obj
 0002:00009258       ??_C@_1BG@CMBHIPBE@?$AAs?$AAr?$AA?9?$AAB?$AAA?$AA?9?$AAC?$AAy?$AAr?$AAl?$AA?$AA@ 1006b258     libucrt:lcidtoname_downlevel.obj
 0002:00009274       ??_C@_1O@HEDBLHNP@?$AAs?$AAm?$AAa?$AA?9?$AAS?$AAE?$AA?$AA@ 1006b274     libucrt:lcidtoname_downlevel.obj
 0002:00009284       ??_C@_1M@DAGCADIM@?$AAa?$AAr?$AA?9?$AAO?$AAM?$AA?$AA@ 1006b284     libucrt:lcidtoname_downlevel.obj
 0002:00009294       ??_C@_1M@FODLMICG@?$AAe?$AAn?$AA?9?$AAJ?$AAM?$AA?$AA@ 1006b294     libucrt:lcidtoname_downlevel.obj
 0002:000092a4       ??_C@_1M@DNMLCIHB@?$AAe?$AAs?$AA?9?$AAV?$AAE?$AA?$AA@ 1006b2a4     libucrt:lcidtoname_downlevel.obj
 0002:000092b4       ??_C@_1O@EOKHMKJK@?$AAs?$AAm?$AAs?$AA?9?$AAF?$AAI?$AA?$AA@ 1006b2b4     libucrt:lcidtoname_downlevel.obj
 0002:000092c4       ??_C@_1M@CAFJMKOF@?$AAa?$AAr?$AA?9?$AAY?$AAE?$AA?$AA@ 1006b2c4     libucrt:lcidtoname_downlevel.obj
 0002:000092d4       ??_C@_1M@CBFHIJLI@?$AAe?$AAn?$AA?9?$AAC?$AAB?$AA?$AA@ 1006b2d4     libucrt:lcidtoname_downlevel.obj
 0002:000092e4       ??_C@_1M@BGNFLDN@?$AAe?$AAs?$AA?9?$AAC?$AAO?$AA?$AA@ 1006b2e4     libucrt:lcidtoname_downlevel.obj
 0002:000092f4       ??_C@_1O@JMPHMAMC@?$AAs?$AAm?$AAn?$AA?9?$AAF?$AAI?$AA?$AA@ 1006b2f4     libucrt:lcidtoname_downlevel.obj
 0002:00009304       ??_C@_1M@JLANABKE@?$AAa?$AAr?$AA?9?$AAS?$AAY?$AA?$AA@ 1006b304     libucrt:lcidtoname_downlevel.obj
 0002:00009314       ??_C@_1M@HPKGCFGN@?$AAe?$AAn?$AA?9?$AAB?$AAZ?$AA?$AA@ 1006b314     libucrt:lcidtoname_downlevel.obj
 0002:00009324       ??_C@_1M@OLJCMLGM@?$AAe?$AAs?$AA?9?$AAP?$AAE?$AA?$AA@ 1006b324     libucrt:lcidtoname_downlevel.obj
 0002:00009334       ??_C@_1M@MKKGFKLE@?$AAa?$AAr?$AA?9?$AAJ?$AAO?$AA?$AA@ 1006b334     libucrt:lcidtoname_downlevel.obj
 0002:00009344       ??_C@_1M@EKPGLDNI@?$AAe?$AAn?$AA?9?$AAT?$AAT?$AA?$AA@ 1006b344     libucrt:lcidtoname_downlevel.obj
 0002:00009354       ??_C@_1M@OONGHFHE@?$AAe?$AAs?$AA?9?$AAA?$AAR?$AA?$AA@ 1006b354     libucrt:lcidtoname_downlevel.obj
 0002:00009364       ??_C@_1M@OOJFGBHE@?$AAa?$AAr?$AA?9?$AAL?$AAB?$AA?$AA@ 1006b364     libucrt:lcidtoname_downlevel.obj
 0002:00009374       ??_C@_1M@GCEJHNEG@?$AAe?$AAn?$AA?9?$AAZ?$AAW?$AA?$AA@ 1006b374     libucrt:lcidtoname_downlevel.obj
 0002:00009384       ??_C@_1M@JNOCAHJI@?$AAe?$AAs?$AA?9?$AAE?$AAC?$AA?$AA@ 1006b384     libucrt:lcidtoname_downlevel.obj
 0002:00009394       ??_C@_1M@JEFHPGGB@?$AAa?$AAr?$AA?9?$AAK?$AAW?$AA?$AA@ 1006b394     libucrt:lcidtoname_downlevel.obj
 0002:000093a4       ??_C@_1M@MLKIBJOJ@?$AAe?$AAn?$AA?9?$AAP?$AAH?$AA?$AA@ 1006b3a4     libucrt:lcidtoname_downlevel.obj
 0002:000093b4       ??_C@_1M@BDNIPEND@?$AAe?$AAs?$AA?9?$AAC?$AAL?$AA?$AA@ 1006b3b4     libucrt:lcidtoname_downlevel.obj
 0002:000093c4       ??_C@_1M@MPNMEKBD@?$AAa?$AAr?$AA?9?$AAA?$AAE?$AA?$AA@ 1006b3c4     libucrt:lcidtoname_downlevel.obj
 0002:000093d4       ??_C@_1M@KBJALCPI@?$AAe?$AAs?$AA?9?$AAU?$AAY?$AA?$AA@ 1006b3d4     libucrt:lcidtoname_downlevel.obj
 0002:000093e4       ??_C@_1M@LLCCOAGA@?$AAa?$AAr?$AA?9?$AAB?$AAH?$AA?$AA@ 1006b3e4     libucrt:lcidtoname_downlevel.obj
 0002:000093f4       ??_C@_1M@PBFNCDEL@?$AAe?$AAs?$AA?9?$AAP?$AAY?$AA?$AA@ 1006b3f4     libucrt:lcidtoname_downlevel.obj
 0002:00009404       ??_C@_1M@EDGINPNP@?$AAa?$AAr?$AA?9?$AAQ?$AAA?$AA?$AA@ 1006b404     libucrt:lcidtoname_downlevel.obj
 0002:00009414       ??_C@_1M@MKDBIIJI@?$AAe?$AAs?$AA?9?$AAB?$AAO?$AA?$AA@ 1006b414     libucrt:lcidtoname_downlevel.obj
 0002:00009424       ??_C@_1M@CPKKEBLD@?$AAe?$AAs?$AA?9?$AAS?$AAV?$AA?$AA@ 1006b424     libucrt:lcidtoname_downlevel.obj
 0002:00009434       ??_C@_1M@NDBGMMJL@?$AAe?$AAs?$AA?9?$AAH?$AAN?$AA?$AA@ 1006b434     libucrt:lcidtoname_downlevel.obj
 0002:00009444       ??_C@_1M@JIJIBHDP@?$AAe?$AAs?$AA?9?$AAN?$AAI?$AA?$AA@ 1006b444     libucrt:lcidtoname_downlevel.obj
 0002:00009454       ??_C@_1M@CGFMKEEK@?$AAe?$AAs?$AA?9?$AAP?$AAR?$AA?$AA@ 1006b454     libucrt:lcidtoname_downlevel.obj
 0002:00009464       ??_C@_1O@ICJHKIIK@?$AAz?$AAh?$AA?9?$AAC?$AAH?$AAT?$AA?$AA@ 1006b464     libucrt:lcidtoname_downlevel.obj
 0002:00009474       ??_C@_15CLNEJCE@?$AAs?$AAr?$AA?$AA@ 1006b474     libucrt:lcidtoname_downlevel.obj
 0002:00009d0c       ??_C@_1M@KAHEKEIG@?$AAa?$AAf?$AA?9?$AAz?$AAa?$AA?$AA@ 1006bd0c     libucrt:lcidtoname_downlevel.obj
 0002:00009d1c       ??_C@_1M@GIECOABL@?$AAa?$AAr?$AA?9?$AAa?$AAe?$AA?$AA@ 1006bd1c     libucrt:lcidtoname_downlevel.obj
 0002:00009d2c       ??_C@_1M@BMLMEKGI@?$AAa?$AAr?$AA?9?$AAb?$AAh?$AA?$AA@ 1006bd2c     libucrt:lcidtoname_downlevel.obj
 0002:00009d3c       ??_C@_1M@DAPFDGGB@?$AAa?$AAr?$AA?9?$AAd?$AAz?$AA?$AA@ 1006bd3c     libucrt:lcidtoname_downlevel.obj
 0002:00009d4c       ??_C@_1M@FJNKGKIG@?$AAa?$AAr?$AA?9?$AAe?$AAg?$AA?$AA@ 1006bd4c     libucrt:lcidtoname_downlevel.obj
 0002:00009d5c       ??_C@_1M@FLGKKCLO@?$AAa?$AAr?$AA?9?$AAi?$AAq?$AA?$AA@ 1006bd5c     libucrt:lcidtoname_downlevel.obj
 0002:00009d6c       ??_C@_1M@GNDIPALM@?$AAa?$AAr?$AA?9?$AAj?$AAo?$AA?$AA@ 1006bd6c     libucrt:lcidtoname_downlevel.obj
 0002:00009d7c       ??_C@_1M@DDMJFMGJ@?$AAa?$AAr?$AA?9?$AAk?$AAw?$AA?$AA@ 1006bd7c     libucrt:lcidtoname_downlevel.obj
 0002:00009d8c       ??_C@_1M@EJALMLHM@?$AAa?$AAr?$AA?9?$AAl?$AAb?$AA?$AA@ 1006bd8c     libucrt:lcidtoname_downlevel.obj
 0002:00009d9c       ??_C@_1M@MOBDBLOC@?$AAa?$AAr?$AA?9?$AAl?$AAy?$AA?$AA@ 1006bd9c     libucrt:lcidtoname_downlevel.obj
 0002:00009dac       ??_C@_1M@JAOCLHDH@?$AAa?$AAr?$AA?9?$AAm?$AAa?$AA?$AA@ 1006bdac     libucrt:lcidtoname_downlevel.obj
 0002:00009dbc       ??_C@_1M@JHPMKJIE@?$AAa?$AAr?$AA?9?$AAo?$AAm?$AA?$AA@ 1006bdbc     libucrt:lcidtoname_downlevel.obj
 0002:00009dcc       ??_C@_1M@OEPGHFNH@?$AAa?$AAr?$AA?9?$AAq?$AAa?$AA?$AA@ 1006bdcc     libucrt:lcidtoname_downlevel.obj
 0002:00009ddc       ??_C@_1M@KJDONENM@?$AAa?$AAr?$AA?9?$AAs?$AAa?$AA?$AA@ 1006bddc     libucrt:lcidtoname_downlevel.obj
 0002:00009dec       ??_C@_1M@DMJDKLKM@?$AAa?$AAr?$AA?9?$AAs?$AAy?$AA?$AA@ 1006bdec     libucrt:lcidtoname_downlevel.obj
 0002:00009dfc       ??_C@_1M@OMFIPEDC@?$AAa?$AAr?$AA?9?$AAt?$AAn?$AA?$AA@ 1006bdfc     libucrt:lcidtoname_downlevel.obj
 0002:00009e0c       ??_C@_1M@IHMHGAON@?$AAa?$AAr?$AA?9?$AAy?$AAe?$AA?$AA@ 1006be0c     libucrt:lcidtoname_downlevel.obj
 0002:00009e1c       ??_C@_1BG@KDCPGJGB@?$AAa?$AAz?$AA?9?$AAa?$AAz?$AA?9?$AAc?$AAy?$AAr?$AAl?$AA?$AA@ 1006be1c     libucrt:lcidtoname_downlevel.obj
 0002:00009e38       ??_C@_1BG@IBCKDDOE@?$AAa?$AAz?$AA?9?$AAa?$AAz?$AA?9?$AAl?$AAa?$AAt?$AAn?$AA?$AA@ 1006be38     libucrt:lcidtoname_downlevel.obj
 0002:00009e54       ??_C@_1M@EGPFDCPD@?$AAb?$AAe?$AA?9?$AAb?$AAy?$AA?$AA@ 1006be54     libucrt:lcidtoname_downlevel.obj
 0002:00009e64       ??_C@_1M@PCMGMCGC@?$AAb?$AAg?$AA?9?$AAb?$AAg?$AA?$AA@ 1006be64     libucrt:lcidtoname_downlevel.obj
 0002:00009e74       ??_C@_1M@BJBMFGOB@?$AAb?$AAn?$AA?9?$AAi?$AAn?$AA?$AA@ 1006be74     libucrt:lcidtoname_downlevel.obj
 0002:00009e84       ??_C@_1BG@EAKMMACD@?$AAb?$AAs?$AA?9?$AAb?$AAa?$AA?9?$AAl?$AAa?$AAt?$AAn?$AA?$AA@ 1006be84     libucrt:lcidtoname_downlevel.obj
 0002:00009ea0       ??_C@_1M@KGADAODK@?$AAc?$AAa?$AA?9?$AAe?$AAs?$AA?$AA@ 1006bea0     libucrt:lcidtoname_downlevel.obj
 0002:00009eb0       ??_C@_1M@COAJPDHI@?$AAc?$AAs?$AA?9?$AAc?$AAz?$AA?$AA@ 1006beb0     libucrt:lcidtoname_downlevel.obj
 0002:00009ec0       ??_C@_1M@DHBHFONH@?$AAc?$AAy?$AA?9?$AAg?$AAb?$AA?$AA@ 1006bec0     libucrt:lcidtoname_downlevel.obj
 0002:00009ed0       ??_C@_1M@IMGKELGA@?$AAd?$AAa?$AA?9?$AAd?$AAk?$AA?$AA@ 1006bed0     libucrt:lcidtoname_downlevel.obj
 0002:00009ee0       ??_C@_1M@NNDGDNGA@?$AAd?$AAe?$AA?9?$AAa?$AAt?$AA?$AA@ 1006bee0     libucrt:lcidtoname_downlevel.obj
 0002:00009ef0       ??_C@_1M@IKDBHEEM@?$AAd?$AAe?$AA?9?$AAc?$AAh?$AA?$AA@ 1006bef0     libucrt:lcidtoname_downlevel.obj
 0002:00009f00       ??_C@_1M@GFFOJMCJ@?$AAd?$AAe?$AA?9?$AAd?$AAe?$AA?$AA@ 1006bf00     libucrt:lcidtoname_downlevel.obj
 0002:00009f10       ??_C@_1M@MDNLKBPM@?$AAd?$AAe?$AA?9?$AAl?$AAi?$AA?$AA@ 1006bf10     libucrt:lcidtoname_downlevel.obj
 0002:00009f20       ??_C@_1M@NJBEEJNL@?$AAd?$AAe?$AA?9?$AAl?$AAu?$AA?$AA@ 1006bf20     libucrt:lcidtoname_downlevel.obj
 0002:00009f30       ??_C@_1O@GNNELBAP@?$AAd?$AAi?$AAv?$AA?9?$AAm?$AAv?$AA?$AA@ 1006bf30     libucrt:lcidtoname_downlevel.obj
 0002:00009f40       ??_C@_1M@EJLEOGAE@?$AAe?$AAl?$AA?9?$AAg?$AAr?$AA?$AA@ 1006bf40     libucrt:lcidtoname_downlevel.obj
 0002:00009f50       ??_C@_1M@GMPONJN@?$AAe?$AAn?$AA?9?$AAa?$AAu?$AA?$AA@ 1006bf50     libucrt:lcidtoname_downlevel.obj
 0002:00009f60       ??_C@_1M@NIDIIPGF@?$AAe?$AAn?$AA?9?$AAb?$AAz?$AA?$AA@ 1006bf60     libucrt:lcidtoname_downlevel.obj
 0002:00009f70       ??_C@_1M@JEHMIMFO@?$AAe?$AAn?$AA?9?$AAc?$AAa?$AA?$AA@ 1006bf70     libucrt:lcidtoname_downlevel.obj
 0002:00009f80       ??_C@_1M@IGMJCDLA@?$AAe?$AAn?$AA?9?$AAc?$AAb?$AA?$AA@ 1006bf80     libucrt:lcidtoname_downlevel.obj
 0002:00009f90       ??_C@_1M@BNFIGBKG@?$AAe?$AAn?$AA?9?$AAg?$AAb?$AA?$AA@ 1006bf90     libucrt:lcidtoname_downlevel.obj
 0002:00009fa0       ??_C@_1M@LKIFDIGP@?$AAe?$AAn?$AA?9?$AAi?$AAe?$AA?$AA@ 1006bfa0     libucrt:lcidtoname_downlevel.obj
 0002:00009fb0       ??_C@_1M@PJKFGCCO@?$AAe?$AAn?$AA?9?$AAj?$AAm?$AA?$AA@ 1006bfb0     libucrt:lcidtoname_downlevel.obj
 0002:00009fc0       ??_C@_1M@KPPKEPBO@?$AAe?$AAn?$AA?9?$AAn?$AAz?$AA?$AA@ 1006bfc0     libucrt:lcidtoname_downlevel.obj
 0002:00009fd0       ??_C@_1M@GMDGLDOB@?$AAe?$AAn?$AA?9?$AAp?$AAh?$AA?$AA@ 1006bfd0     libucrt:lcidtoname_downlevel.obj
 0002:00009fe0       ??_C@_1M@ONGIBJNA@?$AAe?$AAn?$AA?9?$AAt?$AAt?$AA?$AA@ 1006bfe0     libucrt:lcidtoname_downlevel.obj
 0002:00009ff0       ??_C@_1M@LLODPCMM@?$AAe?$AAn?$AA?9?$AAu?$AAs?$AA?$AA@ 1006bff0     libucrt:lcidtoname_downlevel.obj
 0002:0000a000       ??_C@_1M@LAKFNPAN@?$AAe?$AAn?$AA?9?$AAz?$AAa?$AA?$AA@ 1006c000     libucrt:lcidtoname_downlevel.obj
 0002:0000a010       ??_C@_1M@MFNHNHEO@?$AAe?$AAn?$AA?9?$AAz?$AAw?$AA?$AA@ 1006c010     libucrt:lcidtoname_downlevel.obj
 0002:0000a020       ??_C@_1M@EJEINPHM@?$AAe?$AAs?$AA?9?$AAa?$AAr?$AA?$AA@ 1006c020     libucrt:lcidtoname_downlevel.obj
 0002:0000a030       ??_C@_1M@GNKPCCJA@?$AAe?$AAs?$AA?9?$AAb?$AAo?$AA?$AA@ 1006c030     libucrt:lcidtoname_downlevel.obj
 0002:0000a040       ??_C@_1M@LEEGFONL@?$AAe?$AAs?$AA?9?$AAc?$AAl?$AA?$AA@ 1006c040     libucrt:lcidtoname_downlevel.obj
 0002:0000a050       ??_C@_1M@KGPDPBDF@?$AAe?$AAs?$AA?9?$AAc?$AAo?$AA?$AA@ 1006c050     libucrt:lcidtoname_downlevel.obj
 0002:0000a060       ??_C@_1M@EIAHOHH@?$AAe?$AAs?$AA?9?$AAc?$AAr?$AA?$AA@ 1006c060     libucrt:lcidtoname_downlevel.obj
 0002:0000a070       ??_C@_1M@LLPGMBIN@?$AAe?$AAs?$AA?9?$AAd?$AAo?$AA?$AA@ 1006c070     libucrt:lcidtoname_downlevel.obj
 0002:0000a080       ??_C@_1M@DKHMKNJA@?$AAe?$AAs?$AA?9?$AAe?$AAc?$AA?$AA@ 1006c080     libucrt:lcidtoname_downlevel.obj
 0002:0000a090       ??_C@_1M@GKGFPKAP@?$AAe?$AAs?$AA?9?$AAe?$AAs?$AA?$AA@ 1006c090     libucrt:lcidtoname_downlevel.obj
 0002:0000a0a0       ??_C@_1M@LKHKGDLN@?$AAe?$AAs?$AA?9?$AAg?$AAt?$AA?$AA@ 1006c0a0     libucrt:lcidtoname_downlevel.obj
 0002:0000a0b0       ??_C@_1M@HEIIGGJD@?$AAe?$AAs?$AA?9?$AAh?$AAn?$AA?$AA@ 1006c0b0     libucrt:lcidtoname_downlevel.obj
 0002:0000a0c0       ??_C@_1M@FBDHPPGD@?$AAe?$AAs?$AA?9?$AAm?$AAx?$AA?$AA@ 1006c0c0     libucrt:lcidtoname_downlevel.obj
 0002:0000a0d0       ??_C@_1M@DPAGLNDH@?$AAe?$AAs?$AA?9?$AAn?$AAi?$AA?$AA@ 1006c0d0     libucrt:lcidtoname_downlevel.obj
 0002:0000a0e0       ??_C@_1M@MDGOPGDD@?$AAe?$AAs?$AA?9?$AAp?$AAa?$AA?$AA@ 1006c0e0     libucrt:lcidtoname_downlevel.obj
 0002:0000a0f0       ??_C@_1M@EMAMGBGE@?$AAe?$AAs?$AA?9?$AAp?$AAe?$AA?$AA@ 1006c0f0     libucrt:lcidtoname_downlevel.obj
 0002:0000a100       ??_C@_1M@IBMCAOEC@?$AAe?$AAs?$AA?9?$AAp?$AAr?$AA?$AA@ 1006c100     libucrt:lcidtoname_downlevel.obj
 0002:0000a110       ??_C@_1M@FGMDIJED@?$AAe?$AAs?$AA?9?$AAp?$AAy?$AA?$AA@ 1006c110     libucrt:lcidtoname_downlevel.obj
 0002:0000a120       ??_C@_1M@IIDEOLLL@?$AAe?$AAs?$AA?9?$AAs?$AAv?$AA?$AA@ 1006c120     libucrt:lcidtoname_downlevel.obj
 0002:0000a130       ??_C@_1M@GAOBIPA@?$AAe?$AAs?$AA?9?$AAu?$AAy?$AA?$AA@ 1006c130     libucrt:lcidtoname_downlevel.obj
 0002:0000a140       ??_C@_1M@JKFFICHJ@?$AAe?$AAs?$AA?9?$AAv?$AAe?$AA?$AA@ 1006c140     libucrt:lcidtoname_downlevel.obj
 0002:0000a150       ??_C@_1M@PNMLOJDF@?$AAe?$AAt?$AA?9?$AAe?$AAe?$AA?$AA@ 1006c150     libucrt:lcidtoname_downlevel.obj
 0002:0000a160       ??_C@_1M@GHHLIKEI@?$AAe?$AAu?$AA?9?$AAe?$AAs?$AA?$AA@ 1006c160     libucrt:lcidtoname_downlevel.obj
 0002:0000a170       ??_C@_1M@PBNONODE@?$AAf?$AAa?$AA?9?$AAi?$AAr?$AA?$AA@ 1006c170     libucrt:lcidtoname_downlevel.obj
 0002:0000a180       ??_C@_1M@JEEHPMIL@?$AAf?$AAi?$AA?9?$AAf?$AAi?$AA?$AA@ 1006c180     libucrt:lcidtoname_downlevel.obj
 0002:0000a190       ??_C@_1M@LMDCNDBA@?$AAf?$AAo?$AA?9?$AAf?$AAo?$AA?$AA@ 1006c190     libucrt:lcidtoname_downlevel.obj
 0002:0000a1a0       ??_C@_1M@JKEOHLDK@?$AAf?$AAr?$AA?9?$AAb?$AAe?$AA?$AA@ 1006c1a0     libucrt:lcidtoname_downlevel.obj
 0002:0000a1b0       ??_C@_1M@NOHADPMI@?$AAf?$AAr?$AA?9?$AAc?$AAa?$AA?$AA@ 1006c1b0     libucrt:lcidtoname_downlevel.obj
 0002:0000a1c0       ??_C@_1M@KDHIHAEC@?$AAf?$AAr?$AA?9?$AAc?$AAh?$AA?$AA@ 1006c1c0     libucrt:lcidtoname_downlevel.obj
 0002:0000a1d0       ??_C@_1M@MMBBFGAK@?$AAf?$AAr?$AA?9?$AAf?$AAr?$AA?$AA@ 1006c1d0     libucrt:lcidtoname_downlevel.obj
 0002:0000a1e0       ??_C@_1M@PAFNENNF@?$AAf?$AAr?$AA?9?$AAl?$AAu?$AA?$AA@ 1006c1e0     libucrt:lcidtoname_downlevel.obj
 0002:0000a1f0       ??_C@_1M@EOHDJGDD@?$AAf?$AAr?$AA?9?$AAm?$AAc?$AA?$AA@ 1006c1f0     libucrt:lcidtoname_downlevel.obj
 0002:0000a200       ??_C@_1M@FAPLLOPF@?$AAg?$AAl?$AA?9?$AAe?$AAs?$AA?$AA@ 1006c200     libucrt:lcidtoname_downlevel.obj
 0002:0000a210       ??_C@_1M@FOPBFLOO@?$AAg?$AAu?$AA?9?$AAi?$AAn?$AA?$AA@ 1006c210     libucrt:lcidtoname_downlevel.obj
 0002:0000a220       ??_C@_1M@KBMCINPM@?$AAh?$AAe?$AA?9?$AAi?$AAl?$AA?$AA@ 1006c220     libucrt:lcidtoname_downlevel.obj
 0002:0000a230       ??_C@_1M@BBPHKFPJ@?$AAh?$AAi?$AA?9?$AAi?$AAn?$AA?$AA@ 1006c230     libucrt:lcidtoname_downlevel.obj
