 hil_tuning_slrt

 Timestamp is 5c78c5a7 (Fri Mar  1 11:09:51 2019)

 Preferred load address is 10000000

 Start         Length     Name                   Class
 0001:00000000 0008127dH .text$mn                CODE
 0001:0008127d 00001085H .text$x                 CODE
 0002:00000000 00000104H .CRT$XCA                DATA
 0002:00000104 00000104H .CRT$XCZ                DATA
 0002:00000208 00000104H .CRT$XIA                DATA
 0002:0000030c 00000110H .CRT$XIC                DATA
 0002:0000041c 00000104H .CRT$XIZ                DATA
 0002:00000520 00000104H .CRT$XPA                DATA
 0002:00000624 0000010cH .CRT$XPX                DATA
 0002:00000730 00000104H .CRT$XPXA               DATA
 0002:00000834 00000104H .CRT$XPZ                DATA
 0002:00000938 00000104H .CRT$XTA                DATA
 0002:00000a3c 00000104H .CRT$XTZ                DATA
 0002:00000b40 00012160H .rdata                  DATA
 0002:00012ca0 00000450H .rdata$r                DATA
 0002:000130f0 00000128H .rdata$sxdata           DATA
 0002:00013218 000001ccH .rdata$zzzdbg           DATA
 0002:000133e4 00000104H .rtc$IAA                DATA
 0002:000134e8 00000104H .rtc$IZZ                DATA
 0002:000135ec 00000104H .rtc$TAA                DATA
 0002:000136f0 00000108H .rtc$TZZ                DATA
 0002:000137f8 00000db8H .xdata$x                DATA
 0002:000145b0 00000203H .edata                  DATA
 0003:00000000 0000402cH .data                   DATA
 0003:0000402c 00000254H .data$r                 DATA
 0003:00004280 000162c8H .bss                    DATA
 0004:00000000 000001b4H .idata$5                DATA
 0004:000001b4 00000014H .idata$2                DATA
 0004:000001c8 00000014H .idata$3                DATA
 0004:000001dc 000001b4H .idata$4                DATA
 0004:00000390 000007a2H .idata$6                DATA
 0005:00000000 00000104H .00cfg                  DATA

  Address         Publics by Value              Rva+Base       Lib:Object

 0000:00000000       ___hybrid_code_map_count   00000000     <absolute>
 0000:00000000       ___guard_fids_table        00000000     <absolute>
 0000:00000000       ___hybrid_code_map         00000000     <absolute>
 0000:00000000       ___enclave_config          00000000     <absolute>
 0000:00000000       ___dynamic_value_reloc_table 00000000     <absolute>
 0000:00000000       ___guard_longjmp_count     00000000     <absolute>
 0000:00000000       ___guard_iat_table         00000000     <absolute>
 0000:00000000       ___guard_fids_count        00000000     <absolute>
 0000:00000000       ___guard_longjmp_table     00000000     <absolute>
 0000:00000000       __except_list              00000000     <absolute>
 0000:00000000       ___volatile_metadata       00000000     <absolute>
 0000:00000000       ___guard_iat_count         00000000     <absolute>
 0000:00000000       ___hybrid_auxiliary_iat    00000000     <absolute>
 0000:00000008       ___safe_se_handler_count   00000008     <absolute>
 0000:00000100       ___guard_flags             00000100     <absolute>
 0000:00000000       ___ImageBase               10000000     <linker-defined>
 0001:00007270       _DllMain@12                10008270 f   xpctarget.obj
 0001:00007280       _SLRTSetErrorStatus        10008280 f   xpctarget.obj
 0001:000072a0       _changeStepSize            100082a0 f   xpctarget.obj
 0001:00007310       _getDLMVersion             10008310 f   xpctarget.obj
 0001:00007320       _getFullPathToRefMdl       10008320 f   xpctarget.obj
 0001:000073d0       _getRefMdlPath             100083d0 f   xpctarget.obj
 0001:00007450       _getRefMdlSignalNumber     10008450 f   xpctarget.obj
 0001:00007500       _getrlmdlinfo              10008500 f   xpctarget.obj
 0001:00007660       _hil_tuning_ChangeStepSize 10008660 f   xpctarget.obj
 0001:000076d0       _slrtRegisterSignalToLoggingService 100086d0 f   xpctarget.obj
 0001:00007830       _updateDiscreteEvents      10008830 f   xpctarget.obj
 0001:00007840       _getNumRef                 10008840 f   appmappingData.obj
 0001:00007850       ___local_stdio_printf_options 10008850 f i legacy_stdio.obj
 0001:00007860       __vfprintf_l               10008860 f i legacy_stdio.obj
 0001:00007890       _vprintf                   10008890 f i legacy_stdio.obj
 0001:000078d0       _rt_mxCreateCharMatrixFromStrings 100088d0 f   rt_matrx.obj
 0001:00007a30       _rt_mxCreateDoubleMatrix   10008a30 f   rt_matrx.obj
 0001:00007a90       _rt_mxCreateNumericArray   10008a90 f   rt_matrx.obj
 0001:00007b00       _rt_mxCreateString         10008b00 f   rt_matrx.obj
 0001:00007b90       _rt_mxDuplicateArray       10008b90 f   rt_matrx.obj
 0001:00007bf0       _rt_mxGetDimensions        10008bf0 f   rt_matrx.obj
 0001:00007c30       _rt_mxGetEps               10008c30 f   rt_matrx.obj
 0001:00007c40       _rt_mxGetString            10008c40 f   rt_matrx.obj
 0001:00007cc0       _rtPrintfNoOp              10008cc0 f   rt_printf.obj
 0001:00007cd0       __vsnprintf_l              10008cd0 f i rt_logging.obj
 0001:00007d10       __vsprintf_l               10008d10 f i rt_logging.obj
 0001:00007d50       _fprintf                   10008d50 f i rt_logging.obj
 0001:00008250       _printf                    10009250 f i rt_logging.obj
 0001:00008290       _rt_CreateLogVar           10009290 f   rt_logging.obj
 0001:00008320       _rt_CreateLogVarWithConvert 10009320 f   rt_logging.obj
 0001:00008c50       _rt_CreateStructLogVar     10009c50 f   rt_logging.obj
 0001:000099d0       _rt_GetMxIdFromDTypeId     1000a9d0 f   rt_logging.obj
 0001:00009a00       _rt_GetMxIdFromDTypeIdForRSim 1000aa00 f   rt_logging.obj
 0001:0000c5a0       _rt_StartDataLogging       1000d5a0 f   rt_logging.obj
 0001:0000ca60       _rt_StartDataLoggingWithStartTime 1000da60 f   rt_logging.obj
 0001:0000cee0       _rt_StopDataLogging        1000dee0 f   rt_logging.obj
 0001:0000cf00       _rt_StopDataLoggingImpl    1000df00 f   rt_logging.obj
 0001:0000d340       _rt_UpdateLogVar           1000e340 f   rt_logging.obj
 0001:0000e580       _rt_UpdateStructLogVar     1000f580 f   rt_logging.obj
 0001:0000e610       _rt_UpdateTXXFYLogVars     1000f610 f   rt_logging.obj
 0001:0000ebf0       _rt_UpdateTXYLogVars       1000fbf0 f   rt_logging.obj
 0001:0000ee30       _rt_getTempMemory          1000fe30 f   rt_logging.obj
 0001:0000ee80       _sprintf                   1000fe80 f i rt_logging.obj
 0001:0000eec0       _MdlInitialize             1000fec0 f   hil_tuning.obj
 0001:0000eed0       _MdlInitializeSampleTimes  1000fed0 f   hil_tuning.obj
 0001:0000eee0       _MdlInitializeSizes        1000fee0 f   hil_tuning.obj
 0001:0000eef0       _MdlOutputs                1000fef0 f   hil_tuning.obj
 0001:0000ef00       _MdlStart                  1000ff00 f   hil_tuning.obj
 0001:0000eff0       _MdlTerminate              1000fff0 f   hil_tuning.obj
 0001:0000f060       _MdlUpdate                 10010060 f   hil_tuning.obj
 0001:0000f170       _hil_tuning                10010170 f   hil_tuning.obj
 0001:00013370       _look1_binlxpw             10014370 f   hil_tuning.obj
 0001:00013450       _rt_remd_snf               10014450 f   hil_tuning.obj
 0001:000136a0       _hil_tuning_GetCAPIStaticMap 100146a0 f   hil_tuning_capi.obj
 0001:000136b0       _hil_tuning_InitializeDataMapInfo 100146b0 f   hil_tuning_capi.obj
 0001:00013780       _mdlXcp_GetMdlXcpInfo      10014780 f   hil_tuning_xcp.obj
 0001:00013790       _SLRT_update_TET           10014790 f   hil_tuning_xcp_TET.obj
 0001:00013860       _rtGetInf                  10014860 f   rtGetInf.obj
 0001:00013890       _rtGetInfF                 10014890 f   rtGetInf.obj
 0001:000138b0       _rtGetMinusInf             100148b0 f   rtGetInf.obj
 0001:000138e0       _rtGetMinusInfF            100148e0 f   rtGetInf.obj
 0001:00013900       _rtGetNaN                  10014900 f   rtGetNaN.obj
 0001:00013930       _rtGetNaNF                 10014930 f   rtGetNaN.obj
 0001:00013950       _rtIsInf                   10014950 f   rt_nonfinite.obj
 0001:00013990       _rtIsInfF                  10014990 f   rt_nonfinite.obj
 0001:000139d0       _rtIsNaN                   100149d0 f   rt_nonfinite.obj
 0001:000139e0       _rtIsNaNF                  100149e0 f   rt_nonfinite.obj
 0001:000139f0       _rt_InitInfAndNaN          100149f0 f   rt_nonfinite.obj
 0001:00013a50       _rt_CleanUpForStateLogWithMMI 10014a50 f   rt_logging_mmi.obj
 0001:00013b60       _rt_FillStateSigInfoFromMMI 10014b60 f   rt_logging_mmi.obj
 0001:00013f30       _rtwCAPI_CountSysRan       10014f30 f   rtw_modelmap_utils.obj
 0001:00013fd0       _rtwCAPI_EncodePath        10014fd0 f   rtw_modelmap_utils.obj
 0001:000140e0       _rtwCAPI_FillSysRan        100150e0 f   rtw_modelmap_utils.obj
 0001:000141d0       _rtwCAPI_FreeFullPaths     100151d0 f   rtw_modelmap_utils.obj
 0001:00014260       _rtwCAPI_GetFullStateBlockPath 10015260 f   rtw_modelmap_utils.obj
 0001:000143f0       _rtwCAPI_GetNumContStateRecords 100153f0 f   rtw_modelmap_utils.obj
 0001:000144b0       _rtwCAPI_GetNumSigLogRecords 100154b0 f   rtw_modelmap_utils.obj
 0001:00014500       _rtwCAPI_GetNumSigLogRecordsForRTWLogging 10015500 f   rtw_modelmap_utils.obj
 0001:000145a0       _rtwCAPI_GetNumStateRecords 100155a0 f   rtw_modelmap_utils.obj
 0001:000145f0       _rtwCAPI_GetNumStateRecordsForRTWLogging 100155f0 f   rtw_modelmap_utils.obj
 0001:00014690       _rtwCAPI_GetSigAddrFromMap 10015690 f   rtw_modelmap_utils.obj
 0001:00014750       _rtwCAPI_GetSigLogRecordInfo 10015750 f   rtw_modelmap_utils.obj
 0001:00014b80       _rtwCAPI_GetStateRecordInfo 10015b80 f   rtw_modelmap_utils.obj
 0001:00015080       _rtwCAPI_GetStateWidth     10016080 f   rtw_modelmap_utils.obj
 0001:000150e0       _rtwCAPI_HasStates         100160e0 f   rtw_modelmap_utils.obj
 0001:00015140       _rtwCAPI_UpdateFullPaths   10016140 f   rtw_modelmap_utils.obj
 0001:00015320       _timestamp_x86             10016320 f   host_timer_x86.obj
 0001:00015330       _taskTimeEnd               10016330 f   xpc_code_profiling_utility_functions.obj
 0001:00015340       _taskTimeEnd_              10016340 f   xpc_code_profiling_utility_functions.obj
 0001:00015350       _taskTimeStart             10016350 f   xpc_code_profiling_utility_functions.obj
 0001:00015360       _taskTimeStart_            10016360 f   xpc_code_profiling_utility_functions.obj
 0001:00015370       _xilProfilingTimerFreeze   10016370 f   xpc_code_profiling_utility_functions.obj
 0001:00015380       _xilProfilingTimerUnFreeze 10016380 f   xpc_code_profiling_utility_functions.obj
 0001:00015390       _xilUploadProfilingData    10016390 f   xpc_code_profiling_utility_functions.obj
 0001:000153a0       ___local_stdio_scanf_options 100163a0 f i asciidecode.obj
 0001:000153b0       __vsscanf_l                100163b0 f i asciidecode.obj
 0001:000153e0       _asciidecode               100163e0 f   asciidecode.obj
 0001:00015ea0       _sscanf                    10016ea0 f i asciidecode.obj
 0001:00015ed0       _asciiencode               10016ed0 f   asciiencode.obj
 0001:000174c0       _slrtIPConfig              100184c0 f   slrtIPConfig.obj
 0001:00017bf0       _slrtUDPReceive            10018bf0 f   slrtUDPReceive.obj
 0001:000181b0       _slrtUDPSend               100191b0 f   slrtUDPSend.obj
 0001:00018200       _GetPCIDeviceFull          10019200 f   xpcruntime:xpcimports.obj
 0001:00018370       _GetPCIDeviceFunction      10019370 f   xpcruntime:xpcimports.obj
 0001:000184e0       _ShowPCIDevice             100194e0 f   xpcruntime:xpcimports.obj
 0001:00018b10       _slrtGetPciConfigAtFunction 10019b10 f   xpcruntime:xpcimports.obj
 0001:00018e80       _xpcGetPciConfigAtSlot     10019e80 f   xpcruntime:xpcimports.obj
 0001:00018ea0       _xpcInitProcs              10019ea0 f   xpcruntime:xpcimports.obj
 0001:0001a520       _xpceuploadevent           1001b520 f   xpcruntime:xpcimports.obj
 0001:0001a530       __ftoui3                   1001b530 f   LIBCMT:ftol3.obj
 0001:0001a53f       __ftoul3                   1001b53f f   LIBCMT:ftol3.obj
 0001:0001a54e       __ftol3                    1001b54e f   LIBCMT:ftol3.obj
 0001:0001a55b       __ftol3_NaN                1001b55b f   LIBCMT:ftol3.obj
 0001:0001a573       __ftol3_work               1001b573 f   LIBCMT:ftol3.obj
 0001:0001a5f9       __ftol3_common             1001b5f9 f   LIBCMT:ftol3.obj
 0001:0001a6bb       __ftol3_arg_error          1001b6bb f   LIBCMT:ftol3.obj
 0001:0001a6cd       __ftol3_except             1001b6cd f   LIBCMT:ftol3.obj
 0001:0001a711       __dtoui3                   1001b711 f   LIBCMT:ftol3.obj
 0001:0001a720       __dtoul3                   1001b720 f   LIBCMT:ftol3.obj
 0001:0001a72f       __dtol3                    1001b72f f   LIBCMT:ftol3.obj
 0001:0001a73c       __dtol3_NaN                1001b73c f   LIBCMT:ftol3.obj
 0001:0001a759       __dtol3_work               1001b759 f   LIBCMT:ftol3.obj
 0001:0001a840       __ultod3                   1001b840 f   LIBCMT:ftol3.obj
 0001:0001a880       __ltod3                    1001b880 f   LIBCMT:ftol3.obj
 0001:0001a984       ___raise_securityfailure   1001b984 f   LIBCMT:gs_report.obj
 0001:0001a9b6       ___report_gsfailure        1001b9b6 f   LIBCMT:gs_report.obj
 0001:0001aaed       ___report_rangecheckfailure 1001baed f   LIBCMT:gs_report.obj
 0001:0001aafc       ___report_securityfailure  1001bafc f   LIBCMT:gs_report.obj
 0001:0001abfd       ___report_securityfailureEx 1001bbfd f   LIBCMT:gs_report.obj
 0001:0001ad56       @__security_check_cookie@4 1001bd56 f   LIBCMT:secchk.obj
 0001:0001ad6b       ___isa_available_init      1001bd6b f   LIBCMT:cpu_disp.obj
 0001:0001b34c       __CRT_INIT@12              1001c34c f   LIBCMT:dll_dllmain.obj
 0001:0001b357       __DllMainCRTStartup@12     1001c357 f   LIBCMT:dll_dllmain.obj
 0001:0001b3e2       ___security_init_cookie    1001c3e2 f   LIBCMT:gs_support.obj
 0001:0001b43f       ?__scrt_initialize_type_info@@YAXXZ 1001c43f f   LIBCMT:tncleanup.obj
 0001:0001b44e       ?__scrt_uninitialize_type_info@@YAXXZ 1001c44e f   LIBCMT:tncleanup.obj
 0001:0001b45d       ___scrt_initialize_default_local_stdio_options 1001c45d f   LIBCMT:default_local_stdio_options.obj
 0001:0001b481       ??$__crt_fast_decode_pointer@PAP6AXXZ@@YAPAP6AXXZQAP6AXXZ@Z 1001c481 f i LIBCMT:utility.obj
 0001:0001b49a       ??$__crt_fast_encode_pointer@PAP6AXXZ@@YAPAP6AXXZQAP6AXXZ@Z 1001c49a f i LIBCMT:utility.obj
 0001:0001b4be       ?__crt_rotate_pointer_value@@YAIIH@Z 1001c4be f i LIBCMT:utility.obj
 0001:0001b4ce       ?configure_argv@__scrt_narrow_argv_policy@@SAHXZ 1001c4ce f i LIBCMT:utility.obj
 0001:0001b533       ?initialize_environment@__scrt_narrow_environment_policy@@SAHXZ 1001c533 f i LIBCMT:utility.obj
 0001:0001b579       _NtCurrentTeb              1001c579 f i LIBCMT:utility.obj
 0001:0001b580       ___scrt_acquire_startup_lock 1001c580 f   LIBCMT:utility.obj
 0001:0001b5be       ___scrt_dllmain_after_initialize_c 1001c5be f   LIBCMT:utility.obj
 0001:0001b5f3       ___scrt_dllmain_before_initialize_c 1001c5f3 f   LIBCMT:utility.obj
 0001:0001b604       ___scrt_dllmain_crt_thread_attach 1001c604 f   LIBCMT:utility.obj
 0001:0001b62a       ___scrt_dllmain_crt_thread_detach 1001c62a f   LIBCMT:utility.obj
 0001:0001b63a       ___scrt_dllmain_exception_filter 1001c63a f   LIBCMT:utility.obj
 0001:0001b67b       ___scrt_dllmain_uninitialize_c 1001c67b f   LIBCMT:utility.obj
 0001:0001b6a6       ___scrt_dllmain_uninitialize_critical 1001c6a6 f   LIBCMT:utility.obj
 0001:0001b6b6       ___scrt_initialize_crt     1001c6b6 f   LIBCMT:utility.obj
 0001:0001b6fd       ___scrt_initialize_onexit_tables 1001c6fd f   LIBCMT:utility.obj
 0001:0001b7cb       ___scrt_is_nonwritable_in_current_image 1001c7cb f   LIBCMT:utility.obj
 0001:0001b884       ___scrt_release_startup_lock 1001c884 f   LIBCMT:utility.obj
 0001:0001b8a8       ___scrt_uninitialize_crt   1001c8a8 f   LIBCMT:utility.obj
 0001:0001b8da       __onexit                   1001c8da f   LIBCMT:utility.obj
 0001:0001b923       _at_quick_exit             1001c923 f   LIBCMT:utility.obj
 0001:0001b960       _atexit                    1001c960 f   LIBCMT:utility.obj
 0001:0001b97a       ___scrt_get_dyn_tls_init_callback 1001c97a f   LIBCMT:dyn_tls_init.obj
 0001:0001b980       ___scrt_fastfail           1001c980 f   LIBCMT:utility_desktop.obj
 0001:0001bae0       ___scrt_get_show_window_mode 1001cae0 f   LIBCMT:utility_desktop.obj
 0001:0001bb1d       ___scrt_initialize_mta     1001cb1d f   LIBCMT:utility_desktop.obj
 0001:0001bb22       ___scrt_initialize_winrt   1001cb22 f   LIBCMT:utility_desktop.obj
 0001:0001bb25       ___scrt_is_managed_app     1001cb25 f   LIBCMT:utility_desktop.obj
 0001:0001bb78       ___scrt_set_unhandled_exception_filter 1001cb78 f   LIBCMT:utility_desktop.obj
 0001:0001bb87       ___scrt_exe_initialize_mta 1001cb87 f   LIBCMT:utility_desktop.obj
 0001:0001bb87       ___scrt_stub_for_initialize_mta 1001cb87 f   LIBCMT:utility_desktop.obj
 0001:0001bb8a       ___scrt_unhandled_exception_filter@4 1001cb8a f   LIBCMT:utility_desktop.obj
 0001:0001bbdb       __crt_debugger_hook        1001cbdb f   LIBCMT:utility_desktop.obj
 0001:0001bbe5       __RTC_Initialize           1001cbe5 f   LIBCMT:initsect.obj
 0001:0001bc1c       __RTC_Terminate            1001cc1c f   LIBCMT:initsect.obj
 0001:0001bc60       __SEH_prolog4              1001cc60 f   LIBCMT:sehprolg4.obj
 0001:0001bca6       __SEH_epilog4              1001cca6 f   LIBCMT:sehprolg4.obj
 0001:0001bcd1       @_guard_check_icall_nop@4  1001ccd1 f i LIBCMT:guard_support.obj
 0001:0001bcd2       _ReadNoFence               1001ccd2 f i LIBCMT:guard_support.obj
 0001:0001bcde       _ReadPointerNoFence        1001ccde f i LIBCMT:guard_support.obj
 0001:0001bcea       __guard_icall_checks_enforced 1001ccea f i LIBCMT:guard_support.obj
 0001:0001bd00       __get_startup_argv_mode    1001cd00 f   LIBCMT:argv_mode.obj
 0001:0001bd04       ___scrt_is_ucrt_dll_in_use 1001cd04 f   LIBCMT:ucrt_detection.obj
 0001:0001bd13       _GetModuleHandleA@4        1001cd13 f   kernel32:KERNEL32.dll
 0001:0001bd19       _GetProcAddress@8          1001cd19 f   kernel32:KERNEL32.dll
 0001:0001bd1f       _UnhandledExceptionFilter@4 1001cd1f f   kernel32:KERNEL32.dll
 0001:0001bd25       _SetUnhandledExceptionFilter@4 1001cd25 f   kernel32:KERNEL32.dll
 0001:0001bd2b       _GetCurrentProcess@0       1001cd2b f   kernel32:KERNEL32.dll
 0001:0001bd31       _TerminateProcess@8        1001cd31 f   kernel32:KERNEL32.dll
 0001:0001bd37       _IsProcessorFeaturePresent@4 1001cd37 f   kernel32:KERNEL32.dll
 0001:0001bd3d       _QueryPerformanceCounter@4 1001cd3d f   kernel32:KERNEL32.dll
 0001:0001bd43       _GetCurrentProcessId@0     1001cd43 f   kernel32:KERNEL32.dll
 0001:0001bd49       _GetCurrentThreadId@0      1001cd49 f   kernel32:KERNEL32.dll
 0001:0001bd4f       _GetSystemTimeAsFileTime@4 1001cd4f f   kernel32:KERNEL32.dll
 0001:0001bd55       _InitializeSListHead@4     1001cd55 f   kernel32:KERNEL32.dll
 0001:0001bd5b       _IsDebuggerPresent@0       1001cd5b f   kernel32:KERNEL32.dll
 0001:0001bd61       _GetStartupInfoW@4         1001cd61 f   kernel32:KERNEL32.dll
 0001:0001bd67       _GetModuleHandleW@4        1001cd67 f   kernel32:KERNEL32.dll
 0001:0001bd70       _memcpy                    1001cd70 f   libvcruntime:memcpy.obj
 0001:0001c450       _strchr                    1001d450 f   libvcruntime:strchr.obj
 0001:0001c4be       ___from_strstr_to_strchr   1001d4be     libvcruntime:strchr.obj
 0001:0001c5d0       _memmove                   1001d5d0 f   libvcruntime:memmove.obj
 0001:0001ccb0       _memset                    1001dcb0 f   libvcruntime:memset.obj
 0001:0001cea0       __except_handler4          1001dea0 f   libvcruntime:chandler4.obj
 0001:0001d05c       ??$?RD@__crt_internal_free_policy@@QBEXQBD@Z 1001e05c f i libvcruntime:std_type_info.obj
 0001:0001d070       ??$?RX@__crt_internal_free_policy@@QBEXQBX@Z 1001e070 f i libvcruntime:std_type_info.obj
 0001:0001d084       ??$__crt_interlocked_compare_exchange_pointer@$$CBDPAD$$T@@YAPBDPDSBDQAD$$T@Z 1001e084 f i libvcruntime:std_type_info.obj
 0001:0001d09a       ??$__crt_interlocked_read_pointer@$$CBD@@YAPBDPDSBD@Z 1001e09a f i libvcruntime:std_type_info.obj
 0001:0001d0a6       ??0?$__crt_unique_heap_ptr@DU__crt_internal_free_policy@@@@QAE@QAD@Z 1001e0a6 f i libvcruntime:std_type_info.obj
 0001:0001d0b7       ??0?$__crt_unique_heap_ptr@XU__crt_internal_free_policy@@@@QAE@QAX@Z 1001e0b7 f i libvcruntime:std_type_info.obj
 0001:0001d0c8       ??1?$__crt_unique_heap_ptr@DU__crt_internal_free_policy@@@@QAE@XZ 1001e0c8 f i libvcruntime:std_type_info.obj
 0001:0001d0dc       ??1?$__crt_unique_heap_ptr@XU__crt_internal_free_policy@@@@QAE@XZ 1001e0dc f i libvcruntime:std_type_info.obj
 0001:0001d0fc       ??B?$__crt_unique_heap_ptr@DU__crt_internal_free_policy@@@@QBE_NXZ 1001e0fc f i libvcruntime:std_type_info.obj
 0001:0001d103       ??B?$__crt_unique_heap_ptr@XU__crt_internal_free_policy@@@@QBE_NXZ 1001e103 f i libvcruntime:std_type_info.obj
 0001:0001d132       ?__crt_interlocked_read_32@@YAHPDH@Z 1001e132 f i libvcruntime:std_type_info.obj
 0001:0001d13e       ?detach@?$__crt_unique_heap_ptr@XU__crt_internal_free_policy@@@@QAEPAXXZ 1001e13e f i libvcruntime:std_type_info.obj
 0001:0001d144       ?get@?$__crt_unique_heap_ptr@DU__crt_internal_free_policy@@@@QBEPADXZ 1001e144 f i libvcruntime:std_type_info.obj
 0001:0001d147       ?get@?$__crt_unique_heap_ptr@XU__crt_internal_free_policy@@@@QBEPAXXZ 1001e147 f i libvcruntime:std_type_info.obj
 0001:0001d14a       ?is_valid@?$__crt_unique_heap_ptr@DU__crt_internal_free_policy@@@@QBE_NXZ 1001e14a f i libvcruntime:std_type_info.obj
 0001:0001d151       ?is_valid@?$__crt_unique_heap_ptr@XU__crt_internal_free_policy@@@@QBE_NXZ 1001e151 f i libvcruntime:std_type_info.obj
 0001:0001d158       ?release@?$__crt_unique_heap_ptr@DU__crt_internal_free_policy@@@@QAEXXZ 1001e158 f i libvcruntime:std_type_info.obj
 0001:0001d16c       ?release@?$__crt_unique_heap_ptr@XU__crt_internal_free_policy@@@@QAEXXZ 1001e16c f i libvcruntime:std_type_info.obj
 0001:0001d180       ___std_type_info_compare   1001e180 f   libvcruntime:std_type_info.obj
 0001:0001d1cb       ___std_type_info_destroy_list 1001e1cb f   libvcruntime:std_type_info.obj
 0001:0001d1f6       ___std_type_info_hash      1001e1f6 f   libvcruntime:std_type_info.obj
 0001:0001d225       ___std_type_info_name      1001e225 f   libvcruntime:std_type_info.obj
 0001:0001d318       ___vcrt_initialize         1001e318 f   libvcruntime:initialization.obj
 0001:0001d34b       ___vcrt_thread_attach      1001e34b f   libvcruntime:initialization.obj
 0001:0001d358       ___vcrt_thread_detach      1001e358 f   libvcruntime:initialization.obj
 0001:0001d365       ___vcrt_uninitialize       1001e365 f   libvcruntime:initialization.obj
 0001:0001d38b       ___vcrt_uninitialize_critical 1001e38b f   libvcruntime:initialization.obj
 0001:0001d3a0       __local_unwind4            1001e3a0 f   libvcruntime:exsup4.obj
 0001:0001d478       __seh_longjmp_unwind4@4    1001e478 f   libvcruntime:exsup4.obj
 0001:0001d4a0       @_EH4_CallFilterFunc@8     1001e4a0 f   libvcruntime:exsup4.obj
 0001:0001d4b8       @_EH4_TransferToHandler@8  1001e4b8 f   libvcruntime:exsup4.obj
 0001:0001d4d4       @_EH4_GlobalUnwind2@8      1001e4d4 f   libvcruntime:exsup4.obj
 0001:0001d4f0       @_EH4_LocalUnwind@16       1001e4f0 f   libvcruntime:exsup4.obj
 0001:0001d56d       ___except_validate_context_record 1001e56d f   libvcruntime:jbcxrval.obj
 0001:0001d5a9       ___except_validate_jump_buffer 1001e5a9 f   libvcruntime:jbcxrval.obj
 0001:0001d5e1       ___except_validate_jump_buffer_common 1001e5e1 f i libvcruntime:jbcxrval.obj
 0001:0001d628       ??0Block@_HeapManager@@QAE@XZ 1001e628 f i libvcruntime:undname.obj
 0001:0001d62e       ??0DName@@QAE@AAPBDD@Z     1001e62e f   libvcruntime:undname.obj
 0001:0001d70c       ??0DName@@QAE@ABV0@@Z      1001e70c f i libvcruntime:undname.obj
 0001:0001d727       ??0DName@@QAE@D@Z          1001e727 f   libvcruntime:undname.obj
 0001:0001d755       ??0DName@@QAE@PAV0@@Z      1001e755 f   libvcruntime:undname.obj
 0001:0001d7af       ??0DName@@QAE@PBD@Z        1001e7af f   libvcruntime:undname.obj
 0001:0001d7ee       ??0DName@@QAE@W4DNameStatus@@@Z 1001e7ee f   libvcruntime:undname.obj
 0001:0001d83e       ??0DName@@QAE@XZ           1001e83e f i libvcruntime:undname.obj
 0001:0001d84a       ??0DName@@QAE@_J@Z         1001e84a f   libvcruntime:undname.obj
 0001:0001d8f9       ??0DName@@QAE@_K@Z         1001e8f9 f   libvcruntime:undname.obj
 0001:0001d978       ??0DNameNode@@IAE@XZ       1001e978 f i libvcruntime:undname.obj
 0001:0001d983       ??0Replicator@@QAE@XZ      1001e983 f i libvcruntime:undname.obj
 0001:0001d994       ??0UnDecorator@@QAE@PBDP6APADJ@ZK@Z 1001e994 f i libvcruntime:undname.obj
 0001:0001d9f3       ??0charNode@@QAE@D@Z       1001e9f3 f i libvcruntime:undname.obj
 0001:0001da0d       ??0pDNameNode@@QAE@PAVDName@@@Z 1001ea0d f   libvcruntime:undname.obj
 0001:0001da3f       ??0pairNode@@QAE@PBVDNameNode@@0@Z 1001ea3f f i libvcruntime:undname.obj
 0001:0001da65       ??0pcharNode@@QAE@PBDH@Z   1001ea65 f   libvcruntime:undname.obj
 0001:0001dadb       ??2@YAPAXIAAV_HeapManager@@H@Z 1001eadb f i libvcruntime:undname.obj
 0001:0001daf5       ??4DName@@QAEAAV0@ABV0@@Z  1001eaf5 f   libvcruntime:undname.obj
 0001:0001db10       ??4DName@@QAEAAV0@D@Z      1001eb10 f i libvcruntime:undname.obj
 0001:0001db3e       ??4DName@@QAEAAV0@PAV0@@Z  1001eb3e f   libvcruntime:undname.obj
 0001:0001db90       ??4DName@@QAEAAV0@PBD@Z    1001eb90 f   libvcruntime:undname.obj
 0001:0001dbc5       ??4DName@@QAEAAV0@W4DNameStatus@@@Z 1001ebc5 f   libvcruntime:undname.obj
 0001:0001dc03       ??AReplicator@@QBE?AVDName@@H@Z 1001ec03 f   libvcruntime:undname.obj
 0001:0001dc5a       ??H@YA?AVDName@@DABV0@@Z   1001ec5a f i libvcruntime:undname.obj
 0001:0001dc84       ??H@YA?AVDName@@PBDABV0@@Z 1001ec84 f i libvcruntime:undname.obj
 0001:0001dcae       ??H@YA?AVDName@@W4DNameStatus@@ABV0@@Z 1001ecae f i libvcruntime:undname.obj
 0001:0001dcd8       ??HDName@@QBE?AV0@ABV0@@Z  1001ecd8 f   libvcruntime:undname.obj
 0001:0001dd02       ??HDName@@QBE?AV0@D@Z      1001ed02 f   libvcruntime:undname.obj
 0001:0001dd2c       ??HDName@@QBE?AV0@PAV0@@Z  1001ed2c f   libvcruntime:undname.obj
 0001:0001dd56       ??HDName@@QBE?AV0@PBD@Z    1001ed56 f   libvcruntime:undname.obj
 0001:0001dd80       ??HDName@@QBE?AV0@W4DNameStatus@@@Z 1001ed80 f   libvcruntime:undname.obj
 0001:0001ddaa       ??YDName@@QAEAAV0@ABV0@@Z  1001edaa f   libvcruntime:undname.obj
 0001:0001ddfb       ??YDName@@QAEAAV0@D@Z      1001edfb f   libvcruntime:undname.obj
 0001:0001de5f       ??YDName@@QAEAAV0@PAV0@@Z  1001ee5f f   libvcruntime:undname.obj
 0001:0001dedd       ??YDName@@QAEAAV0@PBD@Z    1001eedd f   libvcruntime:undname.obj
 0001:0001df56       ??YDName@@QAEAAV0@W4DNameStatus@@@Z 1001ef56 f   libvcruntime:undname.obj
 0001:0001dfa6       ??YReplicator@@QAEAAV0@ABVDName@@@Z 1001efa6 f   libvcruntime:undname.obj
 0001:0001e002       ??_5DName@@QAEAAV0@ABV0@@Z 1001f002 f   libvcruntime:undname.obj
 0001:0001e025       ?Constructor@_HeapManager@@QAEXP6APAXI@ZP6AXPAX@Z@Z 1001f025 f i libvcruntime:undname.obj
 0001:0001e049       ?Destructor@_HeapManager@@QAEXXZ 1001f049 f i libvcruntime:undname.obj
 0001:0001e08f       ?UScore@UnDecorator@@SAPBDW4Tokens@@@Z 1001f08f f   libvcruntime:undname.obj
 0001:0001e0b5       ?append@DName@@AAEXPBVDNameNode@@@Z 1001f0b5 f   libvcruntime:undname.obj
 0001:0001e10c       ?composeDeclaration@UnDecorator@@CA?AVDName@@ABV2@@Z 1001f10c f i libvcruntime:undname.obj
 0001:0001f120       ?doAccessSpecifiers@UnDecorator@@SAHXZ 10020120 f i libvcruntime:undname.obj
 0001:0001f131       ?doAllocationLanguage@UnDecorator@@SAHXZ 10020131 f i libvcruntime:undname.obj
 0001:0001f142       ?doAllocationModel@UnDecorator@@SAHXZ 10020142 f i libvcruntime:undname.obj
 0001:0001f153       ?doEcsu@UnDecorator@@SAHXZ 10020153 f i libvcruntime:undname.obj
 0001:0001f164       ?doEllipsis@UnDecorator@@SAHXZ 10020164 f i libvcruntime:undname.obj
 0001:0001f175       ?doFunctionReturns@UnDecorator@@SAHXZ 10020175 f i libvcruntime:undname.obj
 0001:0001f186       ?doMSKeywords@UnDecorator@@SAHXZ 10020186 f i libvcruntime:undname.obj
 0001:0001f196       ?doMemberTypes@UnDecorator@@SAHXZ 10020196 f i libvcruntime:undname.obj
 0001:0001f1a7       ?doNameOnly@UnDecorator@@SAHXZ 100201a7 f i libvcruntime:undname.obj
 0001:0001f1b4       ?doNoIdentCharCheck@UnDecorator@@SAHXZ 100201b4 f i libvcruntime:undname.obj
 0001:0001f1c1       ?doPchar@DName@@AAEXPBDH@Z 100201c1 f   libvcruntime:undname.obj
 0001:0001f268       ?doPtr64@UnDecorator@@SAHXZ 10020268 f i libvcruntime:undname.obj
 0001:0001f279       ?doRestrictionSpec@UnDecorator@@SAHXZ 10020279 f i libvcruntime:undname.obj
 0001:0001f28a       ?doThisTypes@UnDecorator@@SAHXZ 1002028a f i libvcruntime:undname.obj
 0001:0001f2a0       ?doThrowTypes@UnDecorator@@SAHXZ 100202a0 f i libvcruntime:undname.obj
 0001:0001f2b1       ?doTypeOnly@UnDecorator@@SAHXZ 100202b1 f i libvcruntime:undname.obj
 0001:0001f2be       ?doUnderScore@UnDecorator@@SAHXZ 100202be f i libvcruntime:undname.obj
 0001:0001f2cb       ?getArgumentList@UnDecorator@@CA?AVDName@@XZ 100202cb f   libvcruntime:undname.obj
 0001:0001f3fe       ?getArgumentTypes@UnDecorator@@CA?AVDName@@XZ 100203fe f   libvcruntime:undname.obj
 0001:0001f4fa       ?getArrayType@UnDecorator@@CA?AVDName@@ABV2@@Z 100204fa f i libvcruntime:undname.obj
 0001:0001f717       ?getBasedType@UnDecorator@@CA?AVDName@@XZ 10020717 f   libvcruntime:undname.obj
 0001:0001f7d5       ?getBasicDataType@UnDecorator@@CA?AVDName@@ABV2@@Z 100207d5 f   libvcruntime:undname.obj
 0001:0001fcab       ?getCHPEName@UnDecorator@@QAEPADPADH@Z 10020cab f i libvcruntime:undname.obj
 0001:0001fdc1       ?getCallIndex@UnDecorator@@CA?AVDName@@XZ 10020dc1 f i libvcruntime:undname.obj
 0001:0001fdda       ?getCallingConvention@UnDecorator@@CA?AVDName@@XZ 10020dda f   libvcruntime:undname.obj
 0001:0001fee1       ?getDataIndirectType@UnDecorator@@CA?AVDName@@ABV2@PBD0H@Z 10020ee1 f   libvcruntime:undname.obj
 0001:00020645       ?getDataIndirectType@UnDecorator@@CA?AVDName@@XZ 10021645 f i libvcruntime:undname.obj
 0001:00020683       ?getDataType@UnDecorator@@CA?AVDName@@PAV2@@Z 10021683 f   libvcruntime:undname.obj
 0001:00020779       ?getDecoratedName@UnDecorator@@CA?AVDName@@XZ 10021779 f   libvcruntime:undname.obj
 0001:00020a4b       ?getDimension@UnDecorator@@CA?AVDName@@_N@Z 10021a4b f   libvcruntime:undname.obj
 0001:00020bb1       ?getDispatchTarget@UnDecorator@@CA?AVDName@@XZ 10021bb1 f   libvcruntime:undname.obj
 0001:00020c1a       ?getDisplacement@UnDecorator@@CA?AVDName@@XZ 10021c1a f i libvcruntime:undname.obj
 0001:00020c33       ?getECSUDataType@UnDecorator@@CA?AVDName@@XZ 10021c33 f   libvcruntime:undname.obj
 0001:00020d91       ?getECSUName@UnDecorator@@CA?AVDName@@XZ 10021d91 f i libvcruntime:undname.obj
 0001:00020da6       ?getEnumType@UnDecorator@@CA?AVDName@@XZ 10021da6 f i libvcruntime:undname.obj
 0001:00020ed2       ?getExtendedDataIndirectType@UnDecorator@@CA?AVDName@@AAPBDAA_NH@Z 10021ed2 f   libvcruntime:undname.obj
 0001:000210f6       ?getExternalDataType@UnDecorator@@CA?AVDName@@ABV2@@Z 100220f6 f i libvcruntime:undname.obj
 0001:00021176       ?getFunctionIndirectType@UnDecorator@@CA?AVDName@@ABV2@@Z 10022176 f   libvcruntime:undname.obj
 0001:00021644       ?getGuardNumber@UnDecorator@@CA?AVDName@@XZ 10022644 f i libvcruntime:undname.obj
 0001:0002165d       ?getLastChar@DName@@QBEDXZ 1002265d f i libvcruntime:undname.obj
 0001:00021685       ?getLastChar@DNameStatusNode@@UBEDXZ 10022685 f i libvcruntime:undname.obj
 0001:00021694       ?getLastChar@charNode@@UBEDXZ 10022694 f i libvcruntime:undname.obj
 0001:00021698       ?getLastChar@pDNameNode@@UBEDXZ 10022698 f i libvcruntime:undname.obj
 0001:000216a9       ?getLastChar@pairNode@@UBEDXZ 100226a9 f i libvcruntime:undname.obj
 0001:000216eb       ?getLastChar@pcharNode@@UBEDXZ 100226eb f i libvcruntime:undname.obj
 0001:00021701       ?getLexicalFrame@UnDecorator@@CA?AVDName@@XZ 10022701 f i libvcruntime:undname.obj
 0001:0002174f       ?getMemory@_HeapManager@@QAEPAXIH@Z 1002274f f   libvcruntime:undname.obj
 0001:000217f7       ?getNoexcept@UnDecorator@@CA?AVDName@@XZ 100227f7 f   libvcruntime:undname.obj
 0001:0002184d       ?getNumberOfDimensions@UnDecorator@@CAHXZ 1002284d f   libvcruntime:undname.obj
 0001:000218c6       ?getOperatorName@UnDecorator@@CA?AVDName@@_NPA_N@Z 100228c6 f i libvcruntime:undname.obj
 0001:000220b4       ?getPointerType@UnDecorator@@CA?AVDName@@ABV2@0@Z 100230b4 f i libvcruntime:undname.obj
 0001:000220d9       ?getPointerTypeArray@UnDecorator@@CA?AVDName@@ABV2@0@Z 100230d9 f i libvcruntime:undname.obj
 0001:000220fe       ?getPrimaryDataType@UnDecorator@@CA?AVDName@@ABV2@@Z 100230fe f   libvcruntime:undname.obj
 0001:0002235b       ?getPtrRefDataType@UnDecorator@@CA?AVDName@@ABV2@H@Z 1002335b f   libvcruntime:undname.obj
 0001:000224ce       ?getPtrRefType@UnDecorator@@CA?AVDName@@ABV2@0PBD@Z 100234ce f   libvcruntime:undname.obj
 0001:00022606       ?getReferenceType@UnDecorator@@CA?AVDName@@ABV2@0PBD@Z 10023606 f i libvcruntime:undname.obj
 0001:00022629       ?getRestrictionSpec@UnDecorator@@CA?AVDName@@XZ 10023629 f   libvcruntime:undname.obj
 0001:00022760       ?getReturnType@UnDecorator@@CA?AVDName@@PAV2@@Z 10023760 f   libvcruntime:undname.obj
 0001:0002279a       ?getScope@UnDecorator@@CA?AVDName@@XZ 1002379a f   libvcruntime:undname.obj
 0001:00022c13       ?getScopedName@UnDecorator@@CA?AVDName@@XZ 10023c13 f   libvcruntime:undname.obj
 0001:00022d1c       ?getSignedDimension@UnDecorator@@CA?AVDName@@XZ 10023d1c f   libvcruntime:undname.obj
 0001:00022d81       ?getStorageConvention@UnDecorator@@CA?AVDName@@XZ 10023d81 f i libvcruntime:undname.obj
 0001:00022d96       ?getString@DName@@QBEPADPAD0@Z 10023d96 f i libvcruntime:undname.obj
 0001:00022dce       ?getString@DName@@QBEPADPADH@Z 10023dce f i libvcruntime:undname.obj
 0001:00022e39       ?getString@DNameStatusNode@@UBEPADPAD0@Z 10023e39 f i libvcruntime:undname.obj
 0001:00022e69       ?getString@charNode@@UBEPADPAD0@Z 10023e69 f i libvcruntime:undname.obj
 0001:00022e83       ?getString@pDNameNode@@UBEPADPAD0@Z 10023e83 f i libvcruntime:undname.obj
 0001:00022e9f       ?getString@pairNode@@UBEPADPAD0@Z 10023e9f f i libvcruntime:undname.obj
 0001:00022ef6       ?getString@pcharNode@@UBEPADPAD0@Z 10023ef6 f i libvcruntime:undname.obj
 0001:00022f17       ?getStringEncoding@UnDecorator@@CA?AVDName@@PBDH@Z 10023f17 f   libvcruntime:undname.obj
 0001:00022ff3       ?getStringHelper@@YAPADPADPBD1H@Z 10023ff3 f i libvcruntime:undname.obj
 0001:00023037       ?getSymbolName@UnDecorator@@CA?AVDName@@XZ 10024037 f i libvcruntime:undname.obj
 0001:00023091       ?getTemplateArgumentList@UnDecorator@@CA?AVDName@@XZ 10024091 f   libvcruntime:undname.obj
 0001:000233d5       ?getTemplateConstant@UnDecorator@@CA?AVDName@@XZ 100243d5 f   libvcruntime:undname.obj
 0001:000237d3       ?getTemplateName@UnDecorator@@CA?AVDName@@_N@Z 100247d3 f   libvcruntime:undname.obj
 0001:0002398d       ?getThisType@UnDecorator@@CA?AVDName@@XZ 1002498d f i libvcruntime:undname.obj
 0001:000239cc       ?getThrowTypes@UnDecorator@@CA?AVDName@@XZ 100249cc f   libvcruntime:undname.obj
 0001:000239f7       ?getTypeEncoding@UnDecorator@@CAHXZ 100249f7 f i libvcruntime:undname.obj
 0001:00023de9       ?getUndecoratedName@UnDecorator@@QAEPADPADH@Z 10024de9 f i libvcruntime:undname.obj
 0001:00023ede       ?getVCallThunkType@UnDecorator@@CA?AVDName@@XZ 10024ede f i libvcruntime:undname.obj
 0001:00023f36       ?getVbTableType@UnDecorator@@CA?AVDName@@ABV2@@Z 10024f36 f i libvcruntime:undname.obj
 0001:00023f50       ?getVdispMapType@UnDecorator@@CA?AVDName@@ABV2@@Z 10024f50 f i libvcruntime:undname.obj
 0001:00023fb9       ?getVfTableType@UnDecorator@@CA?AVDName@@ABV2@@Z 10024fb9 f i libvcruntime:undname.obj
 0001:00024174       ?getZName@UnDecorator@@CA?AVDName@@_N0@Z 10025174 f   libvcruntime:undname.obj
 0001:000243f2       ?haveTemplateParameters@UnDecorator@@SAHXZ 100253f2 f i libvcruntime:undname.obj
 0001:000243ff       ?isArray@DName@@QBEHXZ     100253ff f i libvcruntime:undname.obj
 0001:0002440b       ?isComArray@DName@@QBEHXZ  1002540b f i libvcruntime:undname.obj
 0001:00024417       ?isEmpty@DName@@QBEHXZ     10025417 f i libvcruntime:undname.obj
 0001:00024421       ?isFull@Replicator@@QBEHXZ 10025421 f i libvcruntime:undname.obj
 0001:0002442c       ?isNoTE@DName@@QBEHXZ      1002542c f i libvcruntime:undname.obj
 0001:00024438       ?isPinPtr@DName@@QBEHXZ    10025438 f i libvcruntime:undname.obj
 0001:00024444       ?isPtrRef@DName@@QBEHXZ    10025444 f i libvcruntime:undname.obj
 0001:00024450       ?isUDC@DName@@QBEHXZ       10025450 f i libvcruntime:undname.obj
 0001:00024465       ?isUDTThunk@DName@@QBEHXZ  10025465 f i libvcruntime:undname.obj
 0001:0002447a       ?isVCallThunk@DName@@QBEHXZ 1002547a f i libvcruntime:undname.obj
 0001:00024486       ?isValid@DName@@QBEHXZ     10025486 f i libvcruntime:undname.obj
 0001:00024492       ?length@DName@@QBEHXZ      10025492 f i libvcruntime:undname.obj
 0001:000244b8       ?length@DNameStatusNode@@UBEHXZ 100254b8 f i libvcruntime:undname.obj
 0001:000244bc       ?length@charNode@@UBEHXZ   100254bc f i libvcruntime:undname.obj
 0001:000244c0       ?length@pDNameNode@@UBEHXZ 100254c0 f i libvcruntime:undname.obj
 0001:000244d1       ?length@pairNode@@UBEHXZ   100254d1 f i libvcruntime:undname.obj
 0001:00024528       ?length@pcharNode@@UBEHXZ  10025528 f i libvcruntime:undname.obj
 0001:0002452c       ?make@DNameStatusNode@@SAPBV1@W4DNameStatus@@@Z 1002552c f i libvcruntime:undname.obj
 0001:0002454f       ?parseDecoratedName@UnDecorator@@CA?AVDName@@XZ 1002554f f   libvcruntime:undname.obj
 0001:00024678       ?setIsArray@DName@@QAEXXZ  10025678 f i libvcruntime:undname.obj
 0001:00024682       ?setIsComArray@DName@@QAEXXZ 10025682 f i libvcruntime:undname.obj
 0001:0002468c       ?setIsNoTE@DName@@QAEXXZ   1002568c f i libvcruntime:undname.obj
 0001:00024696       ?setIsPinPtr@DName@@QAEXXZ 10025696 f i libvcruntime:undname.obj
 0001:000246a0       ?setIsUDC@DName@@QAEXXZ    100256a0 f i libvcruntime:undname.obj
 0001:000246b0       ?setIsVCallThunk@DName@@QAEXXZ 100256b0 f i libvcruntime:undname.obj
 0001:000246ba       ?setPtrRef@DName@@QAEAAV1@XZ 100256ba f i libvcruntime:undname.obj
 0001:000246c6       ?status@DName@@QBE?AW4DNameStatus@@XZ 100256c6 f i libvcruntime:undname.obj
 0001:0002474b       ___unDName                 1002574b f   libvcruntime:undname.obj
 0001:00024776       ___unDNameEx               10025776 f   libvcruntime:undname.obj
 0001:0002483c       __vsprintf_s_l             1002583c f i libvcruntime:undname.obj
 0001:00024874       _sprintf_s                 10025874 f i libvcruntime:undname.obj
 0001:00024897       _unDNameGenerateCHPE       10025897 f   libvcruntime:undname.obj
 0001:0002490a       ??$?RU__vcrt_ptd@@@__crt_internal_free_policy@@QBEXQBU__vcrt_ptd@@@Z 1002590a f i libvcruntime:per_thread_data.obj
 0001:0002491e       ??0?$__crt_unique_heap_ptr@U__vcrt_ptd@@U__crt_internal_free_policy@@@@QAE@QAU__vcrt_ptd@@@Z 1002591e f i libvcruntime:per_thread_data.obj
 0001:00024941       ??1?$__crt_unique_heap_ptr@U__vcrt_ptd@@U__crt_internal_free_policy@@@@QAE@XZ 10025941 f i libvcruntime:per_thread_data.obj
 0001:00024960       ??B?$__crt_unique_heap_ptr@U__vcrt_ptd@@U__crt_internal_free_policy@@@@QBE_NXZ 10025960 f i libvcruntime:per_thread_data.obj
 0001:00024967       ?detach@?$__crt_unique_heap_ptr@U__vcrt_ptd@@U__crt_internal_free_policy@@@@QAEPAU__vcrt_ptd@@XZ 10025967 f i libvcruntime:per_thread_data.obj
 0001:0002496d       ?get@?$__crt_unique_heap_ptr@U__vcrt_ptd@@U__crt_internal_free_policy@@@@QBEPAU__vcrt_ptd@@XZ 1002596d f i libvcruntime:per_thread_data.obj
 0001:00024970       ?is_valid@?$__crt_unique_heap_ptr@U__vcrt_ptd@@U__crt_internal_free_policy@@@@QBE_NXZ 10025970 f i libvcruntime:per_thread_data.obj
 0001:00024977       ?release@?$__crt_unique_heap_ptr@U__vcrt_ptd@@U__crt_internal_free_policy@@@@QAEXXZ 10025977 f i libvcruntime:per_thread_data.obj
 0001:000249ab       ___vcrt_freefls@4          100259ab f   libvcruntime:per_thread_data.obj
 0001:000249ce       ___vcrt_freeptd            100259ce f   libvcruntime:per_thread_data.obj
 0001:00024a11       ___vcrt_getptd             10025a11 f   libvcruntime:per_thread_data.obj
 0001:00024a22       ___vcrt_getptd_noexit      10025a22 f   libvcruntime:per_thread_data.obj
 0001:00024ad8       ___vcrt_getptd_noinit      10025ad8 f   libvcruntime:per_thread_data.obj
 0001:00024b1c       ___vcrt_initialize_ptd     10025b1c f   libvcruntime:per_thread_data.obj
 0001:00024b5b       ___vcrt_uninitialize_ptd   10025b5b f   libvcruntime:per_thread_data.obj
 0001:00024b7c       ___vcrt_initialize_locks   10025b7c f   libvcruntime:locks.obj
 0001:00024bc7       ___vcrt_lock               10025bc7 f   libvcruntime:locks.obj
 0001:00024be1       ___vcrt_uninitialize_locks 10025be1 f   libvcruntime:locks.obj
 0001:00024c1b       ___vcrt_unlock             10025c1b f   libvcruntime:locks.obj
 0001:00024c35       ??$?BX@__crt_fast_encoded_nullptr_t@@QBEPAXXZ 10025c35 f i libvcruntime:winapi_downlevel.obj
 0001:00024c3b       ??$__crt_fast_decode_pointer@PAX@@YAPAXQAX@Z 10025c3b f i libvcruntime:winapi_downlevel.obj
 0001:00024c54       ??$__crt_fast_encode_pointer@PAX@@YAPAXQAX@Z 10025c54 f i libvcruntime:winapi_downlevel.obj
 0001:00024c78       ??$__crt_interlocked_exchange_pointer@UHINSTANCE__@@PAU1@@@YAPAUHINSTANCE__@@PDSAU0@QAU0@@Z 10025c78 f i libvcruntime:winapi_downlevel.obj
 0001:00024c88       ??$__crt_interlocked_exchange_pointer@UHINSTANCE__@@PAX@@YAPAUHINSTANCE__@@PDSAU0@QAX@Z 10025c88 f i libvcruntime:winapi_downlevel.obj
 0001:00024c98       ??$__crt_interlocked_exchange_pointer@XPAX@@YAPAXPDSAXQAX@Z 10025c98 f i libvcruntime:winapi_downlevel.obj
 0001:00024ca8       ??$__crt_interlocked_read_pointer@UHINSTANCE__@@@@YAPAUHINSTANCE__@@PDSAU0@@Z 10025ca8 f i libvcruntime:winapi_downlevel.obj
 0001:00024cb4       ??$__crt_interlocked_read_pointer@X@@YAPAXPDSAX@Z 10025cb4 f i libvcruntime:winapi_downlevel.obj
 0001:00024cc0       ?__crt_fast_encode_pointer@@YA?AU__crt_fast_encoded_nullptr_t@@$$T@Z 10025cc0 f i libvcruntime:winapi_downlevel.obj
 0001:00024ff3       ___vcrt_FlsAlloc           10025ff3 f   libvcruntime:winapi_downlevel.obj
 0001:0002503c       ___vcrt_FlsFree            1002603c f   libvcruntime:winapi_downlevel.obj
 0001:00025085       ___vcrt_FlsGetValue        10026085 f   libvcruntime:winapi_downlevel.obj
 0001:000250ce       ___vcrt_FlsSetValue        100260ce f   libvcruntime:winapi_downlevel.obj
 0001:0002511b       ___vcrt_InitializeCriticalSectionEx 1002611b f   libvcruntime:winapi_downlevel.obj
 0001:00025173       ___vcrt_initialize_winapi_thunks 10026173 f   libvcruntime:winapi_downlevel.obj
 0001:000251a6       ___vcrt_uninitialize_winapi_thunks 100261a6 f   libvcruntime:winapi_downlevel.obj
 0001:000251e4       ??$?B$$A6AXXZ@__crt_fast_encoded_nullptr_t@@QBEP6AXXZXZ 100261e4 f i libvcruntime:purevirt_data.obj
 0001:000251ea       ??$__crt_fast_encode_pointer@P6AXXZ@@YAP6AXXZQ6AXXZ@Z 100261ea f i libvcruntime:purevirt_data.obj
 0001:0002520e       ___vcrt_initialize_pure_virtual_call_handler 1002620e f   libvcruntime:purevirt_data.obj
 0001:00025220       __global_unwind2           10026220 f   libvcruntime:exsup.obj
 0001:00025286       __local_unwind2            10026286 f   libvcruntime:exsup.obj
 0001:0002530a       __abnormal_termination     1002630a f   libvcruntime:exsup.obj
 0001:00025330       __NLG_Notify1              10026330 f   libvcruntime:exsup.obj
 0001:0002533c       __NLG_Notify               1002633c f   libvcruntime:exsup.obj
 0001:00025353       __NLG_Dispatch2            10026353     libvcruntime:exsup.obj
 0001:00025353       __NLG_Dispatch             10026353     libvcruntime:exsup.obj
 0001:0002535b       __NLG_Call                 1002635b f   libvcruntime:exsup.obj
 0001:0002535d       __NLG_Return2              1002635d     libvcruntime:exsup.obj
 0001:000253ad       ??$__crt_fast_decode_pointer@P6AXXZ@@YAP6AXXZQ6AXXZ@Z 100263ad f i libvcruntime:purevirt.obj
 0001:000253c6       ??$__crt_interlocked_exchange_pointer@$$A6AXXZP6AXXZ@@YAP6AXXZPDS6AXXZQ6AXXZ@Z 100263c6 f i libvcruntime:purevirt.obj
 0001:000253d6       ??$__crt_interlocked_read_pointer@$$A6AXXZ@@YAP6AXXZPDS6AXXZ@Z 100263d6 f i libvcruntime:purevirt.obj
 0001:000253e2       __get_purecall_handler     100263e2 f   libvcruntime:purevirt.obj
 0001:000253fc       __purecall                 100263fc f   libvcruntime:purevirt.obj
 0001:0002541f       __set_purecall_handler     1002641f f   libvcruntime:purevirt.obj
 0001:0002544d       ??$?0AAViterator@TryBlockMap@__FrameHandler3@@AAV012@$0A@@?$pair@Viterator@TryBlockMap@__FrameHandler3@@V123@@std@@QAE@AAViterator@TryBlockMap@__FrameHandler3@@0@Z 1002644d f i libvcruntime:trnsctrl.obj
 0001:0002547a       ??$forward@AAViterator@TryBlockMap@__FrameHandler3@@@std@@YAAAViterator@TryBlockMap@__FrameHandler3@@AAV123@@Z 1002647a f i libvcruntime:trnsctrl.obj
 0001:00025484       ??0iterator@TryBlockMap@__FrameHandler3@@QAE@AAV12@I@Z 10026484 f i libvcruntime:trnsctrl.obj
 0001:0002549d       ?GetRangeOfTrysToCheck@__FrameHandler3@@SA?AU?$pair@Viterator@TryBlockMap@__FrameHandler3@@V123@@std@@AAVTryBlockMap@1@HH@Z 1002649d f   libvcruntime:trnsctrl.obj
 0001:0002553f       ?_CallCatchBlock2@@YAPAXPAUEHRegistrationNode@@PBU_s_FuncInfo@@PAXHK@Z 1002653f f   libvcruntime:trnsctrl.obj
 0001:000255b4       ?_CallSETranslator@@YAHPAUEHExceptionRecord@@PAUEHRegistrationNode@@PAX2PBU_s_FuncInfo@@H1@Z 100265b4 f   libvcruntime:trnsctrl.obj
 0001:000256c5       ?_JumpToContinuation@@YGXPAXPAUEHRegistrationNode@@@Z 100266c5 f   libvcruntime:trnsctrl.obj
 0001:00025701       ?_UnwindNestedFrames@@YGXPAUEHRegistrationNode@@PAUEHExceptionRecord@@@Z 10026701 f   libvcruntime:trnsctrl.obj
 0001:00025768       ?getFuncInfo@TryBlockMap@__FrameHandler3@@QAEPBU_s_FuncInfo@@XZ 10026768 f i libvcruntime:trnsctrl.obj
 0001:0002576b       __CatchGuardHandler        1002676b f   libvcruntime:trnsctrl.obj
 0001:000257a8       __CreateFrameInfo          100267a8 f   libvcruntime:trnsctrl.obj
 0001:000257d5       __FindAndUnlinkFrame       100267d5 f   libvcruntime:trnsctrl.obj
 0001:0002582b       __TranslatorGuardHandler   1002682b f   libvcruntime:trnsctrl.obj
 0001:000258ef       ___CxxFrameHandler         100268ef f   libvcruntime:trnsctrl.obj
 0001:00025932       ___CxxFrameHandler2        10026932 f   libvcruntime:trnsctrl.obj
 0001:00025975       ___CxxFrameHandler3        10026975 f   libvcruntime:trnsctrl.obj
 0001:000259b8       ___CxxLongjmpUnwind@4      100269b8 f   libvcruntime:trnsctrl.obj
 0001:00026299       ??$TypeMatchHelper@V__FrameHandler3@@@@YAHPBU_s_HandlerType@@PBU_s_CatchableType@@PBU_s_ThrowInfo@@@Z 10027299 f i libvcruntime:frame.obj
 0001:0002634a       ??$__InternalCxxFrameHandler@V__FrameHandler3@@@@YA?AW4_EXCEPTION_DISPOSITION@@PAUEHExceptionRecord@@PAUEHRegistrationNode@@PAU_CONTEXT@@PAXPBU_s_FuncInfo@@H1E@Z 1002734a f i libvcruntime:frame.obj
 0001:0002648c       ??0HandlerMap@__FrameHandler3@@QAE@PBU_s_TryBlockMapEntry@@PAX@Z 1002748c f i libvcruntime:frame.obj
 0001:000264a8       ??0TryBlockMap@__FrameHandler3@@QAE@PBU_s_FuncInfo@@PAX@Z 100274a8 f i libvcruntime:frame.obj
 0001:000264c1       ??0bad_exception@std@@QAE@ABV01@@Z 100274c1 f i libvcruntime:frame.obj
 0001:000264e2       ??0bad_exception@std@@QAE@XZ 100274e2 f i libvcruntime:frame.obj
 0001:00026500       ??0exception@std@@QAE@ABV01@@Z 10027500 f i libvcruntime:frame.obj
 0001:00026537       ??0exception@std@@QAE@QBDH@Z 10027537 f i libvcruntime:frame.obj
 0001:0002655b       ??0iterator@HandlerMap@__FrameHandler3@@QAE@AAV12@I@Z 1002755b f i libvcruntime:frame.obj
 0001:00026574       ??1bad_exception@std@@UAE@XZ 10027574 f i libvcruntime:frame.obj
 0001:00026589       ??1exception@std@@UAE@XZ   10027589 f i libvcruntime:frame.obj
 0001:0002659e       ??8iterator@HandlerMap@__FrameHandler3@@QBE_NABV012@@Z 1002759e f i libvcruntime:frame.obj
 0001:000265b5       ??8type_info@@QBE_NABV0@@Z 100275b5 f i libvcruntime:frame.obj
 0001:000265db       ??9iterator@HandlerMap@__FrameHandler3@@QBE_NABV012@@Z 100275db f i libvcruntime:frame.obj
 0001:000265f2       ??Diterator@HandlerMap@__FrameHandler3@@QAEPBU_s_HandlerType@@XZ 100275f2 f i libvcruntime:frame.obj
 0001:00026601       ??Diterator@TryBlockMap@__FrameHandler3@@QAEPBU_s_TryBlockMapEntry@@XZ 10027601 f i libvcruntime:frame.obj
 0001:00026610       ??Eiterator@HandlerMap@__FrameHandler3@@QAEAAV012@XZ 10027610 f i libvcruntime:frame.obj
 0001:00026616       ??Eiterator@TryBlockMap@__FrameHandler3@@QAEAAV012@XZ 10027616 f i libvcruntime:frame.obj
 0001:0002661c       ??Miterator@TryBlockMap@__FrameHandler3@@QBE_NABV012@@Z 1002761c f i libvcruntime:frame.obj
 0001:00026633       ??_Ebad_exception@std@@UAEPAXI@Z 10027633 f i libvcruntime:frame.obj
 0001:00026633       ??_Gbad_exception@std@@UAEPAXI@Z 10027633 f i libvcruntime:frame.obj
 0001:0002666b       ??_Gexception@std@@UAEPAXI@Z 1002766b f i libvcruntime:frame.obj
 0001:0002666b       ??_Eexception@std@@UAEPAXI@Z 1002766b f i libvcruntime:frame.obj
 0001:000266a3       ?BuildCatchObject@__FrameHandler3@@SAXPAUEHExceptionRecord@@PAXPBU_s_HandlerType@@PBU_s_CatchableType@@@Z 100276a3 f   libvcruntime:frame.obj
 0001:000266a8       ?BuildCatchObjectHelper@__FrameHandler3@@SAHPAUEHExceptionRecord@@PAXPBU_s_HandlerType@@PBU_s_CatchableType@@@Z 100276a8 f   libvcruntime:frame.obj
 0001:0002698c       ?FrameUnwindToEmptyState@__FrameHandler3@@SAXPAUEHRegistrationNode@@PAXPBU_s_FuncInfo@@@Z 1002798c f   libvcruntime:frame.obj
 0001:000269aa       ?FrameUnwindToState@__FrameHandler3@@SAXPAUEHRegistrationNode@@PAXPBU_s_FuncInfo@@H@Z 100279aa f   libvcruntime:frame.obj
 0001:00026acc       ?GetMaxState@__FrameHandler3@@SAHPAXPBU_s_FuncInfo@@@Z 10027acc f i libvcruntime:frame.obj
 0001:00026be0       ?TypeMatch@__FrameHandler3@@SAHPBU_s_HandlerType@@PBU_s_CatchableType@@PBU_s_ThrowInfo@@@Z 10027be0 f   libvcruntime:frame.obj
 0001:00026beb       ?_CallMemberFunction1@@YGXQAX00@Z 10027beb f i libvcruntime:frame.obj
 0001:00026bff       ?_CallMemberFunction2@@YGXQAX00H@Z 10027bff f i libvcruntime:frame.obj
 0001:00026c16       ?_ValidateExecute@@YA_NP6GHXZ@Z 10027c16 f i libvcruntime:frame.obj
 0001:00026c25       ?_ValidateRead@@YA_NPBXI@Z 10027c25 f i libvcruntime:frame.obj
 0001:00026c34       ?_ValidateWrite@@YA_NPAXI@Z 10027c34 f i libvcruntime:frame.obj
 0001:00026c43       ?begin@HandlerMap@__FrameHandler3@@QAE?AViterator@12@XZ 10027c43 f i libvcruntime:frame.obj
 0001:00026c57       ?end@HandlerMap@__FrameHandler3@@QAE?AViterator@12@XZ 10027c57 f i libvcruntime:frame.obj
 0001:00026c6c       ?getESTypes@__FrameHandler3@@SAPBU_s_ESTypeList@@PBU_s_FuncInfo@@@Z 10027c6c f i libvcruntime:frame.obj
 0001:00026c79       ?getLastEntry@HandlerMap@__FrameHandler3@@QAEPBU_s_HandlerType@@XZ 10027c79 f i libvcruntime:frame.obj
 0001:00026c8a       ?getMagicNum@__FrameHandler3@@SAIPBU_s_FuncInfo@@@Z 10027c8a f i libvcruntime:frame.obj
 0001:00026c9c       ?getNumTryBlocks@TryBlockMap@__FrameHandler3@@QAEIXZ 10027c9c f i libvcruntime:frame.obj
 0001:00026ca2       ?isEHs@__FrameHandler3@@SA_NPBU_s_FuncInfo@@@Z 10027ca2 f i libvcruntime:frame.obj
 0001:00026cb2       ?isNoExcept@__FrameHandler3@@SA_NPBU_s_FuncInfo@@@Z 10027cb2 f i libvcruntime:frame.obj
 0001:00026cc6       ?what@exception@std@@UBEPBDXZ 10027cc6 f i libvcruntime:frame.obj
 0001:00026cd6       ___BuildCatchObject        10027cd6 f   libvcruntime:frame.obj
 0001:00026cdb       ___BuildCatchObjectHelper  10027cdb f   libvcruntime:frame.obj
 0001:00026ce6       ___TypeMatch               10027ce6 f   libvcruntime:frame.obj
 0001:00026cf1       ___vcrt_EncodePointer      10027cf1 f i libvcruntime:frame.obj
 0001:00026d10       __CallSettingFrame@12      10027d10 f   libvcruntime:lowhelpr.obj
 0001:00026d37       __NLG_Return               10027d37     libvcruntime:lowhelpr.obj
 0001:00026d88       __get_unexpected           10027d88 f   libvcruntime:unexpected.obj
 0001:00026d9e       _set_unexpected            10027d9e f   libvcruntime:unexpected.obj
 0001:00026dc3       _unexpected                10027dc3 f   libvcruntime:unexpected.obj
 0001:00026de7       ?GetCurrentState@__FrameHandler3@@SAHPAUEHRegistrationNode@@PAXPBU_s_FuncInfo@@@Z 10027de7 f   libvcruntime:ehstate.obj
 0001:00026e0b       ?SetState@__FrameHandler3@@SAXPAUEHRegistrationNode@@PBU_s_FuncInfo@@H@Z 10027e0b f   libvcruntime:ehstate.obj
 0001:00026e1c       ___DestructExceptionObject 10027e1c f   libvcruntime:ehhelpers.obj
 0001:00026ee4       ?_CallMemberFunction0@@YGXQAX0@Z 10027ee4 f i libvcruntime:ehhelpers.obj
 0001:00026ef4       ?raw_name@type_info@@QBEPBDXZ 10027ef4 f i libvcruntime:ehhelpers.obj
 0001:00026ef8       __IsExceptionObjectToBeDestroyed 10027ef8 f   libvcruntime:ehhelpers.obj
 0001:00026f27       __SetWinRTOutOfMemoryExceptionCallback 10027f27 f   libvcruntime:ehhelpers.obj
 0001:00026f37       ___AdjustPointer           10027f37 f   libvcruntime:ehhelpers.obj
 0001:00026f65       ___FrameUnwindFilter       10027f65 f   libvcruntime:ehhelpers.obj
 0001:00026fbb       ___GetPlatformExceptionInfo 10027fbb f   libvcruntime:ehhelpers.obj
 0001:0002701a       ___current_exception       1002801a f   libvcruntime:ehhelpers.obj
 0001:00027025       ___current_exception_context 10028025 f   libvcruntime:ehhelpers.obj
 0001:00027030       ___processing_throw        10028030 f   libvcruntime:ehhelpers.obj
 0001:0002703b       ___std_terminate           1002803b f   libvcruntime:ehhelpers.obj
 0001:00027040       __is_exception_typeof      10028040 f   libvcruntime:ehhelpers.obj
 0001:0002710d       ??$?RD@__crt_public_free_policy@@QBEXQBD@Z 1002810d f i libvcruntime:std_exception.obj
 0001:00027121       ??0?$__crt_unique_heap_ptr@DU__crt_public_free_policy@@@@QAE@QAD@Z 10028121 f i libvcruntime:std_exception.obj
 0001:00027132       ??1?$__crt_unique_heap_ptr@DU__crt_public_free_policy@@@@QAE@XZ 10028132 f i libvcruntime:std_exception.obj
 0001:00027146       ??B?$__crt_unique_heap_ptr@DU__crt_public_free_policy@@@@QBE_NXZ 10028146 f i libvcruntime:std_exception.obj
 0001:0002714d       ?detach@?$__crt_unique_heap_ptr@DU__crt_public_free_policy@@@@QAEPADXZ 1002814d f i libvcruntime:std_exception.obj
 0001:00027153       ?get@?$__crt_unique_heap_ptr@DU__crt_public_free_policy@@@@QBEPADXZ 10028153 f i libvcruntime:std_exception.obj
 0001:00027156       ?is_valid@?$__crt_unique_heap_ptr@DU__crt_public_free_policy@@@@QBE_NXZ 10028156 f i libvcruntime:std_exception.obj
 0001:0002715d       ?release@?$__crt_unique_heap_ptr@DU__crt_public_free_policy@@@@QAEXXZ 1002815d f i libvcruntime:std_exception.obj
 0001:00027171       ___std_exception_copy      10028171 f   libvcruntime:std_exception.obj
 0001:000271ec       ___std_exception_destroy   100281ec f   libvcruntime:std_exception.obj
 0001:00027212       __CxxThrowException@8      10028212 f   libvcruntime:throw.obj
 0001:0002729a       _malloc                    1002829a f   libucrt:malloc.obj
 0001:000272a7       _free                      100282a7 f   libucrt:free.obj
 0001:000272cb       ??$?RPAU__crt_stdio_stream_data@@@__crt_internal_free_policy@@QBEXQBQAU__crt_stdio_stream_data@@@Z 100282cb f i libucrt:_file.obj
 0001:000272e1       ??0?$__crt_unique_heap_ptr@PAU__crt_stdio_stream_data@@U__crt_internal_free_policy@@@@QAE@QAPAU__crt_stdio_stream_data@@@Z 100282e1 f i libucrt:_file.obj
 0001:000272f5       ??0__crt_stdio_stream@@QAE@QAU_iobuf@@@Z 100282f5 f i libucrt:_file.obj
 0001:00027309       ??1?$__crt_unique_heap_ptr@PAU__crt_stdio_stream_data@@U__crt_internal_free_policy@@@@QAE@XZ 10028309 f i libucrt:_file.obj
 0001:0002731f       ??C__crt_stdio_stream@@QBEPAU__crt_stdio_stream_data@@XZ 1002831f f i libucrt:_file.obj
 0001:00027322       ?detach@?$__crt_unique_heap_ptr@PAU__crt_stdio_stream_data@@U__crt_internal_free_policy@@@@QAEPAPAU__crt_stdio_stream_data@@XZ 10028322 f i libucrt:_file.obj
 0001:00027328       ?release@?$__crt_unique_heap_ptr@PAU__crt_stdio_stream_data@@U__crt_internal_free_policy@@@@QAEXXZ 10028328 f i libucrt:_file.obj
 0001:0002733e       ___acrt_initialize_stdio   1002833e f   libucrt:_file.obj
 0001:00027438       ___acrt_iob_func           10028438 f   libucrt:_file.obj
 0001:0002744c       ___acrt_uninitialize_stdio 1002844c f   libucrt:_file.obj
 0001:000274ab       __get_stream_buffer_pointers 100284ab f   libucrt:_file.obj
 0001:00027502       __lock_file                10028502 f   libucrt:_file.obj
 0001:0002751b       __unlock_file              1002851b f   libucrt:_file.obj
 0001:00027534       ??$?0ABV?$stream_output_adapter@D@__crt_stdio_output@@AB_KABQBDABQAU__crt_locale_pointers@@ABQAD@?$format_validation_base@DV?$stream_output_adapter@D@__crt_stdio_output@@@__crt_stdio_output@@IAE@ABV?$stream_output_adapter@D@1@AB_KABQBDABQAU__crt_locale_pointers@@ABQAD@Z 10028534 f i libucrt:output.obj
 0001:0002755f       ??$?0ABV?$stream_output_adapter@D@__crt_stdio_output@@AB_KABQBDABQAU__crt_locale_pointers@@ABQAD@?$positional_parameter_base@DV?$stream_output_adapter@D@__crt_stdio_output@@@__crt_stdio_output@@IAE@ABV?$stream_output_adapter@D@1@AB_KABQBDABQAU__crt_locale_pointers@@ABQAD@Z 1002855f f i libucrt:output.obj
 0001:000275b9       ??$?0ABV?$stream_output_adapter@D@__crt_stdio_output@@AB_KABQBDABQAU__crt_locale_pointers@@ABQAD@?$standard_base@DV?$stream_output_adapter@D@__crt_stdio_output@@@__crt_stdio_output@@IAE@ABV?$stream_output_adapter@D@1@AB_KABQBDABQAU__crt_locale_pointers@@ABQAD@Z 100285b9 f i libucrt:output.obj
 0001:000275fb       ??$?0ABV?$stream_output_adapter@_W@__crt_stdio_output@@AB_KABQB_WABQAU__crt_locale_pointers@@ABQAD@?$format_validation_base@_WV?$stream_output_adapter@_W@__crt_stdio_output@@@__crt_stdio_output@@IAE@ABV?$stream_output_adapter@_W@1@AB_KABQB_WABQAU__crt_locale_pointers@@ABQAD@Z 100285fb f i libucrt:output.obj
 0001:00027626       ??$?0ABV?$stream_output_adapter@_W@__crt_stdio_output@@AB_KABQB_WABQAU__crt_locale_pointers@@ABQAD@?$positional_parameter_base@_WV?$stream_output_adapter@_W@__crt_stdio_output@@@__crt_stdio_output@@IAE@ABV?$stream_output_adapter@_W@1@AB_KABQB_WABQAU__crt_locale_pointers@@ABQAD@Z 10028626 f i libucrt:output.obj
 0001:00027680       ??$?0ABV?$stream_output_adapter@_W@__crt_stdio_output@@AB_KABQB_WABQAU__crt_locale_pointers@@ABQAD@?$standard_base@_WV?$stream_output_adapter@_W@__crt_stdio_output@@@__crt_stdio_output@@IAE@ABV?$stream_output_adapter@_W@1@AB_KABQB_WABQAU__crt_locale_pointers@@ABQAD@Z 10028680 f i libucrt:output.obj
 0001:000276c2       ??$?0ABV?$string_output_adapter@D@__crt_stdio_output@@AB_KABQBDABQAU__crt_locale_pointers@@ABQAD@?$format_validation_base@DV?$string_output_adapter@D@__crt_stdio_output@@@__crt_stdio_output@@IAE@ABV?$string_output_adapter@D@1@AB_KABQBDABQAU__crt_locale_pointers@@ABQAD@Z 100286c2 f i libucrt:output.obj
 0001:000276ed       ??$?0ABV?$string_output_adapter@D@__crt_stdio_output@@AB_KABQBDABQAU__crt_locale_pointers@@ABQAD@?$positional_parameter_base@DV?$string_output_adapter@D@__crt_stdio_output@@@__crt_stdio_output@@IAE@ABV?$string_output_adapter@D@1@AB_KABQBDABQAU__crt_locale_pointers@@ABQAD@Z 100286ed f i libucrt:output.obj
 0001:00027747       ??$?0ABV?$string_output_adapter@D@__crt_stdio_output@@AB_KABQBDABQAU__crt_locale_pointers@@ABQAD@?$standard_base@DV?$string_output_adapter@D@__crt_stdio_output@@@__crt_stdio_output@@IAE@ABV?$string_output_adapter@D@1@AB_KABQBDABQAU__crt_locale_pointers@@ABQAD@Z 10028747 f i libucrt:output.obj
 0001:00027789       ??$?0ABV?$string_output_adapter@_W@__crt_stdio_output@@AB_KABQB_WABQAU__crt_locale_pointers@@ABQAD@?$format_validation_base@_WV?$string_output_adapter@_W@__crt_stdio_output@@@__crt_stdio_output@@IAE@ABV?$string_output_adapter@_W@1@AB_KABQB_WABQAU__crt_locale_pointers@@ABQAD@Z 10028789 f i libucrt:output.obj
 0001:000277b4       ??$?0ABV?$string_output_adapter@_W@__crt_stdio_output@@AB_KABQB_WABQAU__crt_locale_pointers@@ABQAD@?$positional_parameter_base@_WV?$string_output_adapter@_W@__crt_stdio_output@@@__crt_stdio_output@@IAE@ABV?$string_output_adapter@_W@1@AB_KABQB_WABQAU__crt_locale_pointers@@ABQAD@Z 100287b4 f i libucrt:output.obj
 0001:0002780e       ??$?0ABV?$string_output_adapter@_W@__crt_stdio_output@@AB_KABQB_WABQAU__crt_locale_pointers@@ABQAD@?$standard_base@_WV?$string_output_adapter@_W@__crt_stdio_output@@@__crt_stdio_output@@IAE@ABV?$string_output_adapter@_W@1@AB_KABQB_WABQAU__crt_locale_pointers@@ABQAD@Z 1002880e f i libucrt:output.obj
 0001:00027bda       ??$__crt_interlocked_read@J@@YAJPDJ@Z 10028bda f i libucrt:output.obj
 0001:00028e43       ??$count@D@formatting_buffer@__crt_stdio_output@@QBEIXZ 10029e43 f i libucrt:output.obj
 0001:00028e61       ??$count@_W@formatting_buffer@__crt_stdio_output@@QBEIXZ 10029e61 f i libucrt:output.obj
 0001:00028e80       ??$data@D@formatting_buffer@__crt_stdio_output@@QAEPADXZ 10029e80 f i libucrt:output.obj
 0001:00028e90       ??$data@_W@formatting_buffer@__crt_stdio_output@@QAEPA_WXZ 10029e90 f i libucrt:output.obj
 0001:00028ea0       ??$ensure_buffer_is_big_enough@D@formatting_buffer@__crt_stdio_output@@QAE_NI@Z 10029ea0 f i libucrt:output.obj
 0001:00028f3e       ??$ensure_buffer_is_big_enough@_W@formatting_buffer@__crt_stdio_output@@QAE_NI@Z 10029f3e f i libucrt:output.obj
 0001:00028fde       ??$extract_argument_from_va_list@C_J@?$positional_parameter_base@DV?$stream_output_adapter@D@__crt_stdio_output@@@__crt_stdio_output@@IAE_NAA_J@Z 10029fde f i libucrt:output.obj
 0001:00029075       ??$extract_argument_from_va_list@C_J@?$positional_parameter_base@DV?$string_output_adapter@D@__crt_stdio_output@@@__crt_stdio_output@@IAE_NAA_J@Z 1002a075 f i libucrt:output.obj
 0001:0002910c       ??$extract_argument_from_va_list@C_J@?$positional_parameter_base@_WV?$stream_output_adapter@_W@__crt_stdio_output@@@__crt_stdio_output@@IAE_NAA_J@Z 1002a10c f i libucrt:output.obj
 0001:000291a3       ??$extract_argument_from_va_list@C_J@?$positional_parameter_base@_WV?$string_output_adapter@_W@__crt_stdio_output@@@__crt_stdio_output@@IAE_NAA_J@Z 1002a1a3 f i libucrt:output.obj
 0001:0002923a       ??$extract_argument_from_va_list@C_J@?$standard_base@DV?$stream_output_adapter@D@__crt_stdio_output@@@__crt_stdio_output@@IAE_NAA_J@Z 1002a23a f i libucrt:output.obj
 0001:00029260       ??$extract_argument_from_va_list@C_J@?$standard_base@DV?$string_output_adapter@D@__crt_stdio_output@@@__crt_stdio_output@@IAE_NAA_J@Z 1002a260 f i libucrt:output.obj
 0001:00029286       ??$extract_argument_from_va_list@C_J@?$standard_base@_WV?$stream_output_adapter@_W@__crt_stdio_output@@@__crt_stdio_output@@IAE_NAA_J@Z 1002a286 f i libucrt:output.obj
 0001:000292ac       ??$extract_argument_from_va_list@C_J@?$standard_base@_WV?$string_output_adapter@_W@__crt_stdio_output@@@__crt_stdio_output@@IAE_NAA_J@Z 1002a2ac f i libucrt:output.obj
 0001:000292d2       ??$extract_argument_from_va_list@E_J@?$positional_parameter_base@DV?$stream_output_adapter@D@__crt_stdio_output@@@__crt_stdio_output@@IAE_NAA_J@Z 1002a2d2 f i libucrt:output.obj
 0001:00029369       ??$extract_argument_from_va_list@E_J@?$positional_parameter_base@DV?$string_output_adapter@D@__crt_stdio_output@@@__crt_stdio_output@@IAE_NAA_J@Z 1002a369 f i libucrt:output.obj
 0001:00029400       ??$extract_argument_from_va_list@E_J@?$positional_parameter_base@_WV?$stream_output_adapter@_W@__crt_stdio_output@@@__crt_stdio_output@@IAE_NAA_J@Z 1002a400 f i libucrt:output.obj
 0001:00029497       ??$extract_argument_from_va_list@E_J@?$positional_parameter_base@_WV?$string_output_adapter@_W@__crt_stdio_output@@@__crt_stdio_output@@IAE_NAA_J@Z 1002a497 f i libucrt:output.obj
 0001:0002952e       ??$extract_argument_from_va_list@E_J@?$standard_base@DV?$stream_output_adapter@D@__crt_stdio_output@@@__crt_stdio_output@@IAE_NAA_J@Z 1002a52e f i libucrt:output.obj
 0001:00029554       ??$extract_argument_from_va_list@E_J@?$standard_base@DV?$string_output_adapter@D@__crt_stdio_output@@@__crt_stdio_output@@IAE_NAA_J@Z 1002a554 f i libucrt:output.obj
 0001:0002957a       ??$extract_argument_from_va_list@E_J@?$standard_base@_WV?$stream_output_adapter@_W@__crt_stdio_output@@@__crt_stdio_output@@IAE_NAA_J@Z 1002a57a f i libucrt:output.obj
 0001:000295a0       ??$extract_argument_from_va_list@E_J@?$standard_base@_WV?$string_output_adapter@_W@__crt_stdio_output@@@__crt_stdio_output@@IAE_NAA_J@Z 1002a5a0 f i libucrt:output.obj
 0001:000295c6       ??$extract_argument_from_va_list@F_J@?$positional_parameter_base@DV?$stream_output_adapter@D@__crt_stdio_output@@@__crt_stdio_output@@IAE_NAA_J@Z 1002a5c6 f i libucrt:output.obj
 0001:0002965d       ??$extract_argument_from_va_list@F_J@?$positional_parameter_base@DV?$string_output_adapter@D@__crt_stdio_output@@@__crt_stdio_output@@IAE_NAA_J@Z 1002a65d f i libucrt:output.obj
 0001:000296f4       ??$extract_argument_from_va_list@F_J@?$positional_parameter_base@_WV?$stream_output_adapter@_W@__crt_stdio_output@@@__crt_stdio_output@@IAE_NAA_J@Z 1002a6f4 f i libucrt:output.obj
 0001:0002978b       ??$extract_argument_from_va_list@F_J@?$positional_parameter_base@_WV?$string_output_adapter@_W@__crt_stdio_output@@@__crt_stdio_output@@IAE_NAA_J@Z 1002a78b f i libucrt:output.obj
 0001:00029822       ??$extract_argument_from_va_list@F_J@?$standard_base@DV?$stream_output_adapter@D@__crt_stdio_output@@@__crt_stdio_output@@IAE_NAA_J@Z 1002a822 f i libucrt:output.obj
 0001:00029848       ??$extract_argument_from_va_list@F_J@?$standard_base@DV?$string_output_adapter@D@__crt_stdio_output@@@__crt_stdio_output@@IAE_NAA_J@Z 1002a848 f i libucrt:output.obj
 0001:0002986e       ??$extract_argument_from_va_list@F_J@?$standard_base@_WV?$stream_output_adapter@_W@__crt_stdio_output@@@__crt_stdio_output@@IAE_NAA_J@Z 1002a86e f i libucrt:output.obj
 0001:00029894       ??$extract_argument_from_va_list@F_J@?$standard_base@_WV?$string_output_adapter@_W@__crt_stdio_output@@@__crt_stdio_output@@IAE_NAA_J@Z 1002a894 f i libucrt:output.obj
 0001:000298ba       ??$extract_argument_from_va_list@GD@?$positional_parameter_base@DV?$stream_output_adapter@D@__crt_stdio_output@@@__crt_stdio_output@@IAE_NAAD@Z 1002a8ba f i libucrt:output.obj
 0001:00029950       ??$extract_argument_from_va_list@GD@?$positional_parameter_base@DV?$string_output_adapter@D@__crt_stdio_output@@@__crt_stdio_output@@IAE_NAAD@Z 1002a950 f i libucrt:output.obj
 0001:000299e6       ??$extract_argument_from_va_list@GD@?$standard_base@DV?$stream_output_adapter@D@__crt_stdio_output@@@__crt_stdio_output@@IAE_NAAD@Z 1002a9e6 f i libucrt:output.obj
 0001:00029a06       ??$extract_argument_from_va_list@GD@?$standard_base@DV?$string_output_adapter@D@__crt_stdio_output@@@__crt_stdio_output@@IAE_NAAD@Z 1002aa06 f i libucrt:output.obj
 0001:00029a26       ??$extract_argument_from_va_list@G_J@?$positional_parameter_base@DV?$stream_output_adapter@D@__crt_stdio_output@@@__crt_stdio_output@@IAE_NAA_J@Z 1002aa26 f i libucrt:output.obj
 0001:00029abd       ??$extract_argument_from_va_list@G_J@?$positional_parameter_base@DV?$string_output_adapter@D@__crt_stdio_output@@@__crt_stdio_output@@IAE_NAA_J@Z 1002aabd f i libucrt:output.obj
 0001:00029b54       ??$extract_argument_from_va_list@G_J@?$positional_parameter_base@_WV?$stream_output_adapter@_W@__crt_stdio_output@@@__crt_stdio_output@@IAE_NAA_J@Z 1002ab54 f i libucrt:output.obj
 0001:00029beb       ??$extract_argument_from_va_list@G_J@?$positional_parameter_base@_WV?$string_output_adapter@_W@__crt_stdio_output@@@__crt_stdio_output@@IAE_NAA_J@Z 1002abeb f i libucrt:output.obj
 0001:00029c82       ??$extract_argument_from_va_list@G_J@?$standard_base@DV?$stream_output_adapter@D@__crt_stdio_output@@@__crt_stdio_output@@IAE_NAA_J@Z 1002ac82 f i libucrt:output.obj
 0001:00029ca8       ??$extract_argument_from_va_list@G_J@?$standard_base@DV?$string_output_adapter@D@__crt_stdio_output@@@__crt_stdio_output@@IAE_NAA_J@Z 1002aca8 f i libucrt:output.obj
 0001:00029cce       ??$extract_argument_from_va_list@G_J@?$standard_base@_WV?$stream_output_adapter@_W@__crt_stdio_output@@@__crt_stdio_output@@IAE_NAA_J@Z 1002acce f i libucrt:output.obj
 0001:00029cf4       ??$extract_argument_from_va_list@G_J@?$standard_base@_WV?$string_output_adapter@_W@__crt_stdio_output@@@__crt_stdio_output@@IAE_NAA_J@Z 1002acf4 f i libucrt:output.obj
 0001:00029d1a       ??$extract_argument_from_va_list@H_J@?$positional_parameter_base@DV?$stream_output_adapter@D@__crt_stdio_output@@@__crt_stdio_output@@IAE_NAA_J@Z 1002ad1a f i libucrt:output.obj
 0001:00029dae       ??$extract_argument_from_va_list@H_J@?$positional_parameter_base@DV?$string_output_adapter@D@__crt_stdio_output@@@__crt_stdio_output@@IAE_NAA_J@Z 1002adae f i libucrt:output.obj
 0001:00029e42       ??$extract_argument_from_va_list@H_J@?$positional_parameter_base@_WV?$stream_output_adapter@_W@__crt_stdio_output@@@__crt_stdio_output@@IAE_NAA_J@Z 1002ae42 f i libucrt:output.obj
 0001:00029ed6       ??$extract_argument_from_va_list@H_J@?$positional_parameter_base@_WV?$string_output_adapter@_W@__crt_stdio_output@@@__crt_stdio_output@@IAE_NAA_J@Z 1002aed6 f i libucrt:output.obj
 0001:00029f6a       ??$extract_argument_from_va_list@H_J@?$standard_base@DV?$stream_output_adapter@D@__crt_stdio_output@@@__crt_stdio_output@@IAE_NAA_J@Z 1002af6a f i libucrt:output.obj
 0001:00029f8f       ??$extract_argument_from_va_list@H_J@?$standard_base@DV?$string_output_adapter@D@__crt_stdio_output@@@__crt_stdio_output@@IAE_NAA_J@Z 1002af8f f i libucrt:output.obj
 0001:00029fb4       ??$extract_argument_from_va_list@H_J@?$standard_base@_WV?$stream_output_adapter@_W@__crt_stdio_output@@@__crt_stdio_output@@IAE_NAA_J@Z 1002afb4 f i libucrt:output.obj
 0001:00029fd9       ??$extract_argument_from_va_list@H_J@?$standard_base@_WV?$string_output_adapter@_W@__crt_stdio_output@@@__crt_stdio_output@@IAE_NAA_J@Z 1002afd9 f i libucrt:output.obj
 0001:00029ffe       ??$extract_argument_from_va_list@I_J@?$positional_parameter_base@DV?$stream_output_adapter@D@__crt_stdio_output@@@__crt_stdio_output@@IAE_NAA_J@Z 1002affe f i libucrt:output.obj
 0001:0002a09e       ??$extract_argument_from_va_list@I_J@?$positional_parameter_base@DV?$string_output_adapter@D@__crt_stdio_output@@@__crt_stdio_output@@IAE_NAA_J@Z 1002b09e f i libucrt:output.obj
 0001:0002a13e       ??$extract_argument_from_va_list@I_J@?$positional_parameter_base@_WV?$stream_output_adapter@_W@__crt_stdio_output@@@__crt_stdio_output@@IAE_NAA_J@Z 1002b13e f i libucrt:output.obj
 0001:0002a1de       ??$extract_argument_from_va_list@I_J@?$positional_parameter_base@_WV?$string_output_adapter@_W@__crt_stdio_output@@@__crt_stdio_output@@IAE_NAA_J@Z 1002b1de f i libucrt:output.obj
 0001:0002a27e       ??$extract_argument_from_va_list@I_J@?$standard_base@DV?$stream_output_adapter@D@__crt_stdio_output@@@__crt_stdio_output@@IAE_NAA_J@Z 1002b27e f i libucrt:output.obj
 0001:0002a2a3       ??$extract_argument_from_va_list@I_J@?$standard_base@DV?$string_output_adapter@D@__crt_stdio_output@@@__crt_stdio_output@@IAE_NAA_J@Z 1002b2a3 f i libucrt:output.obj
 0001:0002a2c8       ??$extract_argument_from_va_list@I_J@?$standard_base@_WV?$stream_output_adapter@_W@__crt_stdio_output@@@__crt_stdio_output@@IAE_NAA_J@Z 1002b2c8 f i libucrt:output.obj
 0001:0002a2ed       ??$extract_argument_from_va_list@I_J@?$standard_base@_WV?$string_output_adapter@_W@__crt_stdio_output@@@__crt_stdio_output@@IAE_NAA_J@Z 1002b2ed f i libucrt:output.obj
 0001:0002a312       ??$extract_argument_from_va_list@PADPAD@?$positional_parameter_base@DV?$stream_output_adapter@D@__crt_stdio_output@@@__crt_stdio_output@@IAE_NAAPAD@Z 1002b312 f i libucrt:output.obj
 0001:0002a3a8       ??$extract_argument_from_va_list@PADPAD@?$positional_parameter_base@DV?$string_output_adapter@D@__crt_stdio_output@@@__crt_stdio_output@@IAE_NAAPAD@Z 1002b3a8 f i libucrt:output.obj
 0001:0002a43e       ??$extract_argument_from_va_list@PADPAD@?$positional_parameter_base@_WV?$stream_output_adapter@_W@__crt_stdio_output@@@__crt_stdio_output@@IAE_NAAPAD@Z 1002b43e f i libucrt:output.obj
 0001:0002a4d4       ??$extract_argument_from_va_list@PADPAD@?$positional_parameter_base@_WV?$string_output_adapter@_W@__crt_stdio_output@@@__crt_stdio_output@@IAE_NAAPAD@Z 1002b4d4 f i libucrt:output.obj
 0001:0002a56a       ??$extract_argument_from_va_list@PADPAD@?$standard_base@DV?$stream_output_adapter@D@__crt_stdio_output@@@__crt_stdio_output@@IAE_NAAPAD@Z 1002b56a f i libucrt:output.obj
 0001:0002a58a       ??$extract_argument_from_va_list@PADPAD@?$standard_base@DV?$string_output_adapter@D@__crt_stdio_output@@@__crt_stdio_output@@IAE_NAAPAD@Z 1002b58a f i libucrt:output.obj
 0001:0002a5aa       ??$extract_argument_from_va_list@PADPAD@?$standard_base@_WV?$stream_output_adapter@_W@__crt_stdio_output@@@__crt_stdio_output@@IAE_NAAPAD@Z 1002b5aa f i libucrt:output.obj
 0001:0002a5ca       ??$extract_argument_from_va_list@PADPAD@?$standard_base@_WV?$string_output_adapter@_W@__crt_stdio_output@@@__crt_stdio_output@@IAE_NAAPAD@Z 1002b5ca f i libucrt:output.obj
 0001:0002a9c2       ??$extract_argument_from_va_list@PAXPAX@?$positional_parameter_base@DV?$stream_output_adapter@D@__crt_stdio_output@@@__crt_stdio_output@@IAE_NAAPAX@Z 1002b9c2 f i libucrt:output.obj
 0001:0002aa58       ??$extract_argument_from_va_list@PAXPAX@?$positional_parameter_base@DV?$string_output_adapter@D@__crt_stdio_output@@@__crt_stdio_output@@IAE_NAAPAX@Z 1002ba58 f i libucrt:output.obj
 0001:0002aaee       ??$extract_argument_from_va_list@PAXPAX@?$positional_parameter_base@_WV?$stream_output_adapter@_W@__crt_stdio_output@@@__crt_stdio_output@@IAE_NAAPAX@Z 1002baee f i libucrt:output.obj
 0001:0002ab84       ??$extract_argument_from_va_list@PAXPAX@?$positional_parameter_base@_WV?$string_output_adapter@_W@__crt_stdio_output@@@__crt_stdio_output@@IAE_NAAPAX@Z 1002bb84 f i libucrt:output.obj
 0001:0002ac1a       ??$extract_argument_from_va_list@PAXPAX@?$standard_base@DV?$stream_output_adapter@D@__crt_stdio_output@@@__crt_stdio_output@@IAE_NAAPAX@Z 1002bc1a f i libucrt:output.obj
 0001:0002ac3a       ??$extract_argument_from_va_list@PAXPAX@?$standard_base@DV?$string_output_adapter@D@__crt_stdio_output@@@__crt_stdio_output@@IAE_NAAPAX@Z 1002bc3a f i libucrt:output.obj
 0001:0002ac5a       ??$extract_argument_from_va_list@PAXPAX@?$standard_base@_WV?$stream_output_adapter@_W@__crt_stdio_output@@@__crt_stdio_output@@IAE_NAAPAX@Z 1002bc5a f i libucrt:output.obj
 0001:0002ac7a       ??$extract_argument_from_va_list@PAXPAX@?$standard_base@_WV?$string_output_adapter@_W@__crt_stdio_output@@@__crt_stdio_output@@IAE_NAAPAX@Z 1002bc7a f i libucrt:output.obj
 0001:0002ac9a       ??$extract_argument_from_va_list@U_CRT_DOUBLE@@U1@@?$positional_parameter_base@DV?$stream_output_adapter@D@__crt_stdio_output@@@__crt_stdio_output@@IAE_NAAU_CRT_DOUBLE@@@Z 1002bc9a f i libucrt:output.obj
 0001:0002ad41       ??$extract_argument_from_va_list@U_CRT_DOUBLE@@U1@@?$positional_parameter_base@DV?$string_output_adapter@D@__crt_stdio_output@@@__crt_stdio_output@@IAE_NAAU_CRT_DOUBLE@@@Z 1002bd41 f i libucrt:output.obj
 0001:0002ade8       ??$extract_argument_from_va_list@U_CRT_DOUBLE@@U1@@?$positional_parameter_base@_WV?$stream_output_adapter@_W@__crt_stdio_output@@@__crt_stdio_output@@IAE_NAAU_CRT_DOUBLE@@@Z 1002bde8 f i libucrt:output.obj
 0001:0002ae8f       ??$extract_argument_from_va_list@U_CRT_DOUBLE@@U1@@?$positional_parameter_base@_WV?$string_output_adapter@_W@__crt_stdio_output@@@__crt_stdio_output@@IAE_NAAU_CRT_DOUBLE@@@Z 1002be8f f i libucrt:output.obj
 0001:0002af36       ??$extract_argument_from_va_list@U_CRT_DOUBLE@@U1@@?$standard_base@DV?$stream_output_adapter@D@__crt_stdio_output@@@__crt_stdio_output@@IAE_NAAU_CRT_DOUBLE@@@Z 1002bf36 f i libucrt:output.obj
 0001:0002af5e       ??$extract_argument_from_va_list@U_CRT_DOUBLE@@U1@@?$standard_base@DV?$string_output_adapter@D@__crt_stdio_output@@@__crt_stdio_output@@IAE_NAAU_CRT_DOUBLE@@@Z 1002bf5e f i libucrt:output.obj
 0001:0002af86       ??$extract_argument_from_va_list@U_CRT_DOUBLE@@U1@@?$standard_base@_WV?$stream_output_adapter@_W@__crt_stdio_output@@@__crt_stdio_output@@IAE_NAAU_CRT_DOUBLE@@@Z 1002bf86 f i libucrt:output.obj
 0001:0002afae       ??$extract_argument_from_va_list@U_CRT_DOUBLE@@U1@@?$standard_base@_WV?$string_output_adapter@_W@__crt_stdio_output@@@__crt_stdio_output@@IAE_NAAU_CRT_DOUBLE@@@Z 1002bfae f i libucrt:output.obj
 0001:0002afd6       ??$extract_argument_from_va_list@_J_J@?$positional_parameter_base@DV?$stream_output_adapter@D@__crt_stdio_output@@@__crt_stdio_output@@IAE_NAA_J@Z 1002bfd6 f i libucrt:output.obj
 0001:0002b07d       ??$extract_argument_from_va_list@_J_J@?$positional_parameter_base@DV?$string_output_adapter@D@__crt_stdio_output@@@__crt_stdio_output@@IAE_NAA_J@Z 1002c07d f i libucrt:output.obj
 0001:0002b124       ??$extract_argument_from_va_list@_J_J@?$positional_parameter_base@_WV?$stream_output_adapter@_W@__crt_stdio_output@@@__crt_stdio_output@@IAE_NAA_J@Z 1002c124 f i libucrt:output.obj
 0001:0002b1cb       ??$extract_argument_from_va_list@_J_J@?$positional_parameter_base@_WV?$string_output_adapter@_W@__crt_stdio_output@@@__crt_stdio_output@@IAE_NAA_J@Z 1002c1cb f i libucrt:output.obj
 0001:0002b272       ??$extract_argument_from_va_list@_J_J@?$standard_base@DV?$stream_output_adapter@D@__crt_stdio_output@@@__crt_stdio_output@@IAE_NAA_J@Z 1002c272 f i libucrt:output.obj
 0001:0002b29a       ??$extract_argument_from_va_list@_J_J@?$standard_base@DV?$string_output_adapter@D@__crt_stdio_output@@@__crt_stdio_output@@IAE_NAA_J@Z 1002c29a f i libucrt:output.obj
 0001:0002b2c2       ??$extract_argument_from_va_list@_J_J@?$standard_base@_WV?$stream_output_adapter@_W@__crt_stdio_output@@@__crt_stdio_output@@IAE_NAA_J@Z 1002c2c2 f i libucrt:output.obj
 0001:0002b2ea       ??$extract_argument_from_va_list@_J_J@?$standard_base@_WV?$string_output_adapter@_W@__crt_stdio_output@@@__crt_stdio_output@@IAE_NAA_J@Z 1002c2ea f i libucrt:output.obj
 0001:0002b312       ??$extract_argument_from_va_list@_K_J@?$positional_parameter_base@DV?$stream_output_adapter@D@__crt_stdio_output@@@__crt_stdio_output@@IAE_NAA_J@Z 1002c312 f i libucrt:output.obj
 0001:0002b3b9       ??$extract_argument_from_va_list@_K_J@?$positional_parameter_base@DV?$string_output_adapter@D@__crt_stdio_output@@@__crt_stdio_output@@IAE_NAA_J@Z 1002c3b9 f i libucrt:output.obj
 0001:0002b460       ??$extract_argument_from_va_list@_K_J@?$positional_parameter_base@_WV?$stream_output_adapter@_W@__crt_stdio_output@@@__crt_stdio_output@@IAE_NAA_J@Z 1002c460 f i libucrt:output.obj
 0001:0002b507       ??$extract_argument_from_va_list@_K_J@?$positional_parameter_base@_WV?$string_output_adapter@_W@__crt_stdio_output@@@__crt_stdio_output@@IAE_NAA_J@Z 1002c507 f i libucrt:output.obj
 0001:0002b5ae       ??$extract_argument_from_va_list@_K_J@?$standard_base@DV?$stream_output_adapter@D@__crt_stdio_output@@@__crt_stdio_output@@IAE_NAA_J@Z 1002c5ae f i libucrt:output.obj
 0001:0002b5d6       ??$extract_argument_from_va_list@_K_J@?$standard_base@DV?$string_output_adapter@D@__crt_stdio_output@@@__crt_stdio_output@@IAE_NAA_J@Z 1002c5d6 f i libucrt:output.obj
 0001:0002b5fe       ??$extract_argument_from_va_list@_K_J@?$standard_base@_WV?$stream_output_adapter@_W@__crt_stdio_output@@@__crt_stdio_output@@IAE_NAA_J@Z 1002c5fe f i libucrt:output.obj
 0001:0002b626       ??$extract_argument_from_va_list@_K_J@?$standard_base@_WV?$string_output_adapter@_W@__crt_stdio_output@@@__crt_stdio_output@@IAE_NAA_J@Z 1002c626 f i libucrt:output.obj
 0001:0002b64e       ??$extract_argument_from_va_list@_W_W@?$positional_parameter_base@DV?$stream_output_adapter@D@__crt_stdio_output@@@__crt_stdio_output@@IAE_NAA_W@Z 1002c64e f i libucrt:output.obj
 0001:0002b6e9       ??$extract_argument_from_va_list@_W_W@?$positional_parameter_base@DV?$string_output_adapter@D@__crt_stdio_output@@@__crt_stdio_output@@IAE_NAA_W@Z 1002c6e9 f i libucrt:output.obj
 0001:0002b784       ??$extract_argument_from_va_list@_W_W@?$positional_parameter_base@_WV?$stream_output_adapter@_W@__crt_stdio_output@@@__crt_stdio_output@@IAE_NAA_W@Z 1002c784 f i libucrt:output.obj
 0001:0002b81f       ??$extract_argument_from_va_list@_W_W@?$positional_parameter_base@_WV?$string_output_adapter@_W@__crt_stdio_output@@@__crt_stdio_output@@IAE_NAA_W@Z 1002c81f f i libucrt:output.obj
 0001:0002b8ba       ??$extract_argument_from_va_list@_W_W@?$standard_base@DV?$stream_output_adapter@D@__crt_stdio_output@@@__crt_stdio_output@@IAE_NAA_W@Z 1002c8ba f i libucrt:output.obj
 0001:0002b8dd       ??$extract_argument_from_va_list@_W_W@?$standard_base@DV?$string_output_adapter@D@__crt_stdio_output@@@__crt_stdio_output@@IAE_NAA_W@Z 1002c8dd f i libucrt:output.obj
 0001:0002b900       ??$extract_argument_from_va_list@_W_W@?$standard_base@_WV?$stream_output_adapter@_W@__crt_stdio_output@@@__crt_stdio_output@@IAE_NAA_W@Z 1002c900 f i libucrt:output.obj
 0001:0002b923       ??$extract_argument_from_va_list@_W_W@?$standard_base@_WV?$string_output_adapter@_W@__crt_stdio_output@@@__crt_stdio_output@@IAE_NAA_W@Z 1002c923 f i libucrt:output.obj
 0001:0002b946       ??$get_parameter_type@D@?$positional_parameter_base@DV?$stream_output_adapter@D@__crt_stdio_output@@@__crt_stdio_output@@CA?AW4parameter_type@01@PAD@Z 1002c946 f i libucrt:output.obj
 0001:0002b94a       ??$get_parameter_type@D@?$positional_parameter_base@DV?$string_output_adapter@D@__crt_stdio_output@@@__crt_stdio_output@@CA?AW4parameter_type@01@PAD@Z 1002c94a f i libucrt:output.obj
 0001:0002b94e       ??$get_parameter_type@D@?$positional_parameter_base@_WV?$stream_output_adapter@_W@__crt_stdio_output@@@__crt_stdio_output@@CA?AW4parameter_type@01@PAD@Z 1002c94e f i libucrt:output.obj
 0001:0002b952       ??$get_parameter_type@D@?$positional_parameter_base@_WV?$string_output_adapter@_W@__crt_stdio_output@@@__crt_stdio_output@@CA?AW4parameter_type@01@PAD@Z 1002c952 f i libucrt:output.obj
 0001:0002b966       ??$get_parameter_type@X@?$positional_parameter_base@DV?$stream_output_adapter@D@__crt_stdio_output@@@__crt_stdio_output@@CA?AW4parameter_type@01@PAX@Z 1002c966 f i libucrt:output.obj
 0001:0002b96a       ??$get_parameter_type@X@?$positional_parameter_base@DV?$string_output_adapter@D@__crt_stdio_output@@@__crt_stdio_output@@CA?AW4parameter_type@01@PAX@Z 1002c96a f i libucrt:output.obj
 0001:0002b96e       ??$get_parameter_type@X@?$positional_parameter_base@_WV?$stream_output_adapter@_W@__crt_stdio_output@@@__crt_stdio_output@@CA?AW4parameter_type@01@PAX@Z 1002c96e f i libucrt:output.obj
 0001:0002b972       ??$get_parameter_type@X@?$positional_parameter_base@_WV?$string_output_adapter@_W@__crt_stdio_output@@@__crt_stdio_output@@CA?AW4parameter_type@01@PAX@Z 1002c972 f i libucrt:output.obj
 0001:0002b976       ??$is_character_specifier@D@?$positional_parameter_base@DV?$stream_output_adapter@D@__crt_stdio_output@@@__crt_stdio_output@@CA_ND@Z 1002c976 f i libucrt:output.obj
 0001:0002b994       ??$is_character_specifier@D@?$positional_parameter_base@DV?$string_output_adapter@D@__crt_stdio_output@@@__crt_stdio_output@@CA_ND@Z 1002c994 f i libucrt:output.obj
 0001:0002b9b2       ??$is_character_specifier@_W@?$positional_parameter_base@_WV?$stream_output_adapter@_W@__crt_stdio_output@@@__crt_stdio_output@@CA_N_W@Z 1002c9b2 f i libucrt:output.obj
 0001:0002b9d3       ??$is_character_specifier@_W@?$positional_parameter_base@_WV?$string_output_adapter@_W@__crt_stdio_output@@@__crt_stdio_output@@CA_N_W@Z 1002c9d3 f i libucrt:output.obj
 0001:0002b9f4       ??$is_integral_specifier@D@?$positional_parameter_base@DV?$stream_output_adapter@D@__crt_stdio_output@@@__crt_stdio_output@@CA_ND@Z 1002c9f4 f i libucrt:output.obj
 0001:0002ba2b       ??$is_integral_specifier@D@?$positional_parameter_base@DV?$string_output_adapter@D@__crt_stdio_output@@@__crt_stdio_output@@CA_ND@Z 1002ca2b f i libucrt:output.obj
 0001:0002ba62       ??$is_integral_specifier@_W@?$positional_parameter_base@_WV?$stream_output_adapter@_W@__crt_stdio_output@@@__crt_stdio_output@@CA_N_W@Z 1002ca62 f i libucrt:output.obj
 0001:0002baab       ??$is_integral_specifier@_W@?$positional_parameter_base@_WV?$string_output_adapter@_W@__crt_stdio_output@@@__crt_stdio_output@@CA_N_W@Z 1002caab f i libucrt:output.obj
 0001:0002baf4       ??$is_pointer_specifier@D@?$positional_parameter_base@DV?$stream_output_adapter@D@__crt_stdio_output@@@__crt_stdio_output@@CA_ND@Z 1002caf4 f i libucrt:output.obj
 0001:0002bb05       ??$is_pointer_specifier@D@?$positional_parameter_base@DV?$string_output_adapter@D@__crt_stdio_output@@@__crt_stdio_output@@CA_ND@Z 1002cb05 f i libucrt:output.obj
 0001:0002bb16       ??$is_pointer_specifier@_W@?$positional_parameter_base@_WV?$stream_output_adapter@_W@__crt_stdio_output@@@__crt_stdio_output@@CA_N_W@Z 1002cb16 f i libucrt:output.obj
 0001:0002bb28       ??$is_pointer_specifier@_W@?$positional_parameter_base@_WV?$string_output_adapter@_W@__crt_stdio_output@@@__crt_stdio_output@@CA_N_W@Z 1002cb28 f i libucrt:output.obj
 0001:0002bb3a       ??$is_string_specifier@D@?$positional_parameter_base@DV?$stream_output_adapter@D@__crt_stdio_output@@@__crt_stdio_output@@CA_ND@Z 1002cb3a f i libucrt:output.obj
 0001:0002bb58       ??$is_string_specifier@D@?$positional_parameter_base@DV?$string_output_adapter@D@__crt_stdio_output@@@__crt_stdio_output@@CA_ND@Z 1002cb58 f i libucrt:output.obj
 0001:0002bb76       ??$is_string_specifier@_W@?$positional_parameter_base@_WV?$stream_output_adapter@_W@__crt_stdio_output@@@__crt_stdio_output@@CA_N_W@Z 1002cb76 f i libucrt:output.obj
 0001:0002bb97       ??$is_string_specifier@_W@?$positional_parameter_base@_WV?$string_output_adapter@_W@__crt_stdio_output@@@__crt_stdio_output@@CA_N_W@Z 1002cb97 f i libucrt:output.obj
 0001:0002bbb8       ??$is_wide_character_specifier@D@__crt_stdio_output@@YA_N_KDW4length_modifier@0@@Z 1002cbb8 f i libucrt:output.obj
 0001:0002bbf5       ??$is_wide_character_specifier@_W@__crt_stdio_output@@YA_N_K_WW4length_modifier@0@@Z 1002cbf5 f i libucrt:output.obj
 0001:0002bc56       ??$peek_va_arg@C@__crt_stdio_output@@YACPAD@Z 1002cc56 f i libucrt:output.obj
 0001:0002bc65       ??$peek_va_arg@E@__crt_stdio_output@@YAEPAD@Z 1002cc65 f i libucrt:output.obj
 0001:0002bc74       ??$peek_va_arg@F@__crt_stdio_output@@YAFPAD@Z 1002cc74 f i libucrt:output.obj
 0001:0002bc84       ??$peek_va_arg@G@__crt_stdio_output@@YAGPAD@Z 1002cc84 f i libucrt:output.obj
 0001:0002bc94       ??$peek_va_arg@H@__crt_stdio_output@@YAHPAD@Z 1002cc94 f i libucrt:output.obj
 0001:0002bca3       ??$peek_va_arg@I@__crt_stdio_output@@YAIPAD@Z 1002cca3 f i libucrt:output.obj
 0001:0002bcb2       ??$peek_va_arg@PAD@__crt_stdio_output@@YAPADPAD@Z 1002ccb2 f i libucrt:output.obj
 0001:0002bcfd       ??$peek_va_arg@PAX@__crt_stdio_output@@YAPAXPAD@Z 1002ccfd f i libucrt:output.obj
 0001:0002bd0c       ??$peek_va_arg@U_CRT_DOUBLE@@@__crt_stdio_output@@YA?AU_CRT_DOUBLE@@PAD@Z 1002cd0c f i libucrt:output.obj
 0001:0002bd1e       ??$peek_va_arg@_J@__crt_stdio_output@@YA_JPAD@Z 1002cd1e f i libucrt:output.obj
 0001:0002bd30       ??$peek_va_arg@_K@__crt_stdio_output@@YA_KPAD@Z 1002cd30 f i libucrt:output.obj
 0001:0002bd42       ??$peek_va_arg@_W@__crt_stdio_output@@YA_WPAD@Z 1002cd42 f i libucrt:output.obj
 0001:0002bd52       ??$puttc_nolock@ABDPAU_iobuf@@@?$__crt_char_traits@D@@SAHABD$$QAPAU_iobuf@@@Z 1002cd52 f i libucrt:output.obj
 0001:0002bd72       ??$puttc_nolock@AB_WPAU_iobuf@@@?$__crt_char_traits@_W@@SAGAB_W$$QAPAU_iobuf@@@Z 1002cd72 f i libucrt:output.obj
 0001:0002bd92       ??$read_va_arg@C@__crt_stdio_output@@YACAAPAD@Z 1002cd92 f i libucrt:output.obj
 0001:0002bda8       ??$read_va_arg@E@__crt_stdio_output@@YAEAAPAD@Z 1002cda8 f i libucrt:output.obj
 0001:0002bdbe       ??$read_va_arg@F@__crt_stdio_output@@YAFAAPAD@Z 1002cdbe f i libucrt:output.obj
 0001:0002bdd5       ??$read_va_arg@G@__crt_stdio_output@@YAGAAPAD@Z 1002cdd5 f i libucrt:output.obj
 0001:0002bdec       ??$read_va_arg@H@__crt_stdio_output@@YAHAAPAD@Z 1002cdec f i libucrt:output.obj
 0001:0002be02       ??$read_va_arg@I@__crt_stdio_output@@YAIAAPAD@Z 1002ce02 f i libucrt:output.obj
 0001:0002be18       ??$read_va_arg@PAD@__crt_stdio_output@@YAPADAAPAD@Z 1002ce18 f i libucrt:output.obj
 0001:0002bf36       ??$read_va_arg@PAX@__crt_stdio_output@@YAPAXAAPAD@Z 1002cf36 f i libucrt:output.obj
 0001:0002bf4c       ??$read_va_arg@U_CRT_DOUBLE@@@__crt_stdio_output@@YA?AU_CRT_DOUBLE@@AAPAD@Z 1002cf4c f i libucrt:output.obj
 0001:0002bf67       ??$read_va_arg@_J@__crt_stdio_output@@YA_JAAPAD@Z 1002cf67 f i libucrt:output.obj
 0001:0002bf81       ??$read_va_arg@_K@__crt_stdio_output@@YA_KAAPAD@Z 1002cf81 f i libucrt:output.obj
 0001:0002bf9b       ??$read_va_arg@_W@__crt_stdio_output@@YA_WAAPAD@Z 1002cf9b f i libucrt:output.obj
 0001:0002bfb2       ??$scratch_count@D@formatting_buffer@__crt_stdio_output@@QBEIXZ 1002cfb2 f i libucrt:output.obj
 0001:0002bfb7       ??$scratch_data@D@formatting_buffer@__crt_stdio_output@@QAEPADXZ 1002cfb7 f i libucrt:output.obj
 0001:0002bfdc       ??$tcstol@AAPBDPAPADH@?$__crt_char_traits@D@@SAJAAPBD$$QAPAPAD$$QAH@Z 1002cfdc f i libucrt:output.obj
 0001:0002c001       ??$tcstol@AAPB_WPAPA_WH@?$__crt_char_traits@_W@@SAJAAPB_W$$QAPAPA_W$$QAH@Z 1002d001 f i libucrt:output.obj
 0001:0002c026       ??$tcstol@PBDPAPADH@?$__crt_char_traits@D@@SAJ$$QAPBD$$QAPAPAD$$QAH@Z 1002d026 f i libucrt:output.obj
 0001:0002c04b       ??$tcstol@PB_WPAPA_WH@?$__crt_char_traits@_W@@SAJ$$QAPB_W$$QAPAPA_W$$QAH@Z 1002d04b f i libucrt:output.obj
 0001:0002c070       ??$type_case_integer_parse_into_buffer@I@?$output_processor@DV?$stream_output_adapter@D@__crt_stdio_output@@V?$format_validation_base@DV?$stream_output_adapter@D@__crt_stdio_output@@@2@@__crt_stdio_output@@AAEXII_N@Z 1002d070 f i libucrt:output.obj
 0001:0002c0ff       ??$type_case_integer_parse_into_buffer@I@?$output_processor@DV?$stream_output_adapter@D@__crt_stdio_output@@V?$positional_parameter_base@DV?$stream_output_adapter@D@__crt_stdio_output@@@2@@__crt_stdio_output@@AAEXII_N@Z 1002d0ff f i libucrt:output.obj
 0001:0002c18e       ??$type_case_integer_parse_into_buffer@I@?$output_processor@DV?$stream_output_adapter@D@__crt_stdio_output@@V?$standard_base@DV?$stream_output_adapter@D@__crt_stdio_output@@@2@@__crt_stdio_output@@AAEXII_N@Z 1002d18e f i libucrt:output.obj
 0001:0002c21d       ??$type_case_integer_parse_into_buffer@I@?$output_processor@DV?$string_output_adapter@D@__crt_stdio_output@@V?$format_validation_base@DV?$string_output_adapter@D@__crt_stdio_output@@@2@@__crt_stdio_output@@AAEXII_N@Z 1002d21d f i libucrt:output.obj
 0001:0002c2ac       ??$type_case_integer_parse_into_buffer@I@?$output_processor@DV?$string_output_adapter@D@__crt_stdio_output@@V?$positional_parameter_base@DV?$string_output_adapter@D@__crt_stdio_output@@@2@@__crt_stdio_output@@AAEXII_N@Z 1002d2ac f i libucrt:output.obj
 0001:0002c33b       ??$type_case_integer_parse_into_buffer@I@?$output_processor@DV?$string_output_adapter@D@__crt_stdio_output@@V?$standard_base@DV?$string_output_adapter@D@__crt_stdio_output@@@2@@__crt_stdio_output@@AAEXII_N@Z 1002d33b f i libucrt:output.obj
 0001:0002c3ca       ??$type_case_integer_parse_into_buffer@I@?$output_processor@_WV?$stream_output_adapter@_W@__crt_stdio_output@@V?$format_validation_base@_WV?$stream_output_adapter@_W@__crt_stdio_output@@@2@@__crt_stdio_output@@AAEXII_N@Z 1002d3ca f i libucrt:output.obj
 0001:0002c46a       ??$type_case_integer_parse_into_buffer@I@?$output_processor@_WV?$stream_output_adapter@_W@__crt_stdio_output@@V?$positional_parameter_base@_WV?$stream_output_adapter@_W@__crt_stdio_output@@@2@@__crt_stdio_output@@AAEXII_N@Z 1002d46a f i libucrt:output.obj
 0001:0002c50a       ??$type_case_integer_parse_into_buffer@I@?$output_processor@_WV?$stream_output_adapter@_W@__crt_stdio_output@@V?$standard_base@_WV?$stream_output_adapter@_W@__crt_stdio_output@@@2@@__crt_stdio_output@@AAEXII_N@Z 1002d50a f i libucrt:output.obj
 0001:0002c5aa       ??$type_case_integer_parse_into_buffer@I@?$output_processor@_WV?$string_output_adapter@_W@__crt_stdio_output@@V?$format_validation_base@_WV?$string_output_adapter@_W@__crt_stdio_output@@@2@@__crt_stdio_output@@AAEXII_N@Z 1002d5aa f i libucrt:output.obj
 0001:0002c64a       ??$type_case_integer_parse_into_buffer@I@?$output_processor@_WV?$string_output_adapter@_W@__crt_stdio_output@@V?$positional_parameter_base@_WV?$string_output_adapter@_W@__crt_stdio_output@@@2@@__crt_stdio_output@@AAEXII_N@Z 1002d64a f i libucrt:output.obj
 0001:0002c6ea       ??$type_case_integer_parse_into_buffer@I@?$output_processor@_WV?$string_output_adapter@_W@__crt_stdio_output@@V?$standard_base@_WV?$string_output_adapter@_W@__crt_stdio_output@@@2@@__crt_stdio_output@@AAEXII_N@Z 1002d6ea f i libucrt:output.obj
 0001:0002c78a       ??$type_case_integer_parse_into_buffer@_K@?$output_processor@DV?$stream_output_adapter@D@__crt_stdio_output@@V?$format_validation_base@DV?$stream_output_adapter@D@__crt_stdio_output@@@2@@__crt_stdio_output@@AAEX_KI_N@Z 1002d78a f i libucrt:output.obj
 0001:0002c83c       ??$type_case_integer_parse_into_buffer@_K@?$output_processor@DV?$stream_output_adapter@D@__crt_stdio_output@@V?$positional_parameter_base@DV?$stream_output_adapter@D@__crt_stdio_output@@@2@@__crt_stdio_output@@AAEX_KI_N@Z 1002d83c f i libucrt:output.obj
 0001:0002c8ee       ??$type_case_integer_parse_into_buffer@_K@?$output_processor@DV?$stream_output_adapter@D@__crt_stdio_output@@V?$standard_base@DV?$stream_output_adapter@D@__crt_stdio_output@@@2@@__crt_stdio_output@@AAEX_KI_N@Z 1002d8ee f i libucrt:output.obj
 0001:0002c9a0       ??$type_case_integer_parse_into_buffer@_K@?$output_processor@DV?$string_output_adapter@D@__crt_stdio_output@@V?$format_validation_base@DV?$string_output_adapter@D@__crt_stdio_output@@@2@@__crt_stdio_output@@AAEX_KI_N@Z 1002d9a0 f i libucrt:output.obj
 0001:0002ca52       ??$type_case_integer_parse_into_buffer@_K@?$output_processor@DV?$string_output_adapter@D@__crt_stdio_output@@V?$positional_parameter_base@DV?$string_output_adapter@D@__crt_stdio_output@@@2@@__crt_stdio_output@@AAEX_KI_N@Z 1002da52 f i libucrt:output.obj
 0001:0002cb04       ??$type_case_integer_parse_into_buffer@_K@?$output_processor@DV?$string_output_adapter@D@__crt_stdio_output@@V?$standard_base@DV?$string_output_adapter@D@__crt_stdio_output@@@2@@__crt_stdio_output@@AAEX_KI_N@Z 1002db04 f i libucrt:output.obj
 0001:0002cbb6       ??$type_case_integer_parse_into_buffer@_K@?$output_processor@_WV?$stream_output_adapter@_W@__crt_stdio_output@@V?$format_validation_base@_WV?$stream_output_adapter@_W@__crt_stdio_output@@@2@@__crt_stdio_output@@AAEX_KI_N@Z 1002dbb6 f i libucrt:output.obj
 0001:0002cc79       ??$type_case_integer_parse_into_buffer@_K@?$output_processor@_WV?$stream_output_adapter@_W@__crt_stdio_output@@V?$positional_parameter_base@_WV?$stream_output_adapter@_W@__crt_stdio_output@@@2@@__crt_stdio_output@@AAEX_KI_N@Z 1002dc79 f i libucrt:output.obj
 0001:0002cd3c       ??$type_case_integer_parse_into_buffer@_K@?$output_processor@_WV?$stream_output_adapter@_W@__crt_stdio_output@@V?$standard_base@_WV?$stream_output_adapter@_W@__crt_stdio_output@@@2@@__crt_stdio_output@@AAEX_KI_N@Z 1002dd3c f i libucrt:output.obj
 0001:0002cdff       ??$type_case_integer_parse_into_buffer@_K@?$output_processor@_WV?$string_output_adapter@_W@__crt_stdio_output@@V?$format_validation_base@_WV?$string_output_adapter@_W@__crt_stdio_output@@@2@@__crt_stdio_output@@AAEX_KI_N@Z 1002ddff f i libucrt:output.obj
 0001:0002cec2       ??$type_case_integer_parse_into_buffer@_K@?$output_processor@_WV?$string_output_adapter@_W@__crt_stdio_output@@V?$positional_parameter_base@_WV?$string_output_adapter@_W@__crt_stdio_output@@@2@@__crt_stdio_output@@AAEX_KI_N@Z 1002dec2 f i libucrt:output.obj
 0001:0002cf85       ??$type_case_integer_parse_into_buffer@_K@?$output_processor@_WV?$string_output_adapter@_W@__crt_stdio_output@@V?$standard_base@_WV?$string_output_adapter@_W@__crt_stdio_output@@@2@@__crt_stdio_output@@AAEX_KI_N@Z 1002df85 f i libucrt:output.obj
 0001:0002d048       ??$write_multiple_characters@V?$stream_output_adapter@D@__crt_stdio_output@@D@__crt_stdio_output@@YAXABV?$stream_output_adapter@D@0@DHQAH@Z 1002e048 f i libucrt:output.obj
 0001:0002d091       ??$write_multiple_characters@V?$stream_output_adapter@_W@__crt_stdio_output@@D@__crt_stdio_output@@YAXABV?$stream_output_adapter@_W@0@DHQAH@Z 1002e091 f i libucrt:output.obj
 0001:0002d0e1       ??$write_multiple_characters@V?$string_output_adapter@D@__crt_stdio_output@@D@__crt_stdio_output@@YAXABV?$string_output_adapter@D@0@DHQAH@Z 1002e0e1 f i libucrt:output.obj
 0001:0002d118       ??$write_multiple_characters@V?$string_output_adapter@_W@__crt_stdio_output@@D@__crt_stdio_output@@YAXABV?$string_output_adapter@_W@0@DHQAH@Z 1002e118 f i libucrt:output.obj
 0001:0002d389       ??0?$common_data@D@__crt_stdio_output@@IAE@XZ 1002e389 f i libucrt:output.obj
 0001:0002d3e1       ??0?$common_data@_W@__crt_stdio_output@@IAE@XZ 1002e3e1 f i libucrt:output.obj
 0001:0002d440       ??0?$output_adapter_data@DV?$stream_output_adapter@D@__crt_stdio_output@@@__crt_stdio_output@@IAE@ABV?$stream_output_adapter@D@1@_KQBDQAU__crt_locale_pointers@@QAD@Z 1002e440 f i libucrt:output.obj
 0001:0002d48b       ??0?$output_adapter_data@DV?$string_output_adapter@D@__crt_stdio_output@@@__crt_stdio_output@@IAE@ABV?$string_output_adapter@D@1@_KQBDQAU__crt_locale_pointers@@QAD@Z 1002e48b f i libucrt:output.obj
 0001:0002d4d6       ??0?$output_adapter_data@_WV?$stream_output_adapter@_W@__crt_stdio_output@@@__crt_stdio_output@@IAE@ABV?$stream_output_adapter@_W@1@_KQB_WQAU__crt_locale_pointers@@QAD@Z 1002e4d6 f i libucrt:output.obj
 0001:0002d521       ??0?$output_adapter_data@_WV?$string_output_adapter@_W@__crt_stdio_output@@@__crt_stdio_output@@IAE@ABV?$string_output_adapter@_W@1@_KQB_WQAU__crt_locale_pointers@@QAD@Z 1002e521 f i libucrt:output.obj
 0001:0002d56c       ??0?$output_processor@DV?$stream_output_adapter@D@__crt_stdio_output@@V?$format_validation_base@DV?$stream_output_adapter@D@__crt_stdio_output@@@2@@__crt_stdio_output@@QAE@ABV?$stream_output_adapter@D@1@_KQBDQAU__crt_locale_pointers@@QAD@Z 1002e56c f i libucrt:output.obj
 0001:0002d5a4       ??0?$output_processor@DV?$stream_output_adapter@D@__crt_stdio_output@@V?$positional_parameter_base@DV?$stream_output_adapter@D@__crt_stdio_output@@@2@@__crt_stdio_output@@QAE@ABV?$stream_output_adapter@D@1@_KQBDQAU__crt_locale_pointers@@QAD@Z 1002e5a4 f i libucrt:output.obj
 0001:0002d5d4       ??0?$output_processor@DV?$stream_output_adapter@D@__crt_stdio_output@@V?$standard_base@DV?$stream_output_adapter@D@__crt_stdio_output@@@2@@__crt_stdio_output@@QAE@ABV?$stream_output_adapter@D@1@_KQBDQAU__crt_locale_pointers@@QAD@Z 1002e5d4 f i libucrt:output.obj
 0001:0002d60c       ??0?$output_processor@DV?$string_output_adapter@D@__crt_stdio_output@@V?$format_validation_base@DV?$string_output_adapter@D@__crt_stdio_output@@@2@@__crt_stdio_output@@QAE@ABV?$string_output_adapter@D@1@_KQBDQAU__crt_locale_pointers@@QAD@Z 1002e60c f i libucrt:output.obj
 0001:0002d644       ??0?$output_processor@DV?$string_output_adapter@D@__crt_stdio_output@@V?$positional_parameter_base@DV?$string_output_adapter@D@__crt_stdio_output@@@2@@__crt_stdio_output@@QAE@ABV?$string_output_adapter@D@1@_KQBDQAU__crt_locale_pointers@@QAD@Z 1002e644 f i libucrt:output.obj
 0001:0002d674       ??0?$output_processor@DV?$string_output_adapter@D@__crt_stdio_output@@V?$standard_base@DV?$string_output_adapter@D@__crt_stdio_output@@@2@@__crt_stdio_output@@QAE@ABV?$string_output_adapter@D@1@_KQBDQAU__crt_locale_pointers@@QAD@Z 1002e674 f i libucrt:output.obj
 0001:0002d6ac       ??0?$output_processor@_WV?$stream_output_adapter@_W@__crt_stdio_output@@V?$format_validation_base@_WV?$stream_output_adapter@_W@__crt_stdio_output@@@2@@__crt_stdio_output@@QAE@ABV?$stream_output_adapter@_W@1@_KQB_WQAU__crt_locale_pointers@@QAD@Z 1002e6ac f i libucrt:output.obj
 0001:0002d6e4       ??0?$output_processor@_WV?$stream_output_adapter@_W@__crt_stdio_output@@V?$positional_parameter_base@_WV?$stream_output_adapter@_W@__crt_stdio_output@@@2@@__crt_stdio_output@@QAE@ABV?$stream_output_adapter@_W@1@_KQB_WQAU__crt_locale_pointers@@QAD@Z 1002e6e4 f i libucrt:output.obj
 0001:0002d714       ??0?$output_processor@_WV?$stream_output_adapter@_W@__crt_stdio_output@@V?$standard_base@_WV?$stream_output_adapter@_W@__crt_stdio_output@@@2@@__crt_stdio_output@@QAE@ABV?$stream_output_adapter@_W@1@_KQB_WQAU__crt_locale_pointers@@QAD@Z 1002e714 f i libucrt:output.obj
 0001:0002d74c       ??0?$output_processor@_WV?$string_output_adapter@_W@__crt_stdio_output@@V?$format_validation_base@_WV?$string_output_adapter@_W@__crt_stdio_output@@@2@@__crt_stdio_output@@QAE@ABV?$string_output_adapter@_W@1@_KQB_WQAU__crt_locale_pointers@@QAD@Z 1002e74c f i libucrt:output.obj
 0001:0002d784       ??0?$output_processor@_WV?$string_output_adapter@_W@__crt_stdio_output@@V?$positional_parameter_base@_WV?$string_output_adapter@_W@__crt_stdio_output@@@2@@__crt_stdio_output@@QAE@ABV?$string_output_adapter@_W@1@_KQB_WQAU__crt_locale_pointers@@QAD@Z 1002e784 f i libucrt:output.obj
 0001:0002d7b4       ??0?$output_processor@_WV?$string_output_adapter@_W@__crt_stdio_output@@V?$standard_base@_WV?$string_output_adapter@_W@__crt_stdio_output@@@2@@__crt_stdio_output@@QAE@ABV?$string_output_adapter@_W@1@_KQB_WQAU__crt_locale_pointers@@QAD@Z 1002e7b4 f i libucrt:output.obj
 0001:0002d7ec       ??0?$stream_output_adapter@D@__crt_stdio_output@@QAE@QAU_iobuf@@@Z 1002e7ec f i libucrt:output.obj
 0001:0002d800       ??0?$stream_output_adapter@_W@__crt_stdio_output@@QAE@QAU_iobuf@@@Z 1002e800 f i libucrt:output.obj
 0001:0002d814       ??0?$string_output_adapter@D@__crt_stdio_output@@QAE@QAU?$string_output_adapter_context@D@1@@Z 1002e814 f i libucrt:output.obj
 0001:0002d828       ??0?$string_output_adapter@_W@__crt_stdio_output@@QAE@QAU?$string_output_adapter_context@_W@1@@Z 1002e828 f i libucrt:output.obj
 0001:0002d83c       ??0_LocaleUpdate@@QAE@QAU__crt_locale_pointers@@@Z 1002e83c f i libucrt:output.obj
 0001:0002d8df       ??0__acrt_stdio_temporary_buffering_guard@@QAE@QAU_iobuf@@@Z 1002e8df f i libucrt:output.obj
 0001:0002d904       ??0__crt_deferred_errno_cache@@QAE@XZ 1002e904 f i libucrt:output.obj
 0001:0002d90a       ??0__crt_errno_guard@@QAE@QAH@Z 1002e90a f i libucrt:output.obj
 0001:0002d928       ??0formatting_buffer@__crt_stdio_output@@QAE@XZ 1002e928 f i libucrt:output.obj
 0001:0002d93d       ??1?$common_data@D@__crt_stdio_output@@QAE@XZ 1002e93d f i libucrt:output.obj
 0001:0002d947       ??1?$common_data@_W@__crt_stdio_output@@QAE@XZ 1002e947 f i libucrt:output.obj
 0001:0002d951       ??1?$format_validation_base@DV?$stream_output_adapter@D@__crt_stdio_output@@@__crt_stdio_output@@QAE@XZ 1002e951 f i libucrt:output.obj
 0001:0002d95b       ??1?$format_validation_base@DV?$string_output_adapter@D@__crt_stdio_output@@@__crt_stdio_output@@QAE@XZ 1002e95b f i libucrt:output.obj
 0001:0002d965       ??1?$format_validation_base@_WV?$stream_output_adapter@_W@__crt_stdio_output@@@__crt_stdio_output@@QAE@XZ 1002e965 f i libucrt:output.obj
 0001:0002d96f       ??1?$format_validation_base@_WV?$string_output_adapter@_W@__crt_stdio_output@@@__crt_stdio_output@@QAE@XZ 1002e96f f i libucrt:output.obj
 0001:0002d979       ??1?$output_adapter_data@DV?$stream_output_adapter@D@__crt_stdio_output@@@__crt_stdio_output@@QAE@XZ 1002e979 f i libucrt:output.obj
 0001:0002d983       ??1?$output_adapter_data@DV?$string_output_adapter@D@__crt_stdio_output@@@__crt_stdio_output@@QAE@XZ 1002e983 f i libucrt:output.obj
 0001:0002d98d       ??1?$output_adapter_data@_WV?$stream_output_adapter@_W@__crt_stdio_output@@@__crt_stdio_output@@QAE@XZ 1002e98d f i libucrt:output.obj
 0001:0002d997       ??1?$output_adapter_data@_WV?$string_output_adapter@_W@__crt_stdio_output@@@__crt_stdio_output@@QAE@XZ 1002e997 f i libucrt:output.obj
 0001:0002d9a1       ??1?$output_processor@DV?$stream_output_adapter@D@__crt_stdio_output@@V?$format_validation_base@DV?$stream_output_adapter@D@__crt_stdio_output@@@2@@__crt_stdio_output@@QAE@XZ 1002e9a1 f i libucrt:output.obj
 0001:0002d9ab       ??1?$output_processor@DV?$stream_output_adapter@D@__crt_stdio_output@@V?$positional_parameter_base@DV?$stream_output_adapter@D@__crt_stdio_output@@@2@@__crt_stdio_output@@QAE@XZ 1002e9ab f i libucrt:output.obj
 0001:0002d9b5       ??1?$output_processor@DV?$stream_output_adapter@D@__crt_stdio_output@@V?$standard_base@DV?$stream_output_adapter@D@__crt_stdio_output@@@2@@__crt_stdio_output@@QAE@XZ 1002e9b5 f i libucrt:output.obj
 0001:0002d9bf       ??1?$output_processor@DV?$string_output_adapter@D@__crt_stdio_output@@V?$format_validation_base@DV?$string_output_adapter@D@__crt_stdio_output@@@2@@__crt_stdio_output@@QAE@XZ 1002e9bf f i libucrt:output.obj
 0001:0002d9c9       ??1?$output_processor@DV?$string_output_adapter@D@__crt_stdio_output@@V?$positional_parameter_base@DV?$string_output_adapter@D@__crt_stdio_output@@@2@@__crt_stdio_output@@QAE@XZ 1002e9c9 f i libucrt:output.obj
 0001:0002d9d3       ??1?$output_processor@DV?$string_output_adapter@D@__crt_stdio_output@@V?$standard_base@DV?$string_output_adapter@D@__crt_stdio_output@@@2@@__crt_stdio_output@@QAE@XZ 1002e9d3 f i libucrt:output.obj
 0001:0002d9dd       ??1?$output_processor@_WV?$stream_output_adapter@_W@__crt_stdio_output@@V?$format_validation_base@_WV?$stream_output_adapter@_W@__crt_stdio_output@@@2@@__crt_stdio_output@@QAE@XZ 1002e9dd f i libucrt:output.obj
 0001:0002d9e7       ??1?$output_processor@_WV?$stream_output_adapter@_W@__crt_stdio_output@@V?$positional_parameter_base@_WV?$stream_output_adapter@_W@__crt_stdio_output@@@2@@__crt_stdio_output@@QAE@XZ 1002e9e7 f i libucrt:output.obj
 0001:0002d9f1       ??1?$output_processor@_WV?$stream_output_adapter@_W@__crt_stdio_output@@V?$standard_base@_WV?$stream_output_adapter@_W@__crt_stdio_output@@@2@@__crt_stdio_output@@QAE@XZ 1002e9f1 f i libucrt:output.obj
 0001:0002d9fb       ??1?$output_processor@_WV?$string_output_adapter@_W@__crt_stdio_output@@V?$format_validation_base@_WV?$string_output_adapter@_W@__crt_stdio_output@@@2@@__crt_stdio_output@@QAE@XZ 1002e9fb f i libucrt:output.obj
 0001:0002da05       ??1?$output_processor@_WV?$string_output_adapter@_W@__crt_stdio_output@@V?$positional_parameter_base@_WV?$string_output_adapter@_W@__crt_stdio_output@@@2@@__crt_stdio_output@@QAE@XZ 1002ea05 f i libucrt:output.obj
 0001:0002da0f       ??1?$output_processor@_WV?$string_output_adapter@_W@__crt_stdio_output@@V?$standard_base@_WV?$string_output_adapter@_W@__crt_stdio_output@@@2@@__crt_stdio_output@@QAE@XZ 1002ea0f f i libucrt:output.obj
 0001:0002da19       ??1?$positional_parameter_base@DV?$stream_output_adapter@D@__crt_stdio_output@@@__crt_stdio_output@@QAE@XZ 1002ea19 f i libucrt:output.obj
 0001:0002da23       ??1?$positional_parameter_base@DV?$string_output_adapter@D@__crt_stdio_output@@@__crt_stdio_output@@QAE@XZ 1002ea23 f i libucrt:output.obj
 0001:0002da2d       ??1?$positional_parameter_base@_WV?$stream_output_adapter@_W@__crt_stdio_output@@@__crt_stdio_output@@QAE@XZ 1002ea2d f i libucrt:output.obj
 0001:0002da37       ??1?$positional_parameter_base@_WV?$string_output_adapter@_W@__crt_stdio_output@@@__crt_stdio_output@@QAE@XZ 1002ea37 f i libucrt:output.obj
 0001:0002da41       ??1?$standard_base@DV?$stream_output_adapter@D@__crt_stdio_output@@@__crt_stdio_output@@QAE@XZ 1002ea41 f i libucrt:output.obj
 0001:0002da4b       ??1?$standard_base@DV?$string_output_adapter@D@__crt_stdio_output@@@__crt_stdio_output@@QAE@XZ 1002ea4b f i libucrt:output.obj
 0001:0002da55       ??1?$standard_base@_WV?$stream_output_adapter@_W@__crt_stdio_output@@@__crt_stdio_output@@QAE@XZ 1002ea55 f i libucrt:output.obj
 0001:0002da5f       ??1?$standard_base@_WV?$string_output_adapter@_W@__crt_stdio_output@@@__crt_stdio_output@@QAE@XZ 1002ea5f f i libucrt:output.obj
 0001:0002da69       ??1_LocaleUpdate@@QAE@XZ   1002ea69 f i libucrt:output.obj
 0001:0002da7d       ??1__acrt_stdio_temporary_buffering_guard@@QAE@XZ 1002ea7d f i libucrt:output.obj
 0001:0002da8f       ??1__crt_errno_guard@@QAE@XZ 1002ea8f f i libucrt:output.obj
 0001:0002daa4       ??1formatting_buffer@__crt_stdio_output@@QAE@XZ 1002eaa4 f i libucrt:output.obj
 0001:0002dac4       ??4?$__crt_unique_heap_ptr@DU__crt_internal_free_policy@@@@QAEAAV0@$$QAV0@@Z 1002eac4 f i libucrt:output.obj
 0001:0002e19f       ?GetLocaleT@_LocaleUpdate@@QAEPAU__crt_locale_pointers@@XZ 1002f19f f i libucrt:output.obj
 0001:0002e1a3       ?adjust_hexit@?$output_processor@DV?$stream_output_adapter@D@__crt_stdio_output@@V?$format_validation_base@DV?$stream_output_adapter@D@__crt_stdio_output@@@2@@__crt_stdio_output@@CADH_N@Z 1002f1a3 f i libucrt:output.obj
 0001:0002e1bc       ?adjust_hexit@?$output_processor@DV?$stream_output_adapter@D@__crt_stdio_output@@V?$positional_parameter_base@DV?$stream_output_adapter@D@__crt_stdio_output@@@2@@__crt_stdio_output@@CADH_N@Z 1002f1bc f i libucrt:output.obj
 0001:0002e1d5       ?adjust_hexit@?$output_processor@DV?$stream_output_adapter@D@__crt_stdio_output@@V?$standard_base@DV?$stream_output_adapter@D@__crt_stdio_output@@@2@@__crt_stdio_output@@CADH_N@Z 1002f1d5 f i libucrt:output.obj
 0001:0002e1ee       ?adjust_hexit@?$output_processor@DV?$string_output_adapter@D@__crt_stdio_output@@V?$format_validation_base@DV?$string_output_adapter@D@__crt_stdio_output@@@2@@__crt_stdio_output@@CADH_N@Z 1002f1ee f i libucrt:output.obj
 0001:0002e207       ?adjust_hexit@?$output_processor@DV?$string_output_adapter@D@__crt_stdio_output@@V?$positional_parameter_base@DV?$string_output_adapter@D@__crt_stdio_output@@@2@@__crt_stdio_output@@CADH_N@Z 1002f207 f i libucrt:output.obj
 0001:0002e220       ?adjust_hexit@?$output_processor@DV?$string_output_adapter@D@__crt_stdio_output@@V?$standard_base@DV?$string_output_adapter@D@__crt_stdio_output@@@2@@__crt_stdio_output@@CADH_N@Z 1002f220 f i libucrt:output.obj
 0001:0002e239       ?adjust_hexit@?$output_processor@_WV?$stream_output_adapter@_W@__crt_stdio_output@@V?$format_validation_base@_WV?$stream_output_adapter@_W@__crt_stdio_output@@@2@@__crt_stdio_output@@CADH_N@Z 1002f239 f i libucrt:output.obj
 0001:0002e252       ?adjust_hexit@?$output_processor@_WV?$stream_output_adapter@_W@__crt_stdio_output@@V?$positional_parameter_base@_WV?$stream_output_adapter@_W@__crt_stdio_output@@@2@@__crt_stdio_output@@CADH_N@Z 1002f252 f i libucrt:output.obj
 0001:0002e26b       ?adjust_hexit@?$output_processor@_WV?$stream_output_adapter@_W@__crt_stdio_output@@V?$standard_base@_WV?$stream_output_adapter@_W@__crt_stdio_output@@@2@@__crt_stdio_output@@CADH_N@Z 1002f26b f i libucrt:output.obj
 0001:0002e284       ?adjust_hexit@?$output_processor@_WV?$string_output_adapter@_W@__crt_stdio_output@@V?$format_validation_base@_WV?$string_output_adapter@_W@__crt_stdio_output@@@2@@__crt_stdio_output@@CADH_N@Z 1002f284 f i libucrt:output.obj
 0001:0002e29d       ?adjust_hexit@?$output_processor@_WV?$string_output_adapter@_W@__crt_stdio_output@@V?$positional_parameter_base@_WV?$string_output_adapter@_W@__crt_stdio_output@@@2@@__crt_stdio_output@@CADH_N@Z 1002f29d f i libucrt:output.obj
 0001:0002e2b6       ?adjust_hexit@?$output_processor@_WV?$string_output_adapter@_W@__crt_stdio_output@@V?$standard_base@_WV?$string_output_adapter@_W@__crt_stdio_output@@@2@@__crt_stdio_output@@CADH_N@Z 1002f2b6 f i libucrt:output.obj
 0001:0002e2cf       ?advance_to_next_pass@?$positional_parameter_base@DV?$stream_output_adapter@D@__crt_stdio_output@@@__crt_stdio_output@@IAE_NXZ 1002f2cf f i libucrt:output.obj
 0001:0002e32e       ?advance_to_next_pass@?$positional_parameter_base@DV?$string_output_adapter@D@__crt_stdio_output@@@__crt_stdio_output@@IAE_NXZ 1002f32e f i libucrt:output.obj
 0001:0002e38d       ?advance_to_next_pass@?$positional_parameter_base@_WV?$stream_output_adapter@_W@__crt_stdio_output@@@__crt_stdio_output@@IAE_NXZ 1002f38d f i libucrt:output.obj
 0001:0002e3ec       ?advance_to_next_pass@?$positional_parameter_base@_WV?$string_output_adapter@_W@__crt_stdio_output@@@__crt_stdio_output@@IAE_NXZ 1002f3ec f i libucrt:output.obj
 0001:0002e44b       ?advance_to_next_pass@?$standard_base@DV?$stream_output_adapter@D@__crt_stdio_output@@@__crt_stdio_output@@IAE_NXZ 1002f44b f i libucrt:output.obj
 0001:0002e460       ?advance_to_next_pass@?$standard_base@DV?$string_output_adapter@D@__crt_stdio_output@@@__crt_stdio_output@@IAE_NXZ 1002f460 f i libucrt:output.obj
 0001:0002e475       ?advance_to_next_pass@?$standard_base@_WV?$stream_output_adapter@_W@__crt_stdio_output@@@__crt_stdio_output@@IAE_NXZ 1002f475 f i libucrt:output.obj
 0001:0002e48a       ?advance_to_next_pass@?$standard_base@_WV?$string_output_adapter@_W@__crt_stdio_output@@@__crt_stdio_output@@IAE_NXZ 1002f48a f i libucrt:output.obj
 0001:0002e49f       ?crop_zeroes@__crt_stdio_output@@YAXPADQAU__crt_locale_pointers@@@Z 1002f49f f i libucrt:output.obj
 0001:0002e517       ?find_next_state@?$output_processor@DV?$stream_output_adapter@D@__crt_stdio_output@@V?$format_validation_base@DV?$stream_output_adapter@D@__crt_stdio_output@@@2@@__crt_stdio_output@@ABE?AW4state@2@DW432@@Z 1002f517 f i libucrt:output.obj
 0001:0002e569       ?find_next_state@?$output_processor@DV?$stream_output_adapter@D@__crt_stdio_output@@V?$positional_parameter_base@DV?$stream_output_adapter@D@__crt_stdio_output@@@2@@__crt_stdio_output@@ABE?AW4state@2@DW432@@Z 1002f569 f i libucrt:output.obj
 0001:0002e5bb       ?find_next_state@?$output_processor@DV?$stream_output_adapter@D@__crt_stdio_output@@V?$standard_base@DV?$stream_output_adapter@D@__crt_stdio_output@@@2@@__crt_stdio_output@@ABE?AW4state@2@DW432@@Z 1002f5bb f i libucrt:output.obj
 0001:0002e609       ?find_next_state@?$output_processor@DV?$string_output_adapter@D@__crt_stdio_output@@V?$format_validation_base@DV?$string_output_adapter@D@__crt_stdio_output@@@2@@__crt_stdio_output@@ABE?AW4state@2@DW432@@Z 1002f609 f i libucrt:output.obj
 0001:0002e65b       ?find_next_state@?$output_processor@DV?$string_output_adapter@D@__crt_stdio_output@@V?$positional_parameter_base@DV?$string_output_adapter@D@__crt_stdio_output@@@2@@__crt_stdio_output@@ABE?AW4state@2@DW432@@Z 1002f65b f i libucrt:output.obj
 0001:0002e6ad       ?find_next_state@?$output_processor@DV?$string_output_adapter@D@__crt_stdio_output@@V?$standard_base@DV?$string_output_adapter@D@__crt_stdio_output@@@2@@__crt_stdio_output@@ABE?AW4state@2@DW432@@Z 1002f6ad f i libucrt:output.obj
 0001:0002e6fb       ?find_next_state@?$output_processor@_WV?$stream_output_adapter@_W@__crt_stdio_output@@V?$format_validation_base@_WV?$stream_output_adapter@_W@__crt_stdio_output@@@2@@__crt_stdio_output@@ABE?AW4state@2@_WW432@@Z 1002f6fb f i libucrt:output.obj
 0001:0002e750       ?find_next_state@?$output_processor@_WV?$stream_output_adapter@_W@__crt_stdio_output@@V?$positional_parameter_base@_WV?$stream_output_adapter@_W@__crt_stdio_output@@@2@@__crt_stdio_output@@ABE?AW4state@2@_WW432@@Z 1002f750 f i libucrt:output.obj
 0001:0002e7a5       ?find_next_state@?$output_processor@_WV?$stream_output_adapter@_W@__crt_stdio_output@@V?$standard_base@_WV?$stream_output_adapter@_W@__crt_stdio_output@@@2@@__crt_stdio_output@@ABE?AW4state@2@_WW432@@Z 1002f7a5 f i libucrt:output.obj
 0001:0002e7f6       ?find_next_state@?$output_processor@_WV?$string_output_adapter@_W@__crt_stdio_output@@V?$format_validation_base@_WV?$string_output_adapter@_W@__crt_stdio_output@@@2@@__crt_stdio_output@@ABE?AW4state@2@_WW432@@Z 1002f7f6 f i libucrt:output.obj
 0001:0002e84b       ?find_next_state@?$output_processor@_WV?$string_output_adapter@_W@__crt_stdio_output@@V?$positional_parameter_base@_WV?$string_output_adapter@_W@__crt_stdio_output@@@2@@__crt_stdio_output@@ABE?AW4state@2@_WW432@@Z 1002f84b f i libucrt:output.obj
 0001:0002e8a0       ?find_next_state@?$output_processor@_WV?$string_output_adapter@_W@__crt_stdio_output@@V?$standard_base@_WV?$string_output_adapter@_W@__crt_stdio_output@@@2@@__crt_stdio_output@@ABE?AW4state@2@_WW432@@Z 1002f8a0 f i libucrt:output.obj
 0001:0002e8f1       ?force_decimal_point@__crt_stdio_output@@YAXPADQAU__crt_locale_pointers@@@Z 1002f8f1 f i libucrt:output.obj
 0001:0002e964       ?get@__crt_deferred_errno_cache@@QAEAAHXZ 1002f964 f i libucrt:output.obj
 0001:0002e97d       ?get_flags@__crt_stdio_stream@@QBEJXZ 1002f97d f i libucrt:output.obj
 0001:0002e983       ?get_parameter_type@?$positional_parameter_base@DV?$stream_output_adapter@D@__crt_stdio_output@@@__crt_stdio_output@@CA?AW4parameter_type@12@F@Z 1002f983 f i libucrt:output.obj
 0001:0002e987       ?get_parameter_type@?$positional_parameter_base@DV?$stream_output_adapter@D@__crt_stdio_output@@@__crt_stdio_output@@CA?AW4parameter_type@12@G@Z 1002f987 f i libucrt:output.obj
 0001:0002e98b       ?get_parameter_type@?$positional_parameter_base@DV?$stream_output_adapter@D@__crt_stdio_output@@@__crt_stdio_output@@CA?AW4parameter_type@12@H@Z 1002f98b f i libucrt:output.obj
 0001:0002e98f       ?get_parameter_type@?$positional_parameter_base@DV?$stream_output_adapter@D@__crt_stdio_output@@@__crt_stdio_output@@CA?AW4parameter_type@12@I@Z 1002f98f f i libucrt:output.obj
 0001:0002e993       ?get_parameter_type@?$positional_parameter_base@DV?$stream_output_adapter@D@__crt_stdio_output@@@__crt_stdio_output@@CA?AW4parameter_type@12@U_CRT_DOUBLE@@@Z 1002f993 f i libucrt:output.obj
 0001:0002e997       ?get_parameter_type@?$positional_parameter_base@DV?$stream_output_adapter@D@__crt_stdio_output@@@__crt_stdio_output@@CA?AW4parameter_type@12@_J@Z 1002f997 f i libucrt:output.obj
 0001:0002e99b       ?get_parameter_type@?$positional_parameter_base@DV?$stream_output_adapter@D@__crt_stdio_output@@@__crt_stdio_output@@CA?AW4parameter_type@12@_K@Z 1002f99b f i libucrt:output.obj
 0001:0002e99f       ?get_parameter_type@?$positional_parameter_base@DV?$stream_output_adapter@D@__crt_stdio_output@@@__crt_stdio_output@@CA?AW4parameter_type@12@_W@Z 1002f99f f i libucrt:output.obj
 0001:0002e9a3       ?get_parameter_type@?$positional_parameter_base@DV?$string_output_adapter@D@__crt_stdio_output@@@__crt_stdio_output@@CA?AW4parameter_type@12@F@Z 1002f9a3 f i libucrt:output.obj
 0001:0002e9a7       ?get_parameter_type@?$positional_parameter_base@DV?$string_output_adapter@D@__crt_stdio_output@@@__crt_stdio_output@@CA?AW4parameter_type@12@G@Z 1002f9a7 f i libucrt:output.obj
 0001:0002e9ab       ?get_parameter_type@?$positional_parameter_base@DV?$string_output_adapter@D@__crt_stdio_output@@@__crt_stdio_output@@CA?AW4parameter_type@12@H@Z 1002f9ab f i libucrt:output.obj
 0001:0002e9af       ?get_parameter_type@?$positional_parameter_base@DV?$string_output_adapter@D@__crt_stdio_output@@@__crt_stdio_output@@CA?AW4parameter_type@12@I@Z 1002f9af f i libucrt:output.obj
 0001:0002e9b3       ?get_parameter_type@?$positional_parameter_base@DV?$string_output_adapter@D@__crt_stdio_output@@@__crt_stdio_output@@CA?AW4parameter_type@12@U_CRT_DOUBLE@@@Z 1002f9b3 f i libucrt:output.obj
 0001:0002e9b7       ?get_parameter_type@?$positional_parameter_base@DV?$string_output_adapter@D@__crt_stdio_output@@@__crt_stdio_output@@CA?AW4parameter_type@12@_J@Z 1002f9b7 f i libucrt:output.obj
 0001:0002e9bb       ?get_parameter_type@?$positional_parameter_base@DV?$string_output_adapter@D@__crt_stdio_output@@@__crt_stdio_output@@CA?AW4parameter_type@12@_K@Z 1002f9bb f i libucrt:output.obj
 0001:0002e9bf       ?get_parameter_type@?$positional_parameter_base@DV?$string_output_adapter@D@__crt_stdio_output@@@__crt_stdio_output@@CA?AW4parameter_type@12@_W@Z 1002f9bf f i libucrt:output.obj
 0001:0002e9c3       ?get_parameter_type@?$positional_parameter_base@_WV?$stream_output_adapter@_W@__crt_stdio_output@@@__crt_stdio_output@@CA?AW4parameter_type@12@F@Z 1002f9c3 f i libucrt:output.obj
 0001:0002e9c7       ?get_parameter_type@?$positional_parameter_base@_WV?$stream_output_adapter@_W@__crt_stdio_output@@@__crt_stdio_output@@CA?AW4parameter_type@12@G@Z 1002f9c7 f i libucrt:output.obj
 0001:0002e9cb       ?get_parameter_type@?$positional_parameter_base@_WV?$stream_output_adapter@_W@__crt_stdio_output@@@__crt_stdio_output@@CA?AW4parameter_type@12@H@Z 1002f9cb f i libucrt:output.obj
 0001:0002e9cf       ?get_parameter_type@?$positional_parameter_base@_WV?$stream_output_adapter@_W@__crt_stdio_output@@@__crt_stdio_output@@CA?AW4parameter_type@12@I@Z 1002f9cf f i libucrt:output.obj
 0001:0002e9d3       ?get_parameter_type@?$positional_parameter_base@_WV?$stream_output_adapter@_W@__crt_stdio_output@@@__crt_stdio_output@@CA?AW4parameter_type@12@U_CRT_DOUBLE@@@Z 1002f9d3 f i libucrt:output.obj
 0001:0002e9d7       ?get_parameter_type@?$positional_parameter_base@_WV?$stream_output_adapter@_W@__crt_stdio_output@@@__crt_stdio_output@@CA?AW4parameter_type@12@_J@Z 1002f9d7 f i libucrt:output.obj
 0001:0002e9db       ?get_parameter_type@?$positional_parameter_base@_WV?$stream_output_adapter@_W@__crt_stdio_output@@@__crt_stdio_output@@CA?AW4parameter_type@12@_K@Z 1002f9db f i libucrt:output.obj
 0001:0002e9df       ?get_parameter_type@?$positional_parameter_base@_WV?$stream_output_adapter@_W@__crt_stdio_output@@@__crt_stdio_output@@CA?AW4parameter_type@12@_W@Z 1002f9df f i libucrt:output.obj
 0001:0002e9e3       ?get_parameter_type@?$positional_parameter_base@_WV?$string_output_adapter@_W@__crt_stdio_output@@@__crt_stdio_output@@CA?AW4parameter_type@12@F@Z 1002f9e3 f i libucrt:output.obj
 0001:0002e9e7       ?get_parameter_type@?$positional_parameter_base@_WV?$string_output_adapter@_W@__crt_stdio_output@@@__crt_stdio_output@@CA?AW4parameter_type@12@G@Z 1002f9e7 f i libucrt:output.obj
 0001:0002e9eb       ?get_parameter_type@?$positional_parameter_base@_WV?$string_output_adapter@_W@__crt_stdio_output@@@__crt_stdio_output@@CA?AW4parameter_type@12@H@Z 1002f9eb f i libucrt:output.obj
 0001:0002e9ef       ?get_parameter_type@?$positional_parameter_base@_WV?$string_output_adapter@_W@__crt_stdio_output@@@__crt_stdio_output@@CA?AW4parameter_type@12@I@Z 1002f9ef f i libucrt:output.obj
 0001:0002e9f3       ?get_parameter_type@?$positional_parameter_base@_WV?$string_output_adapter@_W@__crt_stdio_output@@@__crt_stdio_output@@CA?AW4parameter_type@12@U_CRT_DOUBLE@@@Z 1002f9f3 f i libucrt:output.obj
 0001:0002e9f7       ?get_parameter_type@?$positional_parameter_base@_WV?$string_output_adapter@_W@__crt_stdio_output@@@__crt_stdio_output@@CA?AW4parameter_type@12@_J@Z 1002f9f7 f i libucrt:output.obj
 0001:0002e9fb       ?get_parameter_type@?$positional_parameter_base@_WV?$string_output_adapter@_W@__crt_stdio_output@@@__crt_stdio_output@@CA?AW4parameter_type@12@_K@Z 1002f9fb f i libucrt:output.obj
 0001:0002e9ff       ?get_parameter_type@?$positional_parameter_base@_WV?$string_output_adapter@_W@__crt_stdio_output@@@__crt_stdio_output@@CA?AW4parameter_type@12@_W@Z 1002f9ff f i libucrt:output.obj
 0001:0002ea03       ?has_flag@?$output_processor@DV?$stream_output_adapter@D@__crt_stdio_output@@V?$format_validation_base@DV?$stream_output_adapter@D@__crt_stdio_output@@@2@@__crt_stdio_output@@ABE_NI@Z 1002fa03 f i libucrt:output.obj
 0001:0002ea19       ?has_flag@?$output_processor@DV?$stream_output_adapter@D@__crt_stdio_output@@V?$positional_parameter_base@DV?$stream_output_adapter@D@__crt_stdio_output@@@2@@__crt_stdio_output@@ABE_NI@Z 1002fa19 f i libucrt:output.obj
 0001:0002ea2f       ?has_flag@?$output_processor@DV?$stream_output_adapter@D@__crt_stdio_output@@V?$standard_base@DV?$stream_output_adapter@D@__crt_stdio_output@@@2@@__crt_stdio_output@@ABE_NI@Z 1002fa2f f i libucrt:output.obj
 0001:0002ea45       ?has_flag@?$output_processor@DV?$string_output_adapter@D@__crt_stdio_output@@V?$format_validation_base@DV?$string_output_adapter@D@__crt_stdio_output@@@2@@__crt_stdio_output@@ABE_NI@Z 1002fa45 f i libucrt:output.obj
 0001:0002ea5b       ?has_flag@?$output_processor@DV?$string_output_adapter@D@__crt_stdio_output@@V?$positional_parameter_base@DV?$string_output_adapter@D@__crt_stdio_output@@@2@@__crt_stdio_output@@ABE_NI@Z 1002fa5b f i libucrt:output.obj
 0001:0002ea71       ?has_flag@?$output_processor@DV?$string_output_adapter@D@__crt_stdio_output@@V?$standard_base@DV?$string_output_adapter@D@__crt_stdio_output@@@2@@__crt_stdio_output@@ABE_NI@Z 1002fa71 f i libucrt:output.obj
 0001:0002ea87       ?has_flag@?$output_processor@_WV?$stream_output_adapter@_W@__crt_stdio_output@@V?$format_validation_base@_WV?$stream_output_adapter@_W@__crt_stdio_output@@@2@@__crt_stdio_output@@ABE_NI@Z 1002fa87 f i libucrt:output.obj
 0001:0002ea9d       ?has_flag@?$output_processor@_WV?$stream_output_adapter@_W@__crt_stdio_output@@V?$positional_parameter_base@_WV?$stream_output_adapter@_W@__crt_stdio_output@@@2@@__crt_stdio_output@@ABE_NI@Z 1002fa9d f i libucrt:output.obj
 0001:0002eab3       ?has_flag@?$output_processor@_WV?$stream_output_adapter@_W@__crt_stdio_output@@V?$standard_base@_WV?$stream_output_adapter@_W@__crt_stdio_output@@@2@@__crt_stdio_output@@ABE_NI@Z 1002fab3 f i libucrt:output.obj
 0001:0002eac9       ?has_flag@?$output_processor@_WV?$string_output_adapter@_W@__crt_stdio_output@@V?$format_validation_base@_WV?$string_output_adapter@_W@__crt_stdio_output@@@2@@__crt_stdio_output@@ABE_NI@Z 1002fac9 f i libucrt:output.obj
 0001:0002eadf       ?has_flag@?$output_processor@_WV?$string_output_adapter@_W@__crt_stdio_output@@V?$positional_parameter_base@_WV?$string_output_adapter@_W@__crt_stdio_output@@@2@@__crt_stdio_output@@ABE_NI@Z 1002fadf f i libucrt:output.obj
 0001:0002eaf5       ?has_flag@?$output_processor@_WV?$string_output_adapter@_W@__crt_stdio_output@@V?$standard_base@_WV?$string_output_adapter@_W@__crt_stdio_output@@@2@@__crt_stdio_output@@ABE_NI@Z 1002faf5 f i libucrt:output.obj
 0001:0002eb0b       ?is_positional_parameter_reappearance_consistent@?$positional_parameter_base@DV?$stream_output_adapter@D@__crt_stdio_output@@@__crt_stdio_output@@AAE_NABUparameter_data@12@W4parameter_type@12@DW4length_modifier@2@@Z 1002fb0b f i libucrt:output.obj
 0001:0002ec6b       ?is_positional_parameter_reappearance_consistent@?$positional_parameter_base@DV?$string_output_adapter@D@__crt_stdio_output@@@__crt_stdio_output@@AAE_NABUparameter_data@12@W4parameter_type@12@DW4length_modifier@2@@Z 1002fc6b f i libucrt:output.obj
 0001:0002edcb       ?is_positional_parameter_reappearance_consistent@?$positional_parameter_base@_WV?$stream_output_adapter@_W@__crt_stdio_output@@@__crt_stdio_output@@AAE_NABUparameter_data@12@W4parameter_type@12@_WW4length_modifier@2@@Z 1002fdcb f i libucrt:output.obj
 0001:0002ef2a       ?is_positional_parameter_reappearance_consistent@?$positional_parameter_base@_WV?$string_output_adapter@_W@__crt_stdio_output@@@__crt_stdio_output@@AAE_NABUparameter_data@12@W4parameter_type@12@_WW4length_modifier@2@@Z 1002ff2a f i libucrt:output.obj
 0001:0002f089       ?is_string_backed@__crt_stdio_stream@@QBE_NXZ 10030089 f i libucrt:output.obj
 0001:0002f096       ?narrow_null_string@?$output_processor@DV?$stream_output_adapter@D@__crt_stdio_output@@V?$format_validation_base@DV?$stream_output_adapter@D@__crt_stdio_output@@@2@@__crt_stdio_output@@CAPADXZ 10030096 f i libucrt:output.obj
 0001:0002f09c       ?narrow_null_string@?$output_processor@DV?$stream_output_adapter@D@__crt_stdio_output@@V?$positional_parameter_base@DV?$stream_output_adapter@D@__crt_stdio_output@@@2@@__crt_stdio_output@@CAPADXZ 1003009c f i libucrt:output.obj
 0001:0002f0a2       ?narrow_null_string@?$output_processor@DV?$stream_output_adapter@D@__crt_stdio_output@@V?$standard_base@DV?$stream_output_adapter@D@__crt_stdio_output@@@2@@__crt_stdio_output@@CAPADXZ 100300a2 f i libucrt:output.obj
 0001:0002f0a8       ?narrow_null_string@?$output_processor@DV?$string_output_adapter@D@__crt_stdio_output@@V?$format_validation_base@DV?$string_output_adapter@D@__crt_stdio_output@@@2@@__crt_stdio_output@@CAPADXZ 100300a8 f i libucrt:output.obj
 0001:0002f0ae       ?narrow_null_string@?$output_processor@DV?$string_output_adapter@D@__crt_stdio_output@@V?$positional_parameter_base@DV?$string_output_adapter@D@__crt_stdio_output@@@2@@__crt_stdio_output@@CAPADXZ 100300ae f i libucrt:output.obj
 0001:0002f0b4       ?narrow_null_string@?$output_processor@DV?$string_output_adapter@D@__crt_stdio_output@@V?$standard_base@DV?$string_output_adapter@D@__crt_stdio_output@@@2@@__crt_stdio_output@@CAPADXZ 100300b4 f i libucrt:output.obj
 0001:0002f0ba       ?narrow_null_string@?$output_processor@_WV?$stream_output_adapter@_W@__crt_stdio_output@@V?$format_validation_base@_WV?$stream_output_adapter@_W@__crt_stdio_output@@@2@@__crt_stdio_output@@CAPADXZ 100300ba f i libucrt:output.obj
 0001:0002f0c0       ?narrow_null_string@?$output_processor@_WV?$stream_output_adapter@_W@__crt_stdio_output@@V?$positional_parameter_base@_WV?$stream_output_adapter@_W@__crt_stdio_output@@@2@@__crt_stdio_output@@CAPADXZ 100300c0 f i libucrt:output.obj
 0001:0002f0c6       ?narrow_null_string@?$output_processor@_WV?$stream_output_adapter@_W@__crt_stdio_output@@V?$standard_base@_WV?$stream_output_adapter@_W@__crt_stdio_output@@@2@@__crt_stdio_output@@CAPADXZ 100300c6 f i libucrt:output.obj
 0001:0002f0cc       ?narrow_null_string@?$output_processor@_WV?$string_output_adapter@_W@__crt_stdio_output@@V?$format_validation_base@_WV?$string_output_adapter@_W@__crt_stdio_output@@@2@@__crt_stdio_output@@CAPADXZ 100300cc f i libucrt:output.obj
 0001:0002f0d2       ?narrow_null_string@?$output_processor@_WV?$string_output_adapter@_W@__crt_stdio_output@@V?$positional_parameter_base@_WV?$string_output_adapter@_W@__crt_stdio_output@@@2@@__crt_stdio_output@@CAPADXZ 100300d2 f i libucrt:output.obj
 0001:0002f0d8       ?narrow_null_string@?$output_processor@_WV?$string_output_adapter@_W@__crt_stdio_output@@V?$standard_base@_WV?$string_output_adapter@_W@__crt_stdio_output@@@2@@__crt_stdio_output@@CAPADXZ 100300d8 f i libucrt:output.obj
 0001:0002f0de       ?parse_int_from_format_string@?$output_processor@DV?$stream_output_adapter@D@__crt_stdio_output@@V?$format_validation_base@DV?$stream_output_adapter@D@__crt_stdio_output@@@2@@__crt_stdio_output@@AAE_NQAH@Z 100300de f i libucrt:output.obj
 0001:0002f171       ?parse_int_from_format_string@?$output_processor@DV?$stream_output_adapter@D@__crt_stdio_output@@V?$positional_parameter_base@DV?$stream_output_adapter@D@__crt_stdio_output@@@2@@__crt_stdio_output@@AAE_NQAH@Z 10030171 f i libucrt:output.obj
 0001:0002f204       ?parse_int_from_format_string@?$output_processor@DV?$stream_output_adapter@D@__crt_stdio_output@@V?$standard_base@DV?$stream_output_adapter@D@__crt_stdio_output@@@2@@__crt_stdio_output@@AAE_NQAH@Z 10030204 f i libucrt:output.obj
 0001:0002f297       ?parse_int_from_format_string@?$output_processor@DV?$string_output_adapter@D@__crt_stdio_output@@V?$format_validation_base@DV?$string_output_adapter@D@__crt_stdio_output@@@2@@__crt_stdio_output@@AAE_NQAH@Z 10030297 f i libucrt:output.obj
 0001:0002f32a       ?parse_int_from_format_string@?$output_processor@DV?$string_output_adapter@D@__crt_stdio_output@@V?$positional_parameter_base@DV?$string_output_adapter@D@__crt_stdio_output@@@2@@__crt_stdio_output@@AAE_NQAH@Z 1003032a f i libucrt:output.obj
 0001:0002f3bd       ?parse_int_from_format_string@?$output_processor@DV?$string_output_adapter@D@__crt_stdio_output@@V?$standard_base@DV?$string_output_adapter@D@__crt_stdio_output@@@2@@__crt_stdio_output@@AAE_NQAH@Z 100303bd f i libucrt:output.obj
 0001:0002f450       ?parse_int_from_format_string@?$output_processor@_WV?$stream_output_adapter@_W@__crt_stdio_output@@V?$format_validation_base@_WV?$stream_output_adapter@_W@__crt_stdio_output@@@2@@__crt_stdio_output@@AAE_NQAH@Z 10030450 f i libucrt:output.obj
 0001:0002f4e6       ?parse_int_from_format_string@?$output_processor@_WV?$stream_output_adapter@_W@__crt_stdio_output@@V?$positional_parameter_base@_WV?$stream_output_adapter@_W@__crt_stdio_output@@@2@@__crt_stdio_output@@AAE_NQAH@Z 100304e6 f i libucrt:output.obj
 0001:0002f57c       ?parse_int_from_format_string@?$output_processor@_WV?$stream_output_adapter@_W@__crt_stdio_output@@V?$standard_base@_WV?$stream_output_adapter@_W@__crt_stdio_output@@@2@@__crt_stdio_output@@AAE_NQAH@Z 1003057c f i libucrt:output.obj
 0001:0002f612       ?parse_int_from_format_string@?$output_processor@_WV?$string_output_adapter@_W@__crt_stdio_output@@V?$format_validation_base@_WV?$string_output_adapter@_W@__crt_stdio_output@@@2@@__crt_stdio_output@@AAE_NQAH@Z 10030612 f i libucrt:output.obj
 0001:0002f6a8       ?parse_int_from_format_string@?$output_processor@_WV?$string_output_adapter@_W@__crt_stdio_output@@V?$positional_parameter_base@_WV?$string_output_adapter@_W@__crt_stdio_output@@@2@@__crt_stdio_output@@AAE_NQAH@Z 100306a8 f i libucrt:output.obj
 0001:0002f73e       ?parse_int_from_format_string@?$output_processor@_WV?$string_output_adapter@_W@__crt_stdio_output@@V?$standard_base@_WV?$string_output_adapter@_W@__crt_stdio_output@@@2@@__crt_stdio_output@@AAE_NQAH@Z 1003073e f i libucrt:output.obj
 0001:0002f7d4       ?process@?$output_processor@DV?$stream_output_adapter@D@__crt_stdio_output@@V?$format_validation_base@DV?$stream_output_adapter@D@__crt_stdio_output@@@2@@__crt_stdio_output@@QAEHXZ 100307d4 f i libucrt:output.obj
 0001:0002f946       ?process@?$output_processor@DV?$stream_output_adapter@D@__crt_stdio_output@@V?$positional_parameter_base@DV?$stream_output_adapter@D@__crt_stdio_output@@@2@@__crt_stdio_output@@QAEHXZ 10030946 f i libucrt:output.obj
 0001:0002faf9       ?process@?$output_processor@DV?$stream_output_adapter@D@__crt_stdio_output@@V?$standard_base@DV?$stream_output_adapter@D@__crt_stdio_output@@@2@@__crt_stdio_output@@QAEHXZ 10030af9 f i libucrt:output.obj
 0001:0002fc5c       ?process@?$output_processor@DV?$string_output_adapter@D@__crt_stdio_output@@V?$format_validation_base@DV?$string_output_adapter@D@__crt_stdio_output@@@2@@__crt_stdio_output@@QAEHXZ 10030c5c f i libucrt:output.obj
 0001:0002fdce       ?process@?$output_processor@DV?$string_output_adapter@D@__crt_stdio_output@@V?$positional_parameter_base@DV?$string_output_adapter@D@__crt_stdio_output@@@2@@__crt_stdio_output@@QAEHXZ 10030dce f i libucrt:output.obj
 0001:0002ff81       ?process@?$output_processor@DV?$string_output_adapter@D@__crt_stdio_output@@V?$standard_base@DV?$string_output_adapter@D@__crt_stdio_output@@@2@@__crt_stdio_output@@QAEHXZ 10030f81 f i libucrt:output.obj
 0001:000300e4       ?process@?$output_processor@_WV?$stream_output_adapter@_W@__crt_stdio_output@@V?$format_validation_base@_WV?$stream_output_adapter@_W@__crt_stdio_output@@@2@@__crt_stdio_output@@QAEHXZ 100310e4 f i libucrt:output.obj
 0001:00030260       ?process@?$output_processor@_WV?$stream_output_adapter@_W@__crt_stdio_output@@V?$positional_parameter_base@_WV?$stream_output_adapter@_W@__crt_stdio_output@@@2@@__crt_stdio_output@@QAEHXZ 10031260 f i libucrt:output.obj
 0001:00030418       ?process@?$output_processor@_WV?$stream_output_adapter@_W@__crt_stdio_output@@V?$standard_base@_WV?$stream_output_adapter@_W@__crt_stdio_output@@@2@@__crt_stdio_output@@QAEHXZ 10031418 f i libucrt:output.obj
 0001:00030580       ?process@?$output_processor@_WV?$string_output_adapter@_W@__crt_stdio_output@@V?$format_validation_base@_WV?$string_output_adapter@_W@__crt_stdio_output@@@2@@__crt_stdio_output@@QAEHXZ 10031580 f i libucrt:output.obj
 0001:000306fc       ?process@?$output_processor@_WV?$string_output_adapter@_W@__crt_stdio_output@@V?$positional_parameter_base@_WV?$string_output_adapter@_W@__crt_stdio_output@@@2@@__crt_stdio_output@@QAEHXZ 100316fc f i libucrt:output.obj
 0001:000308b4       ?process@?$output_processor@_WV?$string_output_adapter@_W@__crt_stdio_output@@V?$standard_base@_WV?$string_output_adapter@_W@__crt_stdio_output@@@2@@__crt_stdio_output@@QAEHXZ 100318b4 f i libucrt:output.obj
 0001:00030a1c       ?public_stream@__crt_stdio_stream@@QBEPAU_iobuf@@XZ 10031a1c f i libucrt:output.obj
 0001:00030a1f       ?set_flag@?$output_processor@DV?$stream_output_adapter@D@__crt_stdio_output@@V?$format_validation_base@DV?$stream_output_adapter@D@__crt_stdio_output@@@2@@__crt_stdio_output@@AAEXI@Z 10031a1f f i libucrt:output.obj
 0001:00030a31       ?set_flag@?$output_processor@DV?$stream_output_adapter@D@__crt_stdio_output@@V?$positional_parameter_base@DV?$stream_output_adapter@D@__crt_stdio_output@@@2@@__crt_stdio_output@@AAEXI@Z 10031a31 f i libucrt:output.obj
 0001:00030a43       ?set_flag@?$output_processor@DV?$stream_output_adapter@D@__crt_stdio_output@@V?$standard_base@DV?$stream_output_adapter@D@__crt_stdio_output@@@2@@__crt_stdio_output@@AAEXI@Z 10031a43 f i libucrt:output.obj
 0001:00030a55       ?set_flag@?$output_processor@DV?$string_output_adapter@D@__crt_stdio_output@@V?$format_validation_base@DV?$string_output_adapter@D@__crt_stdio_output@@@2@@__crt_stdio_output@@AAEXI@Z 10031a55 f i libucrt:output.obj
 0001:00030a67       ?set_flag@?$output_processor@DV?$string_output_adapter@D@__crt_stdio_output@@V?$positional_parameter_base@DV?$string_output_adapter@D@__crt_stdio_output@@@2@@__crt_stdio_output@@AAEXI@Z 10031a67 f i libucrt:output.obj
 0001:00030a79       ?set_flag@?$output_processor@DV?$string_output_adapter@D@__crt_stdio_output@@V?$standard_base@DV?$string_output_adapter@D@__crt_stdio_output@@@2@@__crt_stdio_output@@AAEXI@Z 10031a79 f i libucrt:output.obj
 0001:00030a8b       ?set_flag@?$output_processor@_WV?$stream_output_adapter@_W@__crt_stdio_output@@V?$format_validation_base@_WV?$stream_output_adapter@_W@__crt_stdio_output@@@2@@__crt_stdio_output@@AAEXI@Z 10031a8b f i libucrt:output.obj
 0001:00030a9d       ?set_flag@?$output_processor@_WV?$stream_output_adapter@_W@__crt_stdio_output@@V?$positional_parameter_base@_WV?$stream_output_adapter@_W@__crt_stdio_output@@@2@@__crt_stdio_output@@AAEXI@Z 10031a9d f i libucrt:output.obj
 0001:00030aaf       ?set_flag@?$output_processor@_WV?$stream_output_adapter@_W@__crt_stdio_output@@V?$standard_base@_WV?$stream_output_adapter@_W@__crt_stdio_output@@@2@@__crt_stdio_output@@AAEXI@Z 10031aaf f i libucrt:output.obj
 0001:00030ac1       ?set_flag@?$output_processor@_WV?$string_output_adapter@_W@__crt_stdio_output@@V?$format_validation_base@_WV?$string_output_adapter@_W@__crt_stdio_output@@@2@@__crt_stdio_output@@AAEXI@Z 10031ac1 f i libucrt:output.obj
 0001:00030ad3       ?set_flag@?$output_processor@_WV?$string_output_adapter@_W@__crt_stdio_output@@V?$positional_parameter_base@_WV?$string_output_adapter@_W@__crt_stdio_output@@@2@@__crt_stdio_output@@AAEXI@Z 10031ad3 f i libucrt:output.obj
 0001:00030ae5       ?set_flag@?$output_processor@_WV?$string_output_adapter@_W@__crt_stdio_output@@V?$standard_base@_WV?$string_output_adapter@_W@__crt_stdio_output@@@2@@__crt_stdio_output@@AAEXI@Z 10031ae5 f i libucrt:output.obj
 0001:00030af7       ?should_format@?$positional_parameter_base@DV?$stream_output_adapter@D@__crt_stdio_output@@@__crt_stdio_output@@IAE_NXZ 10031af7 f i libucrt:output.obj
 0001:00030b12       ?should_format@?$positional_parameter_base@DV?$string_output_adapter@D@__crt_stdio_output@@@__crt_stdio_output@@IAE_NXZ 10031b12 f i libucrt:output.obj
 0001:00030b2d       ?should_format@?$positional_parameter_base@_WV?$stream_output_adapter@_W@__crt_stdio_output@@@__crt_stdio_output@@IAE_NXZ 10031b2d f i libucrt:output.obj
 0001:00030b48       ?should_format@?$positional_parameter_base@_WV?$string_output_adapter@_W@__crt_stdio_output@@@__crt_stdio_output@@IAE_NXZ 10031b48 f i libucrt:output.obj
 0001:00030b63       ?should_format@?$standard_base@DV?$stream_output_adapter@D@__crt_stdio_output@@@__crt_stdio_output@@IAE_NXZ 10031b63 f i libucrt:output.obj
 0001:00030b66       ?should_format@?$standard_base@DV?$string_output_adapter@D@__crt_stdio_output@@@__crt_stdio_output@@IAE_NXZ 10031b66 f i libucrt:output.obj
 0001:00030b69       ?should_format@?$standard_base@_WV?$stream_output_adapter@_W@__crt_stdio_output@@@__crt_stdio_output@@IAE_NXZ 10031b69 f i libucrt:output.obj
 0001:00030b6c       ?should_format@?$standard_base@_WV?$string_output_adapter@_W@__crt_stdio_output@@@__crt_stdio_output@@IAE_NXZ 10031b6c f i libucrt:output.obj
 0001:00030b6f       ?should_skip_normal_state_processing@?$positional_parameter_base@DV?$stream_output_adapter@D@__crt_stdio_output@@@__crt_stdio_output@@IAE_NXZ 10031b6f f i libucrt:output.obj
 0001:00030ba1       ?should_skip_normal_state_processing@?$positional_parameter_base@DV?$string_output_adapter@D@__crt_stdio_output@@@__crt_stdio_output@@IAE_NXZ 10031ba1 f i libucrt:output.obj
 0001:00030bd3       ?should_skip_normal_state_processing@?$positional_parameter_base@_WV?$stream_output_adapter@_W@__crt_stdio_output@@@__crt_stdio_output@@IAE_NXZ 10031bd3 f i libucrt:output.obj
 0001:00030c05       ?should_skip_normal_state_processing@?$positional_parameter_base@_WV?$string_output_adapter@_W@__crt_stdio_output@@@__crt_stdio_output@@IAE_NXZ 10031c05 f i libucrt:output.obj
 0001:00030c37       ?should_skip_normal_state_processing@?$standard_base@DV?$stream_output_adapter@D@__crt_stdio_output@@@__crt_stdio_output@@IAE_NXZ 10031c37 f i libucrt:output.obj
 0001:00030c3a       ?should_skip_normal_state_processing@?$standard_base@DV?$string_output_adapter@D@__crt_stdio_output@@@__crt_stdio_output@@IAE_NXZ 10031c3a f i libucrt:output.obj
 0001:00030c3d       ?should_skip_normal_state_processing@?$standard_base@_WV?$stream_output_adapter@_W@__crt_stdio_output@@@__crt_stdio_output@@IAE_NXZ 10031c3d f i libucrt:output.obj
 0001:00030c40       ?should_skip_normal_state_processing@?$standard_base@_WV?$string_output_adapter@_W@__crt_stdio_output@@@__crt_stdio_output@@IAE_NXZ 10031c40 f i libucrt:output.obj
 0001:00030c43       ?should_skip_type_state_output@?$positional_parameter_base@DV?$stream_output_adapter@D@__crt_stdio_output@@@__crt_stdio_output@@IBE_NXZ 10031c43 f i libucrt:output.obj
 0001:00030c5f       ?should_skip_type_state_output@?$positional_parameter_base@DV?$string_output_adapter@D@__crt_stdio_output@@@__crt_stdio_output@@IBE_NXZ 10031c5f f i libucrt:output.obj
 0001:00030c7b       ?should_skip_type_state_output@?$positional_parameter_base@_WV?$stream_output_adapter@_W@__crt_stdio_output@@@__crt_stdio_output@@IBE_NXZ 10031c7b f i libucrt:output.obj
 0001:00030c97       ?should_skip_type_state_output@?$positional_parameter_base@_WV?$string_output_adapter@_W@__crt_stdio_output@@@__crt_stdio_output@@IBE_NXZ 10031c97 f i libucrt:output.obj
 0001:00030cb3       ?should_skip_type_state_output@?$standard_base@DV?$stream_output_adapter@D@__crt_stdio_output@@@__crt_stdio_output@@IBE_NXZ 10031cb3 f i libucrt:output.obj
 0001:00030cb6       ?should_skip_type_state_output@?$standard_base@DV?$string_output_adapter@D@__crt_stdio_output@@@__crt_stdio_output@@IBE_NXZ 10031cb6 f i libucrt:output.obj
 0001:00030cb9       ?should_skip_type_state_output@?$standard_base@_WV?$stream_output_adapter@_W@__crt_stdio_output@@@__crt_stdio_output@@IBE_NXZ 10031cb9 f i libucrt:output.obj
 0001:00030cbc       ?should_skip_type_state_output@?$standard_base@_WV?$string_output_adapter@_W@__crt_stdio_output@@@__crt_stdio_output@@IBE_NXZ 10031cbc f i libucrt:output.obj
 0001:00030cbf       ?state_case_dot@?$output_processor@DV?$stream_output_adapter@D@__crt_stdio_output@@V?$format_validation_base@DV?$stream_output_adapter@D@__crt_stdio_output@@@2@@__crt_stdio_output@@AAE_NXZ 10031cbf f i libucrt:output.obj
 0001:00030cc6       ?state_case_dot@?$output_processor@DV?$stream_output_adapter@D@__crt_stdio_output@@V?$positional_parameter_base@DV?$stream_output_adapter@D@__crt_stdio_output@@@2@@__crt_stdio_output@@AAE_NXZ 10031cc6 f i libucrt:output.obj
 0001:00030ccd       ?state_case_dot@?$output_processor@DV?$stream_output_adapter@D@__crt_stdio_output@@V?$standard_base@DV?$stream_output_adapter@D@__crt_stdio_output@@@2@@__crt_stdio_output@@AAE_NXZ 10031ccd f i libucrt:output.obj
 0001:00030cd4       ?state_case_dot@?$output_processor@DV?$string_output_adapter@D@__crt_stdio_output@@V?$format_validation_base@DV?$string_output_adapter@D@__crt_stdio_output@@@2@@__crt_stdio_output@@AAE_NXZ 10031cd4 f i libucrt:output.obj
 0001:00030cdb       ?state_case_dot@?$output_processor@DV?$string_output_adapter@D@__crt_stdio_output@@V?$positional_parameter_base@DV?$string_output_adapter@D@__crt_stdio_output@@@2@@__crt_stdio_output@@AAE_NXZ 10031cdb f i libucrt:output.obj
 0001:00030ce2       ?state_case_dot@?$output_processor@DV?$string_output_adapter@D@__crt_stdio_output@@V?$standard_base@DV?$string_output_adapter@D@__crt_stdio_output@@@2@@__crt_stdio_output@@AAE_NXZ 10031ce2 f i libucrt:output.obj
 0001:00030ce9       ?state_case_dot@?$output_processor@_WV?$stream_output_adapter@_W@__crt_stdio_output@@V?$format_validation_base@_WV?$stream_output_adapter@_W@__crt_stdio_output@@@2@@__crt_stdio_output@@AAE_NXZ 10031ce9 f i libucrt:output.obj
 0001:00030cf0       ?state_case_dot@?$output_processor@_WV?$stream_output_adapter@_W@__crt_stdio_output@@V?$positional_parameter_base@_WV?$stream_output_adapter@_W@__crt_stdio_output@@@2@@__crt_stdio_output@@AAE_NXZ 10031cf0 f i libucrt:output.obj
 0001:00030cf7       ?state_case_dot@?$output_processor@_WV?$stream_output_adapter@_W@__crt_stdio_output@@V?$standard_base@_WV?$stream_output_adapter@_W@__crt_stdio_output@@@2@@__crt_stdio_output@@AAE_NXZ 10031cf7 f i libucrt:output.obj
 0001:00030cfe       ?state_case_dot@?$output_processor@_WV?$string_output_adapter@_W@__crt_stdio_output@@V?$format_validation_base@_WV?$string_output_adapter@_W@__crt_stdio_output@@@2@@__crt_stdio_output@@AAE_NXZ 10031cfe f i libucrt:output.obj
 0001:00030d05       ?state_case_dot@?$output_processor@_WV?$string_output_adapter@_W@__crt_stdio_output@@V?$positional_parameter_base@_WV?$string_output_adapter@_W@__crt_stdio_output@@@2@@__crt_stdio_output@@AAE_NXZ 10031d05 f i libucrt:output.obj
 0001:00030d0c       ?state_case_dot@?$output_processor@_WV?$string_output_adapter@_W@__crt_stdio_output@@V?$standard_base@_WV?$string_output_adapter@_W@__crt_stdio_output@@@2@@__crt_stdio_output@@AAE_NXZ 10031d0c f i libucrt:output.obj
 0001:00030d13       ?state_case_flag@?$output_processor@DV?$stream_output_adapter@D@__crt_stdio_output@@V?$format_validation_base@DV?$stream_output_adapter@D@__crt_stdio_output@@@2@@__crt_stdio_output@@AAE_NXZ 10031d13 f i libucrt:output.obj
 0001:00030d5f       ?state_case_flag@?$output_processor@DV?$stream_output_adapter@D@__crt_stdio_output@@V?$positional_parameter_base@DV?$stream_output_adapter@D@__crt_stdio_output@@@2@@__crt_stdio_output@@AAE_NXZ 10031d5f f i libucrt:output.obj
 0001:00030dab       ?state_case_flag@?$output_processor@DV?$stream_output_adapter@D@__crt_stdio_output@@V?$standard_base@DV?$stream_output_adapter@D@__crt_stdio_output@@@2@@__crt_stdio_output@@AAE_NXZ 10031dab f i libucrt:output.obj
 0001:00030df7       ?state_case_flag@?$output_processor@DV?$string_output_adapter@D@__crt_stdio_output@@V?$format_validation_base@DV?$string_output_adapter@D@__crt_stdio_output@@@2@@__crt_stdio_output@@AAE_NXZ 10031df7 f i libucrt:output.obj
 0001:00030e43       ?state_case_flag@?$output_processor@DV?$string_output_adapter@D@__crt_stdio_output@@V?$positional_parameter_base@DV?$string_output_adapter@D@__crt_stdio_output@@@2@@__crt_stdio_output@@AAE_NXZ 10031e43 f i libucrt:output.obj
 0001:00030e8f       ?state_case_flag@?$output_processor@DV?$string_output_adapter@D@__crt_stdio_output@@V?$standard_base@DV?$string_output_adapter@D@__crt_stdio_output@@@2@@__crt_stdio_output@@AAE_NXZ 10031e8f f i libucrt:output.obj
 0001:00030edb       ?state_case_flag@?$output_processor@_WV?$stream_output_adapter@_W@__crt_stdio_output@@V?$format_validation_base@_WV?$stream_output_adapter@_W@__crt_stdio_output@@@2@@__crt_stdio_output@@AAE_NXZ 10031edb f i libucrt:output.obj
 0001:00030f27       ?state_case_flag@?$output_processor@_WV?$stream_output_adapter@_W@__crt_stdio_output@@V?$positional_parameter_base@_WV?$stream_output_adapter@_W@__crt_stdio_output@@@2@@__crt_stdio_output@@AAE_NXZ 10031f27 f i libucrt:output.obj
 0001:00030f73       ?state_case_flag@?$output_processor@_WV?$stream_output_adapter@_W@__crt_stdio_output@@V?$standard_base@_WV?$stream_output_adapter@_W@__crt_stdio_output@@@2@@__crt_stdio_output@@AAE_NXZ 10031f73 f i libucrt:output.obj
 0001:00030fbf       ?state_case_flag@?$output_processor@_WV?$string_output_adapter@_W@__crt_stdio_output@@V?$format_validation_base@_WV?$string_output_adapter@_W@__crt_stdio_output@@@2@@__crt_stdio_output@@AAE_NXZ 10031fbf f i libucrt:output.obj
 0001:0003100b       ?state_case_flag@?$output_processor@_WV?$string_output_adapter@_W@__crt_stdio_output@@V?$positional_parameter_base@_WV?$string_output_adapter@_W@__crt_stdio_output@@@2@@__crt_stdio_output@@AAE_NXZ 1003200b f i libucrt:output.obj
 0001:00031057       ?state_case_flag@?$output_processor@_WV?$string_output_adapter@_W@__crt_stdio_output@@V?$standard_base@_WV?$string_output_adapter@_W@__crt_stdio_output@@@2@@__crt_stdio_output@@AAE_NXZ 10032057 f i libucrt:output.obj
 0001:000310a3       ?state_case_normal@?$output_processor@DV?$stream_output_adapter@D@__crt_stdio_output@@V?$format_validation_base@DV?$stream_output_adapter@D@__crt_stdio_output@@@2@@__crt_stdio_output@@AAE_NXZ 100320a3 f i libucrt:output.obj
 0001:000310c9       ?state_case_normal@?$output_processor@DV?$stream_output_adapter@D@__crt_stdio_output@@V?$positional_parameter_base@DV?$stream_output_adapter@D@__crt_stdio_output@@@2@@__crt_stdio_output@@AAE_NXZ 100320c9 f i libucrt:output.obj
 0001:00031106       ?state_case_normal@?$output_processor@DV?$stream_output_adapter@D@__crt_stdio_output@@V?$standard_base@DV?$stream_output_adapter@D@__crt_stdio_output@@@2@@__crt_stdio_output@@AAE_NXZ 10032106 f i libucrt:output.obj
 0001:0003112c       ?state_case_normal@?$output_processor@DV?$string_output_adapter@D@__crt_stdio_output@@V?$format_validation_base@DV?$string_output_adapter@D@__crt_stdio_output@@@2@@__crt_stdio_output@@AAE_NXZ 1003212c f i libucrt:output.obj
 0001:00031152       ?state_case_normal@?$output_processor@DV?$string_output_adapter@D@__crt_stdio_output@@V?$positional_parameter_base@DV?$string_output_adapter@D@__crt_stdio_output@@@2@@__crt_stdio_output@@AAE_NXZ 10032152 f i libucrt:output.obj
 0001:0003118f       ?state_case_normal@?$output_processor@DV?$string_output_adapter@D@__crt_stdio_output@@V?$standard_base@DV?$string_output_adapter@D@__crt_stdio_output@@@2@@__crt_stdio_output@@AAE_NXZ 1003218f f i libucrt:output.obj
 0001:000311b5       ?state_case_normal@?$output_processor@_WV?$stream_output_adapter@_W@__crt_stdio_output@@V?$format_validation_base@_WV?$stream_output_adapter@_W@__crt_stdio_output@@@2@@__crt_stdio_output@@AAE_NXZ 100321b5 f i libucrt:output.obj
 0001:000311db       ?state_case_normal@?$output_processor@_WV?$stream_output_adapter@_W@__crt_stdio_output@@V?$positional_parameter_base@_WV?$stream_output_adapter@_W@__crt_stdio_output@@@2@@__crt_stdio_output@@AAE_NXZ 100321db f i libucrt:output.obj
 0001:00031218       ?state_case_normal@?$output_processor@_WV?$stream_output_adapter@_W@__crt_stdio_output@@V?$standard_base@_WV?$stream_output_adapter@_W@__crt_stdio_output@@@2@@__crt_stdio_output@@AAE_NXZ 10032218 f i libucrt:output.obj
 0001:0003123e       ?state_case_normal@?$output_processor@_WV?$string_output_adapter@_W@__crt_stdio_output@@V?$format_validation_base@_WV?$string_output_adapter@_W@__crt_stdio_output@@@2@@__crt_stdio_output@@AAE_NXZ 1003223e f i libucrt:output.obj
 0001:00031264       ?state_case_normal@?$output_processor@_WV?$string_output_adapter@_W@__crt_stdio_output@@V?$positional_parameter_base@_WV?$string_output_adapter@_W@__crt_stdio_output@@@2@@__crt_stdio_output@@AAE_NXZ 10032264 f i libucrt:output.obj
 0001:000312a1       ?state_case_normal@?$output_processor@_WV?$string_output_adapter@_W@__crt_stdio_output@@V?$standard_base@_WV?$string_output_adapter@_W@__crt_stdio_output@@@2@@__crt_stdio_output@@AAE_NXZ 100322a1 f i libucrt:output.obj
 0001:000312c7       ?state_case_normal_common@?$output_processor@DV?$stream_output_adapter@D@__crt_stdio_output@@V?$format_validation_base@DV?$stream_output_adapter@D@__crt_stdio_output@@@2@@__crt_stdio_output@@AAE_NXZ 100322c7 f i libucrt:output.obj
 0001:00031312       ?state_case_normal_common@?$output_processor@DV?$stream_output_adapter@D@__crt_stdio_output@@V?$positional_parameter_base@DV?$stream_output_adapter@D@__crt_stdio_output@@@2@@__crt_stdio_output@@AAE_NXZ 10032312 f i libucrt:output.obj
 0001:0003135d       ?state_case_normal_common@?$output_processor@DV?$stream_output_adapter@D@__crt_stdio_output@@V?$standard_base@DV?$stream_output_adapter@D@__crt_stdio_output@@@2@@__crt_stdio_output@@AAE_NXZ 1003235d f i libucrt:output.obj
 0001:000313a8       ?state_case_normal_common@?$output_processor@DV?$string_output_adapter@D@__crt_stdio_output@@V?$format_validation_base@DV?$string_output_adapter@D@__crt_stdio_output@@@2@@__crt_stdio_output@@AAE_NXZ 100323a8 f i libucrt:output.obj
 0001:000313dc       ?state_case_normal_common@?$output_processor@DV?$string_output_adapter@D@__crt_stdio_output@@V?$positional_parameter_base@DV?$string_output_adapter@D@__crt_stdio_output@@@2@@__crt_stdio_output@@AAE_NXZ 100323dc f i libucrt:output.obj
 0001:00031410       ?state_case_normal_common@?$output_processor@DV?$string_output_adapter@D@__crt_stdio_output@@V?$standard_base@DV?$string_output_adapter@D@__crt_stdio_output@@@2@@__crt_stdio_output@@AAE_NXZ 10032410 f i libucrt:output.obj
 0001:00031444       ?state_case_normal_common@?$output_processor@_WV?$stream_output_adapter@_W@__crt_stdio_output@@V?$format_validation_base@_WV?$stream_output_adapter@_W@__crt_stdio_output@@@2@@__crt_stdio_output@@AAE_NXZ 10032444 f i libucrt:output.obj
 0001:00031478       ?state_case_normal_common@?$output_processor@_WV?$stream_output_adapter@_W@__crt_stdio_output@@V?$positional_parameter_base@_WV?$stream_output_adapter@_W@__crt_stdio_output@@@2@@__crt_stdio_output@@AAE_NXZ 10032478 f i libucrt:output.obj
 0001:000314ac       ?state_case_normal_common@?$output_processor@_WV?$stream_output_adapter@_W@__crt_stdio_output@@V?$standard_base@_WV?$stream_output_adapter@_W@__crt_stdio_output@@@2@@__crt_stdio_output@@AAE_NXZ 100324ac f i libucrt:output.obj
 0001:000314e0       ?state_case_normal_common@?$output_processor@_WV?$string_output_adapter@_W@__crt_stdio_output@@V?$format_validation_base@_WV?$string_output_adapter@_W@__crt_stdio_output@@@2@@__crt_stdio_output@@AAE_NXZ 100324e0 f i libucrt:output.obj
 0001:00031501       ?state_case_normal_common@?$output_processor@_WV?$string_output_adapter@_W@__crt_stdio_output@@V?$positional_parameter_base@_WV?$string_output_adapter@_W@__crt_stdio_output@@@2@@__crt_stdio_output@@AAE_NXZ 10032501 f i libucrt:output.obj
 0001:00031522       ?state_case_normal_common@?$output_processor@_WV?$string_output_adapter@_W@__crt_stdio_output@@V?$standard_base@_WV?$string_output_adapter@_W@__crt_stdio_output@@@2@@__crt_stdio_output@@AAE_NXZ 10032522 f i libucrt:output.obj
 0001:00031543       ?state_case_normal_tchar@?$output_processor@DV?$stream_output_adapter@D@__crt_stdio_output@@V?$format_validation_base@DV?$stream_output_adapter@D@__crt_stdio_output@@@2@@__crt_stdio_output@@AAE_ND@Z 10032543 f i libucrt:output.obj
 0001:000315bd       ?state_case_normal_tchar@?$output_processor@DV?$stream_output_adapter@D@__crt_stdio_output@@V?$positional_parameter_base@DV?$stream_output_adapter@D@__crt_stdio_output@@@2@@__crt_stdio_output@@AAE_ND@Z 100325bd f i libucrt:output.obj
 0001:00031637       ?state_case_normal_tchar@?$output_processor@DV?$stream_output_adapter@D@__crt_stdio_output@@V?$standard_base@DV?$stream_output_adapter@D@__crt_stdio_output@@@2@@__crt_stdio_output@@AAE_ND@Z 10032637 f i libucrt:output.obj
 0001:000316b1       ?state_case_normal_tchar@?$output_processor@DV?$string_output_adapter@D@__crt_stdio_output@@V?$format_validation_base@DV?$string_output_adapter@D@__crt_stdio_output@@@2@@__crt_stdio_output@@AAE_ND@Z 100326b1 f i libucrt:output.obj
 0001:00031720       ?state_case_normal_tchar@?$output_processor@DV?$string_output_adapter@D@__crt_stdio_output@@V?$positional_parameter_base@DV?$string_output_adapter@D@__crt_stdio_output@@@2@@__crt_stdio_output@@AAE_ND@Z 10032720 f i libucrt:output.obj
 0001:0003178f       ?state_case_normal_tchar@?$output_processor@DV?$string_output_adapter@D@__crt_stdio_output@@V?$standard_base@DV?$string_output_adapter@D@__crt_stdio_output@@@2@@__crt_stdio_output@@AAE_ND@Z 1003278f f i libucrt:output.obj
 0001:000317fe       ?state_case_normal_tchar@?$output_processor@_WV?$stream_output_adapter@_W@__crt_stdio_output@@V?$format_validation_base@_WV?$stream_output_adapter@_W@__crt_stdio_output@@@2@@__crt_stdio_output@@AAE_N_W@Z 100327fe f i libucrt:output.obj
 0001:00031809       ?state_case_normal_tchar@?$output_processor@_WV?$stream_output_adapter@_W@__crt_stdio_output@@V?$positional_parameter_base@_WV?$stream_output_adapter@_W@__crt_stdio_output@@@2@@__crt_stdio_output@@AAE_N_W@Z 10032809 f i libucrt:output.obj
 0001:00031814       ?state_case_normal_tchar@?$output_processor@_WV?$stream_output_adapter@_W@__crt_stdio_output@@V?$standard_base@_WV?$stream_output_adapter@_W@__crt_stdio_output@@@2@@__crt_stdio_output@@AAE_N_W@Z 10032814 f i libucrt:output.obj
 0001:0003181f       ?state_case_normal_tchar@?$output_processor@_WV?$string_output_adapter@_W@__crt_stdio_output@@V?$format_validation_base@_WV?$string_output_adapter@_W@__crt_stdio_output@@@2@@__crt_stdio_output@@AAE_N_W@Z 1003281f f i libucrt:output.obj
 0001:0003182a       ?state_case_normal_tchar@?$output_processor@_WV?$string_output_adapter@_W@__crt_stdio_output@@V?$positional_parameter_base@_WV?$string_output_adapter@_W@__crt_stdio_output@@@2@@__crt_stdio_output@@AAE_N_W@Z 1003282a f i libucrt:output.obj
 0001:00031835       ?state_case_normal_tchar@?$output_processor@_WV?$string_output_adapter@_W@__crt_stdio_output@@V?$standard_base@_WV?$string_output_adapter@_W@__crt_stdio_output@@@2@@__crt_stdio_output@@AAE_N_W@Z 10032835 f i libucrt:output.obj
 0001:00031840       ?state_case_percent@?$output_processor@DV?$stream_output_adapter@D@__crt_stdio_output@@V?$format_validation_base@DV?$stream_output_adapter@D@__crt_stdio_output@@@2@@__crt_stdio_output@@AAE_NXZ 10032840 f i libucrt:output.obj
 0001:0003185e       ?state_case_percent@?$output_processor@DV?$stream_output_adapter@D@__crt_stdio_output@@V?$positional_parameter_base@DV?$stream_output_adapter@D@__crt_stdio_output@@@2@@__crt_stdio_output@@AAE_NXZ 1003285e f i libucrt:output.obj
 0001:0003187c       ?state_case_percent@?$output_processor@DV?$stream_output_adapter@D@__crt_stdio_output@@V?$standard_base@DV?$stream_output_adapter@D@__crt_stdio_output@@@2@@__crt_stdio_output@@AAE_NXZ 1003287c f i libucrt:output.obj
 0001:0003189a       ?state_case_percent@?$output_processor@DV?$string_output_adapter@D@__crt_stdio_output@@V?$format_validation_base@DV?$string_output_adapter@D@__crt_stdio_output@@@2@@__crt_stdio_output@@AAE_NXZ 1003289a f i libucrt:output.obj
 0001:000318b8       ?state_case_percent@?$output_processor@DV?$string_output_adapter@D@__crt_stdio_output@@V?$positional_parameter_base@DV?$string_output_adapter@D@__crt_stdio_output@@@2@@__crt_stdio_output@@AAE_NXZ 100328b8 f i libucrt:output.obj
 0001:000318d6       ?state_case_percent@?$output_processor@DV?$string_output_adapter@D@__crt_stdio_output@@V?$standard_base@DV?$string_output_adapter@D@__crt_stdio_output@@@2@@__crt_stdio_output@@AAE_NXZ 100328d6 f i libucrt:output.obj
 0001:000318f4       ?state_case_percent@?$output_processor@_WV?$stream_output_adapter@_W@__crt_stdio_output@@V?$format_validation_base@_WV?$stream_output_adapter@_W@__crt_stdio_output@@@2@@__crt_stdio_output@@AAE_NXZ 100328f4 f i libucrt:output.obj
 0001:00031912       ?state_case_percent@?$output_processor@_WV?$stream_output_adapter@_W@__crt_stdio_output@@V?$positional_parameter_base@_WV?$stream_output_adapter@_W@__crt_stdio_output@@@2@@__crt_stdio_output@@AAE_NXZ 10032912 f i libucrt:output.obj
 0001:00031930       ?state_case_percent@?$output_processor@_WV?$stream_output_adapter@_W@__crt_stdio_output@@V?$standard_base@_WV?$stream_output_adapter@_W@__crt_stdio_output@@@2@@__crt_stdio_output@@AAE_NXZ 10032930 f i libucrt:output.obj
 0001:0003194e       ?state_case_percent@?$output_processor@_WV?$string_output_adapter@_W@__crt_stdio_output@@V?$format_validation_base@_WV?$string_output_adapter@_W@__crt_stdio_output@@@2@@__crt_stdio_output@@AAE_NXZ 1003294e f i libucrt:output.obj
 0001:0003196c       ?state_case_percent@?$output_processor@_WV?$string_output_adapter@_W@__crt_stdio_output@@V?$positional_parameter_base@_WV?$string_output_adapter@_W@__crt_stdio_output@@@2@@__crt_stdio_output@@AAE_NXZ 1003296c f i libucrt:output.obj
 0001:0003198a       ?state_case_percent@?$output_processor@_WV?$string_output_adapter@_W@__crt_stdio_output@@V?$standard_base@_WV?$string_output_adapter@_W@__crt_stdio_output@@@2@@__crt_stdio_output@@AAE_NXZ 1003298a f i libucrt:output.obj
 0001:000319a8       ?state_case_precision@?$output_processor@DV?$stream_output_adapter@D@__crt_stdio_output@@V?$format_validation_base@DV?$stream_output_adapter@D@__crt_stdio_output@@@2@@__crt_stdio_output@@AAE_NXZ 100329a8 f i libucrt:output.obj
 0001:000319d7       ?state_case_precision@?$output_processor@DV?$stream_output_adapter@D@__crt_stdio_output@@V?$positional_parameter_base@DV?$stream_output_adapter@D@__crt_stdio_output@@@2@@__crt_stdio_output@@AAE_NXZ 100329d7 f i libucrt:output.obj
 0001:00031a1f       ?state_case_precision@?$output_processor@DV?$stream_output_adapter@D@__crt_stdio_output@@V?$standard_base@DV?$stream_output_adapter@D@__crt_stdio_output@@@2@@__crt_stdio_output@@AAE_NXZ 10032a1f f i libucrt:output.obj
 0001:00031a4e       ?state_case_precision@?$output_processor@DV?$string_output_adapter@D@__crt_stdio_output@@V?$format_validation_base@DV?$string_output_adapter@D@__crt_stdio_output@@@2@@__crt_stdio_output@@AAE_NXZ 10032a4e f i libucrt:output.obj
 0001:00031a7d       ?state_case_precision@?$output_processor@DV?$string_output_adapter@D@__crt_stdio_output@@V?$positional_parameter_base@DV?$string_output_adapter@D@__crt_stdio_output@@@2@@__crt_stdio_output@@AAE_NXZ 10032a7d f i libucrt:output.obj
 0001:00031ac5       ?state_case_precision@?$output_processor@DV?$string_output_adapter@D@__crt_stdio_output@@V?$standard_base@DV?$string_output_adapter@D@__crt_stdio_output@@@2@@__crt_stdio_output@@AAE_NXZ 10032ac5 f i libucrt:output.obj
 0001:00031af4       ?state_case_precision@?$output_processor@_WV?$stream_output_adapter@_W@__crt_stdio_output@@V?$format_validation_base@_WV?$stream_output_adapter@_W@__crt_stdio_output@@@2@@__crt_stdio_output@@AAE_NXZ 10032af4 f i libucrt:output.obj
 0001:00031b24       ?state_case_precision@?$output_processor@_WV?$stream_output_adapter@_W@__crt_stdio_output@@V?$positional_parameter_base@_WV?$stream_output_adapter@_W@__crt_stdio_output@@@2@@__crt_stdio_output@@AAE_NXZ 10032b24 f i libucrt:output.obj
 0001:00031b6d       ?state_case_precision@?$output_processor@_WV?$stream_output_adapter@_W@__crt_stdio_output@@V?$standard_base@_WV?$stream_output_adapter@_W@__crt_stdio_output@@@2@@__crt_stdio_output@@AAE_NXZ 10032b6d f i libucrt:output.obj
 0001:00031b9d       ?state_case_precision@?$output_processor@_WV?$string_output_adapter@_W@__crt_stdio_output@@V?$format_validation_base@_WV?$string_output_adapter@_W@__crt_stdio_output@@@2@@__crt_stdio_output@@AAE_NXZ 10032b9d f i libucrt:output.obj
 0001:00031bcd       ?state_case_precision@?$output_processor@_WV?$string_output_adapter@_W@__crt_stdio_output@@V?$positional_parameter_base@_WV?$string_output_adapter@_W@__crt_stdio_output@@@2@@__crt_stdio_output@@AAE_NXZ 10032bcd f i libucrt:output.obj
 0001:00031c16       ?state_case_precision@?$output_processor@_WV?$string_output_adapter@_W@__crt_stdio_output@@V?$standard_base@_WV?$string_output_adapter@_W@__crt_stdio_output@@@2@@__crt_stdio_output@@AAE_NXZ 10032c16 f i libucrt:output.obj
 0001:00031c46       ?state_case_size@?$output_processor@DV?$stream_output_adapter@D@__crt_stdio_output@@V?$format_validation_base@DV?$stream_output_adapter@D@__crt_stdio_output@@@2@@__crt_stdio_output@@AAE_NXZ 10032c46 f i libucrt:output.obj
 0001:00031df6       ?state_case_size@?$output_processor@DV?$stream_output_adapter@D@__crt_stdio_output@@V?$positional_parameter_base@DV?$stream_output_adapter@D@__crt_stdio_output@@@2@@__crt_stdio_output@@AAE_NXZ 10032df6 f i libucrt:output.obj
 0001:00031fa6       ?state_case_size@?$output_processor@DV?$stream_output_adapter@D@__crt_stdio_output@@V?$standard_base@DV?$stream_output_adapter@D@__crt_stdio_output@@@2@@__crt_stdio_output@@AAE_NXZ 10032fa6 f i libucrt:output.obj
 0001:00032156       ?state_case_size@?$output_processor@DV?$string_output_adapter@D@__crt_stdio_output@@V?$format_validation_base@DV?$string_output_adapter@D@__crt_stdio_output@@@2@@__crt_stdio_output@@AAE_NXZ 10033156 f i libucrt:output.obj
 0001:00032306       ?state_case_size@?$output_processor@DV?$string_output_adapter@D@__crt_stdio_output@@V?$positional_parameter_base@DV?$string_output_adapter@D@__crt_stdio_output@@@2@@__crt_stdio_output@@AAE_NXZ 10033306 f i libucrt:output.obj
 0001:000324b6       ?state_case_size@?$output_processor@DV?$string_output_adapter@D@__crt_stdio_output@@V?$standard_base@DV?$string_output_adapter@D@__crt_stdio_output@@@2@@__crt_stdio_output@@AAE_NXZ 100334b6 f i libucrt:output.obj
 0001:00032666       ?state_case_size@?$output_processor@_WV?$stream_output_adapter@_W@__crt_stdio_output@@V?$format_validation_base@_WV?$stream_output_adapter@_W@__crt_stdio_output@@@2@@__crt_stdio_output@@AAE_NXZ 10033666 f i libucrt:output.obj
 0001:0003282e       ?state_case_size@?$output_processor@_WV?$stream_output_adapter@_W@__crt_stdio_output@@V?$positional_parameter_base@_WV?$stream_output_adapter@_W@__crt_stdio_output@@@2@@__crt_stdio_output@@AAE_NXZ 1003382e f i libucrt:output.obj
 0001:000329f6       ?state_case_size@?$output_processor@_WV?$stream_output_adapter@_W@__crt_stdio_output@@V?$standard_base@_WV?$stream_output_adapter@_W@__crt_stdio_output@@@2@@__crt_stdio_output@@AAE_NXZ 100339f6 f i libucrt:output.obj
 0001:00032bbe       ?state_case_size@?$output_processor@_WV?$string_output_adapter@_W@__crt_stdio_output@@V?$format_validation_base@_WV?$string_output_adapter@_W@__crt_stdio_output@@@2@@__crt_stdio_output@@AAE_NXZ 10033bbe f i libucrt:output.obj
 0001:00032d86       ?state_case_size@?$output_processor@_WV?$string_output_adapter@_W@__crt_stdio_output@@V?$positional_parameter_base@_WV?$string_output_adapter@_W@__crt_stdio_output@@@2@@__crt_stdio_output@@AAE_NXZ 10033d86 f i libucrt:output.obj
 0001:00032f4e       ?state_case_size@?$output_processor@_WV?$string_output_adapter@_W@__crt_stdio_output@@V?$standard_base@_WV?$string_output_adapter@_W@__crt_stdio_output@@@2@@__crt_stdio_output@@AAE_NXZ 10033f4e f i libucrt:output.obj
 0001:00033116       ?state_case_type@?$output_processor@DV?$stream_output_adapter@D@__crt_stdio_output@@V?$format_validation_base@DV?$stream_output_adapter@D@__crt_stdio_output@@@2@@__crt_stdio_output@@AAE_NXZ 10034116 f i libucrt:output.obj
 0001:000333c9       ?state_case_type@?$output_processor@DV?$stream_output_adapter@D@__crt_stdio_output@@V?$positional_parameter_base@DV?$stream_output_adapter@D@__crt_stdio_output@@@2@@__crt_stdio_output@@AAE_NXZ 100343c9 f i libucrt:output.obj
 0001:0003368a       ?state_case_type@?$output_processor@DV?$stream_output_adapter@D@__crt_stdio_output@@V?$standard_base@DV?$stream_output_adapter@D@__crt_stdio_output@@@2@@__crt_stdio_output@@AAE_NXZ 1003468a f i libucrt:output.obj
 0001:0003393d       ?state_case_type@?$output_processor@DV?$string_output_adapter@D@__crt_stdio_output@@V?$format_validation_base@DV?$string_output_adapter@D@__crt_stdio_output@@@2@@__crt_stdio_output@@AAE_NXZ 1003493d f i libucrt:output.obj
 0001:00033bf0       ?state_case_type@?$output_processor@DV?$string_output_adapter@D@__crt_stdio_output@@V?$positional_parameter_base@DV?$string_output_adapter@D@__crt_stdio_output@@@2@@__crt_stdio_output@@AAE_NXZ 10034bf0 f i libucrt:output.obj
 0001:00033eb1       ?state_case_type@?$output_processor@DV?$string_output_adapter@D@__crt_stdio_output@@V?$standard_base@DV?$string_output_adapter@D@__crt_stdio_output@@@2@@__crt_stdio_output@@AAE_NXZ 10034eb1 f i libucrt:output.obj
 0001:00034164       ?state_case_type@?$output_processor@_WV?$stream_output_adapter@_W@__crt_stdio_output@@V?$format_validation_base@_WV?$stream_output_adapter@_W@__crt_stdio_output@@@2@@__crt_stdio_output@@AAE_NXZ 10035164 f i libucrt:output.obj
 0001:00034464       ?state_case_type@?$output_processor@_WV?$stream_output_adapter@_W@__crt_stdio_output@@V?$positional_parameter_base@_WV?$stream_output_adapter@_W@__crt_stdio_output@@@2@@__crt_stdio_output@@AAE_NXZ 10035464 f i libucrt:output.obj
 0001:00034777       ?state_case_type@?$output_processor@_WV?$stream_output_adapter@_W@__crt_stdio_output@@V?$standard_base@_WV?$stream_output_adapter@_W@__crt_stdio_output@@@2@@__crt_stdio_output@@AAE_NXZ 10035777 f i libucrt:output.obj
 0001:00034a77       ?state_case_type@?$output_processor@_WV?$string_output_adapter@_W@__crt_stdio_output@@V?$format_validation_base@_WV?$string_output_adapter@_W@__crt_stdio_output@@@2@@__crt_stdio_output@@AAE_NXZ 10035a77 f i libucrt:output.obj
 0001:00034d77       ?state_case_type@?$output_processor@_WV?$string_output_adapter@_W@__crt_stdio_output@@V?$positional_parameter_base@_WV?$string_output_adapter@_W@__crt_stdio_output@@@2@@__crt_stdio_output@@AAE_NXZ 10035d77 f i libucrt:output.obj
 0001:0003508a       ?state_case_type@?$output_processor@_WV?$string_output_adapter@_W@__crt_stdio_output@@V?$standard_base@_WV?$string_output_adapter@_W@__crt_stdio_output@@@2@@__crt_stdio_output@@AAE_NXZ 1003608a f i libucrt:output.obj
 0001:0003538a       ?state_case_width@?$output_processor@DV?$stream_output_adapter@D@__crt_stdio_output@@V?$format_validation_base@DV?$stream_output_adapter@D@__crt_stdio_output@@@2@@__crt_stdio_output@@AAE_NXZ 1003638a f i libucrt:output.obj
 0001:000353bf       ?state_case_width@?$output_processor@DV?$stream_output_adapter@D@__crt_stdio_output@@V?$positional_parameter_base@DV?$stream_output_adapter@D@__crt_stdio_output@@@2@@__crt_stdio_output@@AAE_NXZ 100363bf f i libucrt:output.obj
 0001:0003540f       ?state_case_width@?$output_processor@DV?$stream_output_adapter@D@__crt_stdio_output@@V?$standard_base@DV?$stream_output_adapter@D@__crt_stdio_output@@@2@@__crt_stdio_output@@AAE_NXZ 1003640f f i libucrt:output.obj
 0001:00035444       ?state_case_width@?$output_processor@DV?$string_output_adapter@D@__crt_stdio_output@@V?$format_validation_base@DV?$string_output_adapter@D@__crt_stdio_output@@@2@@__crt_stdio_output@@AAE_NXZ 10036444 f i libucrt:output.obj
 0001:00035479       ?state_case_width@?$output_processor@DV?$string_output_adapter@D@__crt_stdio_output@@V?$positional_parameter_base@DV?$string_output_adapter@D@__crt_stdio_output@@@2@@__crt_stdio_output@@AAE_NXZ 10036479 f i libucrt:output.obj
 0001:000354c9       ?state_case_width@?$output_processor@DV?$string_output_adapter@D@__crt_stdio_output@@V?$standard_base@DV?$string_output_adapter@D@__crt_stdio_output@@@2@@__crt_stdio_output@@AAE_NXZ 100364c9 f i libucrt:output.obj
 0001:000354fe       ?state_case_width@?$output_processor@_WV?$stream_output_adapter@_W@__crt_stdio_output@@V?$format_validation_base@_WV?$stream_output_adapter@_W@__crt_stdio_output@@@2@@__crt_stdio_output@@AAE_NXZ 100364fe f i libucrt:output.obj
 0001:00035535       ?state_case_width@?$output_processor@_WV?$stream_output_adapter@_W@__crt_stdio_output@@V?$positional_parameter_base@_WV?$stream_output_adapter@_W@__crt_stdio_output@@@2@@__crt_stdio_output@@AAE_NXZ 10036535 f i libucrt:output.obj
 0001:00035586       ?state_case_width@?$output_processor@_WV?$stream_output_adapter@_W@__crt_stdio_output@@V?$standard_base@_WV?$stream_output_adapter@_W@__crt_stdio_output@@@2@@__crt_stdio_output@@AAE_NXZ 10036586 f i libucrt:output.obj
 0001:000355bd       ?state_case_width@?$output_processor@_WV?$string_output_adapter@_W@__crt_stdio_output@@V?$format_validation_base@_WV?$string_output_adapter@_W@__crt_stdio_output@@@2@@__crt_stdio_output@@AAE_NXZ 100365bd f i libucrt:output.obj
 0001:000355f4       ?state_case_width@?$output_processor@_WV?$string_output_adapter@_W@__crt_stdio_output@@V?$positional_parameter_base@_WV?$string_output_adapter@_W@__crt_stdio_output@@@2@@__crt_stdio_output@@AAE_NXZ 100365f4 f i libucrt:output.obj
 0001:00035645       ?state_case_width@?$output_processor@_WV?$string_output_adapter@_W@__crt_stdio_output@@V?$standard_base@_WV?$string_output_adapter@_W@__crt_stdio_output@@@2@@__crt_stdio_output@@AAE_NXZ 10036645 f i libucrt:output.obj
 0001:0003567c       ?state_count@?$format_validation_base@DV?$stream_output_adapter@D@__crt_stdio_output@@@__crt_stdio_output@@KAIXZ 1003667c f i libucrt:output.obj
 0001:00035680       ?state_count@?$format_validation_base@DV?$string_output_adapter@D@__crt_stdio_output@@@__crt_stdio_output@@KAIXZ 10036680 f i libucrt:output.obj
 0001:00035684       ?state_count@?$format_validation_base@_WV?$stream_output_adapter@_W@__crt_stdio_output@@@__crt_stdio_output@@KAIXZ 10036684 f i libucrt:output.obj
 0001:00035688       ?state_count@?$format_validation_base@_WV?$string_output_adapter@_W@__crt_stdio_output@@@__crt_stdio_output@@KAIXZ 10036688 f i libucrt:output.obj
 0001:0003568c       ?state_count@?$standard_base@DV?$stream_output_adapter@D@__crt_stdio_output@@@__crt_stdio_output@@KAIXZ 1003668c f i libucrt:output.obj
 0001:00035690       ?state_count@?$standard_base@DV?$string_output_adapter@D@__crt_stdio_output@@@__crt_stdio_output@@KAIXZ 10036690 f i libucrt:output.obj
 0001:00035694       ?state_count@?$standard_base@_WV?$stream_output_adapter@_W@__crt_stdio_output@@@__crt_stdio_output@@KAIXZ 10036694 f i libucrt:output.obj
 0001:00035698       ?state_count@?$standard_base@_WV?$string_output_adapter@_W@__crt_stdio_output@@@__crt_stdio_output@@KAIXZ 10036698 f i libucrt:output.obj
 0001:0003569c       ?state_transition_table@?$format_validation_base@DV?$stream_output_adapter@D@__crt_stdio_output@@@__crt_stdio_output@@KAPBEXZ 1003669c f i libucrt:output.obj
 0001:000356a2       ?state_transition_table@?$format_validation_base@DV?$string_output_adapter@D@__crt_stdio_output@@@__crt_stdio_output@@KAPBEXZ 100366a2 f i libucrt:output.obj
 0001:000356a8       ?state_transition_table@?$format_validation_base@_WV?$stream_output_adapter@_W@__crt_stdio_output@@@__crt_stdio_output@@KAPBEXZ 100366a8 f i libucrt:output.obj
 0001:000356ae       ?state_transition_table@?$format_validation_base@_WV?$string_output_adapter@_W@__crt_stdio_output@@@__crt_stdio_output@@KAPBEXZ 100366ae f i libucrt:output.obj
 0001:000356b4       ?state_transition_table@?$standard_base@DV?$stream_output_adapter@D@__crt_stdio_output@@@__crt_stdio_output@@KAPBEXZ 100366b4 f i libucrt:output.obj
 0001:000356ba       ?state_transition_table@?$standard_base@DV?$string_output_adapter@D@__crt_stdio_output@@@__crt_stdio_output@@KAPBEXZ 100366ba f i libucrt:output.obj
 0001:000356c0       ?state_transition_table@?$standard_base@_WV?$stream_output_adapter@_W@__crt_stdio_output@@@__crt_stdio_output@@KAPBEXZ 100366c0 f i libucrt:output.obj
 0001:000356c6       ?state_transition_table@?$standard_base@_WV?$string_output_adapter@_W@__crt_stdio_output@@@__crt_stdio_output@@KAPBEXZ 100366c6 f i libucrt:output.obj
 0001:000356cc       ?tchar_string@?$common_data@D@__crt_stdio_output@@IAEAAPADD@Z 100366cc f i libucrt:output.obj
 0001:000356d2       ?tchar_string@?$common_data@D@__crt_stdio_output@@IAEAAPADXZ 100366d2 f i libucrt:output.obj
 0001:000356d6       ?tchar_string@?$common_data@_W@__crt_stdio_output@@IAEAAPA_WXZ 100366d6 f i libucrt:output.obj
 0001:000356da       ?tchar_string@?$common_data@_W@__crt_stdio_output@@IAEAAPA_W_W@Z 100366da f i libucrt:output.obj
 0001:000356e0       ?to_integer_size@__crt_stdio_output@@YAIW4length_modifier@1@@Z 100366e0 f i libucrt:output.obj
 0001:00035753       ?type_case_X@?$output_processor@DV?$stream_output_adapter@D@__crt_stdio_output@@V?$format_validation_base@DV?$stream_output_adapter@D@__crt_stdio_output@@@2@@__crt_stdio_output@@AAE_NXZ 10036753 f i libucrt:output.obj
 0001:0003575f       ?type_case_X@?$output_processor@DV?$stream_output_adapter@D@__crt_stdio_output@@V?$positional_parameter_base@DV?$stream_output_adapter@D@__crt_stdio_output@@@2@@__crt_stdio_output@@AAE_NXZ 1003675f f i libucrt:output.obj
 0001:0003576b       ?type_case_X@?$output_processor@DV?$stream_output_adapter@D@__crt_stdio_output@@V?$standard_base@DV?$stream_output_adapter@D@__crt_stdio_output@@@2@@__crt_stdio_output@@AAE_NXZ 1003676b f i libucrt:output.obj
 0001:00035777       ?type_case_X@?$output_processor@DV?$string_output_adapter@D@__crt_stdio_output@@V?$format_validation_base@DV?$string_output_adapter@D@__crt_stdio_output@@@2@@__crt_stdio_output@@AAE_NXZ 10036777 f i libucrt:output.obj
 0001:00035783       ?type_case_X@?$output_processor@DV?$string_output_adapter@D@__crt_stdio_output@@V?$positional_parameter_base@DV?$string_output_adapter@D@__crt_stdio_output@@@2@@__crt_stdio_output@@AAE_NXZ 10036783 f i libucrt:output.obj
 0001:0003578f       ?type_case_X@?$output_processor@DV?$string_output_adapter@D@__crt_stdio_output@@V?$standard_base@DV?$string_output_adapter@D@__crt_stdio_output@@@2@@__crt_stdio_output@@AAE_NXZ 1003678f f i libucrt:output.obj
 0001:0003579b       ?type_case_X@?$output_processor@_WV?$stream_output_adapter@_W@__crt_stdio_output@@V?$format_validation_base@_WV?$stream_output_adapter@_W@__crt_stdio_output@@@2@@__crt_stdio_output@@AAE_NXZ 1003679b f i libucrt:output.obj
 0001:000357a7       ?type_case_X@?$output_processor@_WV?$stream_output_adapter@_W@__crt_stdio_output@@V?$positional_parameter_base@_WV?$stream_output_adapter@_W@__crt_stdio_output@@@2@@__crt_stdio_output@@AAE_NXZ 100367a7 f i libucrt:output.obj
 0001:000357b3       ?type_case_X@?$output_processor@_WV?$stream_output_adapter@_W@__crt_stdio_output@@V?$standard_base@_WV?$stream_output_adapter@_W@__crt_stdio_output@@@2@@__crt_stdio_output@@AAE_NXZ 100367b3 f i libucrt:output.obj
 0001:000357bf       ?type_case_X@?$output_processor@_WV?$string_output_adapter@_W@__crt_stdio_output@@V?$format_validation_base@_WV?$string_output_adapter@_W@__crt_stdio_output@@@2@@__crt_stdio_output@@AAE_NXZ 100367bf f i libucrt:output.obj
 0001:000357cb       ?type_case_X@?$output_processor@_WV?$string_output_adapter@_W@__crt_stdio_output@@V?$positional_parameter_base@_WV?$string_output_adapter@_W@__crt_stdio_output@@@2@@__crt_stdio_output@@AAE_NXZ 100367cb f i libucrt:output.obj
 0001:000357d7       ?type_case_X@?$output_processor@_WV?$string_output_adapter@_W@__crt_stdio_output@@V?$standard_base@_WV?$string_output_adapter@_W@__crt_stdio_output@@@2@@__crt_stdio_output@@AAE_NXZ 100367d7 f i libucrt:output.obj
 0001:000357e3       ?type_case_Z@?$output_processor@DV?$stream_output_adapter@D@__crt_stdio_output@@V?$format_validation_base@DV?$stream_output_adapter@D@__crt_stdio_output@@@2@@__crt_stdio_output@@AAE_NXZ 100367e3 f i libucrt:output.obj
 0001:0003585c       ?type_case_Z@?$output_processor@DV?$stream_output_adapter@D@__crt_stdio_output@@V?$positional_parameter_base@DV?$stream_output_adapter@D@__crt_stdio_output@@@2@@__crt_stdio_output@@AAE_NXZ 1003685c f i libucrt:output.obj
 0001:00035972       ?type_case_Z@?$output_processor@DV?$stream_output_adapter@D@__crt_stdio_output@@V?$standard_base@DV?$stream_output_adapter@D@__crt_stdio_output@@@2@@__crt_stdio_output@@AAE_NXZ 10036972 f i libucrt:output.obj
 0001:000359eb       ?type_case_Z@?$output_processor@DV?$string_output_adapter@D@__crt_stdio_output@@V?$format_validation_base@DV?$string_output_adapter@D@__crt_stdio_output@@@2@@__crt_stdio_output@@AAE_NXZ 100369eb f i libucrt:output.obj
 0001:00035a64       ?type_case_Z@?$output_processor@DV?$string_output_adapter@D@__crt_stdio_output@@V?$positional_parameter_base@DV?$string_output_adapter@D@__crt_stdio_output@@@2@@__crt_stdio_output@@AAE_NXZ 10036a64 f i libucrt:output.obj
 0001:00035b7a       ?type_case_Z@?$output_processor@DV?$string_output_adapter@D@__crt_stdio_output@@V?$standard_base@DV?$string_output_adapter@D@__crt_stdio_output@@@2@@__crt_stdio_output@@AAE_NXZ 10036b7a f i libucrt:output.obj
 0001:00035bf3       ?type_case_Z@?$output_processor@_WV?$stream_output_adapter@_W@__crt_stdio_output@@V?$format_validation_base@_WV?$stream_output_adapter@_W@__crt_stdio_output@@@2@@__crt_stdio_output@@AAE_NXZ 10036bf3 f i libucrt:output.obj
 0001:00035c6c       ?type_case_Z@?$output_processor@_WV?$stream_output_adapter@_W@__crt_stdio_output@@V?$positional_parameter_base@_WV?$stream_output_adapter@_W@__crt_stdio_output@@@2@@__crt_stdio_output@@AAE_NXZ 10036c6c f i libucrt:output.obj
 0001:00035d82       ?type_case_Z@?$output_processor@_WV?$stream_output_adapter@_W@__crt_stdio_output@@V?$standard_base@_WV?$stream_output_adapter@_W@__crt_stdio_output@@@2@@__crt_stdio_output@@AAE_NXZ 10036d82 f i libucrt:output.obj
 0001:00035dfb       ?type_case_Z@?$output_processor@_WV?$string_output_adapter@_W@__crt_stdio_output@@V?$format_validation_base@_WV?$string_output_adapter@_W@__crt_stdio_output@@@2@@__crt_stdio_output@@AAE_NXZ 10036dfb f i libucrt:output.obj
 0001:00035e74       ?type_case_Z@?$output_processor@_WV?$string_output_adapter@_W@__crt_stdio_output@@V?$positional_parameter_base@_WV?$string_output_adapter@_W@__crt_stdio_output@@@2@@__crt_stdio_output@@AAE_NXZ 10036e74 f i libucrt:output.obj
 0001:00035f8a       ?type_case_Z@?$output_processor@_WV?$string_output_adapter@_W@__crt_stdio_output@@V?$standard_base@_WV?$string_output_adapter@_W@__crt_stdio_output@@@2@@__crt_stdio_output@@AAE_NXZ 10036f8a f i libucrt:output.obj
 0001:00036003       ?type_case_a@?$output_processor@DV?$stream_output_adapter@D@__crt_stdio_output@@V?$format_validation_base@DV?$stream_output_adapter@D@__crt_stdio_output@@@2@@__crt_stdio_output@@AAE_NXZ 10037003 f i libucrt:output.obj
 0001:000361b2       ?type_case_a@?$output_processor@DV?$stream_output_adapter@D@__crt_stdio_output@@V?$positional_parameter_base@DV?$stream_output_adapter@D@__crt_stdio_output@@@2@@__crt_stdio_output@@AAE_NXZ 100371b2 f i libucrt:output.obj
 0001:00036388       ?type_case_a@?$output_processor@DV?$stream_output_adapter@D@__crt_stdio_output@@V?$standard_base@DV?$stream_output_adapter@D@__crt_stdio_output@@@2@@__crt_stdio_output@@AAE_NXZ 10037388 f i libucrt:output.obj
 0001:00036537       ?type_case_a@?$output_processor@DV?$string_output_adapter@D@__crt_stdio_output@@V?$format_validation_base@DV?$string_output_adapter@D@__crt_stdio_output@@@2@@__crt_stdio_output@@AAE_NXZ 10037537 f i libucrt:output.obj
 0001:000366e6       ?type_case_a@?$output_processor@DV?$string_output_adapter@D@__crt_stdio_output@@V?$positional_parameter_base@DV?$string_output_adapter@D@__crt_stdio_output@@@2@@__crt_stdio_output@@AAE_NXZ 100376e6 f i libucrt:output.obj
 0001:000368bc       ?type_case_a@?$output_processor@DV?$string_output_adapter@D@__crt_stdio_output@@V?$standard_base@DV?$string_output_adapter@D@__crt_stdio_output@@@2@@__crt_stdio_output@@AAE_NXZ 100378bc f i libucrt:output.obj
 0001:00036a6b       ?type_case_a@?$output_processor@_WV?$stream_output_adapter@_W@__crt_stdio_output@@V?$format_validation_base@_WV?$stream_output_adapter@_W@__crt_stdio_output@@@2@@__crt_stdio_output@@AAE_NXZ 10037a6b f i libucrt:output.obj
 0001:00036c35       ?type_case_a@?$output_processor@_WV?$stream_output_adapter@_W@__crt_stdio_output@@V?$positional_parameter_base@_WV?$stream_output_adapter@_W@__crt_stdio_output@@@2@@__crt_stdio_output@@AAE_NXZ 10037c35 f i libucrt:output.obj
 0001:00036e26       ?type_case_a@?$output_processor@_WV?$stream_output_adapter@_W@__crt_stdio_output@@V?$standard_base@_WV?$stream_output_adapter@_W@__crt_stdio_output@@@2@@__crt_stdio_output@@AAE_NXZ 10037e26 f i libucrt:output.obj
 0001:00036ff0       ?type_case_a@?$output_processor@_WV?$string_output_adapter@_W@__crt_stdio_output@@V?$format_validation_base@_WV?$string_output_adapter@_W@__crt_stdio_output@@@2@@__crt_stdio_output@@AAE_NXZ 10037ff0 f i libucrt:output.obj
 0001:000371ba       ?type_case_a@?$output_processor@_WV?$string_output_adapter@_W@__crt_stdio_output@@V?$positional_parameter_base@_WV?$string_output_adapter@_W@__crt_stdio_output@@@2@@__crt_stdio_output@@AAE_NXZ 100381ba f i libucrt:output.obj
 0001:000373ab       ?type_case_a@?$output_processor@_WV?$string_output_adapter@_W@__crt_stdio_output@@V?$standard_base@_WV?$string_output_adapter@_W@__crt_stdio_output@@@2@@__crt_stdio_output@@AAE_NXZ 100383ab f i libucrt:output.obj
 0001:00037575       ?type_case_c@?$output_processor@DV?$stream_output_adapter@D@__crt_stdio_output@@V?$format_validation_base@DV?$stream_output_adapter@D@__crt_stdio_output@@@2@@__crt_stdio_output@@AAE_NXZ 10038575 f i libucrt:output.obj
 0001:0003757f       ?type_case_c@?$output_processor@DV?$stream_output_adapter@D@__crt_stdio_output@@V?$positional_parameter_base@DV?$stream_output_adapter@D@__crt_stdio_output@@@2@@__crt_stdio_output@@AAE_NXZ 1003857f f i libucrt:output.obj
 0001:00037589       ?type_case_c@?$output_processor@DV?$stream_output_adapter@D@__crt_stdio_output@@V?$standard_base@DV?$stream_output_adapter@D@__crt_stdio_output@@@2@@__crt_stdio_output@@AAE_NXZ 10038589 f i libucrt:output.obj
 0001:00037593       ?type_case_c@?$output_processor@DV?$string_output_adapter@D@__crt_stdio_output@@V?$format_validation_base@DV?$string_output_adapter@D@__crt_stdio_output@@@2@@__crt_stdio_output@@AAE_NXZ 10038593 f i libucrt:output.obj
 0001:0003759d       ?type_case_c@?$output_processor@DV?$string_output_adapter@D@__crt_stdio_output@@V?$positional_parameter_base@DV?$string_output_adapter@D@__crt_stdio_output@@@2@@__crt_stdio_output@@AAE_NXZ 1003859d f i libucrt:output.obj
 0001:000375a7       ?type_case_c@?$output_processor@DV?$string_output_adapter@D@__crt_stdio_output@@V?$standard_base@DV?$string_output_adapter@D@__crt_stdio_output@@@2@@__crt_stdio_output@@AAE_NXZ 100385a7 f i libucrt:output.obj
 0001:000375b1       ?type_case_c@?$output_processor@_WV?$stream_output_adapter@_W@__crt_stdio_output@@V?$format_validation_base@_WV?$stream_output_adapter@_W@__crt_stdio_output@@@2@@__crt_stdio_output@@AAE_NXZ 100385b1 f i libucrt:output.obj
 0001:000375bb       ?type_case_c@?$output_processor@_WV?$stream_output_adapter@_W@__crt_stdio_output@@V?$positional_parameter_base@_WV?$stream_output_adapter@_W@__crt_stdio_output@@@2@@__crt_stdio_output@@AAE_NXZ 100385bb f i libucrt:output.obj
 0001:000375c5       ?type_case_c@?$output_processor@_WV?$stream_output_adapter@_W@__crt_stdio_output@@V?$standard_base@_WV?$stream_output_adapter@_W@__crt_stdio_output@@@2@@__crt_stdio_output@@AAE_NXZ 100385c5 f i libucrt:output.obj
 0001:000375cf       ?type_case_c@?$output_processor@_WV?$string_output_adapter@_W@__crt_stdio_output@@V?$format_validation_base@_WV?$string_output_adapter@_W@__crt_stdio_output@@@2@@__crt_stdio_output@@AAE_NXZ 100385cf f i libucrt:output.obj
 0001:000375d9       ?type_case_c@?$output_processor@_WV?$string_output_adapter@_W@__crt_stdio_output@@V?$positional_parameter_base@_WV?$string_output_adapter@_W@__crt_stdio_output@@@2@@__crt_stdio_output@@AAE_NXZ 100385d9 f i libucrt:output.obj
 0001:000375e3       ?type_case_c@?$output_processor@_WV?$string_output_adapter@_W@__crt_stdio_output@@V?$standard_base@_WV?$string_output_adapter@_W@__crt_stdio_output@@@2@@__crt_stdio_output@@AAE_NXZ 100385e3 f i libucrt:output.obj
 0001:000375ed       ?type_case_c_tchar@?$output_processor@DV?$stream_output_adapter@D@__crt_stdio_output@@V?$format_validation_base@DV?$stream_output_adapter@D@__crt_stdio_output@@@2@@__crt_stdio_output@@AAE_ND@Z 100385ed f i libucrt:output.obj
 0001:000376a1       ?type_case_c_tchar@?$output_processor@DV?$stream_output_adapter@D@__crt_stdio_output@@V?$positional_parameter_base@DV?$stream_output_adapter@D@__crt_stdio_output@@@2@@__crt_stdio_output@@AAE_ND@Z 100386a1 f i libucrt:output.obj
 0001:00037791       ?type_case_c_tchar@?$output_processor@DV?$stream_output_adapter@D@__crt_stdio_output@@V?$standard_base@DV?$stream_output_adapter@D@__crt_stdio_output@@@2@@__crt_stdio_output@@AAE_ND@Z 10038791 f i libucrt:output.obj
 0001:00037845       ?type_case_c_tchar@?$output_processor@DV?$string_output_adapter@D@__crt_stdio_output@@V?$format_validation_base@DV?$string_output_adapter@D@__crt_stdio_output@@@2@@__crt_stdio_output@@AAE_ND@Z 10038845 f i libucrt:output.obj
 0001:000378f9       ?type_case_c_tchar@?$output_processor@DV?$string_output_adapter@D@__crt_stdio_output@@V?$positional_parameter_base@DV?$string_output_adapter@D@__crt_stdio_output@@@2@@__crt_stdio_output@@AAE_ND@Z 100388f9 f i libucrt:output.obj
 0001:000379e9       ?type_case_c_tchar@?$output_processor@DV?$string_output_adapter@D@__crt_stdio_output@@V?$standard_base@DV?$string_output_adapter@D@__crt_stdio_output@@@2@@__crt_stdio_output@@AAE_ND@Z 100389e9 f i libucrt:output.obj
 0001:00037a9d       ?type_case_c_tchar@?$output_processor@_WV?$stream_output_adapter@_W@__crt_stdio_output@@V?$format_validation_base@_WV?$stream_output_adapter@_W@__crt_stdio_output@@@2@@__crt_stdio_output@@AAE_N_W@Z 10038a9d f i libucrt:output.obj
 0001:00037b5b       ?type_case_c_tchar@?$output_processor@_WV?$stream_output_adapter@_W@__crt_stdio_output@@V?$positional_parameter_base@_WV?$stream_output_adapter@_W@__crt_stdio_output@@@2@@__crt_stdio_output@@AAE_N_W@Z 10038b5b f i libucrt:output.obj
 0001:00037c35       ?type_case_c_tchar@?$output_processor@_WV?$stream_output_adapter@_W@__crt_stdio_output@@V?$standard_base@_WV?$stream_output_adapter@_W@__crt_stdio_output@@@2@@__crt_stdio_output@@AAE_N_W@Z 10038c35 f i libucrt:output.obj
 0001:00037cf3       ?type_case_c_tchar@?$output_processor@_WV?$string_output_adapter@_W@__crt_stdio_output@@V?$format_validation_base@_WV?$string_output_adapter@_W@__crt_stdio_output@@@2@@__crt_stdio_output@@AAE_N_W@Z 10038cf3 f i libucrt:output.obj
 0001:00037db1       ?type_case_c_tchar@?$output_processor@_WV?$string_output_adapter@_W@__crt_stdio_output@@V?$positional_parameter_base@_WV?$string_output_adapter@_W@__crt_stdio_output@@@2@@__crt_stdio_output@@AAE_N_W@Z 10038db1 f i libucrt:output.obj
 0001:00037e8b       ?type_case_c_tchar@?$output_processor@_WV?$string_output_adapter@_W@__crt_stdio_output@@V?$standard_base@_WV?$string_output_adapter@_W@__crt_stdio_output@@@2@@__crt_stdio_output@@AAE_N_W@Z 10038e8b f i libucrt:output.obj
 0001:00037f49       ?type_case_d@?$output_processor@DV?$stream_output_adapter@D@__crt_stdio_output@@V?$format_validation_base@DV?$stream_output_adapter@D@__crt_stdio_output@@@2@@__crt_stdio_output@@AAE_NXZ 10038f49 f i libucrt:output.obj
 0001:00037f5a       ?type_case_d@?$output_processor@DV?$stream_output_adapter@D@__crt_stdio_output@@V?$positional_parameter_base@DV?$stream_output_adapter@D@__crt_stdio_output@@@2@@__crt_stdio_output@@AAE_NXZ 10038f5a f i libucrt:output.obj
 0001:00037f6b       ?type_case_d@?$output_processor@DV?$stream_output_adapter@D@__crt_stdio_output@@V?$standard_base@DV?$stream_output_adapter@D@__crt_stdio_output@@@2@@__crt_stdio_output@@AAE_NXZ 10038f6b f i libucrt:output.obj
 0001:00037f7c       ?type_case_d@?$output_processor@DV?$string_output_adapter@D@__crt_stdio_output@@V?$format_validation_base@DV?$string_output_adapter@D@__crt_stdio_output@@@2@@__crt_stdio_output@@AAE_NXZ 10038f7c f i libucrt:output.obj
 0001:00037f8d       ?type_case_d@?$output_processor@DV?$string_output_adapter@D@__crt_stdio_output@@V?$positional_parameter_base@DV?$string_output_adapter@D@__crt_stdio_output@@@2@@__crt_stdio_output@@AAE_NXZ 10038f8d f i libucrt:output.obj
 0001:00037f9e       ?type_case_d@?$output_processor@DV?$string_output_adapter@D@__crt_stdio_output@@V?$standard_base@DV?$string_output_adapter@D@__crt_stdio_output@@@2@@__crt_stdio_output@@AAE_NXZ 10038f9e f i libucrt:output.obj
 0001:00037faf       ?type_case_d@?$output_processor@_WV?$stream_output_adapter@_W@__crt_stdio_output@@V?$format_validation_base@_WV?$stream_output_adapter@_W@__crt_stdio_output@@@2@@__crt_stdio_output@@AAE_NXZ 10038faf f i libucrt:output.obj
 0001:00037fc0       ?type_case_d@?$output_processor@_WV?$stream_output_adapter@_W@__crt_stdio_output@@V?$positional_parameter_base@_WV?$stream_output_adapter@_W@__crt_stdio_output@@@2@@__crt_stdio_output@@AAE_NXZ 10038fc0 f i libucrt:output.obj
 0001:00037fd1       ?type_case_d@?$output_processor@_WV?$stream_output_adapter@_W@__crt_stdio_output@@V?$standard_base@_WV?$stream_output_adapter@_W@__crt_stdio_output@@@2@@__crt_stdio_output@@AAE_NXZ 10038fd1 f i libucrt:output.obj
 0001:00037fe2       ?type_case_d@?$output_processor@_WV?$string_output_adapter@_W@__crt_stdio_output@@V?$format_validation_base@_WV?$string_output_adapter@_W@__crt_stdio_output@@@2@@__crt_stdio_output@@AAE_NXZ 10038fe2 f i libucrt:output.obj
 0001:00037ff3       ?type_case_d@?$output_processor@_WV?$string_output_adapter@_W@__crt_stdio_output@@V?$positional_parameter_base@_WV?$string_output_adapter@_W@__crt_stdio_output@@@2@@__crt_stdio_output@@AAE_NXZ 10038ff3 f i libucrt:output.obj
 0001:00038004       ?type_case_d@?$output_processor@_WV?$string_output_adapter@_W@__crt_stdio_output@@V?$standard_base@_WV?$string_output_adapter@_W@__crt_stdio_output@@@2@@__crt_stdio_output@@AAE_NXZ 10039004 f i libucrt:output.obj
 0001:00038015       ?type_case_integer@?$output_processor@DV?$stream_output_adapter@D@__crt_stdio_output@@V?$format_validation_base@DV?$stream_output_adapter@D@__crt_stdio_output@@@2@@__crt_stdio_output@@AAE_NI_N@Z 10039015 f i libucrt:output.obj
 0001:000381bc       ?type_case_integer@?$output_processor@DV?$stream_output_adapter@D@__crt_stdio_output@@V?$positional_parameter_base@DV?$stream_output_adapter@D@__crt_stdio_output@@@2@@__crt_stdio_output@@AAE_NI_N@Z 100391bc f i libucrt:output.obj
 0001:0003839f       ?type_case_integer@?$output_processor@DV?$stream_output_adapter@D@__crt_stdio_output@@V?$standard_base@DV?$stream_output_adapter@D@__crt_stdio_output@@@2@@__crt_stdio_output@@AAE_NI_N@Z 1003939f f i libucrt:output.obj
 0001:00038546       ?type_case_integer@?$output_processor@DV?$string_output_adapter@D@__crt_stdio_output@@V?$format_validation_base@DV?$string_output_adapter@D@__crt_stdio_output@@@2@@__crt_stdio_output@@AAE_NI_N@Z 10039546 f i libucrt:output.obj
 0001:000386ed       ?type_case_integer@?$output_processor@DV?$string_output_adapter@D@__crt_stdio_output@@V?$positional_parameter_base@DV?$string_output_adapter@D@__crt_stdio_output@@@2@@__crt_stdio_output@@AAE_NI_N@Z 100396ed f i libucrt:output.obj
 0001:000388d0       ?type_case_integer@?$output_processor@DV?$string_output_adapter@D@__crt_stdio_output@@V?$standard_base@DV?$string_output_adapter@D@__crt_stdio_output@@@2@@__crt_stdio_output@@AAE_NI_N@Z 100398d0 f i libucrt:output.obj
 0001:00038a77       ?type_case_integer@?$output_processor@_WV?$stream_output_adapter@_W@__crt_stdio_output@@V?$format_validation_base@_WV?$stream_output_adapter@_W@__crt_stdio_output@@@2@@__crt_stdio_output@@AAE_NI_N@Z 10039a77 f i libucrt:output.obj
 0001:00038c23       ?type_case_integer@?$output_processor@_WV?$stream_output_adapter@_W@__crt_stdio_output@@V?$positional_parameter_base@_WV?$stream_output_adapter@_W@__crt_stdio_output@@@2@@__crt_stdio_output@@AAE_NI_N@Z 10039c23 f i libucrt:output.obj
 0001:00038e0b       ?type_case_integer@?$output_processor@_WV?$stream_output_adapter@_W@__crt_stdio_output@@V?$standard_base@_WV?$stream_output_adapter@_W@__crt_stdio_output@@@2@@__crt_stdio_output@@AAE_NI_N@Z 10039e0b f i libucrt:output.obj
 0001:00038fb7       ?type_case_integer@?$output_processor@_WV?$string_output_adapter@_W@__crt_stdio_output@@V?$format_validation_base@_WV?$string_output_adapter@_W@__crt_stdio_output@@@2@@__crt_stdio_output@@AAE_NI_N@Z 10039fb7 f i libucrt:output.obj
 0001:00039163       ?type_case_integer@?$output_processor@_WV?$string_output_adapter@_W@__crt_stdio_output@@V?$positional_parameter_base@_WV?$string_output_adapter@_W@__crt_stdio_output@@@2@@__crt_stdio_output@@AAE_NI_N@Z 1003a163 f i libucrt:output.obj
 0001:0003934b       ?type_case_integer@?$output_processor@_WV?$string_output_adapter@_W@__crt_stdio_output@@V?$standard_base@_WV?$string_output_adapter@_W@__crt_stdio_output@@@2@@__crt_stdio_output@@AAE_NI_N@Z 1003a34b f i libucrt:output.obj
 0001:000394f7       ?type_case_n@?$output_processor@DV?$stream_output_adapter@D@__crt_stdio_output@@V?$format_validation_base@DV?$stream_output_adapter@D@__crt_stdio_output@@@2@@__crt_stdio_output@@AAE_NXZ 1003a4f7 f i libucrt:output.obj
 0001:00039588       ?type_case_n@?$output_processor@DV?$stream_output_adapter@D@__crt_stdio_output@@V?$positional_parameter_base@DV?$stream_output_adapter@D@__crt_stdio_output@@@2@@__crt_stdio_output@@AAE_NXZ 1003a588 f i libucrt:output.obj
 0001:00039647       ?type_case_n@?$output_processor@DV?$stream_output_adapter@D@__crt_stdio_output@@V?$standard_base@DV?$stream_output_adapter@D@__crt_stdio_output@@@2@@__crt_stdio_output@@AAE_NXZ 1003a647 f i libucrt:output.obj
 0001:000396d8       ?type_case_n@?$output_processor@DV?$string_output_adapter@D@__crt_stdio_output@@V?$format_validation_base@DV?$string_output_adapter@D@__crt_stdio_output@@@2@@__crt_stdio_output@@AAE_NXZ 1003a6d8 f i libucrt:output.obj
 0001:00039769       ?type_case_n@?$output_processor@DV?$string_output_adapter@D@__crt_stdio_output@@V?$positional_parameter_base@DV?$string_output_adapter@D@__crt_stdio_output@@@2@@__crt_stdio_output@@AAE_NXZ 1003a769 f i libucrt:output.obj
 0001:00039828       ?type_case_n@?$output_processor@DV?$string_output_adapter@D@__crt_stdio_output@@V?$standard_base@DV?$string_output_adapter@D@__crt_stdio_output@@@2@@__crt_stdio_output@@AAE_NXZ 1003a828 f i libucrt:output.obj
 0001:000398b9       ?type_case_n@?$output_processor@_WV?$stream_output_adapter@_W@__crt_stdio_output@@V?$format_validation_base@_WV?$stream_output_adapter@_W@__crt_stdio_output@@@2@@__crt_stdio_output@@AAE_NXZ 1003a8b9 f i libucrt:output.obj
 0001:0003994a       ?type_case_n@?$output_processor@_WV?$stream_output_adapter@_W@__crt_stdio_output@@V?$positional_parameter_base@_WV?$stream_output_adapter@_W@__crt_stdio_output@@@2@@__crt_stdio_output@@AAE_NXZ 1003a94a f i libucrt:output.obj
 0001:00039a09       ?type_case_n@?$output_processor@_WV?$stream_output_adapter@_W@__crt_stdio_output@@V?$standard_base@_WV?$stream_output_adapter@_W@__crt_stdio_output@@@2@@__crt_stdio_output@@AAE_NXZ 1003aa09 f i libucrt:output.obj
 0001:00039a9a       ?type_case_n@?$output_processor@_WV?$string_output_adapter@_W@__crt_stdio_output@@V?$format_validation_base@_WV?$string_output_adapter@_W@__crt_stdio_output@@@2@@__crt_stdio_output@@AAE_NXZ 1003aa9a f i libucrt:output.obj
 0001:00039b2b       ?type_case_n@?$output_processor@_WV?$string_output_adapter@_W@__crt_stdio_output@@V?$positional_parameter_base@_WV?$string_output_adapter@_W@__crt_stdio_output@@@2@@__crt_stdio_output@@AAE_NXZ 1003ab2b f i libucrt:output.obj
 0001:00039bea       ?type_case_n@?$output_processor@_WV?$string_output_adapter@_W@__crt_stdio_output@@V?$standard_base@_WV?$string_output_adapter@_W@__crt_stdio_output@@@2@@__crt_stdio_output@@AAE_NXZ 1003abea f i libucrt:output.obj
 0001:00039c7b       ?type_case_o@?$output_processor@DV?$stream_output_adapter@D@__crt_stdio_output@@V?$format_validation_base@DV?$stream_output_adapter@D@__crt_stdio_output@@@2@@__crt_stdio_output@@AAE_NXZ 1003ac7b f i libucrt:output.obj
 0001:00039ca1       ?type_case_o@?$output_processor@DV?$stream_output_adapter@D@__crt_stdio_output@@V?$positional_parameter_base@DV?$stream_output_adapter@D@__crt_stdio_output@@@2@@__crt_stdio_output@@AAE_NXZ 1003aca1 f i libucrt:output.obj
 0001:00039cc7       ?type_case_o@?$output_processor@DV?$stream_output_adapter@D@__crt_stdio_output@@V?$standard_base@DV?$stream_output_adapter@D@__crt_stdio_output@@@2@@__crt_stdio_output@@AAE_NXZ 1003acc7 f i libucrt:output.obj
 0001:00039ced       ?type_case_o@?$output_processor@DV?$string_output_adapter@D@__crt_stdio_output@@V?$format_validation_base@DV?$string_output_adapter@D@__crt_stdio_output@@@2@@__crt_stdio_output@@AAE_NXZ 1003aced f i libucrt:output.obj
 0001:00039d13       ?type_case_o@?$output_processor@DV?$string_output_adapter@D@__crt_stdio_output@@V?$positional_parameter_base@DV?$string_output_adapter@D@__crt_stdio_output@@@2@@__crt_stdio_output@@AAE_NXZ 1003ad13 f i libucrt:output.obj
 0001:00039d39       ?type_case_o@?$output_processor@DV?$string_output_adapter@D@__crt_stdio_output@@V?$standard_base@DV?$string_output_adapter@D@__crt_stdio_output@@@2@@__crt_stdio_output@@AAE_NXZ 1003ad39 f i libucrt:output.obj
 0001:00039d5f       ?type_case_o@?$output_processor@_WV?$stream_output_adapter@_W@__crt_stdio_output@@V?$format_validation_base@_WV?$stream_output_adapter@_W@__crt_stdio_output@@@2@@__crt_stdio_output@@AAE_NXZ 1003ad5f f i libucrt:output.obj
 0001:00039d85       ?type_case_o@?$output_processor@_WV?$stream_output_adapter@_W@__crt_stdio_output@@V?$positional_parameter_base@_WV?$stream_output_adapter@_W@__crt_stdio_output@@@2@@__crt_stdio_output@@AAE_NXZ 1003ad85 f i libucrt:output.obj
 0001:00039dab       ?type_case_o@?$output_processor@_WV?$stream_output_adapter@_W@__crt_stdio_output@@V?$standard_base@_WV?$stream_output_adapter@_W@__crt_stdio_output@@@2@@__crt_stdio_output@@AAE_NXZ 1003adab f i libucrt:output.obj
 0001:00039dd1       ?type_case_o@?$output_processor@_WV?$string_output_adapter@_W@__crt_stdio_output@@V?$format_validation_base@_WV?$string_output_adapter@_W@__crt_stdio_output@@@2@@__crt_stdio_output@@AAE_NXZ 1003add1 f i libucrt:output.obj
 0001:00039df7       ?type_case_o@?$output_processor@_WV?$string_output_adapter@_W@__crt_stdio_output@@V?$positional_parameter_base@_WV?$string_output_adapter@_W@__crt_stdio_output@@@2@@__crt_stdio_output@@AAE_NXZ 1003adf7 f i libucrt:output.obj
 0001:00039e1d       ?type_case_o@?$output_processor@_WV?$string_output_adapter@_W@__crt_stdio_output@@V?$standard_base@_WV?$string_output_adapter@_W@__crt_stdio_output@@@2@@__crt_stdio_output@@AAE_NXZ 1003ae1d f i libucrt:output.obj
 0001:00039e43       ?type_case_p@?$output_processor@DV?$stream_output_adapter@D@__crt_stdio_output@@V?$format_validation_base@DV?$stream_output_adapter@D@__crt_stdio_output@@@2@@__crt_stdio_output@@AAE_NXZ 1003ae43 f i libucrt:output.obj
 0001:00039e61       ?type_case_p@?$output_processor@DV?$stream_output_adapter@D@__crt_stdio_output@@V?$positional_parameter_base@DV?$stream_output_adapter@D@__crt_stdio_output@@@2@@__crt_stdio_output@@AAE_NXZ 1003ae61 f i libucrt:output.obj
 0001:00039e7f       ?type_case_p@?$output_processor@DV?$stream_output_adapter@D@__crt_stdio_output@@V?$standard_base@DV?$stream_output_adapter@D@__crt_stdio_output@@@2@@__crt_stdio_output@@AAE_NXZ 1003ae7f f i libucrt:output.obj
 0001:00039e9d       ?type_case_p@?$output_processor@DV?$string_output_adapter@D@__crt_stdio_output@@V?$format_validation_base@DV?$string_output_adapter@D@__crt_stdio_output@@@2@@__crt_stdio_output@@AAE_NXZ 1003ae9d f i libucrt:output.obj
 0001:00039ebb       ?type_case_p@?$output_processor@DV?$string_output_adapter@D@__crt_stdio_output@@V?$positional_parameter_base@DV?$string_output_adapter@D@__crt_stdio_output@@@2@@__crt_stdio_output@@AAE_NXZ 1003aebb f i libucrt:output.obj
 0001:00039ed9       ?type_case_p@?$output_processor@DV?$string_output_adapter@D@__crt_stdio_output@@V?$standard_base@DV?$string_output_adapter@D@__crt_stdio_output@@@2@@__crt_stdio_output@@AAE_NXZ 1003aed9 f i libucrt:output.obj
 0001:00039ef7       ?type_case_p@?$output_processor@_WV?$stream_output_adapter@_W@__crt_stdio_output@@V?$format_validation_base@_WV?$stream_output_adapter@_W@__crt_stdio_output@@@2@@__crt_stdio_output@@AAE_NXZ 1003aef7 f i libucrt:output.obj
 0001:00039f15       ?type_case_p@?$output_processor@_WV?$stream_output_adapter@_W@__crt_stdio_output@@V?$positional_parameter_base@_WV?$stream_output_adapter@_W@__crt_stdio_output@@@2@@__crt_stdio_output@@AAE_NXZ 1003af15 f i libucrt:output.obj
 0001:00039f33       ?type_case_p@?$output_processor@_WV?$stream_output_adapter@_W@__crt_stdio_output@@V?$standard_base@_WV?$stream_output_adapter@_W@__crt_stdio_output@@@2@@__crt_stdio_output@@AAE_NXZ 1003af33 f i libucrt:output.obj
 0001:00039f51       ?type_case_p@?$output_processor@_WV?$string_output_adapter@_W@__crt_stdio_output@@V?$format_validation_base@_WV?$string_output_adapter@_W@__crt_stdio_output@@@2@@__crt_stdio_output@@AAE_NXZ 1003af51 f i libucrt:output.obj
 0001:00039f6f       ?type_case_p@?$output_processor@_WV?$string_output_adapter@_W@__crt_stdio_output@@V?$positional_parameter_base@_WV?$string_output_adapter@_W@__crt_stdio_output@@@2@@__crt_stdio_output@@AAE_NXZ 1003af6f f i libucrt:output.obj
 0001:00039f8d       ?type_case_p@?$output_processor@_WV?$string_output_adapter@_W@__crt_stdio_output@@V?$standard_base@_WV?$string_output_adapter@_W@__crt_stdio_output@@@2@@__crt_stdio_output@@AAE_NXZ 1003af8d f i libucrt:output.obj
 0001:00039fab       ?type_case_s@?$output_processor@DV?$stream_output_adapter@D@__crt_stdio_output@@V?$format_validation_base@DV?$stream_output_adapter@D@__crt_stdio_output@@@2@@__crt_stdio_output@@AAE_NXZ 1003afab f i libucrt:output.obj
 0001:0003a038       ?type_case_s@?$output_processor@DV?$stream_output_adapter@D@__crt_stdio_output@@V?$positional_parameter_base@DV?$stream_output_adapter@D@__crt_stdio_output@@@2@@__crt_stdio_output@@AAE_NXZ 1003b038 f i libucrt:output.obj
 0001:0003a0d5       ?type_case_s@?$output_processor@DV?$stream_output_adapter@D@__crt_stdio_output@@V?$standard_base@DV?$stream_output_adapter@D@__crt_stdio_output@@@2@@__crt_stdio_output@@AAE_NXZ 1003b0d5 f i libucrt:output.obj
 0001:0003a162       ?type_case_s@?$output_processor@DV?$string_output_adapter@D@__crt_stdio_output@@V?$format_validation_base@DV?$string_output_adapter@D@__crt_stdio_output@@@2@@__crt_stdio_output@@AAE_NXZ 1003b162 f i libucrt:output.obj
 0001:0003a1ef       ?type_case_s@?$output_processor@DV?$string_output_adapter@D@__crt_stdio_output@@V?$positional_parameter_base@DV?$string_output_adapter@D@__crt_stdio_output@@@2@@__crt_stdio_output@@AAE_NXZ 1003b1ef f i libucrt:output.obj
 0001:0003a28c       ?type_case_s@?$output_processor@DV?$string_output_adapter@D@__crt_stdio_output@@V?$standard_base@DV?$string_output_adapter@D@__crt_stdio_output@@@2@@__crt_stdio_output@@AAE_NXZ 1003b28c f i libucrt:output.obj
 0001:0003a319       ?type_case_s@?$output_processor@_WV?$stream_output_adapter@_W@__crt_stdio_output@@V?$format_validation_base@_WV?$stream_output_adapter@_W@__crt_stdio_output@@@2@@__crt_stdio_output@@AAE_NXZ 1003b319 f i libucrt:output.obj
 0001:0003a3a8       ?type_case_s@?$output_processor@_WV?$stream_output_adapter@_W@__crt_stdio_output@@V?$positional_parameter_base@_WV?$stream_output_adapter@_W@__crt_stdio_output@@@2@@__crt_stdio_output@@AAE_NXZ 1003b3a8 f i libucrt:output.obj
 0001:0003a448       ?type_case_s@?$output_processor@_WV?$stream_output_adapter@_W@__crt_stdio_output@@V?$standard_base@_WV?$stream_output_adapter@_W@__crt_stdio_output@@@2@@__crt_stdio_output@@AAE_NXZ 1003b448 f i libucrt:output.obj
 0001:0003a4d7       ?type_case_s@?$output_processor@_WV?$string_output_adapter@_W@__crt_stdio_output@@V?$format_validation_base@_WV?$string_output_adapter@_W@__crt_stdio_output@@@2@@__crt_stdio_output@@AAE_NXZ 1003b4d7 f i libucrt:output.obj
 0001:0003a566       ?type_case_s@?$output_processor@_WV?$string_output_adapter@_W@__crt_stdio_output@@V?$positional_parameter_base@_WV?$string_output_adapter@_W@__crt_stdio_output@@@2@@__crt_stdio_output@@AAE_NXZ 1003b566 f i libucrt:output.obj
 0001:0003a606       ?type_case_s@?$output_processor@_WV?$string_output_adapter@_W@__crt_stdio_output@@V?$standard_base@_WV?$string_output_adapter@_W@__crt_stdio_output@@@2@@__crt_stdio_output@@AAE_NXZ 1003b606 f i libucrt:output.obj
 0001:0003a695       ?type_case_s_compute_narrow_string_length@?$output_processor@DV?$stream_output_adapter@D@__crt_stdio_output@@V?$format_validation_base@DV?$stream_output_adapter@D@__crt_stdio_output@@@2@@__crt_stdio_output@@ABEHHD@Z 1003b695 f i libucrt:output.obj
 0001:0003a6b0       ?type_case_s_compute_narrow_string_length@?$output_processor@DV?$stream_output_adapter@D@__crt_stdio_output@@V?$positional_parameter_base@DV?$stream_output_adapter@D@__crt_stdio_output@@@2@@__crt_stdio_output@@ABEHHD@Z 1003b6b0 f i libucrt:output.obj
 0001:0003a6cb       ?type_case_s_compute_narrow_string_length@?$output_processor@DV?$stream_output_adapter@D@__crt_stdio_output@@V?$standard_base@DV?$stream_output_adapter@D@__crt_stdio_output@@@2@@__crt_stdio_output@@ABEHHD@Z 1003b6cb f i libucrt:output.obj
 0001:0003a6e6       ?type_case_s_compute_narrow_string_length@?$output_processor@DV?$string_output_adapter@D@__crt_stdio_output@@V?$format_validation_base@DV?$string_output_adapter@D@__crt_stdio_output@@@2@@__crt_stdio_output@@ABEHHD@Z 1003b6e6 f i libucrt:output.obj
 0001:0003a701       ?type_case_s_compute_narrow_string_length@?$output_processor@DV?$string_output_adapter@D@__crt_stdio_output@@V?$positional_parameter_base@DV?$string_output_adapter@D@__crt_stdio_output@@@2@@__crt_stdio_output@@ABEHHD@Z 1003b701 f i libucrt:output.obj
 0001:0003a71c       ?type_case_s_compute_narrow_string_length@?$output_processor@DV?$string_output_adapter@D@__crt_stdio_output@@V?$standard_base@DV?$string_output_adapter@D@__crt_stdio_output@@@2@@__crt_stdio_output@@ABEHHD@Z 1003b71c f i libucrt:output.obj
 0001:0003a737       ?type_case_s_compute_narrow_string_length@?$output_processor@_WV?$stream_output_adapter@_W@__crt_stdio_output@@V?$format_validation_base@_WV?$stream_output_adapter@_W@__crt_stdio_output@@@2@@__crt_stdio_output@@ABEHH_W@Z 1003b737 f i libucrt:output.obj
 0001:0003a783       ?type_case_s_compute_narrow_string_length@?$output_processor@_WV?$stream_output_adapter@_W@__crt_stdio_output@@V?$positional_parameter_base@_WV?$stream_output_adapter@_W@__crt_stdio_output@@@2@@__crt_stdio_output@@ABEHH_W@Z 1003b783 f i libucrt:output.obj
 0001:0003a7cf       ?type_case_s_compute_narrow_string_length@?$output_processor@_WV?$stream_output_adapter@_W@__crt_stdio_output@@V?$standard_base@_WV?$stream_output_adapter@_W@__crt_stdio_output@@@2@@__crt_stdio_output@@ABEHH_W@Z 1003b7cf f i libucrt:output.obj
 0001:0003a81b       ?type_case_s_compute_narrow_string_length@?$output_processor@_WV?$string_output_adapter@_W@__crt_stdio_output@@V?$format_validation_base@_WV?$string_output_adapter@_W@__crt_stdio_output@@@2@@__crt_stdio_output@@ABEHH_W@Z 1003b81b f i libucrt:output.obj
 0001:0003a867       ?type_case_s_compute_narrow_string_length@?$output_processor@_WV?$string_output_adapter@_W@__crt_stdio_output@@V?$positional_parameter_base@_WV?$string_output_adapter@_W@__crt_stdio_output@@@2@@__crt_stdio_output@@ABEHH_W@Z 1003b867 f i libucrt:output.obj
 0001:0003a8b3       ?type_case_s_compute_narrow_string_length@?$output_processor@_WV?$string_output_adapter@_W@__crt_stdio_output@@V?$standard_base@_WV?$string_output_adapter@_W@__crt_stdio_output@@@2@@__crt_stdio_output@@ABEHH_W@Z 1003b8b3 f i libucrt:output.obj
 0001:0003a8ff       ?type_case_u@?$output_processor@DV?$stream_output_adapter@D@__crt_stdio_output@@V?$format_validation_base@DV?$stream_output_adapter@D@__crt_stdio_output@@@2@@__crt_stdio_output@@AAE_NXZ 1003b8ff f i libucrt:output.obj
 0001:0003a90b       ?type_case_u@?$output_processor@DV?$stream_output_adapter@D@__crt_stdio_output@@V?$positional_parameter_base@DV?$stream_output_adapter@D@__crt_stdio_output@@@2@@__crt_stdio_output@@AAE_NXZ 1003b90b f i libucrt:output.obj
 0001:0003a917       ?type_case_u@?$output_processor@DV?$stream_output_adapter@D@__crt_stdio_output@@V?$standard_base@DV?$stream_output_adapter@D@__crt_stdio_output@@@2@@__crt_stdio_output@@AAE_NXZ 1003b917 f i libucrt:output.obj
 0001:0003a923       ?type_case_u@?$output_processor@DV?$string_output_adapter@D@__crt_stdio_output@@V?$format_validation_base@DV?$string_output_adapter@D@__crt_stdio_output@@@2@@__crt_stdio_output@@AAE_NXZ 1003b923 f i libucrt:output.obj
 0001:0003a92f       ?type_case_u@?$output_processor@DV?$string_output_adapter@D@__crt_stdio_output@@V?$positional_parameter_base@DV?$string_output_adapter@D@__crt_stdio_output@@@2@@__crt_stdio_output@@AAE_NXZ 1003b92f f i libucrt:output.obj
 0001:0003a93b       ?type_case_u@?$output_processor@DV?$string_output_adapter@D@__crt_stdio_output@@V?$standard_base@DV?$string_output_adapter@D@__crt_stdio_output@@@2@@__crt_stdio_output@@AAE_NXZ 1003b93b f i libucrt:output.obj
 0001:0003a947       ?type_case_u@?$output_processor@_WV?$stream_output_adapter@_W@__crt_stdio_output@@V?$format_validation_base@_WV?$stream_output_adapter@_W@__crt_stdio_output@@@2@@__crt_stdio_output@@AAE_NXZ 1003b947 f i libucrt:output.obj
 0001:0003a953       ?type_case_u@?$output_processor@_WV?$stream_output_adapter@_W@__crt_stdio_output@@V?$positional_parameter_base@_WV?$stream_output_adapter@_W@__crt_stdio_output@@@2@@__crt_stdio_output@@AAE_NXZ 1003b953 f i libucrt:output.obj
 0001:0003a95f       ?type_case_u@?$output_processor@_WV?$stream_output_adapter@_W@__crt_stdio_output@@V?$standard_base@_WV?$stream_output_adapter@_W@__crt_stdio_output@@@2@@__crt_stdio_output@@AAE_NXZ 1003b95f f i libucrt:output.obj
 0001:0003a96b       ?type_case_u@?$output_processor@_WV?$string_output_adapter@_W@__crt_stdio_output@@V?$format_validation_base@_WV?$string_output_adapter@_W@__crt_stdio_output@@@2@@__crt_stdio_output@@AAE_NXZ 1003b96b f i libucrt:output.obj
 0001:0003a977       ?type_case_u@?$output_processor@_WV?$string_output_adapter@_W@__crt_stdio_output@@V?$positional_parameter_base@_WV?$string_output_adapter@_W@__crt_stdio_output@@@2@@__crt_stdio_output@@AAE_NXZ 1003b977 f i libucrt:output.obj
 0001:0003a983       ?type_case_u@?$output_processor@_WV?$string_output_adapter@_W@__crt_stdio_output@@V?$standard_base@_WV?$string_output_adapter@_W@__crt_stdio_output@@@2@@__crt_stdio_output@@AAE_NXZ 1003b983 f i libucrt:output.obj
 0001:0003a98f       ?type_case_x@?$output_processor@DV?$stream_output_adapter@D@__crt_stdio_output@@V?$format_validation_base@DV?$stream_output_adapter@D@__crt_stdio_output@@@2@@__crt_stdio_output@@AAE_NXZ 1003b98f f i libucrt:output.obj
 0001:0003a99b       ?type_case_x@?$output_processor@DV?$stream_output_adapter@D@__crt_stdio_output@@V?$positional_parameter_base@DV?$stream_output_adapter@D@__crt_stdio_output@@@2@@__crt_stdio_output@@AAE_NXZ 1003b99b f i libucrt:output.obj
 0001:0003a9a7       ?type_case_x@?$output_processor@DV?$stream_output_adapter@D@__crt_stdio_output@@V?$standard_base@DV?$stream_output_adapter@D@__crt_stdio_output@@@2@@__crt_stdio_output@@AAE_NXZ 1003b9a7 f i libucrt:output.obj
 0001:0003a9b3       ?type_case_x@?$output_processor@DV?$string_output_adapter@D@__crt_stdio_output@@V?$format_validation_base@DV?$string_output_adapter@D@__crt_stdio_output@@@2@@__crt_stdio_output@@AAE_NXZ 1003b9b3 f i libucrt:output.obj
 0001:0003a9bf       ?type_case_x@?$output_processor@DV?$string_output_adapter@D@__crt_stdio_output@@V?$positional_parameter_base@DV?$string_output_adapter@D@__crt_stdio_output@@@2@@__crt_stdio_output@@AAE_NXZ 1003b9bf f i libucrt:output.obj
 0001:0003a9cb       ?type_case_x@?$output_processor@DV?$string_output_adapter@D@__crt_stdio_output@@V?$standard_base@DV?$string_output_adapter@D@__crt_stdio_output@@@2@@__crt_stdio_output@@AAE_NXZ 1003b9cb f i libucrt:output.obj
 0001:0003a9d7       ?type_case_x@?$output_processor@_WV?$stream_output_adapter@_W@__crt_stdio_output@@V?$format_validation_base@_WV?$stream_output_adapter@_W@__crt_stdio_output@@@2@@__crt_stdio_output@@AAE_NXZ 1003b9d7 f i libucrt:output.obj
 0001:0003a9e3       ?type_case_x@?$output_processor@_WV?$stream_output_adapter@_W@__crt_stdio_output@@V?$positional_parameter_base@_WV?$stream_output_adapter@_W@__crt_stdio_output@@@2@@__crt_stdio_output@@AAE_NXZ 1003b9e3 f i libucrt:output.obj
 0001:0003a9ef       ?type_case_x@?$output_processor@_WV?$stream_output_adapter@_W@__crt_stdio_output@@V?$standard_base@_WV?$stream_output_adapter@_W@__crt_stdio_output@@@2@@__crt_stdio_output@@AAE_NXZ 1003b9ef f i libucrt:output.obj
 0001:0003a9fb       ?type_case_x@?$output_processor@_WV?$string_output_adapter@_W@__crt_stdio_output@@V?$format_validation_base@_WV?$string_output_adapter@_W@__crt_stdio_output@@@2@@__crt_stdio_output@@AAE_NXZ 1003b9fb f i libucrt:output.obj
 0001:0003aa07       ?type_case_x@?$output_processor@_WV?$string_output_adapter@_W@__crt_stdio_output@@V?$positional_parameter_base@_WV?$string_output_adapter@_W@__crt_stdio_output@@@2@@__crt_stdio_output@@AAE_NXZ 1003ba07 f i libucrt:output.obj
 0001:0003aa13       ?type_case_x@?$output_processor@_WV?$string_output_adapter@_W@__crt_stdio_output@@V?$standard_base@_WV?$string_output_adapter@_W@__crt_stdio_output@@@2@@__crt_stdio_output@@AAE_NXZ 1003ba13 f i libucrt:output.obj
 0001:0003aa1f       ?unset_flag@?$output_processor@DV?$stream_output_adapter@D@__crt_stdio_output@@V?$format_validation_base@DV?$stream_output_adapter@D@__crt_stdio_output@@@2@@__crt_stdio_output@@AAEXI@Z 1003ba1f f i libucrt:output.obj
 0001:0003aa34       ?unset_flag@?$output_processor@DV?$stream_output_adapter@D@__crt_stdio_output@@V?$positional_parameter_base@DV?$stream_output_adapter@D@__crt_stdio_output@@@2@@__crt_stdio_output@@AAEXI@Z 1003ba34 f i libucrt:output.obj
 0001:0003aa49       ?unset_flag@?$output_processor@DV?$stream_output_adapter@D@__crt_stdio_output@@V?$standard_base@DV?$stream_output_adapter@D@__crt_stdio_output@@@2@@__crt_stdio_output@@AAEXI@Z 1003ba49 f i libucrt:output.obj
 0001:0003aa5e       ?unset_flag@?$output_processor@DV?$string_output_adapter@D@__crt_stdio_output@@V?$format_validation_base@DV?$string_output_adapter@D@__crt_stdio_output@@@2@@__crt_stdio_output@@AAEXI@Z 1003ba5e f i libucrt:output.obj
 0001:0003aa73       ?unset_flag@?$output_processor@DV?$string_output_adapter@D@__crt_stdio_output@@V?$positional_parameter_base@DV?$string_output_adapter@D@__crt_stdio_output@@@2@@__crt_stdio_output@@AAEXI@Z 1003ba73 f i libucrt:output.obj
 0001:0003aa88       ?unset_flag@?$output_processor@DV?$string_output_adapter@D@__crt_stdio_output@@V?$standard_base@DV?$string_output_adapter@D@__crt_stdio_output@@@2@@__crt_stdio_output@@AAEXI@Z 1003ba88 f i libucrt:output.obj
 0001:0003aa9d       ?unset_flag@?$output_processor@_WV?$stream_output_adapter@_W@__crt_stdio_output@@V?$format_validation_base@_WV?$stream_output_adapter@_W@__crt_stdio_output@@@2@@__crt_stdio_output@@AAEXI@Z 1003ba9d f i libucrt:output.obj
 0001:0003aab2       ?unset_flag@?$output_processor@_WV?$stream_output_adapter@_W@__crt_stdio_output@@V?$positional_parameter_base@_WV?$stream_output_adapter@_W@__crt_stdio_output@@@2@@__crt_stdio_output@@AAEXI@Z 1003bab2 f i libucrt:output.obj
 0001:0003aac7       ?unset_flag@?$output_processor@_WV?$stream_output_adapter@_W@__crt_stdio_output@@V?$standard_base@_WV?$stream_output_adapter@_W@__crt_stdio_output@@@2@@__crt_stdio_output@@AAEXI@Z 1003bac7 f i libucrt:output.obj
 0001:0003aadc       ?unset_flag@?$output_processor@_WV?$string_output_adapter@_W@__crt_stdio_output@@V?$format_validation_base@_WV?$string_output_adapter@_W@__crt_stdio_output@@@2@@__crt_stdio_output@@AAEXI@Z 1003badc f i libucrt:output.obj
 0001:0003aaf1       ?unset_flag@?$output_processor@_WV?$string_output_adapter@_W@__crt_stdio_output@@V?$positional_parameter_base@_WV?$string_output_adapter@_W@__crt_stdio_output@@@2@@__crt_stdio_output@@AAEXI@Z 1003baf1 f i libucrt:output.obj
 0001:0003ab06       ?unset_flag@?$output_processor@_WV?$string_output_adapter@_W@__crt_stdio_output@@V?$standard_base@_WV?$string_output_adapter@_W@__crt_stdio_output@@@2@@__crt_stdio_output@@AAEXI@Z 1003bb06 f i libucrt:output.obj
 0001:0003ab1b       ?update_field_width@?$positional_parameter_base@DV?$stream_output_adapter@D@__crt_stdio_output@@@__crt_stdio_output@@IAE_NXZ 1003bb1b f i libucrt:output.obj
 0001:0003abfe       ?update_field_width@?$positional_parameter_base@DV?$string_output_adapter@D@__crt_stdio_output@@@__crt_stdio_output@@IAE_NXZ 1003bbfe f i libucrt:output.obj
 0001:0003ace1       ?update_field_width@?$positional_parameter_base@_WV?$stream_output_adapter@_W@__crt_stdio_output@@@__crt_stdio_output@@IAE_NXZ 1003bce1 f i libucrt:output.obj
 0001:0003adc5       ?update_field_width@?$positional_parameter_base@_WV?$string_output_adapter@_W@__crt_stdio_output@@@__crt_stdio_output@@IAE_NXZ 1003bdc5 f i libucrt:output.obj
 0001:0003aea9       ?update_field_width@?$standard_base@DV?$stream_output_adapter@D@__crt_stdio_output@@@__crt_stdio_output@@IAE_NXZ 1003bea9 f i libucrt:output.obj
 0001:0003aebd       ?update_field_width@?$standard_base@DV?$string_output_adapter@D@__crt_stdio_output@@@__crt_stdio_output@@IAE_NXZ 1003bebd f i libucrt:output.obj
 0001:0003aed1       ?update_field_width@?$standard_base@_WV?$stream_output_adapter@_W@__crt_stdio_output@@@__crt_stdio_output@@IAE_NXZ 1003bed1 f i libucrt:output.obj
 0001:0003aee5       ?update_field_width@?$standard_base@_WV?$string_output_adapter@_W@__crt_stdio_output@@@__crt_stdio_output@@IAE_NXZ 1003bee5 f i libucrt:output.obj
 0001:0003aef9       ?update_precision@?$positional_parameter_base@DV?$stream_output_adapter@D@__crt_stdio_output@@@__crt_stdio_output@@IAE_NXZ 1003bef9 f i libucrt:output.obj
 0001:0003afdc       ?update_precision@?$positional_parameter_base@DV?$string_output_adapter@D@__crt_stdio_output@@@__crt_stdio_output@@IAE_NXZ 1003bfdc f i libucrt:output.obj
 0001:0003b0bf       ?update_precision@?$positional_parameter_base@_WV?$stream_output_adapter@_W@__crt_stdio_output@@@__crt_stdio_output@@IAE_NXZ 1003c0bf f i libucrt:output.obj
 0001:0003b1a3       ?update_precision@?$positional_parameter_base@_WV?$string_output_adapter@_W@__crt_stdio_output@@@__crt_stdio_output@@IAE_NXZ 1003c1a3 f i libucrt:output.obj
 0001:0003b287       ?update_precision@?$standard_base@DV?$stream_output_adapter@D@__crt_stdio_output@@@__crt_stdio_output@@IAE_NXZ 1003c287 f i libucrt:output.obj
 0001:0003b29b       ?update_precision@?$standard_base@DV?$string_output_adapter@D@__crt_stdio_output@@@__crt_stdio_output@@IAE_NXZ 1003c29b f i libucrt:output.obj
 0001:0003b2af       ?update_precision@?$standard_base@_WV?$stream_output_adapter@_W@__crt_stdio_output@@@__crt_stdio_output@@IAE_NXZ 1003c2af f i libucrt:output.obj
 0001:0003b2c3       ?update_precision@?$standard_base@_WV?$string_output_adapter@_W@__crt_stdio_output@@@__crt_stdio_output@@IAE_NXZ 1003c2c3 f i libucrt:output.obj
 0001:0003b2d7       ?valid@__crt_stdio_stream@@QBE_NXZ 1003c2d7 f i libucrt:output.obj
 0001:0003b2de       ?validate@?$stream_output_adapter@D@__crt_stdio_output@@QBE_NXZ 1003c2de f i libucrt:output.obj
 0001:0003b307       ?validate@?$stream_output_adapter@_W@__crt_stdio_output@@QBE_NXZ 1003c307 f i libucrt:output.obj
 0001:0003b328       ?validate@?$string_output_adapter@D@__crt_stdio_output@@QBE_NXZ 1003c328 f i libucrt:output.obj
 0001:0003b349       ?validate@?$string_output_adapter@_W@__crt_stdio_output@@QBE_NXZ 1003c349 f i libucrt:output.obj
 0001:0003b36a       ?validate_and_store_parameter_data@?$positional_parameter_base@DV?$stream_output_adapter@D@__crt_stdio_output@@@__crt_stdio_output@@AAE_NAAUparameter_data@12@W4parameter_type@12@DW4length_modifier@2@@Z 1003c36a f i libucrt:output.obj
 0001:0003b3c7       ?validate_and_store_parameter_data@?$positional_parameter_base@DV?$string_output_adapter@D@__crt_stdio_output@@@__crt_stdio_output@@AAE_NAAUparameter_data@12@W4parameter_type@12@DW4length_modifier@2@@Z 1003c3c7 f i libucrt:output.obj
 0001:0003b424       ?validate_and_store_parameter_data@?$positional_parameter_base@_WV?$stream_output_adapter@_W@__crt_stdio_output@@@__crt_stdio_output@@AAE_NAAUparameter_data@12@W4parameter_type@12@_WW4length_modifier@2@@Z 1003c424 f i libucrt:output.obj
 0001:0003b484       ?validate_and_store_parameter_data@?$positional_parameter_base@_WV?$string_output_adapter@_W@__crt_stdio_output@@@__crt_stdio_output@@AAE_NAAUparameter_data@12@W4parameter_type@12@_WW4length_modifier@2@@Z 1003c484 f i libucrt:output.obj
 0001:0003b4e4       ?validate_and_update_state_at_beginning_of_format_character@?$positional_parameter_base@DV?$stream_output_adapter@D@__crt_stdio_output@@@__crt_stdio_output@@IAE_NXZ 1003c4e4 f i libucrt:output.obj
 0001:0003b61c       ?validate_and_update_state_at_beginning_of_format_character@?$positional_parameter_base@DV?$string_output_adapter@D@__crt_stdio_output@@@__crt_stdio_output@@IAE_NXZ 1003c61c f i libucrt:output.obj
 0001:0003b754       ?validate_and_update_state_at_beginning_of_format_character@?$positional_parameter_base@_WV?$stream_output_adapter@_W@__crt_stdio_output@@@__crt_stdio_output@@IAE_NXZ 1003c754 f i libucrt:output.obj
 0001:0003b897       ?validate_and_update_state_at_beginning_of_format_character@?$positional_parameter_base@_WV?$string_output_adapter@_W@__crt_stdio_output@@@__crt_stdio_output@@IAE_NXZ 1003c897 f i libucrt:output.obj
 0001:0003b9da       ?validate_and_update_state_at_beginning_of_format_character@?$standard_base@DV?$stream_output_adapter@D@__crt_stdio_output@@@__crt_stdio_output@@IAE_NXZ 1003c9da f i libucrt:output.obj
 0001:0003b9dd       ?validate_and_update_state_at_beginning_of_format_character@?$standard_base@DV?$string_output_adapter@D@__crt_stdio_output@@@__crt_stdio_output@@IAE_NXZ 1003c9dd f i libucrt:output.obj
 0001:0003b9e0       ?validate_and_update_state_at_beginning_of_format_character@?$standard_base@_WV?$stream_output_adapter@_W@__crt_stdio_output@@@__crt_stdio_output@@IAE_NXZ 1003c9e0 f i libucrt:output.obj
 0001:0003b9e3       ?validate_and_update_state_at_beginning_of_format_character@?$standard_base@_WV?$string_output_adapter@_W@__crt_stdio_output@@@__crt_stdio_output@@IAE_NXZ 1003c9e3 f i libucrt:output.obj
 0001:0003b9e6       ?validate_and_update_state_at_end_of_format_string@?$format_validation_base@DV?$stream_output_adapter@D@__crt_stdio_output@@@__crt_stdio_output@@IBE_NXZ 1003c9e6 f i libucrt:output.obj
 0001:0003ba10       ?validate_and_update_state_at_end_of_format_string@?$format_validation_base@DV?$string_output_adapter@D@__crt_stdio_output@@@__crt_stdio_output@@IBE_NXZ 1003ca10 f i libucrt:output.obj
 0001:0003ba3a       ?validate_and_update_state_at_end_of_format_string@?$format_validation_base@_WV?$stream_output_adapter@_W@__crt_stdio_output@@@__crt_stdio_output@@IBE_NXZ 1003ca3a f i libucrt:output.obj
 0001:0003ba64       ?validate_and_update_state_at_end_of_format_string@?$format_validation_base@_WV?$string_output_adapter@_W@__crt_stdio_output@@@__crt_stdio_output@@IBE_NXZ 1003ca64 f i libucrt:output.obj
 0001:0003ba8e       ?validate_and_update_state_at_end_of_format_string@?$positional_parameter_base@DV?$stream_output_adapter@D@__crt_stdio_output@@@__crt_stdio_output@@IAE_NXZ 1003ca8e f i libucrt:output.obj
 0001:0003bb34       ?validate_and_update_state_at_end_of_format_string@?$positional_parameter_base@DV?$string_output_adapter@D@__crt_stdio_output@@@__crt_stdio_output@@IAE_NXZ 1003cb34 f i libucrt:output.obj
 0001:0003bbda       ?validate_and_update_state_at_end_of_format_string@?$positional_parameter_base@_WV?$stream_output_adapter@_W@__crt_stdio_output@@@__crt_stdio_output@@IAE_NXZ 1003cbda f i libucrt:output.obj
 0001:0003bc80       ?validate_and_update_state_at_end_of_format_string@?$positional_parameter_base@_WV?$string_output_adapter@_W@__crt_stdio_output@@@__crt_stdio_output@@IAE_NXZ 1003cc80 f i libucrt:output.obj
 0001:0003bd26       ?validate_and_update_state_at_end_of_format_string@?$standard_base@DV?$stream_output_adapter@D@__crt_stdio_output@@@__crt_stdio_output@@IBE_NXZ 1003cd26 f i libucrt:output.obj
 0001:0003bd29       ?validate_and_update_state_at_end_of_format_string@?$standard_base@DV?$string_output_adapter@D@__crt_stdio_output@@@__crt_stdio_output@@IBE_NXZ 1003cd29 f i libucrt:output.obj
 0001:0003bd2c       ?validate_and_update_state_at_end_of_format_string@?$standard_base@_WV?$stream_output_adapter@_W@__crt_stdio_output@@@__crt_stdio_output@@IBE_NXZ 1003cd2c f i libucrt:output.obj
 0001:0003bd2f       ?validate_and_update_state_at_end_of_format_string@?$standard_base@_WV?$string_output_adapter@_W@__crt_stdio_output@@@__crt_stdio_output@@IBE_NXZ 1003cd2f f i libucrt:output.obj
 0001:0003bd32       ?validate_state_for_type_case_a@?$positional_parameter_base@DV?$stream_output_adapter@D@__crt_stdio_output@@@__crt_stdio_output@@IAE_NXZ 1003cd32 f i libucrt:output.obj
 0001:0003bd94       ?validate_state_for_type_case_a@?$positional_parameter_base@DV?$string_output_adapter@D@__crt_stdio_output@@@__crt_stdio_output@@IAE_NXZ 1003cd94 f i libucrt:output.obj
 0001:0003bdf6       ?validate_state_for_type_case_a@?$positional_parameter_base@_WV?$stream_output_adapter@_W@__crt_stdio_output@@@__crt_stdio_output@@IAE_NXZ 1003cdf6 f i libucrt:output.obj
 0001:0003be58       ?validate_state_for_type_case_a@?$positional_parameter_base@_WV?$string_output_adapter@_W@__crt_stdio_output@@@__crt_stdio_output@@IAE_NXZ 1003ce58 f i libucrt:output.obj
 0001:0003beba       ?validate_state_for_type_case_a@?$standard_base@DV?$stream_output_adapter@D@__crt_stdio_output@@@__crt_stdio_output@@IBE_NXZ 1003ceba f i libucrt:output.obj
 0001:0003bebd       ?validate_state_for_type_case_a@?$standard_base@DV?$string_output_adapter@D@__crt_stdio_output@@@__crt_stdio_output@@IBE_NXZ 1003cebd f i libucrt:output.obj
 0001:0003bec0       ?validate_state_for_type_case_a@?$standard_base@_WV?$stream_output_adapter@_W@__crt_stdio_output@@@__crt_stdio_output@@IBE_NXZ 1003cec0 f i libucrt:output.obj
 0001:0003bec3       ?validate_state_for_type_case_a@?$standard_base@_WV?$string_output_adapter@_W@__crt_stdio_output@@@__crt_stdio_output@@IBE_NXZ 1003cec3 f i libucrt:output.obj
 0001:0003bec6       ?validate_stream_is_ansi_if_required@?$__acrt_stdio_char_traits@D@@SA_NQAU_iobuf@@@Z 1003cec6 f i libucrt:output.obj
 0001:0003bf6d       ?validate_stream_is_ansi_if_required@?$__acrt_stdio_char_traits@_W@@SA_NQAU_iobuf@@@Z 1003cf6d f i libucrt:output.obj
 0001:0003bf70       ?wide_null_string@?$output_processor@DV?$stream_output_adapter@D@__crt_stdio_output@@V?$format_validation_base@DV?$stream_output_adapter@D@__crt_stdio_output@@@2@@__crt_stdio_output@@CAPA_WXZ 1003cf70 f i libucrt:output.obj
 0001:0003bf76       ?wide_null_string@?$output_processor@DV?$stream_output_adapter@D@__crt_stdio_output@@V?$positional_parameter_base@DV?$stream_output_adapter@D@__crt_stdio_output@@@2@@__crt_stdio_output@@CAPA_WXZ 1003cf76 f i libucrt:output.obj
 0001:0003bf7c       ?wide_null_string@?$output_processor@DV?$stream_output_adapter@D@__crt_stdio_output@@V?$standard_base@DV?$stream_output_adapter@D@__crt_stdio_output@@@2@@__crt_stdio_output@@CAPA_WXZ 1003cf7c f i libucrt:output.obj
 0001:0003bf82       ?wide_null_string@?$output_processor@DV?$string_output_adapter@D@__crt_stdio_output@@V?$format_validation_base@DV?$string_output_adapter@D@__crt_stdio_output@@@2@@__crt_stdio_output@@CAPA_WXZ 1003cf82 f i libucrt:output.obj
 0001:0003bf88       ?wide_null_string@?$output_processor@DV?$string_output_adapter@D@__crt_stdio_output@@V?$positional_parameter_base@DV?$string_output_adapter@D@__crt_stdio_output@@@2@@__crt_stdio_output@@CAPA_WXZ 1003cf88 f i libucrt:output.obj
 0001:0003bf8e       ?wide_null_string@?$output_processor@DV?$string_output_adapter@D@__crt_stdio_output@@V?$standard_base@DV?$string_output_adapter@D@__crt_stdio_output@@@2@@__crt_stdio_output@@CAPA_WXZ 1003cf8e f i libucrt:output.obj
 0001:0003bf94       ?wide_null_string@?$output_processor@_WV?$stream_output_adapter@_W@__crt_stdio_output@@V?$format_validation_base@_WV?$stream_output_adapter@_W@__crt_stdio_output@@@2@@__crt_stdio_output@@CAPA_WXZ 1003cf94 f i libucrt:output.obj
 0001:0003bf9a       ?wide_null_string@?$output_processor@_WV?$stream_output_adapter@_W@__crt_stdio_output@@V?$positional_parameter_base@_WV?$stream_output_adapter@_W@__crt_stdio_output@@@2@@__crt_stdio_output@@CAPA_WXZ 1003cf9a f i libucrt:output.obj
 0001:0003bfa0       ?wide_null_string@?$output_processor@_WV?$stream_output_adapter@_W@__crt_stdio_output@@V?$standard_base@_WV?$stream_output_adapter@_W@__crt_stdio_output@@@2@@__crt_stdio_output@@CAPA_WXZ 1003cfa0 f i libucrt:output.obj
 0001:0003bfa6       ?wide_null_string@?$output_processor@_WV?$string_output_adapter@_W@__crt_stdio_output@@V?$format_validation_base@_WV?$string_output_adapter@_W@__crt_stdio_output@@@2@@__crt_stdio_output@@CAPA_WXZ 1003cfa6 f i libucrt:output.obj
 0001:0003bfac       ?wide_null_string@?$output_processor@_WV?$string_output_adapter@_W@__crt_stdio_output@@V?$positional_parameter_base@_WV?$string_output_adapter@_W@__crt_stdio_output@@@2@@__crt_stdio_output@@CAPA_WXZ 1003cfac f i libucrt:output.obj
 0001:0003bfb2       ?wide_null_string@?$output_processor@_WV?$string_output_adapter@_W@__crt_stdio_output@@V?$standard_base@_WV?$string_output_adapter@_W@__crt_stdio_output@@@2@@__crt_stdio_output@@CAPA_WXZ 1003cfb2 f i libucrt:output.obj
 0001:0003bfb8       ?write_character@?$output_adapter_common@DV?$stream_output_adapter@D@__crt_stdio_output@@@__crt_stdio_output@@QBEXDQAH@Z 1003cfb8 f i libucrt:output.obj
 0001:0003bfde       ?write_character@?$output_adapter_common@_WV?$stream_output_adapter@_W@__crt_stdio_output@@@__crt_stdio_output@@QBEX_WQAH@Z 1003cfde f i libucrt:output.obj
 0001:0003c004       ?write_character@?$string_output_adapter@D@__crt_stdio_output@@QBE_NDQAH@Z 1003d004 f i libucrt:output.obj
 0001:0003c056       ?write_character@?$string_output_adapter@_W@__crt_stdio_output@@QBE_N_WQAH@Z 1003d056 f i libucrt:output.obj
 0001:0003c0ac       ?write_character_without_count_update@?$stream_output_adapter@D@__crt_stdio_output@@QBE_ND@Z 1003d0ac f i libucrt:output.obj
 0001:0003c0ee       ?write_character_without_count_update@?$stream_output_adapter@_W@__crt_stdio_output@@QBE_N_W@Z 1003d0ee f i libucrt:output.obj
 0001:0003c134       ?write_stored_string_tchar@?$output_processor@DV?$stream_output_adapter@D@__crt_stdio_output@@V?$format_validation_base@DV?$stream_output_adapter@D@__crt_stdio_output@@@2@@__crt_stdio_output@@AAE_ND@Z 1003d134 f i libucrt:output.obj
 0001:0003c207       ?write_stored_string_tchar@?$output_processor@DV?$stream_output_adapter@D@__crt_stdio_output@@V?$positional_parameter_base@DV?$stream_output_adapter@D@__crt_stdio_output@@@2@@__crt_stdio_output@@AAE_ND@Z 1003d207 f i libucrt:output.obj
 0001:0003c2da       ?write_stored_string_tchar@?$output_processor@DV?$stream_output_adapter@D@__crt_stdio_output@@V?$standard_base@DV?$stream_output_adapter@D@__crt_stdio_output@@@2@@__crt_stdio_output@@AAE_ND@Z 1003d2da f i libucrt:output.obj
 0001:0003c3ad       ?write_stored_string_tchar@?$output_processor@DV?$string_output_adapter@D@__crt_stdio_output@@V?$format_validation_base@DV?$string_output_adapter@D@__crt_stdio_output@@@2@@__crt_stdio_output@@AAE_ND@Z 1003d3ad f i libucrt:output.obj
 0001:0003c480       ?write_stored_string_tchar@?$output_processor@DV?$string_output_adapter@D@__crt_stdio_output@@V?$positional_parameter_base@DV?$string_output_adapter@D@__crt_stdio_output@@@2@@__crt_stdio_output@@AAE_ND@Z 1003d480 f i libucrt:output.obj
 0001:0003c553       ?write_stored_string_tchar@?$output_processor@DV?$string_output_adapter@D@__crt_stdio_output@@V?$standard_base@DV?$string_output_adapter@D@__crt_stdio_output@@@2@@__crt_stdio_output@@AAE_ND@Z 1003d553 f i libucrt:output.obj
 0001:0003c626       ?write_stored_string_tchar@?$output_processor@_WV?$stream_output_adapter@_W@__crt_stdio_output@@V?$format_validation_base@_WV?$stream_output_adapter@_W@__crt_stdio_output@@@2@@__crt_stdio_output@@AAE_N_W@Z 1003d626 f i libucrt:output.obj
 0001:0003c6e0       ?write_stored_string_tchar@?$output_processor@_WV?$stream_output_adapter@_W@__crt_stdio_output@@V?$positional_parameter_base@_WV?$stream_output_adapter@_W@__crt_stdio_output@@@2@@__crt_stdio_output@@AAE_N_W@Z 1003d6e0 f i libucrt:output.obj
 0001:0003c79a       ?write_stored_string_tchar@?$output_processor@_WV?$stream_output_adapter@_W@__crt_stdio_output@@V?$standard_base@_WV?$stream_output_adapter@_W@__crt_stdio_output@@@2@@__crt_stdio_output@@AAE_N_W@Z 1003d79a f i libucrt:output.obj
 0001:0003c854       ?write_stored_string_tchar@?$output_processor@_WV?$string_output_adapter@_W@__crt_stdio_output@@V?$format_validation_base@_WV?$string_output_adapter@_W@__crt_stdio_output@@@2@@__crt_stdio_output@@AAE_N_W@Z 1003d854 f i libucrt:output.obj
 0001:0003c90e       ?write_stored_string_tchar@?$output_processor@_WV?$string_output_adapter@_W@__crt_stdio_output@@V?$positional_parameter_base@_WV?$string_output_adapter@_W@__crt_stdio_output@@@2@@__crt_stdio_output@@AAE_N_W@Z 1003d90e f i libucrt:output.obj
 0001:0003c9c8       ?write_stored_string_tchar@?$output_processor@_WV?$string_output_adapter@_W@__crt_stdio_output@@V?$standard_base@_WV?$string_output_adapter@_W@__crt_stdio_output@@@2@@__crt_stdio_output@@AAE_N_W@Z 1003d9c8 f i libucrt:output.obj
 0001:0003ca82       ?write_string@?$stream_output_adapter@D@__crt_stdio_output@@QBEXQBDHQAHAAV__crt_deferred_errno_cache@@@Z 1003da82 f i libucrt:output.obj
 0001:0003cab7       ?write_string@?$stream_output_adapter@_W@__crt_stdio_output@@QBEXQB_WHQAHAAV__crt_deferred_errno_cache@@@Z 1003dab7 f i libucrt:output.obj
 0001:0003caec       ?write_string@?$string_output_adapter@D@__crt_stdio_output@@QBEXQBDHQAHAAV__crt_deferred_errno_cache@@@Z 1003daec f i libucrt:output.obj
 0001:0003cb6c       ?write_string@?$string_output_adapter@_W@__crt_stdio_output@@QBEXQB_WHQAHAAV__crt_deferred_errno_cache@@@Z 1003db6c f i libucrt:output.obj
 0001:0003cbfb       ?write_string_impl@?$output_adapter_common@DV?$stream_output_adapter@D@__crt_stdio_output@@@__crt_stdio_output@@IBEXQBDHQAHAAV__crt_deferred_errno_cache@@@Z 1003dbfb f i libucrt:output.obj
 0001:0003ccc3       ?write_string_impl@?$output_adapter_common@_WV?$stream_output_adapter@_W@__crt_stdio_output@@@__crt_stdio_output@@IBEXQB_WHQAHAAV__crt_deferred_errno_cache@@@Z 1003dcc3 f i libucrt:output.obj
 0001:0003cd8e       ___acrt_isleadbyte_l_noupdate 1003dd8e f i libucrt:output.obj
 0001:0003cdaf       ___acrt_locale_changed     1003ddaf f i libucrt:output.obj
 0001:0003cdbc       ___stdio_common_vfprintf   1003ddbc f   libucrt:output.obj
 0001:0003ce62       ___stdio_common_vfprintf_p 1003de62 f   libucrt:output.obj
 0001:0003cf08       ___stdio_common_vfprintf_s 1003df08 f   libucrt:output.obj
 0001:0003cfae       ___stdio_common_vfwprintf  1003dfae f   libucrt:output.obj
 0001:0003d054       ___stdio_common_vfwprintf_p 1003e054 f   libucrt:output.obj
 0001:0003d0fa       ___stdio_common_vfwprintf_s 1003e0fa f   libucrt:output.obj
 0001:0003d1a0       ___stdio_common_vsnprintf_s 1003e1a0 f   libucrt:output.obj
 0001:0003d1d0       ___stdio_common_vsnwprintf_s 1003e1d0 f   libucrt:output.obj
 0001:0003d200       ___stdio_common_vsprintf   1003e200 f   libucrt:output.obj
 0001:0003d22d       ___stdio_common_vsprintf_p 1003e22d f   libucrt:output.obj
 0001:0003d25a       ___stdio_common_vsprintf_s 1003e25a f   libucrt:output.obj
 0001:0003d287       ___stdio_common_vswprintf  1003e287 f   libucrt:output.obj
 0001:0003d2b4       ___stdio_common_vswprintf_p 1003e2b4 f   libucrt:output.obj
 0001:0003d2e1       ___stdio_common_vswprintf_s 1003e2e1 f   libucrt:output.obj
 0001:0003d30e       _calloc                    1003e30e f   libucrt:calloc.obj
 0001:0003d31b       _realloc                   1003e31b f   libucrt:realloc.obj
 0001:0003d328       ??$?B$$A6GXPAXK0@Z@__crt_fast_encoded_nullptr_t@@QBEP6GXPAXK0@ZXZ 1003e328 f i libucrt:exit.obj
 0001:0003d3cb       ??$__crt_fast_decode_pointer@P6GXPAXK0@Z@@YAP6GXPAXK0@ZQ6GX0K0@Z@Z 1003e3cb f i libucrt:exit.obj
 0001:0003d3e6       ??$__crt_fast_encode_pointer@P6GXPAXK0@Z@@YAP6GXPAXK0@ZQ6GX0K0@Z@Z 1003e3e6 f i libucrt:exit.obj
 0001:0003d40c       ??$__crt_get_proc_address@P6GXI@Z@@YAP6GXI@ZQAUHINSTANCE__@@QBD@Z 1003e40c f i libucrt:exit.obj
 0001:0003d472       ??0?$__crt_unique_handle_t@U__crt_hmodule_traits@@@@QAE@QAUHINSTANCE__@@@Z 1003e472 f i libucrt:exit.obj
 0001:0003d486       ??1?$__crt_unique_handle_t@U__crt_hmodule_traits@@@@QAE@XZ 1003e486 f i libucrt:exit.obj
 0001:0003d5cb       ?__acrt_select_exit_lock@@YA?AW4__acrt_lock_id@@XZ 1003e5cb f i libucrt:exit.obj
 0001:0003d5e6       ?close@?$__crt_unique_handle_t@U__crt_hmodule_traits@@@@QAEXXZ 1003e5e6 f i libucrt:exit.obj
 0001:0003d602       ?close@__crt_hmodule_traits@@SA_NPAUHINSTANCE__@@@Z 1003e602 f i libucrt:exit.obj
 0001:0003d6ed       ?get@?$__crt_unique_handle_t@U__crt_hmodule_traits@@@@QBEPAUHINSTANCE__@@XZ 1003e6ed f i libucrt:exit.obj
 0001:0003d6f0       ?get_address_of@?$__crt_unique_handle_t@U__crt_hmodule_traits@@@@QAEPAPAUHINSTANCE__@@XZ 1003e6f0 f i libucrt:exit.obj
 0001:0003d6f3       ?get_invalid_value@__crt_hmodule_traits@@SAPAUHINSTANCE__@@XZ 1003e6f3 f i libucrt:exit.obj
 0001:0003d7f4       __Exit                     1003e7f4 f   libucrt:exit.obj
 0001:0003d80f       ___acrt_initialize_thread_local_exit_callback 1003e80f f   libucrt:exit.obj
 0001:0003d821       __c_exit                   1003e821 f   libucrt:exit.obj
 0001:0003d833       __cexit                    1003e833 f   libucrt:exit.obj
 0001:0003d845       __exit                     1003e845 f   libucrt:exit.obj
 0001:0003d860       __is_c_termination_complete 1003e860 f   libucrt:exit.obj
 0001:0003d866       __register_thread_local_exe_atexit_callback 1003e866 f   libucrt:exit.obj
 0001:0003d8ac       _exit                      1003e8ac f   libucrt:exit.obj
 0001:0003d8c7       _quick_exit                1003e8c7 f   libucrt:exit.obj
 0001:0003d8f0       _strncat                   1003e8f0 f   libucrt:strncat.obj
 0001:0003da80       _strncpy                   1003ea80 f   libucrt:strncpy.obj
 0001:0003dbed       ?is_in_use@__crt_stdio_stream@@QBE_NXZ 1003ebed f i libucrt:fclose.obj
 0001:0003dbfa       __fclose_nolock            1003ebfa f   libucrt:fclose.obj
 0001:0003dc8d       _fclose                    1003ec8d f   libucrt:fclose.obj
 0001:0003df83       ??$open_file@ABQBDABQBDABHPAU_iobuf@@@?$__crt_char_traits@D@@SAPAU_iobuf@@ABQBD0ABH$$QAPAU1@@Z 1003ef83 f i libucrt:fopen.obj
 0001:0003dfae       ??$open_file@ABQB_WABQB_WABHPAU_iobuf@@@?$__crt_char_traits@_W@@SAPAU_iobuf@@ABQB_W0ABH$$QAPAU1@@Z 1003efae f i libucrt:fopen.obj
 0001:0003dfd9       ?unlock@__crt_stdio_stream@@QBEXXZ 1003efd9 f i libucrt:fopen.obj
 0001:0003dfe4       __fsopen                   1003efe4 f   libucrt:fopen.obj
 0001:0003dff1       __wfopen                   1003eff1 f   libucrt:fopen.obj
 0001:0003e00d       __wfopen_s                 1003f00d f   libucrt:fopen.obj
 0001:0003e065       __wfsopen                  1003f065 f   libucrt:fopen.obj
 0001:0003e072       _fopen                     1003f072 f   libucrt:fopen.obj
 0001:0003e08e       _fopen_s                   1003f08e f   libucrt:fopen.obj
 0001:0003e0e6       ?__acrt_stdio_reset_buffer@@YAXV__crt_stdio_stream@@@Z 1003f0e6 f i libucrt:fread.obj
 0001:0003e101       ?has_any_buffer@__crt_stdio_stream@@QBE_NXZ 1003f101 f i libucrt:fread.obj
 0001:0003e112       ?has_any_of@__crt_stdio_stream@@QBE_NJ@Z 1003f112 f i libucrt:fread.obj
 0001:0003e12b       ?set_flags@__crt_stdio_stream@@QBE_NJ@Z 1003f12b f i libucrt:fread.obj
 0001:0003e158       __fread_nolock             1003f158 f   libucrt:fread.obj
 0001:0003e17c       __fread_nolock_s           1003f17c f   libucrt:fread.obj
 0001:0003e3cb       _fread                     1003f3cb f   libucrt:fread.obj
 0001:0003e3ef       _fread_s                   1003f3ef f   libucrt:fread.obj
 0001:0003e6a0       ?has_big_buffer@__crt_stdio_stream@@QBE_NXZ 1003f6a0 f i libucrt:fwrite.obj
 0001:0003e6ad       __fwrite_nolock            1003f6ad f   libucrt:fwrite.obj
 0001:0003e886       _fwrite                    1003f886 f   libucrt:fwrite.obj
 0001:0003e9a9       ??$__acrt_mbs_to_wcs_cp@U__crt_win32_buffer_internal_dynamic_resizing@@@@YAHQBDAAV?$__crt_win32_buffer@_WU__crt_win32_buffer_internal_dynamic_resizing@@@@I@Z 1003f9a9 f i libucrt:unlink.obj
 0001:0003e9cf       ??0?$__crt_win32_buffer@_WU__crt_win32_buffer_internal_dynamic_resizing@@@@QAE@XZ 1003f9cf f i libucrt:unlink.obj
 0001:0003e9ea       ??1?$__crt_win32_buffer@_WU__crt_win32_buffer_internal_dynamic_resizing@@@@QAE@XZ 1003f9ea f i libucrt:unlink.obj
 0001:0003ea18       ?__acrt_get_utf8_acp_compatibility_codepage@@YAIXZ 1003fa18 f i libucrt:unlink.obj
 0001:0003ea69       ?_deallocate@?$__crt_win32_buffer@_WU__crt_win32_buffer_internal_dynamic_resizing@@@@AAEXXZ 1003fa69 f i libucrt:unlink.obj
 0001:0003ea89       ?allocate@?$__crt_win32_buffer@_WU__crt_win32_buffer_internal_dynamic_resizing@@@@QAEHI@Z 1003fa89 f i libucrt:unlink.obj
 0001:0003ead7       ?allocate@__crt_win32_buffer_internal_dynamic_resizing@@SAHQAPAXIABV__crt_win32_buffer_empty_debug_info@@@Z 1003fad7 f i libucrt:unlink.obj
 0001:0003eafd       ?capacity@?$__crt_win32_buffer@_WU__crt_win32_buffer_internal_dynamic_resizing@@@@QBEIXZ 1003fafd f i libucrt:unlink.obj
 0001:0003eb01       ?data@?$__crt_win32_buffer@_WU__crt_win32_buffer_internal_dynamic_resizing@@@@QAEPA_WXZ 1003fb01 f i libucrt:unlink.obj
 0001:0003eb05       ?deallocate@__crt_win32_buffer_internal_dynamic_resizing@@SAXQAXABV__crt_win32_buffer_empty_debug_info@@@Z 1003fb05 f i libucrt:unlink.obj
 0001:0003eb19       ?debug_info@?$__crt_win32_buffer@_WU__crt_win32_buffer_internal_dynamic_resizing@@@@QBEABV__crt_win32_buffer_empty_debug_info@@XZ 1003fb19 f i libucrt:unlink.obj
 0001:0003eb1c       ?size@?$__crt_win32_buffer@_WU__crt_win32_buffer_internal_dynamic_resizing@@@@QAEXI@Z 1003fb1c f i libucrt:unlink.obj
 0001:0003eb2e       __unlink                   1003fb2e f   libucrt:unlink.obj
 0001:0003eb3b       _remove                    1003fb3b f   libucrt:unlink.obj
 0001:0003ebc2       ?has_all_of@__crt_stdio_stream@@QBE_NJ@Z 1003fbc2 f i libucrt:rewind.obj
 0001:0003ebde       ?unset_flags@__crt_stdio_stream@@QBE_NJ@Z 1003fbde f i libucrt:rewind.obj
 0001:0003ec11       _rewind                    1003fc11 f   libucrt:rewind.obj
 0001:0003ed03       _ldexp                     1003fd03 f   libucrt:ldexp.obj
 0001:0003ef80       __CIfmod                   1003ff80 f   libucrt:87fmod_impl.obj
 0001:0003ef90       __fFMOD                    1003ff90 f   libucrt:87fmod_impl.obj
 0001:0003efb0       _ceil                      1003ffb0 f   libucrt:ceil_pentium4.obj
 0001:0003eff0       __ceil_pentium4            1003fff0 f   libucrt:ceil_pentium4.obj
 0001:0003f114       ??$__vcrt_va_start_verify_argument_type@QBD@@YAXXZ 10040114 f i libucrt:assert.obj
 0001:0003f115       ??$__vcrt_va_start_verify_argument_type@QB_W@@YAXXZ 10040115 f i libucrt:assert.obj
 0001:000400b7       ??$ftprintf@PAU_iobuf@@PBDABQBDABQBDABI@?$__crt_char_traits@D@@SAH$$QAPAU_iobuf@@$$QAPBDABQBD2ABI@Z 100410b7 f i libucrt:assert.obj
 0001:000400e9       ??$ftprintf@PAU_iobuf@@PB_WABQB_WABQB_WABI@?$__crt_char_traits@_W@@SAH$$QAPAU_iobuf@@$$QAPB_WABQB_W2ABI@Z 100410e9 f i libucrt:assert.obj
 0001:0004011b       ??$get_module_file_name@AAPAUHINSTANCE__@@AAY0BAF@DK@?$__crt_char_traits@D@@SAKAAPAUHINSTANCE__@@AAY0BAF@D$$QAK@Z 1004111b f i libucrt:assert.obj
 0001:0004013e       ??$get_module_file_name@AAPAUHINSTANCE__@@AAY0BAF@_WK@?$__crt_char_traits@_W@@SAKAAPAUHINSTANCE__@@AAY0BAF@_W$$QAK@Z 1004113e f i libucrt:assert.obj
 0001:0004015e       ??$itot_s@ABIPADIH@?$__crt_char_traits@D@@SAHABI$$QAPAD$$QAI$$QAH@Z 1004115e f i libucrt:assert.obj
 0001:00040189       ??$itot_s@ABIPA_WIH@?$__crt_char_traits@_W@@SAHABI$$QAPA_W$$QAI$$QAH@Z 10041189 f i libucrt:assert.obj
 0001:000401b4       ??$show_message_box@AAY0CEA@DPBDJ@?$__crt_char_traits@D@@SAHAAY0CEA@D$$QAPBD$$QAJ@Z 100411b4 f i libucrt:assert.obj
 0001:000401d7       ??$show_message_box@AAY0CEA@_WPB_WJ@?$__crt_char_traits@_W@@SAHAAY0CEA@_W$$QAPB_W$$QAJ@Z 100411d7 f i libucrt:assert.obj
 0001:000401fa       ??$tcscat_s@ABQADABIAAPAD@?$__crt_char_traits@D@@SAHABQADABIAAPAD@Z 100411fa f i libucrt:assert.obj
 0001:0004021f       ??$tcscat_s@ABQADABIABQBD@?$__crt_char_traits@D@@SAHABQADABIABQBD@Z 1004121f f i libucrt:assert.obj
 0001:00040244       ??$tcscat_s@ABQADABIPBD@?$__crt_char_traits@D@@SAHABQADABI$$QAPBD@Z 10041244 f i libucrt:assert.obj
 0001:00040269       ??$tcscat_s@ABQA_WABIAAPA_W@?$__crt_char_traits@_W@@SAHABQA_WABIAAPA_W@Z 10041269 f i libucrt:assert.obj
 0001:0004028e       ??$tcscat_s@ABQA_WABIABQB_W@?$__crt_char_traits@_W@@SAHABQA_WABIABQB_W@Z 1004128e f i libucrt:assert.obj
 0001:000402b3       ??$tcscat_s@ABQA_WABIPB_W@?$__crt_char_traits@_W@@SAHABQA_WABI$$QAPB_W@Z 100412b3 f i libucrt:assert.obj
 0001:000402d8       ??$tcscpy_s@AAY0BAF@DIPBD@?$__crt_char_traits@D@@SAHAAY0BAF@D$$QAI$$QAPBD@Z 100412d8 f i libucrt:assert.obj
 0001:000402fb       ??$tcscpy_s@AAY0BAF@_WIPB_W@?$__crt_char_traits@_W@@SAHAAY0BAF@_W$$QAI$$QAPB_W@Z 100412fb f i libucrt:assert.obj
 0001:0004031e       ??$tcscpy_s@ABQADABIPBD@?$__crt_char_traits@D@@SAHABQADABI$$QAPBD@Z 1004131e f i libucrt:assert.obj
 0001:00040343       ??$tcscpy_s@ABQA_WABIPB_W@?$__crt_char_traits@_W@@SAHABQA_WABI$$QAPB_W@Z 10041343 f i libucrt:assert.obj
 0001:00040368       ??$tcslen@AAY0BAF@D@?$__crt_char_traits@D@@SAIAAY0BAF@D@Z 10041368 f i libucrt:assert.obj
 0001:00040383       ??$tcslen@AAY0BAF@_W@?$__crt_char_traits@_W@@SAIAAY0BAF@_W@Z 10041383 f i libucrt:assert.obj
 0001:000403a6       ??$tcslen@ABQAD@?$__crt_char_traits@D@@SAIABQAD@Z 100413a6 f i libucrt:assert.obj
 0001:000403c4       ??$tcslen@ABQA_W@?$__crt_char_traits@_W@@SAIABQA_W@Z 100413c4 f i libucrt:assert.obj
 0001:000403e9       ??$tcslen@ABQBD@?$__crt_char_traits@D@@SAIABQBD@Z 100413e9 f i libucrt:assert.obj
 0001:00040407       ??$tcslen@ABQB_W@?$__crt_char_traits@_W@@SAIABQB_W@Z 10041407 f i libucrt:assert.obj
 0001:0004042c       ??$tcsncat_s@ABQADABIAAPBDI@?$__crt_char_traits@D@@SAHABQADABIAAPBD$$QAI@Z 1004142c f i libucrt:assert.obj
 0001:00040457       ??$tcsncat_s@ABQADABIABQBDABI@?$__crt_char_traits@D@@SAHABQADABIABQBD1@Z 10041457 f i libucrt:assert.obj
 0001:00040482       ??$tcsncat_s@ABQADABIPBDI@?$__crt_char_traits@D@@SAHABQADABI$$QAPBD$$QAI@Z 10041482 f i libucrt:assert.obj
 0001:000404ad       ??$tcsncat_s@ABQA_WABIAAPB_WI@?$__crt_char_traits@_W@@SAHABQA_WABIAAPB_W$$QAI@Z 100414ad f i libucrt:assert.obj
 0001:000404d8       ??$tcsncat_s@ABQA_WABIABQB_WABI@?$__crt_char_traits@_W@@SAHABQA_WABIABQB_W1@Z 100414d8 f i libucrt:assert.obj
 0001:00040503       ??$tcsncat_s@ABQA_WABIPB_WI@?$__crt_char_traits@_W@@SAHABQA_WABI$$QAPB_W$$QAI@Z 10041503 f i libucrt:assert.obj
 0001:000406a8       __assert                   100416a8 f   libucrt:assert.obj
 0001:00040702       __invoke_watson_if_error   10041702 f i libucrt:assert.obj
 0001:0004072c       __vfwprintf_l              1004172c f i libucrt:assert.obj
 0001:0004075a       __vswprintf_c_l            1004175a f i libucrt:assert.obj
 0001:00040794       __wassert                  10041794 f   libucrt:assert.obj
 0001:000407ee       _fwprintf                  100417ee f i libucrt:assert.obj
 0001:000408b0       _swprintf                  100418b0 f i libucrt:assert.obj
 0001:000408d5       ??$?RE@__crt_internal_free_policy@@QBEXQBE@Z 100418d5 f i libucrt:input.obj
 0001:00040a19       ??$assemble_floating_point_ind@M@__crt_strtox@@YAXAAM@Z 10041a19 f i libucrt:input.obj
 0001:00040a2d       ??$assemble_floating_point_ind@N@__crt_strtox@@YAXAAN@Z 10041a2d f i libucrt:input.obj
 0001:00040a46       ??$assemble_floating_point_infinity@M@__crt_strtox@@YAX_NAAM@Z 10041a46 f i libucrt:input.obj
 0001:00040a65       ??$assemble_floating_point_infinity@N@__crt_strtox@@YAX_NAAN@Z 10041a65 f i libucrt:input.obj
 0001:00040a89       ??$assemble_floating_point_qnan@M@__crt_strtox@@YAX_NAAM@Z 10041a89 f i libucrt:input.obj
 0001:00040aa8       ??$assemble_floating_point_qnan@N@__crt_strtox@@YAX_NAAN@Z 10041aa8 f i libucrt:input.obj
 0001:00040acc       ??$assemble_floating_point_snan@M@__crt_strtox@@YAX_NAAM@Z 10041acc f i libucrt:input.obj
 0001:00040aeb       ??$assemble_floating_point_snan@N@__crt_strtox@@YAX_NAAN@Z 10041aeb f i libucrt:input.obj
 0001:00040b14       ??$assemble_floating_point_value_t@M@__crt_strtox@@YA?AW4SLD_STATUS@@_NH_KAAM@Z 10041b14 f i libucrt:input.obj
 0001:00040b50       ??$assemble_floating_point_value_t@N@__crt_strtox@@YA?AW4SLD_STATUS@@_NH_KAAN@Z 10041b50 f i libucrt:input.obj
 0001:00040ba2       ??$assemble_floating_point_zero@M@__crt_strtox@@YAX_NAAM@Z 10041ba2 f i libucrt:input.obj
 0001:00040bb9       ??$assemble_floating_point_zero@N@__crt_strtox@@YAX_NAAN@Z 10041bb9 f i libucrt:input.obj
 0001:00040e79       ??$convert_decimal_string_to_floating_type@M@__crt_strtox@@YA?AW4SLD_STATUS@@ABUfloating_point_string@0@AAM@Z 10041e79 f i libucrt:input.obj
 0001:00040ea4       ??$convert_decimal_string_to_floating_type@N@__crt_strtox@@YA?AW4SLD_STATUS@@ABUfloating_point_string@0@AAN@Z 10041ea4 f i libucrt:input.obj
 0001:00040ecf       ??$convert_hexadecimal_string_to_floating_type@M@__crt_strtox@@YA?AW4SLD_STATUS@@ABUfloating_point_string@0@AAM@Z 10041ecf f i libucrt:input.obj
 0001:00040efa       ??$convert_hexadecimal_string_to_floating_type@N@__crt_strtox@@YA?AW4SLD_STATUS@@ABUfloating_point_string@0@AAN@Z 10041efa f i libucrt:input.obj
 0001:00040f25       ??$fill_buffer@D@?$input_processor@DV?$stream_input_adapter@D@__crt_stdio_input@@@__crt_stdio_input@@CAXQADII@Z 10041f25 f i libucrt:input.obj
 0001:00040f26       ??$fill_buffer@D@?$input_processor@DV?$string_input_adapter@D@__crt_stdio_input@@@__crt_stdio_input@@CAXQADII@Z 10041f26 f i libucrt:input.obj
 0001:00040f27       ??$fill_buffer@D@?$input_processor@_WV?$stream_input_adapter@_W@__crt_stdio_input@@@__crt_stdio_input@@CAXQADII@Z 10041f27 f i libucrt:input.obj
 0001:00040f28       ??$fill_buffer@D@?$input_processor@_WV?$string_input_adapter@_W@__crt_stdio_input@@@__crt_stdio_input@@CAXQADII@Z 10041f28 f i libucrt:input.obj
 0001:00040f29       ??$fill_buffer@_W@?$input_processor@DV?$stream_input_adapter@D@__crt_stdio_input@@@__crt_stdio_input@@CAXQA_WII@Z 10041f29 f i libucrt:input.obj
 0001:00040f2a       ??$fill_buffer@_W@?$input_processor@DV?$string_input_adapter@D@__crt_stdio_input@@@__crt_stdio_input@@CAXQA_WII@Z 10041f2a f i libucrt:input.obj
 0001:00040f2b       ??$fill_buffer@_W@?$input_processor@_WV?$stream_input_adapter@_W@__crt_stdio_input@@@__crt_stdio_input@@CAXQA_WII@Z 10041f2b f i libucrt:input.obj
 0001:00040f2c       ??$fill_buffer@_W@?$input_processor@_WV?$string_input_adapter@_W@__crt_stdio_input@@@__crt_stdio_input@@CAXQA_WII@Z 10041f2c f i libucrt:input.obj
 0001:00040f2d       ??$getc_nolock@PAU_iobuf@@@?$__crt_char_traits@D@@SAH$$QAPAU_iobuf@@@Z 10041f2d f i libucrt:input.obj
 0001:00040f43       ??$getc_nolock@PAU_iobuf@@@?$__crt_char_traits@_W@@SAG$$QAPAU_iobuf@@@Z 10041f43 f i libucrt:input.obj
 0001:00040f59       ??$is_overflow_condition@_K@__crt_strtox@@YA_NI_K@Z 10041f59 f i libucrt:input.obj
 0001:00040faa       ??$istspace@ABE@?$__crt_char_traits@D@@SAHABE@Z 10041faa f i libucrt:input.obj
 0001:00040fc3       ??$istspace@AB_W@?$__crt_char_traits@_W@@SAHAB_W@Z 10041fc3 f i libucrt:input.obj
 0001:00040fdf       ??$make_input_adapter_character_source@V?$stream_input_adapter@D@__crt_stdio_input@@@__crt_strtox@@YA?AV?$input_adapter_character_source@V?$stream_input_adapter@D@__crt_stdio_input@@@0@QAV?$stream_input_adapter@D@__crt_stdio_input@@_KQA_N@Z 10041fdf f i libucrt:input.obj
 0001:00041004       ??$make_input_adapter_character_source@V?$stream_input_adapter@_W@__crt_stdio_input@@@__crt_strtox@@YA?AV?$input_adapter_character_source@V?$stream_input_adapter@_W@__crt_stdio_input@@@0@QAV?$stream_input_adapter@_W@__crt_stdio_input@@_KQA_N@Z 10042004 f i libucrt:input.obj
 0001:00041029       ??$make_input_adapter_character_source@V?$string_input_adapter@D@__crt_stdio_input@@@__crt_strtox@@YA?AV?$input_adapter_character_source@V?$string_input_adapter@D@__crt_stdio_input@@@0@QAV?$string_input_adapter@D@__crt_stdio_input@@_KQA_N@Z 10042029 f i libucrt:input.obj
 0001:0004104e       ??$make_input_adapter_character_source@V?$string_input_adapter@_W@__crt_stdio_input@@@__crt_strtox@@YA?AV?$input_adapter_character_source@V?$string_input_adapter@_W@__crt_stdio_input@@@0@QAV?$string_input_adapter@_W@__crt_stdio_input@@_KQA_N@Z 1004204e f i libucrt:input.obj
 0001:00041073       ??$parse_floating_point@V?$input_adapter_character_source@V?$stream_input_adapter@D@__crt_stdio_input@@@__crt_strtox@@M@__crt_strtox@@YA?AW4SLD_STATUS@@QAU__crt_locale_pointers@@V?$input_adapter_character_source@V?$stream_input_adapter@D@__crt_stdio_input@@@0@QAM@Z 10042073 f i libucrt:input.obj
 0001:0004110c       ??$parse_floating_point@V?$input_adapter_character_source@V?$stream_input_adapter@D@__crt_stdio_input@@@__crt_strtox@@N@__crt_strtox@@YA?AW4SLD_STATUS@@QAU__crt_locale_pointers@@V?$input_adapter_character_source@V?$stream_input_adapter@D@__crt_stdio_input@@@0@QAN@Z 1004210c f i libucrt:input.obj
 0001:000411a5       ??$parse_floating_point@V?$input_adapter_character_source@V?$stream_input_adapter@_W@__crt_stdio_input@@@__crt_strtox@@M@__crt_strtox@@YA?AW4SLD_STATUS@@QAU__crt_locale_pointers@@V?$input_adapter_character_source@V?$stream_input_adapter@_W@__crt_stdio_input@@@0@QAM@Z 100421a5 f i libucrt:input.obj
 0001:0004123e       ??$parse_floating_point@V?$input_adapter_character_source@V?$stream_input_adapter@_W@__crt_stdio_input@@@__crt_strtox@@N@__crt_strtox@@YA?AW4SLD_STATUS@@QAU__crt_locale_pointers@@V?$input_adapter_character_source@V?$stream_input_adapter@_W@__crt_stdio_input@@@0@QAN@Z 1004223e f i libucrt:input.obj
 0001:000412d7       ??$parse_floating_point@V?$input_adapter_character_source@V?$string_input_adapter@D@__crt_stdio_input@@@__crt_strtox@@M@__crt_strtox@@YA?AW4SLD_STATUS@@QAU__crt_locale_pointers@@V?$input_adapter_character_source@V?$string_input_adapter@D@__crt_stdio_input@@@0@QAM@Z 100422d7 f i libucrt:input.obj
 0001:00041370       ??$parse_floating_point@V?$input_adapter_character_source@V?$string_input_adapter@D@__crt_stdio_input@@@__crt_strtox@@N@__crt_strtox@@YA?AW4SLD_STATUS@@QAU__crt_locale_pointers@@V?$input_adapter_character_source@V?$string_input_adapter@D@__crt_stdio_input@@@0@QAN@Z 10042370 f i libucrt:input.obj
 0001:00041409       ??$parse_floating_point@V?$input_adapter_character_source@V?$string_input_adapter@_W@__crt_stdio_input@@@__crt_strtox@@M@__crt_strtox@@YA?AW4SLD_STATUS@@QAU__crt_locale_pointers@@V?$input_adapter_character_source@V?$string_input_adapter@_W@__crt_stdio_input@@@0@QAM@Z 10042409 f i libucrt:input.obj
 0001:000414a2       ??$parse_floating_point@V?$input_adapter_character_source@V?$string_input_adapter@_W@__crt_stdio_input@@@__crt_strtox@@N@__crt_strtox@@YA?AW4SLD_STATUS@@QAU__crt_locale_pointers@@V?$input_adapter_character_source@V?$string_input_adapter@_W@__crt_stdio_input@@@0@QAN@Z 100424a2 f i libucrt:input.obj
 0001:0004153b       ??$parse_floating_point_from_source@V?$input_adapter_character_source@V?$stream_input_adapter@D@__crt_stdio_input@@@__crt_strtox@@@__crt_strtox@@YA?AW4floating_point_parse_result@0@QAU__crt_locale_pointers@@AAV?$input_adapter_character_source@V?$stream_input_adapter@D@__crt_stdio_input@@@0@AAUfloating_point_string@0@@Z 1004253b f i libucrt:input.obj
 0001:00041ab0       ??$parse_floating_point_from_source@V?$input_adapter_character_source@V?$stream_input_adapter@_W@__crt_stdio_input@@@__crt_strtox@@@__crt_strtox@@YA?AW4floating_point_parse_result@0@QAU__crt_locale_pointers@@AAV?$input_adapter_character_source@V?$stream_input_adapter@_W@__crt_stdio_input@@@0@AAUfloating_point_string@0@@Z 10042ab0 f i libucrt:input.obj
 0001:00042c80       ??$parse_floating_point_from_source@V?$input_adapter_character_source@V?$string_input_adapter@D@__crt_stdio_input@@@__crt_strtox@@@__crt_strtox@@YA?AW4floating_point_parse_result@0@QAU__crt_locale_pointers@@AAV?$input_adapter_character_source@V?$string_input_adapter@D@__crt_stdio_input@@@0@AAUfloating_point_string@0@@Z 10043c80 f i libucrt:input.obj
 0001:000431f5       ??$parse_floating_point_from_source@V?$input_adapter_character_source@V?$string_input_adapter@_W@__crt_stdio_input@@@__crt_strtox@@@__crt_strtox@@YA?AW4floating_point_parse_result@0@QAU__crt_locale_pointers@@AAV?$input_adapter_character_source@V?$string_input_adapter@_W@__crt_stdio_input@@@0@AAUfloating_point_string@0@@Z 100441f5 f i libucrt:input.obj
 0001:000443c5       ??$parse_floating_point_possible_infinity@DV?$input_adapter_character_source@V?$stream_input_adapter@D@__crt_stdio_input@@@__crt_strtox@@_K@__crt_strtox@@YA?AW4floating_point_parse_result@0@AADAAV?$input_adapter_character_source@V?$stream_input_adapter@D@__crt_stdio_input@@@0@_K@Z 100453c5 f i libucrt:input.obj
 0001:000444b6       ??$parse_floating_point_possible_infinity@DV?$input_adapter_character_source@V?$string_input_adapter@D@__crt_stdio_input@@@__crt_strtox@@_K@__crt_strtox@@YA?AW4floating_point_parse_result@0@AADAAV?$input_adapter_character_source@V?$string_input_adapter@D@__crt_stdio_input@@@0@_K@Z 100454b6 f i libucrt:input.obj
 0001:000445a7       ??$parse_floating_point_possible_infinity@_WV?$input_adapter_character_source@V?$stream_input_adapter@_W@__crt_stdio_input@@@__crt_strtox@@_K@__crt_strtox@@YA?AW4floating_point_parse_result@0@AA_WAAV?$input_adapter_character_source@V?$stream_input_adapter@_W@__crt_stdio_input@@@0@_K@Z 100455a7 f i libucrt:input.obj
 0001:000446a9       ??$parse_floating_point_possible_infinity@_WV?$input_adapter_character_source@V?$string_input_adapter@_W@__crt_stdio_input@@@__crt_strtox@@_K@__crt_strtox@@YA?AW4floating_point_parse_result@0@AA_WAAV?$input_adapter_character_source@V?$string_input_adapter@_W@__crt_stdio_input@@@0@_K@Z 100456a9 f i libucrt:input.obj
 0001:000447ab       ??$parse_floating_point_possible_nan@DV?$input_adapter_character_source@V?$stream_input_adapter@D@__crt_stdio_input@@@__crt_strtox@@_K@__crt_strtox@@YA?AW4floating_point_parse_result@0@AADAAV?$input_adapter_character_source@V?$stream_input_adapter@D@__crt_stdio_input@@@0@_K@Z 100457ab f i libucrt:input.obj
 0001:0004490f       ??$parse_floating_point_possible_nan@DV?$input_adapter_character_source@V?$string_input_adapter@D@__crt_stdio_input@@@__crt_strtox@@_K@__crt_strtox@@YA?AW4floating_point_parse_result@0@AADAAV?$input_adapter_character_source@V?$string_input_adapter@D@__crt_stdio_input@@@0@_K@Z 1004590f f i libucrt:input.obj
 0001:00044a73       ??$parse_floating_point_possible_nan@_WV?$input_adapter_character_source@V?$stream_input_adapter@_W@__crt_stdio_input@@@__crt_strtox@@_K@__crt_strtox@@YA?AW4floating_point_parse_result@0@AA_WAAV?$input_adapter_character_source@V?$stream_input_adapter@_W@__crt_stdio_input@@@0@_K@Z 10045a73 f i libucrt:input.obj
 0001:00044bf1       ??$parse_floating_point_possible_nan@_WV?$input_adapter_character_source@V?$string_input_adapter@_W@__crt_stdio_input@@@__crt_strtox@@_K@__crt_strtox@@YA?AW4floating_point_parse_result@0@AA_WAAV?$input_adapter_character_source@V?$string_input_adapter@_W@__crt_stdio_input@@@0@_K@Z 10045bf1 f i libucrt:input.obj
 0001:00044d6f       ??$parse_floating_point_possible_nan_is_ind@DV?$input_adapter_character_source@V?$stream_input_adapter@D@__crt_stdio_input@@@__crt_strtox@@@__crt_strtox@@YA_NAADAAV?$input_adapter_character_source@V?$stream_input_adapter@D@__crt_stdio_input@@@0@@Z 10045d6f f i libucrt:input.obj
 0001:00044db7       ??$parse_floating_point_possible_nan_is_ind@DV?$input_adapter_character_source@V?$string_input_adapter@D@__crt_stdio_input@@@__crt_strtox@@@__crt_strtox@@YA_NAADAAV?$input_adapter_character_source@V?$string_input_adapter@D@__crt_stdio_input@@@0@@Z 10045db7 f i libucrt:input.obj
 0001:00044dff       ??$parse_floating_point_possible_nan_is_ind@_WV?$input_adapter_character_source@V?$stream_input_adapter@_W@__crt_stdio_input@@@__crt_strtox@@@__crt_strtox@@YA_NAA_WAAV?$input_adapter_character_source@V?$stream_input_adapter@_W@__crt_stdio_input@@@0@@Z 10045dff f i libucrt:input.obj
 0001:00044e4f       ??$parse_floating_point_possible_nan_is_ind@_WV?$input_adapter_character_source@V?$string_input_adapter@_W@__crt_stdio_input@@@__crt_strtox@@@__crt_strtox@@YA_NAA_WAAV?$input_adapter_character_source@V?$string_input_adapter@_W@__crt_stdio_input@@@0@@Z 10045e4f f i libucrt:input.obj
 0001:00044e9f       ??$parse_floating_point_possible_nan_is_snan@DV?$input_adapter_character_source@V?$stream_input_adapter@D@__crt_stdio_input@@@__crt_strtox@@@__crt_strtox@@YA_NAADAAV?$input_adapter_character_source@V?$stream_input_adapter@D@__crt_stdio_input@@@0@@Z 10045e9f f i libucrt:input.obj
 0001:00044ee7       ??$parse_floating_point_possible_nan_is_snan@DV?$input_adapter_character_source@V?$string_input_adapter@D@__crt_stdio_input@@@__crt_strtox@@@__crt_strtox@@YA_NAADAAV?$input_adapter_character_source@V?$string_input_adapter@D@__crt_stdio_input@@@0@@Z 10045ee7 f i libucrt:input.obj
 0001:00044f2f       ??$parse_floating_point_possible_nan_is_snan@_WV?$input_adapter_character_source@V?$stream_input_adapter@_W@__crt_stdio_input@@@__crt_strtox@@@__crt_strtox@@YA_NAA_WAAV?$input_adapter_character_source@V?$stream_input_adapter@_W@__crt_stdio_input@@@0@@Z 10045f2f f i libucrt:input.obj
 0001:00044f7f       ??$parse_floating_point_possible_nan_is_snan@_WV?$input_adapter_character_source@V?$string_input_adapter@_W@__crt_stdio_input@@@__crt_strtox@@@__crt_strtox@@YA_NAA_WAAV?$input_adapter_character_source@V?$string_input_adapter@_W@__crt_stdio_input@@@0@@Z 10045f7f f i libucrt:input.obj
 0001:00044fcf       ??$parse_floating_point_write_result@M@__crt_strtox@@YA?AW4SLD_STATUS@@W4floating_point_parse_result@0@ABUfloating_point_string@0@QAM@Z 10045fcf f i libucrt:input.obj
 0001:00045196       ??$parse_floating_point_write_result@N@__crt_strtox@@YA?AW4SLD_STATUS@@W4floating_point_parse_result@0@ABUfloating_point_string@0@QAN@Z 10046196 f i libucrt:input.obj
 0001:00045303       ??$parse_integer@_KV?$input_adapter_character_source@V?$stream_input_adapter@D@__crt_stdio_input@@@__crt_strtox@@@__crt_strtox@@YA_KQAU__crt_locale_pointers@@V?$input_adapter_character_source@V?$stream_input_adapter@D@__crt_stdio_input@@@0@H_N@Z 10046303 f i libucrt:input.obj
 0001:00045671       ??$parse_integer@_KV?$input_adapter_character_source@V?$stream_input_adapter@_W@__crt_stdio_input@@@__crt_strtox@@@__crt_strtox@@YA_KQAU__crt_locale_pointers@@V?$input_adapter_character_source@V?$stream_input_adapter@_W@__crt_stdio_input@@@0@H_N@Z 10046671 f i libucrt:input.obj
 0001:00045e01       ??$parse_integer@_KV?$input_adapter_character_source@V?$string_input_adapter@D@__crt_stdio_input@@@__crt_strtox@@@__crt_strtox@@YA_KQAU__crt_locale_pointers@@V?$input_adapter_character_source@V?$string_input_adapter@D@__crt_stdio_input@@@0@H_N@Z 10046e01 f i libucrt:input.obj
 0001:0004616f       ??$parse_integer@_KV?$input_adapter_character_source@V?$string_input_adapter@_W@__crt_stdio_input@@@__crt_strtox@@@__crt_strtox@@YA_KQAU__crt_locale_pointers@@V?$input_adapter_character_source@V?$string_input_adapter@_W@__crt_stdio_input@@@0@H_N@Z 1004716f f i libucrt:input.obj
 0001:000468ff       ??$parse_next_characters_from_source@DV?$input_adapter_character_source@V?$stream_input_adapter@D@__crt_stdio_input@@@__crt_strtox@@@__crt_strtox@@YA_NQBD0IAADAAV?$input_adapter_character_source@V?$stream_input_adapter@D@__crt_stdio_input@@@0@@Z 100478ff f i libucrt:input.obj
 0001:00046954       ??$parse_next_characters_from_source@DV?$input_adapter_character_source@V?$string_input_adapter@D@__crt_stdio_input@@@__crt_strtox@@@__crt_strtox@@YA_NQBD0IAADAAV?$input_adapter_character_source@V?$string_input_adapter@D@__crt_stdio_input@@@0@@Z 10047954 f i libucrt:input.obj
 0001:000469a9       ??$parse_next_characters_from_source@_WV?$input_adapter_character_source@V?$stream_input_adapter@_W@__crt_stdio_input@@@__crt_strtox@@@__crt_strtox@@YA_NQB_W0IAA_WAAV?$input_adapter_character_source@V?$stream_input_adapter@_W@__crt_stdio_input@@@0@@Z 100479a9 f i libucrt:input.obj
 0001:00046a05       ??$parse_next_characters_from_source@_WV?$input_adapter_character_source@V?$string_input_adapter@_W@__crt_stdio_input@@@__crt_strtox@@@__crt_strtox@@YA_NQB_W0IAA_WAAV?$input_adapter_character_source@V?$string_input_adapter@_W@__crt_stdio_input@@@0@@Z 10047a05 f i libucrt:input.obj
 0001:00046a61       ??$process_floating_point_specifier_t@M@?$input_processor@DV?$stream_input_adapter@D@__crt_stdio_input@@@__crt_stdio_input@@AAE_NXZ 10047a61 f i libucrt:input.obj
 0001:00046ae3       ??$process_floating_point_specifier_t@M@?$input_processor@DV?$string_input_adapter@D@__crt_stdio_input@@@__crt_stdio_input@@AAE_NXZ 10047ae3 f i libucrt:input.obj
 0001:00046b65       ??$process_floating_point_specifier_t@M@?$input_processor@_WV?$stream_input_adapter@_W@__crt_stdio_input@@@__crt_stdio_input@@AAE_NXZ 10047b65 f i libucrt:input.obj
 0001:00046be7       ??$process_floating_point_specifier_t@M@?$input_processor@_WV?$string_input_adapter@_W@__crt_stdio_input@@@__crt_stdio_input@@AAE_NXZ 10047be7 f i libucrt:input.obj
 0001:00046c69       ??$process_floating_point_specifier_t@N@?$input_processor@DV?$stream_input_adapter@D@__crt_stdio_input@@@__crt_stdio_input@@AAE_NXZ 10047c69 f i libucrt:input.obj
 0001:00046ceb       ??$process_floating_point_specifier_t@N@?$input_processor@DV?$string_input_adapter@D@__crt_stdio_input@@@__crt_stdio_input@@AAE_NXZ 10047ceb f i libucrt:input.obj
 0001:00046d6d       ??$process_floating_point_specifier_t@N@?$input_processor@_WV?$stream_input_adapter@_W@__crt_stdio_input@@@__crt_stdio_input@@AAE_NXZ 10047d6d f i libucrt:input.obj
 0001:00046def       ??$process_floating_point_specifier_t@N@?$input_processor@_WV?$string_input_adapter@_W@__crt_stdio_input@@@__crt_stdio_input@@AAE_NXZ 10047def f i libucrt:input.obj
 0001:00046e71       ??$process_string_specifier_tchar@D@?$input_processor@DV?$stream_input_adapter@D@__crt_stdio_input@@@__crt_stdio_input@@AAE_NW4conversion_mode@1@D@Z 10047e71 f i libucrt:input.obj
 0001:00047040       ??$process_string_specifier_tchar@D@?$input_processor@DV?$string_input_adapter@D@__crt_stdio_input@@@__crt_stdio_input@@AAE_NW4conversion_mode@1@D@Z 10048040 f i libucrt:input.obj
 0001:000471f6       ??$process_string_specifier_tchar@D@?$input_processor@_WV?$stream_input_adapter@_W@__crt_stdio_input@@@__crt_stdio_input@@AAE_NW4conversion_mode@1@D@Z 100481f6 f i libucrt:input.obj
 0001:000473b8       ??$process_string_specifier_tchar@D@?$input_processor@_WV?$string_input_adapter@_W@__crt_stdio_input@@@__crt_stdio_input@@AAE_NW4conversion_mode@1@D@Z 100483b8 f i libucrt:input.obj
 0001:0004757a       ??$process_string_specifier_tchar@_W@?$input_processor@DV?$stream_input_adapter@D@__crt_stdio_input@@@__crt_stdio_input@@AAE_NW4conversion_mode@1@_W@Z 1004857a f i libucrt:input.obj
 0001:00047756       ??$process_string_specifier_tchar@_W@?$input_processor@DV?$string_input_adapter@D@__crt_stdio_input@@@__crt_stdio_input@@AAE_NW4conversion_mode@1@_W@Z 10048756 f i libucrt:input.obj
 0001:00047919       ??$process_string_specifier_tchar@_W@?$input_processor@_WV?$stream_input_adapter@_W@__crt_stdio_input@@@__crt_stdio_input@@AAE_NW4conversion_mode@1@_W@Z 10048919 f i libucrt:input.obj
 0001:00047adc       ??$process_string_specifier_tchar@_W@?$input_processor@_WV?$string_input_adapter@_W@__crt_stdio_input@@@__crt_stdio_input@@AAE_NW4conversion_mode@1@_W@Z 10048adc f i libucrt:input.obj
 0001:00047c9f       ??$reset_buffer@D@?$input_processor@DV?$stream_input_adapter@D@__crt_stdio_input@@@__crt_stdio_input@@CAXQADI@Z 10048c9f f i libucrt:input.obj
 0001:00047cb6       ??$reset_buffer@D@?$input_processor@DV?$string_input_adapter@D@__crt_stdio_input@@@__crt_stdio_input@@CAXQADI@Z 10048cb6 f i libucrt:input.obj
 0001:00047ccd       ??$reset_buffer@D@?$input_processor@_WV?$stream_input_adapter@_W@__crt_stdio_input@@@__crt_stdio_input@@CAXQADI@Z 10048ccd f i libucrt:input.obj
 0001:00047ce4       ??$reset_buffer@D@?$input_processor@_WV?$string_input_adapter@_W@__crt_stdio_input@@@__crt_stdio_input@@CAXQADI@Z 10048ce4 f i libucrt:input.obj
 0001:00047cfb       ??$reset_buffer@_W@?$input_processor@DV?$stream_input_adapter@D@__crt_stdio_input@@@__crt_stdio_input@@CAXQA_WI@Z 10048cfb f i libucrt:input.obj
 0001:00047d15       ??$reset_buffer@_W@?$input_processor@DV?$string_input_adapter@D@__crt_stdio_input@@@__crt_stdio_input@@CAXQA_WI@Z 10048d15 f i libucrt:input.obj
 0001:00047d2f       ??$reset_buffer@_W@?$input_processor@_WV?$stream_input_adapter@_W@__crt_stdio_input@@@__crt_stdio_input@@CAXQA_WI@Z 10048d2f f i libucrt:input.obj
 0001:00047d49       ??$reset_buffer@_W@?$input_processor@_WV?$string_input_adapter@_W@__crt_stdio_input@@@__crt_stdio_input@@CAXQA_WI@Z 10048d49 f i libucrt:input.obj
 0001:00047d63       ??$skip_whitespace@Vstream_input_adapter@__crt_stdio_input@@D@__crt_stdio_input@@YAHAAV?$stream_input_adapter@D@0@QAU__crt_locale_pointers@@@Z 10048d63 f i libucrt:input.obj
 0001:00047da7       ??$skip_whitespace@Vstream_input_adapter@__crt_stdio_input@@_W@__crt_stdio_input@@YAGAAV?$stream_input_adapter@_W@0@QAU__crt_locale_pointers@@@Z 10048da7 f i libucrt:input.obj
 0001:00047de1       ??$skip_whitespace@Vstring_input_adapter@__crt_stdio_input@@D@__crt_stdio_input@@YAHAAV?$string_input_adapter@D@0@QAU__crt_locale_pointers@@@Z 10048de1 f i libucrt:input.obj
 0001:00047e1b       ??$skip_whitespace@Vstring_input_adapter@__crt_stdio_input@@_W@__crt_stdio_input@@YAGAAV?$string_input_adapter@_W@0@QAU__crt_locale_pointers@@@Z 10048e1b f i libucrt:input.obj
 0001:00047e55       ??$tcsnlen@ABQBDABI@?$__crt_char_traits@D@@SAIABQBDABI@Z 10048e55 f i libucrt:input.obj
 0001:00047e73       ??$tcsnlen@ABQB_WABI@?$__crt_char_traits@_W@@SAIABQB_WABI@Z 10048e73 f i libucrt:input.obj
 0001:00047e91       ??$tcstoull@AAPB_WPAPA_WH@?$__crt_char_traits@_W@@SA_KAAPB_W$$QAPAPA_W$$QAH@Z 10048e91 f i libucrt:input.obj
 0001:00047eb6       ??$tcstoull@PBDPAPADH@?$__crt_char_traits@D@@SA_K$$QAPBD$$QAPAPAD$$QAH@Z 10048eb6 f i libucrt:input.obj
 0001:00047edb       ??$ungettc_nolock@ABGPAU_iobuf@@@?$__crt_char_traits@_W@@SAGABG$$QAPAU_iobuf@@@Z 10048edb f i libucrt:input.obj
 0001:00047efb       ??$ungettc_nolock@ABHPAU_iobuf@@@?$__crt_char_traits@D@@SAHABH$$QAPAU_iobuf@@@Z 10048efb f i libucrt:input.obj
 0001:00047f19       ??$write_floating_point@M@?$input_processor@DV?$stream_input_adapter@D@__crt_stdio_input@@@__crt_stdio_input@@AAE_NABM@Z 10048f19 f i libucrt:input.obj
 0001:00047f5a       ??$write_floating_point@M@?$input_processor@DV?$string_input_adapter@D@__crt_stdio_input@@@__crt_stdio_input@@AAE_NABM@Z 10048f5a f i libucrt:input.obj
 0001:00047f9b       ??$write_floating_point@M@?$input_processor@_WV?$stream_input_adapter@_W@__crt_stdio_input@@@__crt_stdio_input@@AAE_NABM@Z 10048f9b f i libucrt:input.obj
 0001:00047fdc       ??$write_floating_point@M@?$input_processor@_WV?$string_input_adapter@_W@__crt_stdio_input@@@__crt_stdio_input@@AAE_NABM@Z 10048fdc f i libucrt:input.obj
 0001:0004801d       ??$write_floating_point@N@?$input_processor@DV?$stream_input_adapter@D@__crt_stdio_input@@@__crt_stdio_input@@AAE_NABN@Z 1004901d f i libucrt:input.obj
 0001:00048065       ??$write_floating_point@N@?$input_processor@DV?$string_input_adapter@D@__crt_stdio_input@@@__crt_stdio_input@@AAE_NABN@Z 10049065 f i libucrt:input.obj
 0001:000480ad       ??$write_floating_point@N@?$input_processor@_WV?$stream_input_adapter@_W@__crt_stdio_input@@@__crt_stdio_input@@AAE_NABN@Z 100490ad f i libucrt:input.obj
 0001:000480f5       ??$write_floating_point@N@?$input_processor@_WV?$string_input_adapter@_W@__crt_stdio_input@@@__crt_stdio_input@@AAE_NABN@Z 100490f5 f i libucrt:input.obj
 0001:0004839d       ??0?$__crt_unique_heap_ptr@EU__crt_internal_free_policy@@@@QAE@QAE@Z 1004939d f i libucrt:input.obj
 0001:000483b1       ??0?$format_string_parser@D@__crt_stdio_input@@QAE@_KQBE@Z 100493b1 f i libucrt:input.obj
 0001:0004840d       ??0?$format_string_parser@_W@__crt_stdio_input@@QAE@_KQB_W@Z 1004940d f i libucrt:input.obj
 0001:0004845a       ??0?$input_adapter_character_source@V?$stream_input_adapter@D@__crt_stdio_input@@@__crt_strtox@@QAE@QAV?$stream_input_adapter@D@__crt_stdio_input@@_KQA_N@Z 1004945a f i libucrt:input.obj
 0001:00048497       ??0?$input_adapter_character_source@V?$stream_input_adapter@_W@__crt_stdio_input@@@__crt_strtox@@QAE@QAV?$stream_input_adapter@_W@__crt_stdio_input@@_KQA_N@Z 10049497 f i libucrt:input.obj
 0001:000484d4       ??0?$input_adapter_character_source@V?$string_input_adapter@D@__crt_stdio_input@@@__crt_strtox@@QAE@QAV?$string_input_adapter@D@__crt_stdio_input@@_KQA_N@Z 100494d4 f i libucrt:input.obj
 0001:00048511       ??0?$input_adapter_character_source@V?$string_input_adapter@_W@__crt_stdio_input@@@__crt_strtox@@QAE@QAV?$string_input_adapter@_W@__crt_stdio_input@@_KQA_N@Z 10049511 f i libucrt:input.obj
 0001:0004854e       ??0?$input_processor@DV?$stream_input_adapter@D@__crt_stdio_input@@@__crt_stdio_input@@QAE@ABV?$stream_input_adapter@D@1@_KQBDQAU__crt_locale_pointers@@QAD@Z 1004954e f i libucrt:input.obj
 0001:000485a9       ??0?$input_processor@DV?$string_input_adapter@D@__crt_stdio_input@@@__crt_stdio_input@@QAE@ABV?$string_input_adapter@D@1@_KQBDQAU__crt_locale_pointers@@QAD@Z 100495a9 f i libucrt:input.obj
 0001:000485fe       ??0?$input_processor@_WV?$stream_input_adapter@_W@__crt_stdio_input@@@__crt_stdio_input@@QAE@ABV?$stream_input_adapter@_W@1@_KQB_WQAU__crt_locale_pointers@@QAD@Z 100495fe f i libucrt:input.obj
 0001:00048659       ??0?$input_processor@_WV?$string_input_adapter@_W@__crt_stdio_input@@@__crt_stdio_input@@QAE@ABV?$string_input_adapter@_W@1@_KQB_WQAU__crt_locale_pointers@@QAD@Z 10049659 f i libucrt:input.obj
 0001:000486ae       ??0?$scanset_buffer@E@__crt_stdio_input@@QAE@XZ 100496ae f i libucrt:input.obj
 0001:000486c4       ??0?$scanset_buffer@_W@__crt_stdio_input@@QAE@XZ 100496c4 f i libucrt:input.obj
 0001:000486ca       ??0?$scanset_storage@$00@__crt_stdio_input@@QAE@XZ 100496ca f i libucrt:input.obj
 0001:000486e0       ??0?$scanset_storage@$01@__crt_stdio_input@@QAE@XZ 100496e0 f i libucrt:input.obj
 0001:000486e6       ??0?$stream_input_adapter@D@__crt_stdio_input@@QAE@QAU_iobuf@@@Z 100496e6 f i libucrt:input.obj
 0001:000486ff       ??0?$stream_input_adapter@_W@__crt_stdio_input@@QAE@QAU_iobuf@@@Z 100496ff f i libucrt:input.obj
 0001:00048718       ??0?$string_input_adapter@D@__crt_stdio_input@@QAE@QBDI@Z 10049718 f i libucrt:input.obj
 0001:00048739       ??0?$string_input_adapter@_W@__crt_stdio_input@@QAE@QB_WI@Z 10049739 f i libucrt:input.obj
 0001:00048760       ??0big_integer@__crt_strtox@@QAE@ABU01@@Z 10049760 f i libucrt:input.obj
 0001:000487a0       ??0big_integer@__crt_strtox@@QAE@XZ 100497a0 f i libucrt:input.obj
 0001:000487ab       ??0floating_point_value@__crt_strtox@@QAE@QAM@Z 100497ab f i libucrt:input.obj
 0001:000487c4       ??0floating_point_value@__crt_strtox@@QAE@QAN@Z 100497c4 f i libucrt:input.obj
 0001:000487dd       ??1?$__crt_unique_heap_ptr@EU__crt_internal_free_policy@@@@QAE@XZ 100497dd f i libucrt:input.obj
 0001:000487f3       ??1?$format_string_parser@_W@__crt_stdio_input@@QAE@XZ 100497f3 f i libucrt:input.obj
 0001:0004880c       ??1?$input_adapter_character_source@V?$stream_input_adapter@D@__crt_stdio_input@@@__crt_strtox@@QAE@XZ 1004980c f i libucrt:input.obj
 0001:00048822       ??1?$input_adapter_character_source@V?$stream_input_adapter@_W@__crt_stdio_input@@@__crt_strtox@@QAE@XZ 10049822 f i libucrt:input.obj
 0001:00048838       ??1?$input_adapter_character_source@V?$string_input_adapter@D@__crt_stdio_input@@@__crt_strtox@@QAE@XZ 10049838 f i libucrt:input.obj
 0001:0004884e       ??1?$input_adapter_character_source@V?$string_input_adapter@_W@__crt_stdio_input@@@__crt_strtox@@QAE@XZ 1004984e f i libucrt:input.obj
 0001:00048864       ??1?$input_processor@_WV?$stream_input_adapter@_W@__crt_stdio_input@@@__crt_stdio_input@@QAE@XZ 10049864 f i libucrt:input.obj
 0001:0004887d       ??1?$input_processor@_WV?$string_input_adapter@_W@__crt_stdio_input@@@__crt_stdio_input@@QAE@XZ 1004987d f i libucrt:input.obj
 0001:00048896       ??1?$scanset_buffer@_W@__crt_stdio_input@@QAE@XZ 10049896 f i libucrt:input.obj
 0001:000488ac       ??1?$scanset_storage@$01@__crt_stdio_input@@QAE@XZ 100498ac f i libucrt:input.obj
 0001:000488c2       ??4?$__crt_unique_heap_ptr@EU__crt_internal_free_policy@@@@QAEAAV0@$$QAV0@@Z 100498c2 f i libucrt:input.obj
 0001:000488f0       ??4big_integer@__crt_strtox@@QAEAAU01@ABU01@@Z 100498f0 f i libucrt:input.obj
 0001:0004892d       ??B?$__crt_unique_heap_ptr@EU__crt_internal_free_policy@@@@QBE_NXZ 1004992d f i libucrt:input.obj
 0001:00048940       ??M__crt_strtox@@YA_NABUbig_integer@0@0@Z 10049940 f i libucrt:input.obj
 0001:00048d97       ?accumulate_decimal_digits_into_big_integer@__crt_strtox@@YAXQBE0AAUbig_integer@1@@Z 10049d97 f i libucrt:input.obj
 0001:00049550       ?add@__crt_strtox@@YA_NAAUbig_integer@1@I@Z 1004a550 f i libucrt:input.obj
 0001:000495f0       ?add_carry@__crt_strtox@@YAIAAIII@Z 1004a5f0 f i libucrt:input.obj
 0001:00049620       ?add_multiply_carry@__crt_strtox@@YAIAAIIII@Z 1004a620 f i libucrt:input.obj
 0001:0004964d       ?advance@?$format_string_parser@D@__crt_stdio_input@@QAE_NXZ 1004a64d f i libucrt:input.obj
 0001:000497bb       ?advance@?$format_string_parser@_W@__crt_stdio_input@@QAE_NXZ 1004a7bb f i libucrt:input.obj
 0001:00049907       ?as_double@floating_point_value@__crt_strtox@@QBEAANXZ 1004a907 f i libucrt:input.obj
 0001:00049935       ?as_float@floating_point_value@__crt_strtox@@QBEAAMXZ 1004a935 f i libucrt:input.obj
 0001:00049963       ?assemble_floating_point_infinity@__crt_strtox@@YAX_NABVfloating_point_value@1@@Z 1004a963 f i libucrt:input.obj
 0001:000499b6       ?assemble_floating_point_value@__crt_strtox@@YA?AW4SLD_STATUS@@_KH_N1ABVfloating_point_value@1@@Z 1004a9b6 f i libucrt:input.obj
 0001:00049dcd       ?assemble_floating_point_value_from_big_integer@__crt_strtox@@YA?AW4SLD_STATUS@@ABUbig_integer@1@I_N1ABVfloating_point_value@1@@Z 1004adcd f i libucrt:input.obj
 0001:00049fc8       ?assemble_floating_point_zero@__crt_strtox@@YAX_NABVfloating_point_value@1@@Z 1004afc8 f i libucrt:input.obj
 0001:0004a010       ?bit_scan_reverse@__crt_strtox@@YAIABUbig_integer@1@@Z 1004b010 f i libucrt:input.obj
 0001:0004a060       ?bit_scan_reverse@__crt_strtox@@YAII@Z 1004b060 f i libucrt:input.obj
 0001:0004a090       ?bit_scan_reverse@__crt_strtox@@YAI_K@Z 1004b090 f i libucrt:input.obj
 0001:0004a0e8       ?characters_read@?$stream_input_adapter@D@__crt_stdio_input@@QBEIXZ 1004b0e8 f i libucrt:input.obj
 0001:0004a0ec       ?characters_read@?$stream_input_adapter@_W@__crt_stdio_input@@QBEIXZ 1004b0ec f i libucrt:input.obj
 0001:0004a0f0       ?characters_read@?$string_input_adapter@D@__crt_stdio_input@@QBEIXZ 1004b0f0 f i libucrt:input.obj
 0001:0004a0f6       ?characters_read@?$string_input_adapter@_W@__crt_stdio_input@@QBEIXZ 1004b0f6 f i libucrt:input.obj
 0001:0004a100       ?convert_decimal_string_to_floating_type_common@__crt_strtox@@YA?AW4SLD_STATUS@@ABUfloating_point_string@1@ABVfloating_point_value@1@@Z 1004b100 f i libucrt:input.obj
 0001:0004c5d2       ?convert_hexadecimal_string_to_floating_type_common@__crt_strtox@@YA?AW4SLD_STATUS@@ABUfloating_point_string@1@ABVfloating_point_value@1@@Z 1004d5d2 f i libucrt:input.obj
 0001:0004c6b0       ?count_sequential_high_zeroes@__crt_strtox@@YAII@Z 1004d6b0 f i libucrt:input.obj
 0001:0004c6d1       ?data@?$scanset_storage@$00@__crt_stdio_input@@QBEPAEXZ 1004d6d1 f i libucrt:input.obj
 0001:0004c6d4       ?data@?$scanset_storage@$01@__crt_stdio_input@@QBEPAEXZ 1004d6d4 f i libucrt:input.obj
 0001:0004c71d       ?denormal_mantissa_mask@floating_point_value@__crt_strtox@@QBE_KXZ 1004d71d f i libucrt:input.obj
 0001:0004c740       ?divide@__crt_strtox@@YA_KAAUbig_integer@1@ABU21@@Z 1004d740 f i libucrt:input.obj
 0001:0004ccf0       ?error_code@?$format_string_parser@D@__crt_stdio_input@@QBEHXZ 1004dcf0 f i libucrt:input.obj
 0001:0004ccf4       ?error_code@?$format_string_parser@_W@__crt_stdio_input@@QBEHXZ 1004dcf4 f i libucrt:input.obj
 0001:0004ccf8       ?exponent_bias@floating_point_value@__crt_strtox@@QBEHXZ 1004dcf8 f i libucrt:input.obj
 0001:0004cd0e       ?get@?$__crt_unique_heap_ptr@EU__crt_internal_free_policy@@@@QBEPAEXZ 1004dd0e f i libucrt:input.obj
 0001:0004cd11       ?get@?$input_adapter_character_source@V?$stream_input_adapter@D@__crt_stdio_input@@@__crt_strtox@@QAEDXZ 1004dd11 f i libucrt:input.obj
 0001:0004cd5f       ?get@?$input_adapter_character_source@V?$stream_input_adapter@_W@__crt_stdio_input@@@__crt_strtox@@QAE_WXZ 1004dd5f f i libucrt:input.obj
 0001:0004cdad       ?get@?$input_adapter_character_source@V?$string_input_adapter@D@__crt_stdio_input@@@__crt_strtox@@QAEDXZ 1004ddad f i libucrt:input.obj
 0001:0004cdfd       ?get@?$input_adapter_character_source@V?$string_input_adapter@_W@__crt_stdio_input@@@__crt_strtox@@QAE_WXZ 1004ddfd f i libucrt:input.obj
 0001:0004ce4b       ?get@?$stream_input_adapter@D@__crt_stdio_input@@QAEHXZ 1004de4b f i libucrt:input.obj
 0001:0004ce67       ?get@?$stream_input_adapter@_W@__crt_stdio_input@@QAEGXZ 1004de67 f i libucrt:input.obj
 0001:0004ce8d       ?get@?$string_input_adapter@D@__crt_stdio_input@@QAEHXZ 1004de8d f i libucrt:input.obj
 0001:0004cea8       ?get@?$string_input_adapter@_W@__crt_stdio_input@@QAEGXZ 1004dea8 f i libucrt:input.obj
 0001:0004cec8       ?invert@?$scanset_buffer@E@__crt_stdio_input@@QAEXXZ 1004dec8 f i libucrt:input.obj
 0001:0004ceed       ?invert@?$scanset_buffer@_W@__crt_stdio_input@@QAEXXZ 1004deed f i libucrt:input.obj
 0001:0004cf26       ?is_character_allowed_in_string@?$input_processor@DV?$stream_input_adapter@D@__crt_stdio_input@@@__crt_stdio_input@@ABE_NW4conversion_mode@2@H@Z 1004df26 f i libucrt:input.obj
 0001:0004cf8f       ?is_character_allowed_in_string@?$input_processor@DV?$string_input_adapter@D@__crt_stdio_input@@@__crt_stdio_input@@ABE_NW4conversion_mode@2@H@Z 1004df8f f i libucrt:input.obj
 0001:0004cff8       ?is_character_allowed_in_string@?$input_processor@_WV?$stream_input_adapter@_W@__crt_stdio_input@@@__crt_stdio_input@@ABE_NW4conversion_mode@2@G@Z 1004dff8 f i libucrt:input.obj
 0001:0004d058       ?is_character_allowed_in_string@?$input_processor@_WV?$string_input_adapter@_W@__crt_stdio_input@@@__crt_stdio_input@@ABE_NW4conversion_mode@2@G@Z 1004e058 f i libucrt:input.obj
 0001:0004d0b8       ?is_digit_or_nondigit@__crt_strtox@@YA_NH@Z 1004e0b8 f i libucrt:input.obj
 0001:0004d0ef       ?is_double@floating_point_value@__crt_strtox@@QBE_NXZ 1004e0ef f i libucrt:input.obj
 0001:0004d0f3       ?is_length_valid@__crt_stdio_input@@YA_NW4conversion_mode@1@W4length_modifier@1@@Z 1004e0f3 f i libucrt:input.obj
 0001:0004d112       ?is_space@__crt_strtox@@YA_NDQAU__crt_locale_pointers@@@Z 1004e112 f i libucrt:input.obj
 0001:0004d137       ?is_space@__crt_strtox@@YA_N_WPAU__crt_locale_pointers@@@Z 1004e137 f i libucrt:input.obj
 0001:0004d155       ?is_usable@?$scanset_buffer@E@__crt_stdio_input@@QAE_NXZ 1004e155 f i libucrt:input.obj
 0001:0004d15b       ?is_usable@?$scanset_buffer@_W@__crt_stdio_input@@QAE_NXZ 1004e15b f i libucrt:input.obj
 0001:0004d168       ?is_valid@?$__crt_unique_heap_ptr@EU__crt_internal_free_policy@@@@QBE_NXZ 1004e168 f i libucrt:input.obj
 0001:0004d16f       ?kind@?$format_string_parser@D@__crt_stdio_input@@QBE?AW4format_directive_kind@2@XZ 1004e16f f i libucrt:input.obj
 0001:0004d173       ?kind@?$format_string_parser@_W@__crt_stdio_input@@QBE?AW4format_directive_kind@2@XZ 1004e173 f i libucrt:input.obj
 0001:0004d177       ?length@?$format_string_parser@D@__crt_stdio_input@@QBEIXZ 1004e177 f i libucrt:input.obj
 0001:0004d1c8       ?length@?$format_string_parser@_W@__crt_stdio_input@@QBEIXZ 1004e1c8 f i libucrt:input.obj
 0001:0004d219       ?literal_character_lead@?$format_string_parser@D@__crt_stdio_input@@QBEEXZ 1004e219 f i libucrt:input.obj
 0001:0004d21d       ?literal_character_lead@?$format_string_parser@_W@__crt_stdio_input@@QBE_WXZ 1004e21d f i libucrt:input.obj
 0001:0004d222       ?literal_character_trail@?$format_string_parser@D@__crt_stdio_input@@QBEEXZ 1004e222 f i libucrt:input.obj
 0001:0004d230       ?make_big_integer@__crt_strtox@@YA?AUbig_integer@1@_K@Z 1004e230 f i libucrt:input.obj
 0001:0004d258       ?mantissa_bits@floating_point_value@__crt_strtox@@QBEHXZ 1004e258 f i libucrt:input.obj
 0001:0004d26c       ?maximum_binary_exponent@floating_point_value@__crt_strtox@@QBEHXZ 1004e26c f i libucrt:input.obj
 0001:0004d282       ?maximum_signed_value@__crt_strtox@@YA_J_K@Z 1004e282 f i libucrt:input.obj
 0001:0004d28d       ?minimum_binary_exponent@floating_point_value@__crt_strtox@@QBEHXZ 1004e28d f i libucrt:input.obj
 0001:0004d2a3       ?minimum_signed_value@__crt_strtox@@YA_J_K@Z 1004e2a3 f i libucrt:input.obj
 0001:0004d2ad       ?mode@?$format_string_parser@D@__crt_stdio_input@@QBE?AW4conversion_mode@2@XZ 1004e2ad f i libucrt:input.obj
 0001:0004d2b1       ?mode@?$format_string_parser@_W@__crt_stdio_input@@QBE?AW4conversion_mode@2@XZ 1004e2b1 f i libucrt:input.obj
 0001:0004d2c0       ?multiply@__crt_strtox@@YA_NAAUbig_integer@1@ABU21@@Z 1004e2c0 f i libucrt:input.obj
 0001:0004d6d0       ?multiply@__crt_strtox@@YA_NAAUbig_integer@1@I@Z 1004e6d0 f i libucrt:input.obj
 0001:0004d7d0       ?multiply_64_32@__crt_strtox@@YA_K_KI@Z 1004e7d0 f i libucrt:input.obj
 0001:0004d7f0       ?multiply_by_power_of_ten@__crt_strtox@@YA_NAAUbig_integer@1@I@Z 1004e7f0 f i libucrt:input.obj
 0001:0004de60       ?multiply_core@__crt_strtox@@YAIQAIII@Z 1004ee60 f i libucrt:input.obj
 0001:0004dead       ?normal_mantissa_mask@floating_point_value@__crt_strtox@@QBE_KXZ 1004eead f i libucrt:input.obj
 0001:0004dec9       ?parse_digit@__crt_strtox@@YAID@Z 1004eec9 f i libucrt:input.obj
 0001:0004df11       ?parse_digit@__crt_strtox@@YAI_W@Z 1004ef11 f i libucrt:input.obj
 0001:0004e182       ?process@?$input_processor@DV?$stream_input_adapter@D@__crt_stdio_input@@@__crt_stdio_input@@QAEHXZ 1004f182 f i libucrt:input.obj
 0001:0004e236       ?process@?$input_processor@DV?$string_input_adapter@D@__crt_stdio_input@@@__crt_stdio_input@@QAEHXZ 1004f236 f i libucrt:input.obj
 0001:0004e2e1       ?process@?$input_processor@_WV?$stream_input_adapter@_W@__crt_stdio_input@@@__crt_stdio_input@@QAEHXZ 1004f2e1 f i libucrt:input.obj
 0001:0004e397       ?process@?$input_processor@_WV?$string_input_adapter@_W@__crt_stdio_input@@@__crt_stdio_input@@QAEHXZ 1004f397 f i libucrt:input.obj
 0001:0004e44d       ?process_character_count_specifier@?$input_processor@DV?$stream_input_adapter@D@__crt_stdio_input@@@__crt_stdio_input@@AAE_NXZ 1004f44d f i libucrt:input.obj
 0001:0004e466       ?process_character_count_specifier@?$input_processor@DV?$string_input_adapter@D@__crt_stdio_input@@@__crt_stdio_input@@AAE_NXZ 1004f466 f i libucrt:input.obj
 0001:0004e484       ?process_character_count_specifier@?$input_processor@_WV?$stream_input_adapter@_W@__crt_stdio_input@@@__crt_stdio_input@@AAE_NXZ 1004f484 f i libucrt:input.obj
 0001:0004e49d       ?process_character_count_specifier@?$input_processor@_WV?$string_input_adapter@_W@__crt_stdio_input@@@__crt_stdio_input@@AAE_NXZ 1004f49d f i libucrt:input.obj
 0001:0004e4bd       ?process_conversion_specifier@?$input_processor@DV?$stream_input_adapter@D@__crt_stdio_input@@@__crt_stdio_input@@AAE_NXZ 1004f4bd f i libucrt:input.obj
 0001:0004e54e       ?process_conversion_specifier@?$input_processor@DV?$string_input_adapter@D@__crt_stdio_input@@@__crt_stdio_input@@AAE_NXZ 1004f54e f i libucrt:input.obj
 0001:0004e5df       ?process_conversion_specifier@?$input_processor@_WV?$stream_input_adapter@_W@__crt_stdio_input@@@__crt_stdio_input@@AAE_NXZ 1004f5df f i libucrt:input.obj
 0001:0004e670       ?process_conversion_specifier@?$input_processor@_WV?$string_input_adapter@_W@__crt_stdio_input@@@__crt_stdio_input@@AAE_NXZ 1004f670 f i libucrt:input.obj
 0001:0004e701       ?process_floating_point_specifier@?$input_processor@DV?$stream_input_adapter@D@__crt_stdio_input@@@__crt_stdio_input@@AAE_NXZ 1004f701 f i libucrt:input.obj
 0001:0004e73d       ?process_floating_point_specifier@?$input_processor@DV?$string_input_adapter@D@__crt_stdio_input@@@__crt_stdio_input@@AAE_NXZ 1004f73d f i libucrt:input.obj
 0001:0004e779       ?process_floating_point_specifier@?$input_processor@_WV?$stream_input_adapter@_W@__crt_stdio_input@@@__crt_stdio_input@@AAE_NXZ 1004f779 f i libucrt:input.obj
 0001:0004e7b5       ?process_floating_point_specifier@?$input_processor@_WV?$string_input_adapter@_W@__crt_stdio_input@@@__crt_stdio_input@@AAE_NXZ 1004f7b5 f i libucrt:input.obj
 0001:0004e7f1       ?process_integer_specifier@?$input_processor@DV?$stream_input_adapter@D@__crt_stdio_input@@@__crt_stdio_input@@AAE_NI_N@Z 1004f7f1 f i libucrt:input.obj
 0001:0004e86e       ?process_integer_specifier@?$input_processor@DV?$string_input_adapter@D@__crt_stdio_input@@@__crt_stdio_input@@AAE_NI_N@Z 1004f86e f i libucrt:input.obj
 0001:0004e8eb       ?process_integer_specifier@?$input_processor@_WV?$stream_input_adapter@_W@__crt_stdio_input@@@__crt_stdio_input@@AAE_NI_N@Z 1004f8eb f i libucrt:input.obj
 0001:0004e968       ?process_integer_specifier@?$input_processor@_WV?$string_input_adapter@_W@__crt_stdio_input@@@__crt_stdio_input@@AAE_NI_N@Z 1004f968 f i libucrt:input.obj
 0001:0004e9e5       ?process_literal_character@?$input_processor@DV?$stream_input_adapter@D@__crt_stdio_input@@@__crt_stdio_input@@AAE_NXZ 1004f9e5 f i libucrt:input.obj
 0001:0004ea28       ?process_literal_character@?$input_processor@DV?$string_input_adapter@D@__crt_stdio_input@@@__crt_stdio_input@@AAE_NXZ 1004fa28 f i libucrt:input.obj
 0001:0004ea6b       ?process_literal_character@?$input_processor@_WV?$stream_input_adapter@_W@__crt_stdio_input@@@__crt_stdio_input@@AAE_NXZ 1004fa6b f i libucrt:input.obj
 0001:0004eaad       ?process_literal_character@?$input_processor@_WV?$string_input_adapter@_W@__crt_stdio_input@@@__crt_stdio_input@@AAE_NXZ 1004faad f i libucrt:input.obj
 0001:0004eaef       ?process_literal_character_tchar@?$input_processor@DV?$stream_input_adapter@D@__crt_stdio_input@@@__crt_stdio_input@@AAE_ND@Z 1004faef f i libucrt:input.obj
 0001:0004eb60       ?process_literal_character_tchar@?$input_processor@DV?$string_input_adapter@D@__crt_stdio_input@@@__crt_stdio_input@@AAE_ND@Z 1004fb60 f i libucrt:input.obj
 0001:0004ebc6       ?process_literal_character_tchar@?$input_processor@_WV?$stream_input_adapter@_W@__crt_stdio_input@@@__crt_stdio_input@@AAE_N_W@Z 1004fbc6 f i libucrt:input.obj
 0001:0004ebcb       ?process_literal_character_tchar@?$input_processor@_WV?$string_input_adapter@_W@__crt_stdio_input@@@__crt_stdio_input@@AAE_N_W@Z 1004fbcb f i libucrt:input.obj
 0001:0004ebd0       ?process_state@?$input_processor@DV?$stream_input_adapter@D@__crt_stdio_input@@@__crt_stdio_input@@AAE_NXZ 1004fbd0 f i libucrt:input.obj
 0001:0004ec22       ?process_state@?$input_processor@DV?$string_input_adapter@D@__crt_stdio_input@@@__crt_stdio_input@@AAE_NXZ 1004fc22 f i libucrt:input.obj
 0001:0004ec74       ?process_state@?$input_processor@_WV?$stream_input_adapter@_W@__crt_stdio_input@@@__crt_stdio_input@@AAE_NXZ 1004fc74 f i libucrt:input.obj
 0001:0004ecc6       ?process_state@?$input_processor@_WV?$string_input_adapter@_W@__crt_stdio_input@@@__crt_stdio_input@@AAE_NXZ 1004fcc6 f i libucrt:input.obj
 0001:0004ed18       ?process_string_specifier@?$input_processor@DV?$stream_input_adapter@D@__crt_stdio_input@@@__crt_stdio_input@@AAE_NW4conversion_mode@2@@Z 1004fd18 f i libucrt:input.obj
 0001:0004ed72       ?process_string_specifier@?$input_processor@DV?$string_input_adapter@D@__crt_stdio_input@@@__crt_stdio_input@@AAE_NW4conversion_mode@2@@Z 1004fd72 f i libucrt:input.obj
 0001:0004edcc       ?process_string_specifier@?$input_processor@_WV?$stream_input_adapter@_W@__crt_stdio_input@@@__crt_stdio_input@@AAE_NW4conversion_mode@2@@Z 1004fdcc f i libucrt:input.obj
 0001:0004ee26       ?process_string_specifier@?$input_processor@_WV?$string_input_adapter@_W@__crt_stdio_input@@@__crt_stdio_input@@AAE_NW4conversion_mode@2@@Z 1004fe26 f i libucrt:input.obj
 0001:0004ee80       ?process_whitespace@?$input_processor@DV?$stream_input_adapter@D@__crt_stdio_input@@@__crt_stdio_input@@AAE_NXZ 1004fe80 f i libucrt:input.obj
 0001:0004eea4       ?process_whitespace@?$input_processor@DV?$string_input_adapter@D@__crt_stdio_input@@@__crt_stdio_input@@AAE_NXZ 1004fea4 f i libucrt:input.obj
 0001:0004eec8       ?process_whitespace@?$input_processor@_WV?$stream_input_adapter@_W@__crt_stdio_input@@@__crt_stdio_input@@AAE_NXZ 1004fec8 f i libucrt:input.obj
 0001:0004eef0       ?process_whitespace@?$input_processor@_WV?$string_input_adapter@_W@__crt_stdio_input@@@__crt_stdio_input@@AAE_NXZ 1004fef0 f i libucrt:input.obj
 0001:0004ef18       ?release@?$__crt_unique_heap_ptr@EU__crt_internal_free_policy@@@@QAEXXZ 1004ff18 f i libucrt:input.obj
 0001:0004ef2e       ?reset@?$scanset_buffer@E@__crt_stdio_input@@QAEXXZ 1004ff2e f i libucrt:input.obj
 0001:0004ef44       ?reset@?$scanset_buffer@_W@__crt_stdio_input@@QAEXXZ 1004ff44 f i libucrt:input.obj
 0001:0004ef64       ?reset_token_state@?$format_string_parser@D@__crt_stdio_input@@AAEXXZ 1004ff64 f i libucrt:input.obj
 0001:0004ef87       ?reset_token_state@?$format_string_parser@_W@__crt_stdio_input@@AAEXXZ 1004ff87 f i libucrt:input.obj
 0001:0004efab       ?reset_token_state_for_error@?$format_string_parser@D@__crt_stdio_input@@AAEXH@Z 1004ffab f i libucrt:input.obj
 0001:0004efdf       ?reset_token_state_for_error@?$format_string_parser@_W@__crt_stdio_input@@AAEXH@Z 1004ffdf f i libucrt:input.obj
 0001:0004f014       ?restore_state@?$input_adapter_character_source@V?$stream_input_adapter@D@__crt_stdio_input@@@__crt_strtox@@QAE_N_K@Z 10050014 f i libucrt:input.obj
 0001:0004f042       ?restore_state@?$input_adapter_character_source@V?$stream_input_adapter@_W@__crt_stdio_input@@@__crt_strtox@@QAE_N_K@Z 10050042 f i libucrt:input.obj
 0001:0004f070       ?restore_state@?$input_adapter_character_source@V?$string_input_adapter@D@__crt_stdio_input@@@__crt_strtox@@QAE_N_K@Z 10050070 f i libucrt:input.obj
 0001:0004f09e       ?restore_state@?$input_adapter_character_source@V?$string_input_adapter@_W@__crt_stdio_input@@@__crt_strtox@@QAE_N_K@Z 1005009e f i libucrt:input.obj
 0001:0004f0cc       ?right_shift_with_rounding@__crt_strtox@@YA_K_N_KI0@Z 100500cc f i libucrt:input.obj
 0001:0004f1e7       ?save_state@?$input_adapter_character_source@V?$stream_input_adapter@D@__crt_stdio_input@@@__crt_strtox@@QBE_KXZ 100501e7 f i libucrt:input.obj
 0001:0004f1ee       ?save_state@?$input_adapter_character_source@V?$stream_input_adapter@_W@__crt_stdio_input@@@__crt_strtox@@QBE_KXZ 100501ee f i libucrt:input.obj
 0001:0004f1f5       ?save_state@?$input_adapter_character_source@V?$string_input_adapter@D@__crt_stdio_input@@@__crt_strtox@@QBE_KXZ 100501f5 f i libucrt:input.obj
 0001:0004f1fc       ?save_state@?$input_adapter_character_source@V?$string_input_adapter@_W@__crt_stdio_input@@@__crt_strtox@@QBE_KXZ 100501fc f i libucrt:input.obj
 0001:0004f203       ?scan_conversion_specifier@?$format_string_parser@D@__crt_stdio_input@@AAE_NXZ 10050203 f i libucrt:input.obj
 0001:0004f3cf       ?scan_conversion_specifier@?$format_string_parser@_W@__crt_stdio_input@@AAE_NXZ 100503cf f i libucrt:input.obj
 0001:0004f574       ?scan_optional_assignment_suppressor@?$format_string_parser@D@__crt_stdio_input@@AAEXXZ 10050574 f i libucrt:input.obj
 0001:0004f589       ?scan_optional_assignment_suppressor@?$format_string_parser@_W@__crt_stdio_input@@AAEXXZ 10050589 f i libucrt:input.obj
 0001:0004f5a2       ?scan_optional_field_width@?$format_string_parser@D@__crt_stdio_input@@AAE_NXZ 100505a2 f i libucrt:input.obj
 0001:0004f668       ?scan_optional_field_width@?$format_string_parser@_W@__crt_stdio_input@@AAE_NXZ 10050668 f i libucrt:input.obj
 0001:0004f931       ?scan_optional_length_modifier@?$format_string_parser@D@__crt_stdio_input@@AAEXXZ 10050931 f i libucrt:input.obj
 0001:0004fa8f       ?scan_optional_length_modifier@?$format_string_parser@_W@__crt_stdio_input@@AAEXXZ 10050a8f f i libucrt:input.obj
 0001:0004fc0e       ?scan_optional_literal_character_trail_bytes_tchar@?$format_string_parser@D@__crt_stdio_input@@AAE_ND@Z 10050c0e f i libucrt:input.obj
 0001:0004fc74       ?scan_optional_literal_character_trail_bytes_tchar@?$format_string_parser@_W@__crt_stdio_input@@AAE_N_W@Z 10050c74 f i libucrt:input.obj
 0001:0004fc79       ?scan_optional_wide_modifier@?$format_string_parser@D@__crt_stdio_input@@AAEXXZ 10050c79 f i libucrt:input.obj
 0001:0004fc9e       ?scan_optional_wide_modifier@?$format_string_parser@_W@__crt_stdio_input@@AAEXXZ 10050c9e f i libucrt:input.obj
 0001:0004fcd2       ?scan_scanset_range@?$format_string_parser@D@__crt_stdio_input@@AAE_NXZ 10050cd2 f i libucrt:input.obj
 0001:0004fe4b       ?scan_scanset_range@?$format_string_parser@_W@__crt_stdio_input@@AAE_NXZ 10050e4b f i libucrt:input.obj
 0001:0004ffe1       ?scanset@?$format_string_parser@D@__crt_stdio_input@@QBEABV?$scanset_buffer@E@2@XZ 10050fe1 f i libucrt:input.obj
 0001:0004ffe5       ?scanset@?$format_string_parser@_W@__crt_stdio_input@@QBEABV?$scanset_buffer@_W@2@XZ 10050fe5 f i libucrt:input.obj
 0001:0004ffe9       ?secure_buffers@?$input_processor@DV?$stream_input_adapter@D@__crt_stdio_input@@@__crt_stdio_input@@ABE_NXZ 10050fe9 f i libucrt:input.obj
 0001:0004fffe       ?secure_buffers@?$input_processor@DV?$string_input_adapter@D@__crt_stdio_input@@@__crt_stdio_input@@ABE_NXZ 10050ffe f i libucrt:input.obj
 0001:00050013       ?secure_buffers@?$input_processor@_WV?$stream_input_adapter@_W@__crt_stdio_input@@@__crt_stdio_input@@ABE_NXZ 10051013 f i libucrt:input.obj
 0001:00050028       ?secure_buffers@?$input_processor@_WV?$string_input_adapter@_W@__crt_stdio_input@@@__crt_stdio_input@@ABE_NXZ 10051028 f i libucrt:input.obj
 0001:0005003d       ?set@?$scanset_buffer@E@__crt_stdio_input@@QAEXE@Z 1005103d f i libucrt:input.obj
 0001:00050066       ?set@?$scanset_buffer@_W@__crt_stdio_input@@QAEX_W@Z 10051066 f i libucrt:input.obj
 0001:00050095       ?set_wide_for_c_s_or_scanset@?$format_string_parser@D@__crt_stdio_input@@AAEXXZ 10051095 f i libucrt:input.obj
 0001:000500bd       ?set_wide_for_c_s_or_scanset@?$format_string_parser@_W@__crt_stdio_input@@AAEXXZ 100510bd f i libucrt:input.obj
 0001:000500f0       ?shift_left@__crt_strtox@@YA_NAAUbig_integer@1@I@Z 100510f0 f i libucrt:input.obj
 0001:0005029b       ?should_default_to_wide@?$format_string_parser@D@__crt_stdio_input@@AAE_NE@Z 1005129b f i libucrt:input.obj
 0001:000502bb       ?should_default_to_wide@?$format_string_parser@_W@__crt_stdio_input@@AAE_N_W@Z 100512bb f i libucrt:input.obj
 0001:000502fc       ?should_round_up@__crt_strtox@@YA_N_N000@Z 100512fc f i libucrt:input.obj
 0001:0005035c       ?size@?$scanset_storage@$00@__crt_stdio_input@@QBEIXZ 1005135c f i libucrt:input.obj
 0001:00050360       ?size@?$scanset_storage@$01@__crt_stdio_input@@QBEIXZ 10051360 f i libucrt:input.obj
 0001:00050366       ?suppress_assignment@?$format_string_parser@D@__crt_stdio_input@@QBE_NXZ 10051366 f i libucrt:input.obj
 0001:0005036a       ?suppress_assignment@?$format_string_parser@_W@__crt_stdio_input@@QBE_NXZ 1005136a f i libucrt:input.obj
 0001:0005036e       ?test@?$scanset_buffer@E@__crt_stdio_input@@QBE_NE@Z 1005136e f i libucrt:input.obj
 0001:0005039b       ?test@?$scanset_buffer@_W@__crt_stdio_input@@QBE_N_W@Z 1005139b f i libucrt:input.obj
 0001:000503d0       ?to_floating_point_length@__crt_stdio_input@@YAIW4length_modifier@1@@Z 100513d0 f i libucrt:input.obj
 0001:000503fb       ?to_integer_length@__crt_stdio_input@@YAIW4length_modifier@1@@Z 100513fb f i libucrt:input.obj
 0001:00050469       ?unget@?$input_adapter_character_source@V?$stream_input_adapter@D@__crt_stdio_input@@@__crt_strtox@@QAEXD@Z 10051469 f i libucrt:input.obj
 0001:000504c1       ?unget@?$input_adapter_character_source@V?$stream_input_adapter@_W@__crt_stdio_input@@@__crt_strtox@@QAEX_W@Z 100514c1 f i libucrt:input.obj
 0001:0005051e       ?unget@?$input_adapter_character_source@V?$string_input_adapter@D@__crt_stdio_input@@@__crt_strtox@@QAEXD@Z 1005151e f i libucrt:input.obj
 0001:00050576       ?unget@?$input_adapter_character_source@V?$string_input_adapter@_W@__crt_stdio_input@@@__crt_strtox@@QAEX_W@Z 10051576 f i libucrt:input.obj
 0001:000505d3       ?unget@?$stream_input_adapter@D@__crt_stdio_input@@QAEXH@Z 100515d3 f i libucrt:input.obj
 0001:000505f8       ?unget@?$stream_input_adapter@_W@__crt_stdio_input@@QAEXG@Z 100515f8 f i libucrt:input.obj
 0001:00050623       ?unget@?$string_input_adapter@D@__crt_stdio_input@@QAEXH@Z 10051623 f i libucrt:input.obj
 0001:00050649       ?unget@?$string_input_adapter@_W@__crt_stdio_input@@QAEXG@Z 10051649 f i libucrt:input.obj
 0001:00050678       ?validate@?$format_string_parser@D@__crt_stdio_input@@QBE_NXZ 10051678 f i libucrt:input.obj
 0001:0005069b       ?validate@?$format_string_parser@_W@__crt_stdio_input@@QBE_NXZ 1005169b f i libucrt:input.obj
 0001:000506be       ?validate@?$input_adapter_character_source@V?$stream_input_adapter@D@__crt_stdio_input@@@__crt_strtox@@QBE_NXZ 100516be f i libucrt:input.obj
 0001:000506e7       ?validate@?$input_adapter_character_source@V?$stream_input_adapter@_W@__crt_stdio_input@@@__crt_strtox@@QBE_NXZ 100516e7 f i libucrt:input.obj
 0001:00050710       ?validate@?$input_adapter_character_source@V?$string_input_adapter@D@__crt_stdio_input@@@__crt_strtox@@QBE_NXZ 10051710 f i libucrt:input.obj
 0001:00050739       ?validate@?$input_adapter_character_source@V?$string_input_adapter@_W@__crt_stdio_input@@@__crt_strtox@@QBE_NXZ 10051739 f i libucrt:input.obj
 0001:00050762       ?validate@?$stream_input_adapter@D@__crt_stdio_input@@QBE_NXZ 10051762 f i libucrt:input.obj
 0001:0005078b       ?validate@?$stream_input_adapter@_W@__crt_stdio_input@@QBE_NXZ 1005178b f i libucrt:input.obj
 0001:000507ac       ?validate@?$string_input_adapter@D@__crt_stdio_input@@QAE_NXZ 100517ac f i libucrt:input.obj
 0001:000507d6       ?validate@?$string_input_adapter@_W@__crt_stdio_input@@QAE_NXZ 100517d6 f i libucrt:input.obj
 0001:00050800       ?wide_character_to_digit@__crt_strtox@@YAH_W@Z 10051800 f i libucrt:input.obj
 0001:00050a09       ?width@?$format_string_parser@D@__crt_stdio_input@@QBE_KXZ 10051a09 f i libucrt:input.obj
 0001:00050a10       ?width@?$format_string_parser@_W@__crt_stdio_input@@QBE_KXZ 10051a10 f i libucrt:input.obj
 0001:00050a17       ?write_character@?$input_processor@DV?$stream_input_adapter@D@__crt_stdio_input@@@__crt_stdio_input@@AAE_NQADIAAPADAAID@Z 10051a17 f i libucrt:input.obj
 0001:00050a3a       ?write_character@?$input_processor@DV?$stream_input_adapter@D@__crt_stdio_input@@@__crt_stdio_input@@AAE_NQA_WIAAPA_WAAID@Z 10051a3a f i libucrt:input.obj
 0001:00050ad0       ?write_character@?$input_processor@DV?$string_input_adapter@D@__crt_stdio_input@@@__crt_stdio_input@@AAE_NQADIAAPADAAID@Z 10051ad0 f i libucrt:input.obj
 0001:00050af3       ?write_character@?$input_processor@DV?$string_input_adapter@D@__crt_stdio_input@@@__crt_stdio_input@@AAE_NQA_WIAAPA_WAAID@Z 10051af3 f i libucrt:input.obj
 0001:00050b7d       ?write_character@?$input_processor@_WV?$stream_input_adapter@_W@__crt_stdio_input@@@__crt_stdio_input@@AAE_NQADIAAPADAAI_W@Z 10051b7d f i libucrt:input.obj
 0001:00050c27       ?write_character@?$input_processor@_WV?$stream_input_adapter@_W@__crt_stdio_input@@@__crt_stdio_input@@AAE_NQA_WIAAPA_WAAI_W@Z 10051c27 f i libucrt:input.obj
 0001:00050c4d       ?write_character@?$input_processor@_WV?$string_input_adapter@_W@__crt_stdio_input@@@__crt_stdio_input@@AAE_NQADIAAPADAAI_W@Z 10051c4d f i libucrt:input.obj
 0001:00050cf7       ?write_character@?$input_processor@_WV?$string_input_adapter@_W@__crt_stdio_input@@@__crt_stdio_input@@AAE_NQA_WIAAPA_WAAI_W@Z 10051cf7 f i libucrt:input.obj
 0001:00050d1d       ?write_integer@?$input_processor@DV?$stream_input_adapter@D@__crt_stdio_input@@@__crt_stdio_input@@AAE_N_K@Z 10051d1d f i libucrt:input.obj
 0001:00050da6       ?write_integer@?$input_processor@DV?$string_input_adapter@D@__crt_stdio_input@@@__crt_stdio_input@@AAE_N_K@Z 10051da6 f i libucrt:input.obj
 0001:00050e2f       ?write_integer@?$input_processor@_WV?$stream_input_adapter@_W@__crt_stdio_input@@@__crt_stdio_input@@AAE_N_K@Z 10051e2f f i libucrt:input.obj
 0001:00050eb8       ?write_integer@?$input_processor@_WV?$string_input_adapter@_W@__crt_stdio_input@@@__crt_stdio_input@@AAE_N_K@Z 10051eb8 f i libucrt:input.obj
 0001:00050f41       ___acrt_get_locale_data_prefix 10051f41 f i libucrt:input.obj
 0001:00050f50       ___stdio_common_vfscanf    10051f50 f   libucrt:input.obj
 0001:00050ff6       ___stdio_common_vfwscanf   10051ff6 f   libucrt:input.obj
 0001:0005109c       ___stdio_common_vsscanf    1005209c f   libucrt:input.obj
 0001:000510c9       ___stdio_common_vswscanf   100520c9 f   libucrt:input.obj
 0001:000510f6       __chvalidchk_l             100520f6 f i libucrt:input.obj
 0001:00051125       __invoke_watson_if_oneof   10052125 f i libucrt:input.obj
 0001:0005115d       __ischartype_l             1005215d f i libucrt:input.obj
 0001:0005123d       __errcode                  1005223d f   libucrt:fpexcept.obj
 0001:0005127e       __except1                  1005227e f   libucrt:fpexcept.obj
 0001:0005137f       __except2                  1005237f f   libucrt:fpexcept.obj
 0001:000514c8       __handle_exc               100524c8 f   libucrt:fpexcept.obj
 0001:00051730       __handle_qnan2             10052730 f   libucrt:fpexcept.obj
 0001:00051740       __raise_exc                10052740 f   libucrt:fpexcept.obj
 0001:0005176b       __raise_exc_ex             1005276b f   libucrt:fpexcept.obj
 0001:00051b1e       __raise_excf               10052b1e f   libucrt:fpexcept.obj
 0001:00051b49       __set_errno_from_matherr   10052b49 f   libucrt:fpexcept.obj
 0001:00051b83       __umatherr                 10052b83 f   libucrt:fpexcept.obj
 0001:00051c4d       __initterm                 10052c4d f   libucrt:initterm.obj
 0001:00051cc0       __initterm_e               10052cc0 f   libucrt:initterm.obj
 0001:00051d43       __seh_filter_dll           10052d43 f   libucrt:exception_filter.obj
 0001:00051d6b       __seh_filter_exe           10052d6b f   libucrt:exception_filter.obj
 0001:00051f2a       ??$?RPAD@__crt_internal_free_policy@@QBEXQBQAD@Z 10052f2a f i libucrt:argv_parsing.obj
 0001:00051f40       ??$?RPA_W@__crt_internal_free_policy@@QBEXQBQA_W@Z 10052f40 f i libucrt:argv_parsing.obj
 0001:00052259       ??$get_module_file_name@$$TAAY0BAF@DH@?$__crt_char_traits@D@@SAK$$QA$$TAAY0BAF@D$$QAH@Z 10053259 f i libucrt:argv_parsing.obj
 0001:0005227c       ??$get_module_file_name@$$TAAY0BAF@_WH@?$__crt_char_traits@_W@@SAK$$QA$$TAAY0BAF@_W$$QAH@Z 1005327c f i libucrt:argv_parsing.obj
 0001:0005266f       ??$set_program_name@PAD@?$__crt_char_traits@D@@SAX$$QAPAD@Z 1005366f f i libucrt:argv_parsing.obj
 0001:00052684       ??$set_program_name@PA_W@?$__crt_char_traits@_W@@SAX$$QAPA_W@Z 10053684 f i libucrt:argv_parsing.obj
 0001:000526c1       ??0?$__crt_unique_heap_ptr@PADU__crt_internal_free_policy@@@@QAE@QAPAD@Z 100536c1 f i libucrt:argv_parsing.obj
 0001:000526d5       ??0?$__crt_unique_heap_ptr@PA_WU__crt_internal_free_policy@@@@QAE@QAPA_W@Z 100536d5 f i libucrt:argv_parsing.obj
 0001:000526e9       ??1?$__crt_unique_heap_ptr@PADU__crt_internal_free_policy@@@@QAE@XZ 100536e9 f i libucrt:argv_parsing.obj
 0001:000526ff       ??1?$__crt_unique_heap_ptr@PA_WU__crt_internal_free_policy@@@@QAE@XZ 100536ff f i libucrt:argv_parsing.obj
 0001:0005274b       ?detach@?$__crt_unique_heap_ptr@EU__crt_internal_free_policy@@@@QAEPAEXZ 1005374b f i libucrt:argv_parsing.obj
 0001:00052751       ?detach@?$__crt_unique_heap_ptr@PADU__crt_internal_free_policy@@@@QAEPAPADXZ 10053751 f i libucrt:argv_parsing.obj
 0001:00052757       ?detach@?$__crt_unique_heap_ptr@PA_WU__crt_internal_free_policy@@@@QAEPAPA_WXZ 10053757 f i libucrt:argv_parsing.obj
 0001:0005277d       ?get@?$__crt_unique_heap_ptr@PADU__crt_internal_free_policy@@@@QBEPAPADXZ 1005377d f i libucrt:argv_parsing.obj
 0001:00052780       ?get@?$__crt_unique_heap_ptr@PA_WU__crt_internal_free_policy@@@@QBEPAPA_WXZ 10053780 f i libucrt:argv_parsing.obj
 0001:00052783       ?get_address_of@?$__crt_unique_heap_ptr@PADU__crt_internal_free_policy@@@@QAEPAPAPADXZ 10053783 f i libucrt:argv_parsing.obj
 0001:00052786       ?get_address_of@?$__crt_unique_heap_ptr@PA_WU__crt_internal_free_policy@@@@QAEPAPAPA_WXZ 10053786 f i libucrt:argv_parsing.obj
 0001:000527a1       ?release@?$__crt_unique_heap_ptr@PADU__crt_internal_free_policy@@@@QAEXXZ 100537a1 f i libucrt:argv_parsing.obj
 0001:000527b7       ?release@?$__crt_unique_heap_ptr@PA_WU__crt_internal_free_policy@@@@QAEXXZ 100537b7 f i libucrt:argv_parsing.obj
 0001:000527ec       ___acrt_allocate_buffer_for_argv 100537ec f   libucrt:argv_parsing.obj
 0001:0005284e       __configure_narrow_argv    1005384e f   libucrt:argv_parsing.obj
 0001:0005285b       __configure_wide_argv      1005385b f   libucrt:argv_parsing.obj
 0001:00052868       __set_pgmptr               10053868 f i libucrt:argv_parsing.obj
 0001:0005287a       __set_wpgmptr              1005387a f i libucrt:argv_parsing.obj
 0001:0005288c       ??$?R_W@__crt_internal_free_policy@@QBEXQB_W@Z 1005388c f i libucrt:environment_initialization.obj
 0001:00052d72       ??$get_environment_from_os@$$V@?$__crt_char_traits@D@@SAPADXZ 10053d72 f i libucrt:environment_initialization.obj
 0001:00052d77       ??$get_environment_from_os@$$V@?$__crt_char_traits@_W@@SAPA_WXZ 10053d77 f i libucrt:environment_initialization.obj
 0001:00052ec8       ??$set_variable_in_environment_nolock@PADH@?$__crt_char_traits@D@@SAH$$QAPAD$$QAH@Z 10053ec8 f i libucrt:environment_initialization.obj
 0001:00052ee6       ??$set_variable_in_environment_nolock@PA_WH@?$__crt_char_traits@_W@@SAH$$QAPA_W$$QAH@Z 10053ee6 f i libucrt:environment_initialization.obj
 0001:00052f04       ??$tcscpy_s@PADABIAAPAD@?$__crt_char_traits@D@@SAH$$QAPADABIAAPAD@Z 10053f04 f i libucrt:environment_initialization.obj
 0001:00052f29       ??$tcscpy_s@PA_WABIAAPA_W@?$__crt_char_traits@_W@@SAH$$QAPA_WABIAAPA_W@Z 10053f29 f i libucrt:environment_initialization.obj
 0001:00052f4e       ??$tcslen@AAPAD@?$__crt_char_traits@D@@SAIAAPAD@Z 10053f4e f i libucrt:environment_initialization.obj
 0001:00052f6c       ??$tcslen@AAPA_W@?$__crt_char_traits@_W@@SAIAAPA_W@Z 10053f6c f i libucrt:environment_initialization.obj
 0001:00052f91       ??$uninitialize@A6AXAAPAPAD@Z@?$dual_state_global@PAPAD@__crt_state_management@@QAEXA6AXAAPAPAD@Z@Z 10053f91 f i libucrt:environment_initialization.obj
 0001:00052fe1       ??$uninitialize@A6AXAAPAPA_W@Z@?$dual_state_global@PAPA_W@__crt_state_management@@QAEXA6AXAAPAPA_W@Z@Z 10053fe1 f i libucrt:environment_initialization.obj
 0001:00053073       ??0?$__crt_unique_heap_ptr@_WU__crt_internal_free_policy@@@@QAE@QA_W@Z 10054073 f i libucrt:environment_initialization.obj
 0001:00053087       ??1?$__crt_unique_heap_ptr@_WU__crt_internal_free_policy@@@@QAE@XZ 10054087 f i libucrt:environment_initialization.obj
 0001:0005309d       ??B?$__crt_unique_heap_ptr@PADU__crt_internal_free_policy@@@@QBE_NXZ 1005409d f i libucrt:environment_initialization.obj
 0001:000530a4       ??B?$__crt_unique_heap_ptr@PA_WU__crt_internal_free_policy@@@@QBE_NXZ 100540a4 f i libucrt:environment_initialization.obj
 0001:000530ab       ??B?$__crt_unique_heap_ptr@_WU__crt_internal_free_policy@@@@QBE_NXZ 100540ab f i libucrt:environment_initialization.obj
 0001:000530b2       ?__crt_compute_required_transform_buffer_count@@YAIIQBD@Z 100540b2 f i libucrt:environment_initialization.obj
 0001:000530d5       ?__crt_compute_required_transform_buffer_count@@YAIIQB_W@Z 100540d5 f i libucrt:environment_initialization.obj
 0001:000530fa       ?__crt_transform_string@@YAIIQBDQA_WI@Z 100540fa f i libucrt:environment_initialization.obj
 0001:00053120       ?__crt_transform_string@@YAIIQB_WQADI@Z 10054120 f i libucrt:environment_initialization.obj
 0001:0005314a       ?detach@?$__crt_unique_heap_ptr@DU__crt_internal_free_policy@@@@QAEPADXZ 1005414a f i libucrt:environment_initialization.obj
 0001:00053150       ?detach@?$__crt_unique_heap_ptr@_WU__crt_internal_free_policy@@@@QAEPA_WXZ 10054150 f i libucrt:environment_initialization.obj
 0001:00053156       ?get@?$__crt_unique_heap_ptr@_WU__crt_internal_free_policy@@@@QBEPA_WXZ 10054156 f i libucrt:environment_initialization.obj
 0001:00053159       ?get_current_state_index@__crt_state_management@@YAIXZ 10054159 f i libucrt:environment_initialization.obj
 0001:00053180       ?initialize@?$dual_state_global@PAPAD@__crt_state_management@@QAEXQAPAD@Z 10054180 f i libucrt:environment_initialization.obj
 0001:000531af       ?initialize@?$dual_state_global@PAPA_W@__crt_state_management@@QAEXQAPA_W@Z 100541af f i libucrt:environment_initialization.obj
 0001:000531de       ?is_valid@?$__crt_unique_heap_ptr@PADU__crt_internal_free_policy@@@@QBE_NXZ 100541de f i libucrt:environment_initialization.obj
 0001:000531e5       ?is_valid@?$__crt_unique_heap_ptr@PA_WU__crt_internal_free_policy@@@@QBE_NXZ 100541e5 f i libucrt:environment_initialization.obj
 0001:000531ec       ?is_valid@?$__crt_unique_heap_ptr@_WU__crt_internal_free_policy@@@@QBE_NXZ 100541ec f i libucrt:environment_initialization.obj
 0001:000531f9       ?release@?$__crt_unique_heap_ptr@_WU__crt_internal_free_policy@@@@QAEXXZ 100541f9 f i libucrt:environment_initialization.obj
 0001:0005320f       ?value@?$dual_state_global@PAPAD@__crt_state_management@@QAEAAPAPADXZ 1005420f f i libucrt:environment_initialization.obj
 0001:00053212       ?value@?$dual_state_global@PAPA_W@__crt_state_management@@QAEAAPAPA_WXZ 10054212 f i libucrt:environment_initialization.obj
 0001:00053215       ___dcrt_get_or_create_narrow_environment_nolock 10054215 f   libucrt:environment_initialization.obj
 0001:0005321a       ___dcrt_get_or_create_wide_environment_nolock 1005421a f   libucrt:environment_initialization.obj
 0001:0005321f       ___dcrt_uninitialize_environments_nolock 1005421f f   libucrt:environment_initialization.obj
 0001:00053263       ___p__environ              10054263 f   libucrt:environment_initialization.obj
 0001:00053269       ___p__wenviron             10054269 f   libucrt:environment_initialization.obj
 0001:0005326f       __get_initial_narrow_environment 1005426f f   libucrt:environment_initialization.obj
 0001:00053288       __get_initial_wide_environment 10054288 f   libucrt:environment_initialization.obj
 0001:000532a1       __initialize_narrow_environment 100542a1 f   libucrt:environment_initialization.obj
 0001:000532a6       __initialize_wide_environment 100542a6 f   libucrt:environment_initialization.obj
 0001:000532ab       ??$?BP6AXXZ@__crt_fast_encoded_nullptr_t@@QBEPAP6AXXZXZ 100542ab f i libucrt:onexit.obj
 0001:000532c9       ??$?RP6AXXZ@__crt_internal_free_policy@@QBEXQBQ6AXXZ@Z 100542c9 f i libucrt:onexit.obj
 0001:0005340d       ??$__crt_fast_encode_pointer@P6AHXZ@@YAP6AHXZQ6AHXZ@Z 1005440d f i libucrt:onexit.obj
 0001:000534ba       ??0?$__crt_unique_heap_ptr@P6AXXZU__crt_internal_free_policy@@@@QAE@QAP6AXXZ@Z 100544ba f i libucrt:onexit.obj
 0001:000534ce       ??1?$__crt_unique_heap_ptr@P6AXXZU__crt_internal_free_policy@@@@QAE@XZ 100544ce f i libucrt:onexit.obj
 0001:000534e4       ??1scoped_global_state_reset@__crt_state_management@@QAE@XZ 100544e4 f i libucrt:onexit.obj
 0001:0005380f       ?detach@?$__crt_unique_heap_ptr@P6AXXZU__crt_internal_free_policy@@@@QAEPAP6AXXZXZ 1005480f f i libucrt:onexit.obj
 0001:00053815       ?release@?$__crt_unique_heap_ptr@P6AXXZU__crt_internal_free_policy@@@@QAEXXZ 10054815 f i libucrt:onexit.obj
 0001:0005382b       __crt_at_quick_exit        1005482b f   libucrt:onexit.obj
 0001:00053846       __crt_atexit               10054846 f   libucrt:onexit.obj
 0001:00053861       __execute_onexit_table     10054861 f   libucrt:onexit.obj
 0001:0005389b       __initialize_onexit_table  1005489b f   libucrt:onexit.obj
 0001:000538e7       __register_onexit_function 100548e7 f   libucrt:onexit.obj
 0001:00053ab2       ?__acrt_stdio_is_initialized@@YA_NXZ 10054ab2 f i libucrt:initialization.obj
 0001:00053abf       ?initialize@?$dual_state_global@PAU__crt_locale_data@@@__crt_state_management@@QAEXQAU__crt_locale_data@@@Z 10054abf f i libucrt:initialization.obj
 0001:00053aee       ___acrt_initialize         10054aee f   libucrt:initialization.obj
 0001:00053b04       ___acrt_thread_attach      10054b04 f   libucrt:initialization.obj
 0001:00053b11       ___acrt_thread_detach      10054b11 f   libucrt:initialization.obj
 0001:00053b1b       ___acrt_uninitialize       10054b1b f   libucrt:initialization.obj
 0001:00053b57       ___acrt_uninitialize_critical 10054b57 f   libucrt:initialization.obj
 0001:00053b88       __get_terminate            10054b88 f   libucrt:terminate.obj
 0001:00053b9e       _set_terminate             10054b9e f   libucrt:terminate.obj
 0001:00053bc6       _terminate                 10054bc6 f   libucrt:terminate.obj
 0001:00053c81       _strcpy_s                  10054c81 f   libucrt:strcpy_s.obj
 0001:00053cf1       ??$is_overflow_condition@K@__crt_strtox@@YA_NIK@Z 10054cf1 f i libucrt:atox.obj
 0001:00053d2e       ??$make_c_string_character_source@D$$T@__crt_strtox@@YA?AV?$c_string_character_source@D@0@QBD$$T@Z 10054d2e f i libucrt:atox.obj
 0001:00053d4f       ??$make_c_string_character_source@_W$$T@__crt_strtox@@YA?AV?$c_string_character_source@_W@0@QB_W$$T@Z 10054d4f f i libucrt:atox.obj
 0001:00053d70       ??$parse_integer@KV?$c_string_character_source@D@__crt_strtox@@@__crt_strtox@@YAKQAU__crt_locale_pointers@@V?$c_string_character_source@D@0@H_N@Z 10054d70 f i libucrt:atox.obj
 0001:00054023       ??$parse_integer@KV?$c_string_character_source@_W@__crt_strtox@@@__crt_strtox@@YAKQAU__crt_locale_pointers@@V?$c_string_character_source@_W@0@H_N@Z 10055023 f i libucrt:atox.obj
 0001:000547f4       ??$parse_integer@_KV?$c_string_character_source@D@__crt_strtox@@@__crt_strtox@@YA_KQAU__crt_locale_pointers@@V?$c_string_character_source@D@0@H_N@Z 100557f4 f i libucrt:atox.obj
 0001:00054b44       ??$parse_integer@_KV?$c_string_character_source@_W@__crt_strtox@@@__crt_strtox@@YA_KQAU__crt_locale_pointers@@V?$c_string_character_source@_W@0@H_N@Z 10055b44 f i libucrt:atox.obj
 0001:00055411       ??$parse_integer_from_string@JD$$T@__crt_strtox@@YAJQBD$$THQAU__crt_locale_pointers@@@Z 10056411 f i libucrt:atox.obj
 0001:00055449       ??$parse_integer_from_string@J_W$$T@__crt_strtox@@YAJQB_W$$THQAU__crt_locale_pointers@@@Z 10056449 f i libucrt:atox.obj
 0001:00055481       ??$parse_integer_from_string@_JD$$T@__crt_strtox@@YA_JQBD$$THQAU__crt_locale_pointers@@@Z 10056481 f i libucrt:atox.obj
 0001:000554b9       ??$parse_integer_from_string@_J_W$$T@__crt_strtox@@YA_JQB_W$$THQAU__crt_locale_pointers@@@Z 100564b9 f i libucrt:atox.obj
 0001:000554f1       ??0?$c_string_character_source@D@__crt_strtox@@QAE@QBDQAPBD@Z 100564f1 f i libucrt:atox.obj
 0001:00055514       ??0?$c_string_character_source@_W@__crt_strtox@@QAE@QB_WQAPB_W@Z 10056514 f i libucrt:atox.obj
 0001:00055537       ??1?$c_string_character_source@D@__crt_strtox@@QAE@XZ 10056537 f i libucrt:atox.obj
 0001:00055546       ??1?$c_string_character_source@_W@__crt_strtox@@QAE@XZ 10056546 f i libucrt:atox.obj
 0001:00055555       ?get@?$c_string_character_source@D@__crt_strtox@@QAEDXZ 10056555 f i libucrt:atox.obj
 0001:0005555f       ?get@?$c_string_character_source@_W@__crt_strtox@@QAE_WXZ 1005655f f i libucrt:atox.obj
 0001:0005556c       ?maximum_signed_value@__crt_strtox@@YAJK@Z 1005656c f i libucrt:atox.obj
 0001:00055572       ?minimum_signed_value@__crt_strtox@@YAJK@Z 10056572 f i libucrt:atox.obj
 0001:00055578       ?restore_state@?$c_string_character_source@D@__crt_strtox@@QAE_NQBD@Z 10056578 f i libucrt:atox.obj
 0001:0005558c       ?restore_state@?$c_string_character_source@_W@__crt_strtox@@QAE_NQB_W@Z 1005658c f i libucrt:atox.obj
 0001:000555a0       ?save_state@?$c_string_character_source@D@__crt_strtox@@QBEPBDXZ 100565a0 f i libucrt:atox.obj
 0001:000555a3       ?save_state@?$c_string_character_source@_W@__crt_strtox@@QBEPB_WXZ 100565a3 f i libucrt:atox.obj
 0001:000555a6       ?unget@?$c_string_character_source@D@__crt_strtox@@QAEXD@Z 100565a6 f i libucrt:atox.obj
 0001:000555d9       ?unget@?$c_string_character_source@_W@__crt_strtox@@QAEX_W@Z 100565d9 f i libucrt:atox.obj
 0001:00055612       ?validate@?$c_string_character_source@D@__crt_strtox@@QBE_NXZ 10056612 f i libucrt:atox.obj
 0001:00055633       ?validate@?$c_string_character_source@_W@__crt_strtox@@QBE_NXZ 10056633 f i libucrt:atox.obj
 0001:00055654       __atoi64                   10056654 f   libucrt:atox.obj
 0001:00055682       __atoi64_l                 10056682 f   libucrt:atox.obj
 0001:000556b1       __atoi_l                   100566b1 f   libucrt:atox.obj
 0001:000556e0       __atol_l                   100566e0 f   libucrt:atox.obj
 0001:0005570f       __atoll_l                  1005670f f   libucrt:atox.obj
 0001:0005573e       __wtoi                     1005673e f   libucrt:atox.obj
 0001:0005576c       __wtoi64                   1005676c f   libucrt:atox.obj
 0001:0005579a       __wtoi64_l                 1005679a f   libucrt:atox.obj
 0001:000557c9       __wtoi_l                   100567c9 f   libucrt:atox.obj
 0001:000557f8       __wtol                     100567f8 f   libucrt:atox.obj
 0001:00055826       __wtol_l                   10056826 f   libucrt:atox.obj
 0001:00055855       __wtoll                    10056855 f   libucrt:atox.obj
 0001:00055883       __wtoll_l                  10056883 f   libucrt:atox.obj
 0001:000558b2       _atoi                      100568b2 f   libucrt:atox.obj
 0001:000558e0       _atol                      100568e0 f   libucrt:atox.obj
 0001:0005590e       _atoll                     1005690e f   libucrt:atox.obj
 0001:00055940       _strncmp                   10056940 f   libucrt:strncmp.obj
 0001:000559d6       __set_abort_behavior       100569d6 f   libucrt:abort.obj
 0001:000559ff       _abort                     100569ff f   libucrt:abort.obj
 0001:00055a54       _wcsncmp                   10056a54 f   libucrt:wcsncmp.obj
 0001:00055a9c       __malloc_base              10056a9c f   libucrt:malloc_base.obj
 0001:00055b03       __free_base                10056b03 f   libucrt:free_base.obj
 0001:00055b4b       ??$__crt_fast_decode_pointer@P6AXPB_W00II@Z@@YAP6AXPB_W00II@ZQ6AX000II@Z@Z 10056b4b f i libucrt:invalid_parameter.obj
 0001:00055b66       ??$__crt_fast_encode_pointer@P6AXPB_W00II@Z@@YAP6AXPB_W00II@ZQ6AX000II@Z@Z 10056b66 f i libucrt:invalid_parameter.obj
 0001:00055b8c       ??$initialize_from_array@$$BY00Q6AXPB_W00II@Z@?$dual_state_global@P6AXPB_W00II@Z@__crt_state_management@@QAAXAAY00Q6AXPB_W00II@Z@Z 10056b8c f i libucrt:invalid_parameter.obj
 0001:00055ba1       ?dangerous_get_state_array@?$dual_state_global@P6AXPB_W00II@Z@__crt_state_management@@QAEPAP6AXPB_W00II@ZXZ 10056ba1 f i libucrt:invalid_parameter.obj
 0001:00055ba4       ?value@?$dual_state_global@P6AXPB_W00II@Z@__crt_state_management@@QAEAAP6AXPB_W00II@ZXZ 10056ba4 f i libucrt:invalid_parameter.obj
 0001:00055ba7       ___acrt_call_reportfault   10056ba7 f   libucrt:invalid_parameter.obj
 0001:00055d30       ___acrt_initialize_invalid_parameter_handler 10056d30 f   libucrt:invalid_parameter.obj
 0001:00055d42       __get_invalid_parameter_handler 10056d42 f   libucrt:invalid_parameter.obj
 0001:00055d59       __get_thread_local_invalid_parameter_handler 10056d59 f   libucrt:invalid_parameter.obj
 0001:00055d6e       __invalid_parameter        10056d6e f   libucrt:invalid_parameter.obj
 0001:00055e07       __invalid_parameter_noinfo 10056e07 f   libucrt:invalid_parameter.obj
 0001:00055e1b       __invalid_parameter_noinfo_noreturn 10056e1b f   libucrt:invalid_parameter.obj
 0001:00055e3f       __invoke_watson            10056e3f f   libucrt:invalid_parameter.obj
 0001:00055e80       __set_invalid_parameter_handler 10056e80 f   libucrt:invalid_parameter.obj
 0001:00055ebc       __set_thread_local_invalid_parameter_handler 10056ebc f   libucrt:invalid_parameter.obj
 0001:00055ee0       ___acrt_errno_from_os_error 10056ee0 f   libucrt:errno.obj
 0001:00055f33       ___acrt_errno_map_os_error 10056f33 f   libucrt:errno.obj
 0001:00055f5e       ___doserrno                10056f5e f   libucrt:errno.obj
 0001:00055f75       __errno                    10056f75 f   libucrt:errno.obj
 0001:00055f8c       __get_doserrno             10056f8c f   libucrt:errno.obj
 0001:00055fba       __get_errno                10056fba f   libucrt:errno.obj
 0001:00055fe8       __set_doserrno             10056fe8 f   libucrt:errno.obj
 0001:00056011       __set_errno                10057011 f   libucrt:errno.obj
 0001:0005603a       __calloc_base              1005703a f   libucrt:calloc_base.obj
 0001:000560be       ??$?B$$A6GHPA_WKJ@Z@__crt_fast_encoded_nullptr_t@@QBEP6GHPA_WKJ@ZXZ 100570be f i libucrt:winapi_thunks.obj
 0001:000561b8       ??$__crt_fast_decode_pointer@P6GHPA_WKJ@Z@@YAP6GHPA_WKJ@ZQ6GH0KJ@Z@Z 100571b8 f i libucrt:winapi_thunks.obj
 0001:000561d3       ??$__crt_fast_encode_pointer@P6GHPA_WKJ@Z@@YAP6GHPA_WKJ@ZQ6GH0KJ@Z@Z 100571d3 f i libucrt:winapi_thunks.obj
 0001:00056a32       _GetCurrentThreadEffectiveToken 10057a32 f i libucrt:winapi_thunks.obj
 0001:00056a36       ___acrt_AppPolicyGetProcessTerminationMethodInternal@4 10057a36 f   libucrt:winapi_thunks.obj
 0001:00056aa2       ___acrt_AppPolicyGetShowDeveloperDiagnosticInternal@4 10057aa2 f   libucrt:winapi_thunks.obj
 0001:00056b0e       ___acrt_AppPolicyGetThreadInitializationTypeInternal@4 10057b0e f   libucrt:winapi_thunks.obj
 0001:00056b7a       ___acrt_AppPolicyGetWindowingModelInternal@4 10057b7a f   libucrt:winapi_thunks.obj
 0001:00056be6       ___acrt_AreFileApisANSI@0  10057be6 f   libucrt:winapi_thunks.obj
 0001:00056c2e       ___acrt_CompareStringEx@36 10057c2e f   libucrt:winapi_thunks.obj
 0001:00056cbf       ___acrt_EnumSystemLocalesEx@16 10057cbf f   libucrt:winapi_thunks.obj
 0001:00056d43       ___acrt_FlsAlloc@4         10057d43 f   libucrt:winapi_thunks.obj
 0001:00056dae       ___acrt_FlsFree@4          10057dae f   libucrt:winapi_thunks.obj
 0001:00056e19       ___acrt_FlsGetValue@4      10057e19 f   libucrt:winapi_thunks.obj
 0001:00056e84       ___acrt_FlsSetValue@8      10057e84 f   libucrt:winapi_thunks.obj
 0001:00056ef3       ___acrt_GetDateFormatEx@28 10057ef3 f   libucrt:winapi_thunks.obj
 0001:00056f7c       ___acrt_GetEnabledXStateFeatures@0 10057f7c f   libucrt:winapi_thunks.obj
 0001:00056fde       ___acrt_GetLocaleInfoEx@16 10057fde f   libucrt:winapi_thunks.obj
 0001:00057049       ___acrt_GetSystemTimePreciseAsFileTime@4 10058049 f   libucrt:winapi_thunks.obj
 0001:000570b4       ___acrt_GetTimeFormatEx@24 100580b4 f   libucrt:winapi_thunks.obj
 0001:00057127       ___acrt_GetUserDefaultLocaleName@8 10058127 f   libucrt:winapi_thunks.obj
 0001:0005718e       ___acrt_GetXStateFeaturesMask@8 1005818e f   libucrt:winapi_thunks.obj
 0001:000571fa       ___acrt_InitializeCriticalSectionEx@12 100581fa f   libucrt:winapi_thunks.obj
 0001:00057274       ___acrt_IsValidLocaleName@4 10058274 f   libucrt:winapi_thunks.obj
 0001:000572d6       ___acrt_LCIDToLocaleName@16 100582d6 f   libucrt:winapi_thunks.obj
 0001:00057341       ___acrt_LCMapStringEx@36   10058341 f   libucrt:winapi_thunks.obj
 0001:000573d2       ___acrt_LocaleNameToLCID@8 100583d2 f   libucrt:winapi_thunks.obj
 0001:0005742c       ___acrt_LocateXStateFeature@12 1005842c f   libucrt:winapi_thunks.obj
 0001:00057483       ___acrt_MessageBoxA@16     10058483 f   libucrt:winapi_thunks.obj
 0001:000574de       ___acrt_MessageBoxW@16     100584de f   libucrt:winapi_thunks.obj
 0001:00057539       ___acrt_RoInitialize@4     10058539 f   libucrt:winapi_thunks.obj
 0001:0005759f       ___acrt_RoUninitialize@0   1005859f f   libucrt:winapi_thunks.obj
 0001:000575fa       ___acrt_RtlGenRandom@8     100585fa f   libucrt:winapi_thunks.obj
 0001:00057666       ___acrt_SetThreadStackGuarantee@4 10058666 f   libucrt:winapi_thunks.obj
 0001:000576cc       ___acrt_can_show_message_box 100586cc f   libucrt:winapi_thunks.obj
 0001:000576fc       ___acrt_can_use_vista_locale_apis 100586fc f   libucrt:winapi_thunks.obj
 0001:00057709       ___acrt_can_use_xstate_apis 10058709 f   libucrt:winapi_thunks.obj
 0001:00057716       ___acrt_eagerly_load_locale_apis 10058716 f   libucrt:winapi_thunks.obj
 0001:0005775a       ___acrt_get_parent_window  1005875a f   libucrt:winapi_thunks.obj
 0001:000577f8       ___acrt_initialize_winapi_thunks 100587f8 f   libucrt:winapi_thunks.obj
 0001:00057843       ___acrt_is_interactive     10058843 f   libucrt:winapi_thunks.obj
 0001:00057912       ___acrt_uninitialize_winapi_thunks 10058912 f   libucrt:winapi_thunks.obj
 0001:00057955       ??0__crt_stdio_stream@@QAE@QAU__crt_stdio_stream_data@@@Z 10058955 f i libucrt:closeall.obj
 0001:00057969       __fcloseall                10058969 f   libucrt:closeall.obj
 0001:00057fd7       ___acrt_stdio_flush_nolock 10058fd7 f   libucrt:fflush.obj
 0001:00058052       __fflush_nolock            10059052 f   libucrt:fflush.obj
 0001:000580aa       __flushall                 100590aa f   libucrt:fflush.obj
 0001:000580b5       _fflush                    100590b5 f   libucrt:fflush.obj
 0001:0005811e       ?has_crt_buffer@__crt_stdio_stream@@QBE_NXZ 1005911e f i libucrt:_freebuf.obj
 0001:0005812b       ___acrt_stdio_free_buffer_nolock 1005912b f   libucrt:_freebuf.obj
 0001:00058369       ___acrt_initialize_lowio   10059369 f   libucrt:ioinit.obj
 0001:000583d4       ___acrt_uninitialize_lowio 100593d4 f   libucrt:ioinit.obj
 0001:00058427       ___isascii                 10059427 f i libucrt:_ctype.obj
 0001:0005843d       ___iscsym                  1005943d f i libucrt:_ctype.obj
 0001:00058467       ___iscsymf                 10059467 f i libucrt:_ctype.obj
 0001:0005848d       ___toascii                 1005948d f i libucrt:_ctype.obj
 0001:0005849d       __isalnum_l                1005949d f i libucrt:_ctype.obj
 0001:000584e6       __isalpha_l                100594e6 f i libucrt:_ctype.obj
 0001:0005852f       __isblank_l                1005952f f i libucrt:_ctype.obj
 0001:00058582       __iscntrl_l                10059582 f i libucrt:_ctype.obj
 0001:000585c8       __iscsym_l                 100595c8 f i libucrt:_ctype.obj
 0001:000585f3       __iscsymf_l                100595f3 f i libucrt:_ctype.obj
 0001:0005861e       __isdigit_l                1005961e f i libucrt:_ctype.obj
 0001:00058664       __isgraph_l                10059664 f i libucrt:_ctype.obj
 0001:000586ad       __islower_l                100596ad f i libucrt:_ctype.obj
 0001:000586f3       __isprint_l                100596f3 f i libucrt:_ctype.obj
 0001:0005873c       __ispunct_l                1005973c f i libucrt:_ctype.obj
 0001:00058782       __isspace_l                10059782 f i libucrt:_ctype.obj
 0001:000587c8       __isupper_l                100597c8 f i libucrt:_ctype.obj
 0001:0005880e       __isxdigit_l               1005980e f i libucrt:_ctype.obj
 0001:00058857       _isalnum                   10059857 f i libucrt:_ctype.obj
 0001:00058893       _isalpha                   10059893 f i libucrt:_ctype.obj
 0001:000588cf       _isblank                   100598cf f i libucrt:_ctype.obj
 0001:00058917       _iscntrl                   10059917 f i libucrt:_ctype.obj
 0001:00058950       _isdigit                   10059950 f i libucrt:_ctype.obj
 0001:00058989       _isgraph                   10059989 f i libucrt:_ctype.obj
 0001:000589c5       _islower                   100599c5 f i libucrt:_ctype.obj
 0001:000589fe       _isprint                   100599fe f i libucrt:_ctype.obj
 0001:00058a3a       _ispunct                   10059a3a f i libucrt:_ctype.obj
 0001:00058a73       _isspace                   10059a73 f i libucrt:_ctype.obj
 0001:00058aac       _isupper                   10059aac f i libucrt:_ctype.obj
 0001:00058ae5       _isxdigit                  10059ae5 f i libucrt:_ctype.obj
 0001:00058edd       __tolower                  10059edd f   libucrt:tolower_toupper.obj
 0001:00058eed       __tolower_l                10059eed f   libucrt:tolower_toupper.obj
 0001:00058f0d       __toupper                  10059f0d f   libucrt:tolower_toupper.obj
 0001:00058f1d       __toupper_l                10059f1d f   libucrt:tolower_toupper.obj
 0001:00058f3d       _tolower                   10059f3d f   libucrt:tolower_toupper.obj
 0001:00058f79       _toupper                   10059f79 f   libucrt:tolower_toupper.obj
 0001:00058fb5       ??$make_c_string_character_source@DPAPAD@__crt_strtox@@YA?AV?$c_string_character_source@D@0@QBDQAPAD@Z 10059fb5 f i libucrt:strtox.obj
 0001:00058fd6       ??$make_c_string_character_source@_WPAPA_W@__crt_strtox@@YA?AV?$c_string_character_source@_W@0@QB_WQAPA_W@Z 10059fd6 f i libucrt:strtox.obj
 0001:00058ff7       ??$parse_integer_from_string@JDPAPAD@__crt_strtox@@YAJQBDQAPADHQAU__crt_locale_pointers@@@Z 10059ff7 f i libucrt:strtox.obj
 0001:0005902f       ??$parse_integer_from_string@J_WPAPA_W@__crt_strtox@@YAJQB_WQAPA_WHQAU__crt_locale_pointers@@@Z 1005a02f f i libucrt:strtox.obj
 0001:00059067       ??$parse_integer_from_string@KDPAPAD@__crt_strtox@@YAKQBDQAPADHQAU__crt_locale_pointers@@@Z 1005a067 f i libucrt:strtox.obj
 0001:0005909f       ??$parse_integer_from_string@K_WPAPA_W@__crt_strtox@@YAKQB_WQAPA_WHQAU__crt_locale_pointers@@@Z 1005a09f f i libucrt:strtox.obj
 0001:000590d7       ??$parse_integer_from_string@_JDPAPAD@__crt_strtox@@YA_JQBDQAPADHQAU__crt_locale_pointers@@@Z 1005a0d7 f i libucrt:strtox.obj
 0001:0005910f       ??$parse_integer_from_string@_J_WPAPA_W@__crt_strtox@@YA_JQB_WQAPA_WHQAU__crt_locale_pointers@@@Z 1005a10f f i libucrt:strtox.obj
 0001:00059147       ??$parse_integer_from_string@_KDPAPAD@__crt_strtox@@YA_KQBDQAPADHQAU__crt_locale_pointers@@@Z 1005a147 f i libucrt:strtox.obj
 0001:0005917f       ??$parse_integer_from_string@_K_WPAPA_W@__crt_strtox@@YA_KQB_WQAPA_WHQAU__crt_locale_pointers@@@Z 1005a17f f i libucrt:strtox.obj
 0001:000591b7       __strtoi64                 1005a1b7 f   libucrt:strtox.obj
 0001:000591ee       __strtoi64_l               1005a1ee f   libucrt:strtox.obj
 0001:00059226       __strtoimax_l              1005a226 f   libucrt:strtox.obj
 0001:0005925e       __strtol_l                 1005a25e f   libucrt:strtox.obj
 0001:00059296       __strtoll_l                1005a296 f   libucrt:strtox.obj
 0001:000592ce       __strtoui64                1005a2ce f   libucrt:strtox.obj
 0001:00059305       __strtoui64_l              1005a305 f   libucrt:strtox.obj
 0001:0005933d       __strtoul_l                1005a33d f   libucrt:strtox.obj
 0001:00059375       __strtoull_l               1005a375 f   libucrt:strtox.obj
 0001:000593ad       __strtoumax_l              1005a3ad f   libucrt:strtox.obj
 0001:000593e5       __wcstoi64                 1005a3e5 f   libucrt:strtox.obj
 0001:0005941c       __wcstoi64_l               1005a41c f   libucrt:strtox.obj
 0001:00059454       __wcstoimax_l              1005a454 f   libucrt:strtox.obj
 0001:0005948c       __wcstol_l                 1005a48c f   libucrt:strtox.obj
 0001:000594c4       __wcstoll_l                1005a4c4 f   libucrt:strtox.obj
 0001:000594fc       __wcstoui64                1005a4fc f   libucrt:strtox.obj
 0001:00059533       __wcstoui64_l              1005a533 f   libucrt:strtox.obj
 0001:0005956b       __wcstoul_l                1005a56b f   libucrt:strtox.obj
 0001:000595a3       __wcstoull_l               1005a5a3 f   libucrt:strtox.obj
 0001:000595db       __wcstoumax_l              1005a5db f   libucrt:strtox.obj
 0001:00059613       _strtoimax                 1005a613 f   libucrt:strtox.obj
 0001:0005964a       _strtol                    1005a64a f   libucrt:strtox.obj
 0001:00059681       _strtoll                   1005a681 f   libucrt:strtox.obj
 0001:000596b8       _strtoul                   1005a6b8 f   libucrt:strtox.obj
 0001:000596ef       _strtoull                  1005a6ef f   libucrt:strtox.obj
 0001:00059726       _strtoumax                 1005a726 f   libucrt:strtox.obj
 0001:0005975d       _wcstoimax                 1005a75d f   libucrt:strtox.obj
 0001:00059794       _wcstol                    1005a794 f   libucrt:strtox.obj
 0001:000597cb       _wcstoll                   1005a7cb f   libucrt:strtox.obj
 0001:00059802       _wcstoul                   1005a802 f   libucrt:strtox.obj
 0001:00059839       _wcstoull                  1005a839 f   libucrt:strtox.obj
 0001:00059870       _wcstoumax                 1005a870 f   libucrt:strtox.obj
 0001:000598a7       __mbtowc_l                 1005a8a7 f   libucrt:mbtowc.obj
 0001:00059a3c       _mbtowc                    1005aa3c f   libucrt:mbtowc.obj
 0001:00059a5c       __wctomb_l                 1005aa5c f   libucrt:wctomb.obj
 0001:00059ac3       __wctomb_s_l               1005aac3 f   libucrt:wctomb.obj
 0001:00059c2e       _wctomb                    1005ac2e f   libucrt:wctomb.obj
 0001:00059c6f       _wctomb_s                  1005ac6f f   libucrt:wctomb.obj
 0001:0005a68c       ??1?$__crt_simd_cleanup_guard@$00@@QAE@XZ 1005b68c f i libucrt:strnlen.obj
 0001:0005a690       ??1?$__crt_simd_cleanup_guard@$0A@@@QAE@XZ 1005b690 f i libucrt:strnlen.obj
 0001:0005a691       ?compare_equals@?$__crt_simd_traits@$00E@@SA?AT__m256i@@T2@0@Z 1005b691 f i libucrt:strnlen.obj
 0001:0005a696       ?compare_equals@?$__crt_simd_traits@$00G@@SA?AT__m256i@@T2@0@Z 1005b696 f i libucrt:strnlen.obj
 0001:0005a69b       ?compare_equals@?$__crt_simd_traits@$0A@E@@SA?AT__m128i@@T2@0@Z 1005b69b f i libucrt:strnlen.obj
 0001:0005a6a0       ?compare_equals@?$__crt_simd_traits@$0A@G@@SA?AT__m128i@@T2@0@Z 1005b6a0 f i libucrt:strnlen.obj
 0001:0005a6a5       ?compute_byte_mask@?$__crt_simd_pack_traits@$00@@SAHT__m256i@@@Z 1005b6a5 f i libucrt:strnlen.obj
 0001:0005a6aa       ?compute_byte_mask@?$__crt_simd_pack_traits@$0A@@@SAHT__m128i@@@Z 1005b6aa f i libucrt:strnlen.obj
 0001:0005a6af       ?get_zero_pack@?$__crt_simd_pack_traits@$00@@SA?AT__m256i@@XZ 1005b6af f i libucrt:strnlen.obj
 0001:0005a6b4       ?get_zero_pack@?$__crt_simd_pack_traits@$0A@@@SA?AT__m128i@@XZ 1005b6b4 f i libucrt:strnlen.obj
 0001:0005a6b8       _strnlen                   1005b6b8 f   libucrt:strnlen.obj
 0001:0005a822       _wcslen                    1005b822 f   libucrt:strnlen.obj
 0001:0005a994       _wcsnlen                   1005b994 f   libucrt:strnlen.obj
 0001:0005abb0       ??$?RU__acrt_ptd@@@__crt_internal_free_policy@@QBEXQBU__acrt_ptd@@@Z 1005bbb0 f i libucrt:per_thread_data.obj
 0001:0005af29       ??0?$__crt_unique_heap_ptr@U__acrt_ptd@@U__crt_internal_free_policy@@@@QAE@QAU__acrt_ptd@@@Z 1005bf29 f i libucrt:per_thread_data.obj
 0001:0005af3d       ??0__crt_scoped_get_last_error_reset@@QAE@XZ 1005bf3d f i libucrt:per_thread_data.obj
 0001:0005af52       ??1?$__crt_unique_heap_ptr@U__acrt_ptd@@U__crt_internal_free_policy@@@@QAE@XZ 1005bf52 f i libucrt:per_thread_data.obj
 0001:0005af68       ??1__crt_scoped_get_last_error_reset@@QAE@XZ 1005bf68 f i libucrt:per_thread_data.obj
 0001:0005af73       ??B?$__crt_unique_heap_ptr@U__acrt_ptd@@U__crt_internal_free_policy@@@@QBE_NXZ 1005bf73 f i libucrt:per_thread_data.obj
 0001:0005b110       ?dangerous_get_state_array@?$dual_state_global@PAU__crt_locale_data@@@__crt_state_management@@QAEPAPAU__crt_locale_data@@XZ 1005c110 f i libucrt:per_thread_data.obj
 0001:0005b243       ?detach@?$__crt_unique_heap_ptr@U__acrt_ptd@@U__crt_internal_free_policy@@@@QAEPAU__acrt_ptd@@XZ 1005c243 f i libucrt:per_thread_data.obj
 0001:0005b249       ?get@?$__crt_unique_heap_ptr@U__acrt_ptd@@U__crt_internal_free_policy@@@@QBEPAU__acrt_ptd@@XZ 1005c249 f i libucrt:per_thread_data.obj
 0001:0005b24c       ?get_current_state_index@__crt_state_management@@YAIABV__crt_scoped_get_last_error_reset@@@Z 1005c24c f i libucrt:per_thread_data.obj
 0001:0005b3d2       ?is_valid@?$__crt_unique_heap_ptr@U__acrt_ptd@@U__crt_internal_free_policy@@@@QBE_NXZ 1005c3d2 f i libucrt:per_thread_data.obj
 0001:0005b3d9       ?release@?$__crt_unique_heap_ptr@U__acrt_ptd@@U__crt_internal_free_policy@@@@QAEXXZ 1005c3d9 f i libucrt:per_thread_data.obj
 0001:0005b465       ?value@?$dual_state_global@PAU__crt_locale_data@@@__crt_state_management@@QAEAAPAU__crt_locale_data@@XZ 1005c465 f i libucrt:per_thread_data.obj
 0001:0005b468       ___acrt_freeptd            1005c468 f   libucrt:per_thread_data.obj
 0001:0005b49f       ___acrt_getptd             1005c49f f   libucrt:per_thread_data.obj
 0001:0005b583       ___acrt_getptd_head        1005c583 f   libucrt:per_thread_data.obj
 0001:0005b643       ___acrt_getptd_noexit      1005c643 f   libucrt:per_thread_data.obj
 0001:0005b71b       ___acrt_initialize_ptd     1005c71b f   libucrt:per_thread_data.obj
 0001:0005b752       ___acrt_uninitialize_ptd   1005c752 f   libucrt:per_thread_data.obj
 0001:0005b772       ___threadhandle            1005c772 f   libucrt:per_thread_data.obj
 0001:0005b778       ___threadid                1005c778 f   libucrt:per_thread_data.obj
 0001:0005b77e       ?value@?$dual_state_global@PAU__crt_multibyte_data@@@__crt_state_management@@QAEAAPAU__crt_multibyte_data@@XZ 1005c77e f i libucrt:locale_update.obj
 0001:0005b781       ___acrt_update_locale_info 1005c781 f   libucrt:locale_update.obj
 0001:0005b7b9       ___acrt_update_multibyte_info 1005c7b9 f   libucrt:locale_update.obj
 0001:0005b7f1       ?__acrt_fp_classify@@YA?AW4__acrt_fp_class@@ABN@Z 1005c7f1 f i libucrt:cvt.obj
 0001:0005b86b       ?__acrt_fp_is_negative@@YA_NABN@Z 1005c86b f i libucrt:cvt.obj
 0001:0005c2f0       ?strrchr@@YAPADQADH@Z      1005d2f0 f i libucrt:cvt.obj
 0001:0005c2fd       ___acrt_fp_format          1005d2fd f   libucrt:cvt.obj
 0001:0005c4c5       __fputwc_nolock            1005d4c5 f   libucrt:fputwc.obj
 0001:0005c639       __fputwchar                1005d639 f   libucrt:fputwc.obj
 0001:0005c659       __putwc_nolock             1005d659 f   libucrt:fputwc.obj
 0001:0005c666       _fputwc                    1005d666 f   libucrt:fputwc.obj
 0001:0005c6f7       _putwc                     1005d6f7 f   libucrt:fputwc.obj
 0001:0005c704       _putwchar                  1005d704 f   libucrt:fputwc.obj
 0001:0005c711       ?lowio_handle@__crt_stdio_stream@@QBEHXZ 1005d711 f i libucrt:fileno.obj
 0001:0005c717       __fileno                   1005d717 f   libucrt:fileno.obj
 0001:0005c746       __fputc_nolock             1005d746 f   libucrt:fputc.obj
 0001:0005c779       __fputchar                 1005d779 f   libucrt:fputc.obj
 0001:0005c799       __putc_nolock              1005d799 f   libucrt:fputc.obj
 0001:0005c7a6       _fputc                     1005d7a6 f   libucrt:fputc.obj
 0001:0005c8e4       _putc                      1005d8e4 f   libucrt:fputc.obj
 0001:0005c8f1       _putchar                   1005d8f1 f   libucrt:fputc.obj
 0001:0005c8fe       __get_printf_count_output  1005d8fe f   libucrt:printf_count_output.obj
 0001:0005c918       __set_printf_count_output  1005d918 f   libucrt:printf_count_output.obj
 0001:0005c94c       ?has_temporary_buffer@__crt_stdio_stream@@QBE_NXZ 1005d94c f i libucrt:_sftbuf.obj
 0001:0005c959       ___acrt_stdio_begin_temporary_buffering_nolock 1005d959 f   libucrt:_sftbuf.obj
 0001:0005ca3b       ___acrt_stdio_end_temporary_buffering_nolock 1005da3b f   libucrt:_sftbuf.obj
 0001:0005ca85       ??$?RU__crt_locale_data@@@__crt_internal_free_policy@@QBEXQBU__crt_locale_data@@@Z 1005da85 f i libucrt:wsetlocale.obj
 0001:0005ca9b       ??$?RU__crt_locale_pointers@@@__crt_internal_free_policy@@QBEXQBU__crt_locale_pointers@@@Z 1005da9b f i libucrt:wsetlocale.obj
 0001:0005cab1       ??$?RU__crt_multibyte_data@@@__crt_internal_free_policy@@QBEXQBU__crt_multibyte_data@@@Z 1005dab1 f i libucrt:wsetlocale.obj
 0001:0005cd81       ??$__vcrt_va_start_verify_argument_type@H@@YAXXZ 1005dd81 f i libucrt:wsetlocale.obj
 0001:0005cf0c       ??0?$__crt_unique_heap_ptr@U__crt_locale_data@@U__crt_internal_free_policy@@@@QAE@QAU__crt_locale_data@@@Z 1005df0c f i libucrt:wsetlocale.obj
 0001:0005cf20       ??0?$__crt_unique_heap_ptr@U__crt_locale_pointers@@U__crt_internal_free_policy@@@@QAE@QAU__crt_locale_pointers@@@Z 1005df20 f i libucrt:wsetlocale.obj
 0001:0005cf34       ??0?$__crt_unique_heap_ptr@U__crt_multibyte_data@@U__crt_internal_free_policy@@@@QAE@QAU__crt_multibyte_data@@@Z 1005df34 f i libucrt:wsetlocale.obj
 0001:0005cf48       ??1?$__crt_unique_heap_ptr@U__crt_locale_data@@U__crt_internal_free_policy@@@@QAE@XZ 1005df48 f i libucrt:wsetlocale.obj
 0001:0005cf5e       ??1?$__crt_unique_heap_ptr@U__crt_locale_pointers@@U__crt_internal_free_policy@@@@QAE@XZ 1005df5e f i libucrt:wsetlocale.obj
 0001:0005cf74       ??1?$__crt_unique_heap_ptr@U__crt_multibyte_data@@U__crt_internal_free_policy@@@@QAE@XZ 1005df74 f i libucrt:wsetlocale.obj
 0001:0005cf8a       ??B?$__crt_unique_heap_ptr@U__crt_locale_data@@U__crt_internal_free_policy@@@@QBE_NXZ 1005df8a f i libucrt:wsetlocale.obj
 0001:0005cf91       ??B?$__crt_unique_heap_ptr@U__crt_locale_pointers@@U__crt_internal_free_policy@@@@QBE_NXZ 1005df91 f i libucrt:wsetlocale.obj
 0001:0005cf98       ??B?$__crt_unique_heap_ptr@U__crt_multibyte_data@@U__crt_internal_free_policy@@@@QBE_NXZ 1005df98 f i libucrt:wsetlocale.obj
 0001:0005d23a       ?detach@?$__crt_unique_heap_ptr@U__crt_locale_data@@U__crt_internal_free_policy@@@@QAEPAU__crt_locale_data@@XZ 1005e23a f i libucrt:wsetlocale.obj
 0001:0005d240       ?detach@?$__crt_unique_heap_ptr@U__crt_locale_pointers@@U__crt_internal_free_policy@@@@QAEPAU__crt_locale_pointers@@XZ 1005e240 f i libucrt:wsetlocale.obj
 0001:0005d246       ?detach@?$__crt_unique_heap_ptr@U__crt_multibyte_data@@U__crt_internal_free_policy@@@@QAEPAU__crt_multibyte_data@@XZ 1005e246 f i libucrt:wsetlocale.obj
 0001:0005d24c       ?get@?$__crt_unique_heap_ptr@U__crt_locale_data@@U__crt_internal_free_policy@@@@QBEPAU__crt_locale_data@@XZ 1005e24c f i libucrt:wsetlocale.obj
 0001:0005d24f       ?get@?$__crt_unique_heap_ptr@U__crt_locale_pointers@@U__crt_internal_free_policy@@@@QBEPAU__crt_locale_pointers@@XZ 1005e24f f i libucrt:wsetlocale.obj
 0001:0005d252       ?get@?$__crt_unique_heap_ptr@U__crt_multibyte_data@@U__crt_internal_free_policy@@@@QBEPAU__crt_multibyte_data@@XZ 1005e252 f i libucrt:wsetlocale.obj
 0001:0005d255       ?is_valid@?$__crt_unique_heap_ptr@U__crt_locale_data@@U__crt_internal_free_policy@@@@QBE_NXZ 1005e255 f i libucrt:wsetlocale.obj
 0001:0005d25c       ?is_valid@?$__crt_unique_heap_ptr@U__crt_locale_pointers@@U__crt_internal_free_policy@@@@QBE_NXZ 1005e25c f i libucrt:wsetlocale.obj
 0001:0005d263       ?is_valid@?$__crt_unique_heap_ptr@U__crt_multibyte_data@@U__crt_internal_free_policy@@@@QBE_NXZ 1005e263 f i libucrt:wsetlocale.obj
 0001:0005d26a       ?release@?$__crt_unique_heap_ptr@U__crt_locale_data@@U__crt_internal_free_policy@@@@QAEXXZ 1005e26a f i libucrt:wsetlocale.obj
 0001:0005d280       ?release@?$__crt_unique_heap_ptr@U__crt_locale_pointers@@U__crt_internal_free_policy@@@@QAEXXZ 1005e280 f i libucrt:wsetlocale.obj
 0001:0005d296       ?release@?$__crt_unique_heap_ptr@U__crt_multibyte_data@@U__crt_internal_free_policy@@@@QAEXXZ 1005e296 f i libucrt:wsetlocale.obj
 0001:0005d2ac       ___acrt_copy_locale_name   1005e2ac f   libucrt:wsetlocale.obj
 0001:0005d32b       ___acrt_set_locale_changed 1005e32b f   libucrt:wsetlocale.obj
 0001:0005d338       ___acrt_uninitialize_locale 1005e338 f   libucrt:wsetlocale.obj
 0001:0005d36b       ___lc_lctowcs              1005e36b f   libucrt:wsetlocale.obj
 0001:0005d3f7       ___lc_wcstolc              1005e3f7 f   libucrt:wsetlocale.obj
 0001:0005d597       __configthreadlocale       1005e597 f   libucrt:wsetlocale.obj
 0001:0005d64b       __create_locale            1005e64b f   libucrt:wsetlocale.obj
 0001:0005d6ca       __expandlocale             1005e6ca f   libucrt:wsetlocale.obj
 0001:0005db9e       __free_locale              1005eb9e f   libucrt:wsetlocale.obj
 0001:0005dc84       __get_current_locale       1005ec84 f   libucrt:wsetlocale.obj
 0001:0005dd48       __wcreate_locale           1005ed48 f   libucrt:wsetlocale.obj
 0001:0005de93       __wcscats                  1005ee93 f   libucrt:wsetlocale.obj
 0001:0005dee4       __wsetlocale               1005eee4 f   libucrt:wsetlocale.obj
 0001:0005ea1b       ___p___mb_cur_max          1005fa1b f   libucrt:nlsdata.obj
 0001:0005ea4b       __realloc_base             1005fa4b f   libucrt:realloc_base.obj
 0001:0005eace       ___acrt_initialize_locks   1005face f   libucrt:locks.obj
 0001:0005eb1f       ___acrt_lock               1005fb1f f   libucrt:locks.obj
 0001:0005eb3b       ___acrt_uninitialize_locks 1005fb3b f   libucrt:locks.obj
 0001:0005eb78       ___acrt_unlock             1005fb78 f   libucrt:locks.obj
 0001:0005eb94       __lock_locales             1005fb94 f   libucrt:locks.obj
 0001:0005eba5       __unlock_locales           1005fba5 f   libucrt:locks.obj
 0001:0005edc3       ___acrt_get_begin_thread_init_policy 1005fdc3 f   libucrt:win_policies.obj
 0001:0005ee19       ___acrt_get_developer_information_policy 1005fe19 f   libucrt:win_policies.obj
 0001:0005ee6f       ___acrt_get_process_end_policy 1005fe6f f   libucrt:win_policies.obj
 0001:0005eeae       ___acrt_get_windowing_model_policy 1005feae f   libucrt:win_policies.obj
 0001:0005f117       __close                    10060117 f   libucrt:close.obj
 0001:0005f1c9       __close_nolock             100601c9 f   libucrt:close.obj
 0001:0005f28c       ??$?RU__crt_stdio_stream_data@@@__crt_internal_free_policy@@QBEXQBU__crt_stdio_stream_data@@@Z 1006028c f i libucrt:stream.obj
 0001:0005f2a2       ??0?$__crt_unique_heap_ptr@U__crt_stdio_stream_data@@U__crt_internal_free_policy@@@@QAE@QAU__crt_stdio_stream_data@@@Z 100602a2 f i libucrt:stream.obj
 0001:0005f2b6       ??0__crt_stdio_stream@@QAE@XZ 100602b6 f i libucrt:stream.obj
 0001:0005f2bc       ??1?$__crt_unique_heap_ptr@U__crt_stdio_stream_data@@U__crt_internal_free_policy@@@@QAE@XZ 100602bc f i libucrt:stream.obj
 0001:0005f2d2       ?__acrt_stdio_allocate_stream@@YA?AV__crt_stdio_stream@@XZ 100602d2 f   libucrt:stream.obj
 0001:0005f348       ?__acrt_stdio_free_stream@@YAXV__crt_stdio_stream@@@Z 10060348 f   libucrt:stream.obj
 0001:0005f391       ?deallocate@__crt_stdio_stream@@QAEXXZ 10060391 f i libucrt:stream.obj
 0001:0005f39d       ?detach@?$__crt_unique_heap_ptr@U__crt_stdio_stream_data@@U__crt_internal_free_policy@@@@QAEPAU__crt_stdio_stream_data@@XZ 1006039d f i libucrt:stream.obj
 0001:0005f496       ?lock@__crt_stdio_stream@@QBEXXZ 10060496 f i libucrt:stream.obj
 0001:0005f4a1       ?release@?$__crt_unique_heap_ptr@U__crt_stdio_stream_data@@U__crt_internal_free_policy@@@@QAEXXZ 100604a1 f i libucrt:stream.obj
 0001:0005f4b7       ?try_allocate@__crt_stdio_stream@@QAE_NXZ 100604b7 f i libucrt:stream.obj
 0001:0005f4df       ??$__acrt_stdio_parse_mode@D@@YA?AU__acrt_stdio_stream_mode@@QBD@Z 100604df f i libucrt:openfile.obj
 0001:0005f799       ??$__acrt_stdio_parse_mode@_W@@YA?AU__acrt_stdio_stream_mode@@QB_W@Z 10060799 f i libucrt:openfile.obj
 0001:0005fbee       ??$tcsncmp@AAPBDAAY02$$CBDI@?$__crt_char_traits@D@@SAHAAPBDAAY02$$CBD$$QAI@Z 10060bee f i libucrt:openfile.obj
 0001:0005fc11       ??$tcsncmp@AAPB_WAAY02$$CB_WI@?$__crt_char_traits@_W@@SAHAAPB_WAAY02$$CB_W$$QAI@Z 10060c11 f i libucrt:openfile.obj
 0001:0005fc34       ??$tcsnicmp@AAPBDAAY04$$CBDI@?$__crt_char_traits@D@@SAHAAPBDAAY04$$CBD$$QAI@Z 10060c34 f i libucrt:openfile.obj
 0001:0005fc57       ??$tcsnicmp@AAPBDAAY06$$CBDI@?$__crt_char_traits@D@@SAHAAPBDAAY06$$CBD$$QAI@Z 10060c57 f i libucrt:openfile.obj
 0001:0005fc7a       ??$tcsnicmp@AAPBDAAY07$$CBDI@?$__crt_char_traits@D@@SAHAAPBDAAY07$$CBD$$QAI@Z 10060c7a f i libucrt:openfile.obj
 0001:0005fc9d       ??$tcsnicmp@AAPB_WAAY04$$CB_WI@?$__crt_char_traits@_W@@SAHAAPB_WAAY04$$CB_W$$QAI@Z 10060c9d f i libucrt:openfile.obj
 0001:0005fcc0       ??$tcsnicmp@AAPB_WAAY06$$CB_WI@?$__crt_char_traits@_W@@SAHAAPB_WAAY06$$CB_W$$QAI@Z 10060cc0 f i libucrt:openfile.obj
 0001:0005fce3       ??$tcsnicmp@AAPB_WAAY07$$CB_WI@?$__crt_char_traits@_W@@SAHAAPB_WAAY07$$CB_W$$QAI@Z 10060ce3 f i libucrt:openfile.obj
 0001:0005fd06       ??$tsopen_s@PAHABQBDABHABHH@?$__crt_char_traits@D@@SAH$$QAPAHABQBDABH2$$QAH@Z 10060d06 f i libucrt:openfile.obj
 0001:0005fd38       ??$tsopen_s@PAHABQB_WABHABHH@?$__crt_char_traits@_W@@SAH$$QAPAHABQB_WABH2$$QAH@Z 10060d38 f i libucrt:openfile.obj
 0001:0005fd6a       ?__acrt_stdio_parse_mode_D@@YA_NAAU__acrt_stdio_stream_mode@@@Z 10060d6a f i libucrt:openfile.obj
 0001:0005fd8b       ?__acrt_stdio_parse_mode_N@@YA_NAAU__acrt_stdio_stream_mode@@@Z 10060d8b f i libucrt:openfile.obj
 0001:0005fda1       ?__acrt_stdio_parse_mode_R@@YA_NAAU__acrt_stdio_stream_mode@@AA_N@Z 10060da1 f i libucrt:openfile.obj
 0001:0005fdc6       ?__acrt_stdio_parse_mode_S@@YA_NAAU__acrt_stdio_stream_mode@@AA_N@Z 10060dc6 f i libucrt:openfile.obj
 0001:0005fdeb       ?__acrt_stdio_parse_mode_T@@YA_NAAU__acrt_stdio_stream_mode@@@Z 10060deb f i libucrt:openfile.obj
 0001:0005fe11       ?__acrt_stdio_parse_mode_b@@YA_NAAU__acrt_stdio_stream_mode@@@Z 10060e11 f i libucrt:openfile.obj
 0001:0005fe39       ?__acrt_stdio_parse_mode_c@@YA_NAAU__acrt_stdio_stream_mode@@AA_N@Z 10060e39 f i libucrt:openfile.obj
 0001:0005fe63       ?__acrt_stdio_parse_mode_n@@YA_NAAU__acrt_stdio_stream_mode@@AA_N@Z 10060e63 f i libucrt:openfile.obj
 0001:0005fe8d       ?__acrt_stdio_parse_mode_plus@@YA_NAAU__acrt_stdio_stream_mode@@AA_N@Z 10060e8d f i libucrt:openfile.obj
 0001:0005fecf       ?__acrt_stdio_parse_mode_t@@YA_NAAU__acrt_stdio_stream_mode@@@Z 10060ecf f i libucrt:openfile.obj
 0001:0005fef7       ?__acrt_stdio_parse_mode_x@@YA_NAAU__acrt_stdio_stream_mode@@@Z 10060ef7 f i libucrt:openfile.obj
 0001:0005ff1f       __openfile                 10060f1f f   libucrt:openfile.obj
 0001:0005ff2c       __wopenfile                10060f2c f   libucrt:openfile.obj
 0001:000605ff       __read                     100615ff f   libucrt:read.obj
 0001:0006074b       __read_nolock              1006174b f   libucrt:read.obj
 0001:00060be9       __utf8_no_of_trailbytes    10061be9 f i libucrt:read.obj
 0001:00061108       ___acrt_stdio_refill_and_read_narrow_nolock 10062108 f   libucrt:_filbuf.obj
 0001:00061115       ___acrt_stdio_refill_and_read_wide_nolock 10062115 f   libucrt:_filbuf.obj
 0001:00061897       __write                    10062897 f   libucrt:write.obj
 0001:000619b9       __write_nolock             100629b9 f   libucrt:write.obj
 0001:000620fb       ___acrt_stdio_flush_and_write_narrow_nolock 100630fb f   libucrt:_flsbuf.obj
 0001:00062108       ___acrt_stdio_flush_and_write_wide_nolock 10063108 f   libucrt:_flsbuf.obj
 0001:00062197       ___acrt_MultiByteToWideChar 10063197 f   libucrt:multibytetowidechar.obj
 0001:00062232       __wremove                  10063232 f   libucrt:wunlink.obj
 0001:00062264       __wunlink                  10063264 f   libucrt:wunlink.obj
 0001:000626d1       __lseek                    100636d1 f   libucrt:lseek.obj
 0001:000626de       __lseek_nolock             100636de f   libucrt:lseek.obj
 0001:000626eb       __lseeki64                 100636eb f   libucrt:lseek.obj
 0001:0006270c       __lseeki64_nolock          1006370c f   libucrt:lseek.obj
 0001:0006272d       __chgsign                  1006372d f   libucrt:ieeemisc.obj
 0001:00062767       __chgsignf                 10063767 f   libucrt:ieeemisc.obj
 0001:00062792       __copysign                 10063792 f   libucrt:ieeemisc.obj
 0001:000627c6       __copysignf                100637c6 f   libucrt:ieeemisc.obj
 0001:000627eb       __finite                   100637eb f   libucrt:ieeemisc.obj
 0001:0006280b       __fpclass                  1006380b f   libucrt:ieeemisc.obj
 0001:000628d8       __isnan                    100638d8 f   libucrt:ieeemisc.obj
 0001:0006291b       __logb                     1006391b f   libucrt:ieeemisc.obj
 0001:00062a20       __nextafter                10063a20 f   libucrt:ieeemisc.obj
 0001:00062a46       __scalb                    10063a46 f   libucrt:ieeemisc.obj
 0001:00062a66       __add_exp                  10063a66 f   libucrt:util.obj
 0001:00062aa0       __decomp                   10063aa0 f   libucrt:util.obj
 0001:00062bb5       __get_exp                  10063bb5 f   libucrt:util.obj
 0001:00062bd3       __set_bexp                 10063bd3 f   libucrt:util.obj
 0001:00062c06       __set_exp                  10063c06 f   libucrt:util.obj
 0001:00062c40       __sptype                   10063c40 f   libucrt:util.obj
 0001:00062cb5       ___clrfp_sse2              10063cb5 f   libucrt:fpctrl.obj
 0001:00062cde       ___ctrlfp_sse2             10063cde f   libucrt:fpctrl.obj
 0001:00062d27       ___fclrf_sse2              10063d27 f   libucrt:fpctrl.obj
 0001:00062d4d       ___get_fpsr_sse2           10063d4d f   libucrt:fpctrl.obj
 0001:00062d72       ___set_fpsr_sse2           10063d72 f   libucrt:fpctrl.obj
 0001:00062e05       ___set_statfp_sse2         10063e05 f   libucrt:fpctrl.obj
 0001:00062e26       ___statfp_sse2             10063e26 f   libucrt:fpctrl.obj
 0001:00062e40       __clrfp                    10063e40 f   libucrt:fpctrl.obj
 0001:00062e57       __ctrlfp                   10063e57 f   libucrt:fpctrl.obj
 0001:00062e8e       __set_statfp               10063e8e f   libucrt:fpctrl.obj
 0001:00062eff       __statfp                   10063eff f   libucrt:fpctrl.obj
 0001:00062f20       __cintrindisp2             10063f20 f   libucrt:87cdisp.obj
 0001:00062f70       __cintrindisp1             10063f70 f   libucrt:87cdisp.obj
 0001:00062fb9       __ctrandisp2               10063fb9 f   libucrt:87cdisp.obj
 0001:00063148       __ctrandisp1               10064148 f   libucrt:87cdisp.obj
 0001:0006317b       __fload                    1006417b f   libucrt:87cdisp.obj
 0001:00063260       __trandisp1                10064260 f   libucrt:87disp.obj
 0001:000632d5       __trandisp2                100642d5 f   libucrt:87disp.obj
 0001:0006336f       __rttospopde               1006436f     libucrt:87disp.obj
 0001:00063374       __rttospop                 10064374     libucrt:87disp.obj
 0001:00063380       __rtnospop                 10064380 f   libucrt:87disp.obj
 0001:00063390       __rttosnpop                10064390 f   libucrt:87disp.obj
 0001:00063391       __rtnospopde               10064391     libucrt:87disp.obj
 0001:00063398       __rtzeropop                10064398     libucrt:87disp.obj
 0001:0006339a       __rtzeronpop               1006439a     libucrt:87disp.obj
 0001:000633a0       __rtzerospop               100643a0 f   libucrt:87disp.obj
 0001:000633ad       __rtonepop                 100643ad     libucrt:87disp.obj
 0001:000633b0       __rtonenpop                100643b0 f   libucrt:87disp.obj
 0001:000633c0       __tosnan1                  100643c0 f   libucrt:87disp.obj
 0001:000633f0       __nosnan2                  100643f0 f   libucrt:87disp.obj
 0001:00063400       __tosnan2                  10064400 f   libucrt:87disp.obj
 0001:00063430       __nan2                     10064430 f   libucrt:87disp.obj
 0001:00063470       __rtindfpop                10064470 f   libucrt:87disp.obj
 0001:00063472       __rtindfnpop               10064472     libucrt:87disp.obj
 0001:00063483       __rttosnpopde              10064483     libucrt:87disp.obj
 0001:00063490       __rtatan2inf               10064490 f   libucrt:87disp.obj
 0001:000634ad       __rtchsifneg               100644ad     libucrt:87disp.obj
 0001:00063549       ___libm_error_support      10064549 f   libucrt:libm_error.obj
 0001:000637e7       ___libm_setusermatherr     100647e7 f   libucrt:libm_error.obj
 0001:00063817       ___acrt_initialize_sse2    10064817 f   libucrt:mathfcns.obj
 0001:0006382b       __set_SSE2_enable          1006482b f   libucrt:mathfcns.obj
 0001:00063854       __ceil_default             10064854 f   libucrt:ceil.obj
 0001:00063a02       ___acrt_report_runtime_error 10064a02 f   libucrt:report_runtime_error.obj
 0001:00063b5c       __query_app_type           10064b5c f   libucrt:report_runtime_error.obj
 0001:00063b62       __set_app_type             10064b62 f   libucrt:report_runtime_error.obj
 0001:00064179       __i64toa                   10065179 f   libucrt:xtoa.obj
 0001:000641cc       __i64toa_s                 100651cc f   libucrt:xtoa.obj
 0001:0006421d       __i64tow                   1006521d f   libucrt:xtoa.obj
 0001:00064270       __i64tow_s                 10065270 f   libucrt:xtoa.obj
 0001:000642c1       __itoa                     100652c1 f   libucrt:xtoa.obj
 0001:00064305       __itoa_s                   10065305 f   libucrt:xtoa.obj
 0001:00064347       __itow                     10065347 f   libucrt:xtoa.obj
 0001:0006438b       __itow_s                   1006538b f   libucrt:xtoa.obj
 0001:000643cd       __ltoa                     100653cd f   libucrt:xtoa.obj
 0001:00064411       __ltoa_s                   10065411 f   libucrt:xtoa.obj
 0001:00064453       __ltow                     10065453 f   libucrt:xtoa.obj
 0001:00064497       __ltow_s                   10065497 f   libucrt:xtoa.obj
 0001:000644d9       __ui64toa                  100654d9 f   libucrt:xtoa.obj
 0001:00064503       __ui64toa_s                10065503 f   libucrt:xtoa.obj
 0001:0006452b       __ui64tow                  1006552b f   libucrt:xtoa.obj
 0001:00064555       __ui64tow_s                10065555 f   libucrt:xtoa.obj
 0001:0006457d       __ultoa                    1006557d f   libucrt:xtoa.obj
 0001:000645a3       __ultoa_s                  100655a3 f   libucrt:xtoa.obj
 0001:000645c7       __ultow                    100655c7 f   libucrt:xtoa.obj
 0001:000645ed       __ultow_s                  100655ed f   libucrt:xtoa.obj
 0001:00064611       __set_error_mode           10065611 f   libucrt:set_error_mode.obj
 0001:000646ed       _wcscat_s                  100656ed f   libucrt:wcscat_s.obj
 0001:000647f7       _wcscpy_s                  100657f7 f   libucrt:wcscpy_s.obj
 0001:00064997       _wcsncat_s                 10065997 f   libucrt:wcsncat_s.obj
 0001:00064a27       _strcat_s                  10065a27 f   libucrt:strcat_s.obj
 0001:00064bae       _strncat_s                 10065bae f   libucrt:strncat_s.obj
 0001:00064bbb       ___acrt_GetModuleFileNameA 10065bbb f   libucrt:getmodulefilenamea.obj
 0001:00064d73       ??$message_box@$$TABQBDABQBDK@?$__crt_char_traits@D@@SAH$$QA$$TABQBD1$$QAK@Z 10065d73 f i libucrt:crtmbox.obj
 0001:00064d9b       ??$message_box@$$TABQB_WABQB_WK@?$__crt_char_traits@_W@@SAH$$QA$$TABQB_W1$$QAK@Z 10065d9b f i libucrt:crtmbox.obj
 0001:00064dc3       ??$message_box@PAUHWND__@@ABQBDABQBDABI@?$__crt_char_traits@D@@SAH$$QAPAUHWND__@@ABQBD1ABI@Z 10065dc3 f i libucrt:crtmbox.obj
 0001:00064deb       ??$message_box@PAUHWND__@@ABQB_WABQB_WABI@?$__crt_char_traits@_W@@SAH$$QAPAUHWND__@@ABQB_W1ABI@Z 10065deb f i libucrt:crtmbox.obj
 0001:00064e13       ??$output_debug_string@ABQBD@?$__crt_char_traits@D@@SAXABQBD@Z 10065e13 f i libucrt:crtmbox.obj
 0001:00064e28       ??$output_debug_string@ABQB_W@?$__crt_char_traits@_W@@SAXABQB_W@Z 10065e28 f i libucrt:crtmbox.obj
 0001:00064e3e       ___acrt_show_narrow_message_box 10065e3e f   libucrt:crtmbox.obj
 0001:00064e4b       ___acrt_show_wide_message_box 10065e4b f   libucrt:crtmbox.obj
 0001:0006505a       _setvbuf                   1006605a f   libucrt:setvbuf.obj
 0001:000650ff       ??$?B$$A6AXH@Z@__crt_fast_encoded_nullptr_t@@QBEP6AXH@ZXZ 100660ff f i libucrt:signal.obj
 0001:000651bf       ??$__crt_fast_decode_pointer@P6AXH@Z@@YAP6AXH@ZQ6AXH@Z@Z 100661bf f i libucrt:signal.obj
 0001:000651da       ??$__crt_fast_encode_pointer@P6AXH@Z@@YAP6AXH@ZQ6AXH@Z@Z 100661da f i libucrt:signal.obj
 0001:00065384       ?initialize@?$dual_state_global@P6AXH@Z@__crt_state_management@@QAEXQ6AXH@Z@Z 10066384 f i libucrt:signal.obj
 0001:00065462       ?value@?$dual_state_global@P6AXH@Z@__crt_state_management@@QAEAAP6AXH@ZXZ 10066462 f i libucrt:signal.obj
 0001:00065465       ___acrt_get_sigabrt_handler 10066465 f   libucrt:signal.obj
 0001:00065498       ___acrt_initialize_signal_handlers 10066498 f   libucrt:signal.obj
 0001:000654bd       ___fpecode                 100664bd f   libucrt:signal.obj
 0001:000654c8       ___pxcptinfoptrs           100664c8 f   libucrt:signal.obj
 0001:000654d3       _raise                     100664d3 f   libucrt:signal.obj
 0001:00065755       _signal                    10066755 f   libucrt:signal.obj
 0001:00065972       ___pctype_func             10066972 f   libucrt:ctype.obj
 0001:000659a1       ___pwctype_func            100669a1 f   libucrt:ctype.obj
 0001:000659a7       __iswctype_l               100669a7 f   libucrt:iswctype.obj
 0001:000659c0       _iswctype                  100669c0 f   libucrt:iswctype.obj
 0001:00065a45       __isctype                  10066a45 f   libucrt:isctype.obj
 0001:00065a83       __isctype_l                10066a83 f   libucrt:isctype.obj
 0001:00065b91       __fgetwc_nolock            10066b91 f   libucrt:fgetwc.obj
 0001:00065d5f       __fgetwchar                10066d5f f   libucrt:fgetwc.obj
 0001:00065d73       __getwc_nolock             10066d73 f   libucrt:fgetwc.obj
 0001:00065d80       _fgetwc                    10066d80 f   libucrt:fgetwc.obj
 0001:00065e08       _getwc                     10066e08 f   libucrt:fgetwc.obj
 0001:00065e15       _getwchar                  10066e15 f   libucrt:fgetwc.obj
 0001:00065ffe       __ungetwc_nolock           10066ffe f   libucrt:ungetwc.obj
 0001:000660e1       _ungetwc                   100670e1 f   libucrt:ungetwc.obj
 0001:00066172       __fgetc_nolock             10067172 f   libucrt:fgetc.obj
 0001:000661bd       __fgetchar                 100671bd f   libucrt:fgetc.obj
 0001:000661d1       __getc_nolock              100671d1 f   libucrt:fgetc.obj
 0001:000661de       _fgetc                     100671de f   libucrt:fgetc.obj
 0001:0006631a       _getc                      1006731a f   libucrt:fgetc.obj
 0001:00066327       _getchar                   10067327 f   libucrt:fgetc.obj
 0001:0006632c       __ungetc_nolock            1006732c f   libucrt:ungetc.obj
 0001:0006645f       _ungetc                    1006745f f   libucrt:ungetc.obj
 0001:000664e2       ___fpe_flt_rounds          100674e2 f   libucrt:fegetround.obj
 0001:00066523       _fegetround                10067523 f   libucrt:fegetround.obj
 0001:00066533       ??$__crt_fast_decode_pointer@P6AHPAU_exception@@@Z@@YAP6AHPAU_exception@@@ZQ6AH0@Z@Z 10067533 f i libucrt:matherr.obj
 0001:0006654e       ??$__crt_fast_encode_pointer@P6AHPAU_exception@@@Z@@YAP6AHPAU_exception@@@ZQ6AH0@Z@Z 1006754e f i libucrt:matherr.obj
 0001:00066574       ?initialize@?$dual_state_global@P6AHPAU_exception@@@Z@__crt_state_management@@QAEXQ6AHPAU_exception@@@Z@Z 10067574 f i libucrt:matherr.obj
 0001:000665a3       ?value@?$dual_state_global@P6AHPAU_exception@@@Z@__crt_state_management@@QAEAAP6AHPAU_exception@@@ZXZ 100675a3 f i libucrt:matherr.obj
 0001:000665a6       ___acrt_has_user_matherr   100675a6 f   libucrt:matherr.obj
 0001:000665c4       ___acrt_initialize_user_matherr 100675c4 f   libucrt:matherr.obj
 0001:000665d6       ___acrt_invoke_user_matherr 100675d6 f   libucrt:matherr.obj
 0001:00066631       ___setusermatherr          10067631 f   libucrt:matherr.obj
 0001:0006713c       ??$find_first_file_ex@ABQADW4_FINDEX_INFO_LEVELS@@PAU_WIN32_FIND_DATAA@@W4_FINDEX_SEARCH_OPS@@$$TH@?$__crt_char_traits@D@@SAPAXABQAD$$QAW4_FINDEX_INFO_LEVELS@@$$QAPAU_WIN32_FIND_DATAA@@$$QAW4_FINDEX_SEARCH_OPS@@$$QA$$T$$QAH@Z 1006813c f i libucrt:argv_wildcards.obj
 0001:00067174       ??$find_first_file_ex@ABQA_WW4_FINDEX_INFO_LEVELS@@PAU_WIN32_FIND_DATAW@@W4_FINDEX_SEARCH_OPS@@$$TH@?$__crt_char_traits@_W@@SAPAXABQA_W$$QAW4_FINDEX_INFO_LEVELS@@$$QAPAU_WIN32_FIND_DATAW@@$$QAW4_FINDEX_SEARCH_OPS@@$$QA$$T$$QAH@Z 10068174 f i libucrt:argv_wildcards.obj
 0001:000671a9       ??$find_next_file@PAXPAU_WIN32_FIND_DATAA@@@?$__crt_char_traits@D@@SAH$$QAPAX$$QAPAU_WIN32_FIND_DATAA@@@Z 100681a9 f i libucrt:argv_wildcards.obj
 0001:000671c7       ??$find_next_file@PAXPAU_WIN32_FIND_DATAW@@@?$__crt_char_traits@_W@@SAH$$QAPAX$$QAPAU_WIN32_FIND_DATAW@@@Z 100681c7 f i libucrt:argv_wildcards.obj
 0001:000671e3       ??$tcsncpy_s@AAPADIAAPADABI@?$__crt_char_traits@D@@SAHAAPAD$$QAI0ABI@Z 100681e3 f i libucrt:argv_wildcards.obj
 0001:0006720e       ??$tcsncpy_s@AAPA_WIAAPA_WABI@?$__crt_char_traits@_W@@SAHAAPA_W$$QAI0ABI@Z 1006820e f i libucrt:argv_wildcards.obj
 0001:00067239       ??$tcsncpy_s@PADABIABQBDABI@?$__crt_char_traits@D@@SAH$$QAPADABIABQBD1@Z 10068239 f i libucrt:argv_wildcards.obj
 0001:00067264       ??$tcsncpy_s@PADIABQBDABI@?$__crt_char_traits@D@@SAH$$QAPAD$$QAIABQBDABI@Z 10068264 f i libucrt:argv_wildcards.obj
 0001:0006728f       ??$tcsncpy_s@PA_WABIABQB_WABI@?$__crt_char_traits@_W@@SAH$$QAPA_WABIABQB_W1@Z 1006828f f i libucrt:argv_wildcards.obj
 0001:000672ba       ??$tcsncpy_s@PA_WIABQB_WABI@?$__crt_char_traits@_W@@SAH$$QAPA_W$$QAIABQB_WABI@Z 100682ba f i libucrt:argv_wildcards.obj
 0001:000672e5       ??$tcspbrk@AAPADAAY02$$CBD@?$__crt_char_traits@D@@SAPADAAPADAAY02$$CBD@Z 100682e5 f i libucrt:argv_wildcards.obj
 0001:00067300       ??$tcspbrk@AAPA_WAAY02$$CB_W@?$__crt_char_traits@_W@@SAPA_WAAPA_WAAY02$$CB_W@Z 10068300 f i libucrt:argv_wildcards.obj
 0001:0006731b       ??0?$__crt_unique_handle_t@U__crt_findfile_traits@@@@QAE@QAX@Z 1006831b f i libucrt:argv_wildcards.obj
 0001:0006734f       ??1?$__crt_unique_handle_t@U__crt_findfile_traits@@@@QAE@XZ 1006834f f i libucrt:argv_wildcards.obj
 0001:000674f9       ?close@?$__crt_unique_handle_t@U__crt_findfile_traits@@@@QAEXXZ 100684f9 f i libucrt:argv_wildcards.obj
 0001:00067515       ?close@__crt_findfile_traits@@SA_NPAX@Z 10068515 f i libucrt:argv_wildcards.obj
 0001:00067687       ?get@?$__crt_unique_handle_t@U__crt_findfile_traits@@@@QBEPAXXZ 10068687 f i libucrt:argv_wildcards.obj
 0001:0006768a       ?get_invalid_value@__crt_findfile_traits@@SAPAXXZ 1006868a f i libucrt:argv_wildcards.obj
 0001:000676c1       ?strpbrk@@YAPADQADQBD@Z    100686c1 f i libucrt:argv_wildcards.obj
 0001:000676ce       ?wcspbrk@@YAPA_WPA_WPB_W@Z 100686ce f i libucrt:argv_wildcards.obj
 0001:000676db       ___acrt_expand_narrow_argv_wildcards 100686db f   libucrt:argv_wildcards.obj
 0001:000676e8       ___acrt_expand_wide_argv_wildcards 100686e8 f   libucrt:argv_wildcards.obj
 0001:0006777a       ??$initialize_from_array@$$BY10BAA@E@?$dual_state_global@PAE@__crt_state_management@@QAAXAAY10BAA@E@Z 1006877a f i libucrt:mbctype.obj
 0001:0006778c       ??$initialize_from_array@$$BY10BAB@E@?$dual_state_global@PAE@__crt_state_management@@QAAXAAY10BAB@E@Z 1006878c f i libucrt:mbctype.obj
 0001:000678eb       ?dangerous_get_state_array@?$dual_state_global@PAE@__crt_state_management@@QAEPAPAEXZ 100688eb f i libucrt:mbctype.obj
 0001:000678ee       ?dangerous_get_state_array@?$dual_state_global@PAU__crt_multibyte_data@@@__crt_state_management@@QAEPAPAU__crt_multibyte_data@@XZ 100688ee f i libucrt:mbctype.obj
 0001:00067980       ?initialize@?$dual_state_global@PAU__crt_multibyte_data@@@__crt_state_management@@QAEXQAU__crt_multibyte_data@@@Z 10068980 f i libucrt:mbctype.obj
 0001:00067e6f       ?value@?$dual_state_global@PAE@__crt_state_management@@QAEAAPAEXZ 10068e6f f i libucrt:mbctype.obj
 0001:00067e72       ___acrt_initialize_multibyte 10068e72 f   libucrt:mbctype.obj
 0001:00067ecc       ___acrt_update_thread_multibyte_data 10068ecc f   libucrt:mbctype.obj
 0001:00067ee3       ___p__mbcasemap            10068ee3 f   libucrt:mbctype.obj
 0001:00067ee9       ___p__mbctype              10068ee9 f   libucrt:mbctype.obj
 0001:00067eef       __getmbcp                  10068eef f   libucrt:mbctype.obj
 0001:00067f32       __setmbcp                  10068f32 f   libucrt:mbctype.obj
 0001:00067f58       __setmbcp_nolock           10068f58 f   libucrt:mbctype.obj
 0001:000682e1       __ismbbalnum               100692e1 f   libucrt:ismbbyte.obj
 0001:00068302       __ismbbalnum_l             10069302 f   libucrt:ismbbyte.obj
 0001:00068325       __ismbbalpha               10069325 f   libucrt:ismbbyte.obj
 0001:00068346       __ismbbalpha_l             10069346 f   libucrt:ismbbyte.obj
 0001:00068369       __ismbbblank               10069369 f   libucrt:ismbbyte.obj
 0001:00068394       __ismbbblank_l             10069394 f   libucrt:ismbbyte.obj
 0001:000683c1       __ismbbgraph               100693c1 f   libucrt:ismbbyte.obj
 0001:000683e2       __ismbbgraph_l             100693e2 f   libucrt:ismbbyte.obj
 0001:00068405       __ismbbkalnum              10069405 f   libucrt:ismbbyte.obj
 0001:00068423       __ismbbkalnum_l            10069423 f   libucrt:ismbbyte.obj
 0001:00068442       __ismbbkana                10069442 f   libucrt:ismbbyte.obj
 0001:00068459       __ismbbkana_l              10069459 f   libucrt:ismbbyte.obj
 0001:000684be       __ismbbkprint              100694be f   libucrt:ismbbyte.obj
 0001:000684dc       __ismbbkprint_l            100694dc f   libucrt:ismbbyte.obj
 0001:000684fb       __ismbbkpunct              100694fb f   libucrt:ismbbyte.obj
 0001:00068519       __ismbbkpunct_l            10069519 f   libucrt:ismbbyte.obj
 0001:00068538       __ismbblead                10069538 f   libucrt:ismbbyte.obj
 0001:00068556       __ismbblead_l              10069556 f   libucrt:ismbbyte.obj
 0001:00068575       __ismbbprint               10069575 f   libucrt:ismbbyte.obj
 0001:00068596       __ismbbprint_l             10069596 f   libucrt:ismbbyte.obj
 0001:000685b9       __ismbbpunct               100695b9 f   libucrt:ismbbyte.obj
 0001:000685d7       __ismbbpunct_l             100695d7 f   libucrt:ismbbyte.obj
 0001:000685f6       __ismbbtrail               100695f6 f   libucrt:ismbbyte.obj
 0001:00068614       __ismbbtrail_l             10069614 f   libucrt:ismbbyte.obj
 0001:00068633       ___acrt_initialize_command_line 10069633 f   libucrt:argv_data.obj
 0001:00068652       ___acrt_uninitialize_command_line 10069652 f   libucrt:argv_data.obj
 0001:00068655       ___p___argc                10069655 f   libucrt:argv_data.obj
 0001:0006865b       ___p___argv                1006965b f   libucrt:argv_data.obj
 0001:00068661       ___p___wargv               10069661 f   libucrt:argv_data.obj
 0001:00068667       ___p__acmdln               10069667 f   libucrt:argv_data.obj
 0001:0006866d       ___p__pgmptr               1006966d f   libucrt:argv_data.obj
 0001:00068673       ___p__wcmdln               10069673 f   libucrt:argv_data.obj
 0001:00068679       ___p__wpgmptr              10069679 f   libucrt:argv_data.obj
 0001:0006867f       __get_pgmptr               1006967f f   libucrt:argv_data.obj
 0001:000686bc       __get_wpgmptr              100696bc f   libucrt:argv_data.obj
 0001:00068777       ___acrt_WideCharToMultiByte 10069777 f   libucrt:widechartomultibyte.obj
 0001:00068909       ___dcrt_get_narrow_environment_from_os 10069909 f   libucrt:get_environment_from_os.obj
 0001:000689b0       ___dcrt_get_wide_environment_from_os 100699b0 f   libucrt:get_environment_from_os.obj
 0001:000692b4       ??$get_or_create_environment_nolock@$$V@?$__crt_char_traits@D@@SAPAPADXZ 1006a2b4 f i libucrt:setenv.obj
 0001:000692b9       ??$get_or_create_environment_nolock@$$V@?$__crt_char_traits@_W@@SAPAPA_WXZ 1006a2b9 f i libucrt:setenv.obj
 0001:000692be       ??$set_environment_variable@ABQADQAD@?$__crt_char_traits@D@@SAHABQAD$$QBQAD@Z 1006a2be f i libucrt:setenv.obj
 0001:000692dc       ??$set_environment_variable@ABQA_WQA_W@?$__crt_char_traits@_W@@SAHABQA_W$$QBQA_W@Z 1006a2dc f i libucrt:setenv.obj
 0001:000692f8       ??$tcschr@ABQADD@?$__crt_char_traits@D@@SAPADABQAD$$QAD@Z 1006a2f8 f i libucrt:setenv.obj
 0001:00069318       ??$tcschr@ABQA_WD@?$__crt_char_traits@_W@@SAPA_WABQA_W$$QAD@Z 1006a318 f i libucrt:setenv.obj
 0001:0006933d       ??$tcscpy_s@AAPADABIAAPAD@?$__crt_char_traits@D@@SAHAAPADABI0@Z 1006a33d f i libucrt:setenv.obj
 0001:00069362       ??$tcscpy_s@AAPA_WABIAAPA_W@?$__crt_char_traits@_W@@SAHAAPA_WABI0@Z 1006a362 f i libucrt:setenv.obj
 0001:00069387       ??$tcscpy_s@ABQADABIABQAD@?$__crt_char_traits@D@@SAHABQADABI0@Z 1006a387 f i libucrt:setenv.obj
 0001:000693ac       ??$tcscpy_s@ABQA_WABIABQA_W@?$__crt_char_traits@_W@@SAHABQA_WABI0@Z 1006a3ac f i libucrt:setenv.obj
 0001:000693d1       ??$tcsnicoll@ABQBDAAPADABI@?$__crt_char_traits@D@@SAHABQBDAAPADABI@Z 1006a3d1 f i libucrt:setenv.obj
 0001:000693f6       ??$tcsnicoll@ABQB_WAAPA_WABI@?$__crt_char_traits@_W@@SAHABQB_WAAPA_WABI@Z 1006a3f6 f i libucrt:setenv.obj
 0001:0006943f       ?strchr@@YAPADQADH@Z       1006a43f f i libucrt:setenv.obj
 0001:0006944c       ?wcschr@@YAPA_WPA_W_W@Z    1006a44c f i libucrt:setenv.obj
 0001:00069459       ___dcrt_set_variable_in_narrow_environment_nolock 1006a459 f   libucrt:setenv.obj
 0001:00069466       ___dcrt_set_variable_in_wide_environment_nolock 1006a466 f   libucrt:setenv.obj
 0001:00069473       __recalloc                 1006a473 f   libucrt:recalloc.obj
 0001:00069480       __recalloc_base            1006a480 f   libucrt:recalloc.obj
 0001:00069508       ___acrt_getheap            1006a508 f   libucrt:heap_handle.obj
 0001:0006950e       ___acrt_initialize_heap    1006a50e f   libucrt:heap_handle.obj
 0001:00069523       ___acrt_uninitialize_heap  1006a523 f   libucrt:heap_handle.obj
 0001:0006952f       __get_heap_handle          1006a52f f   libucrt:heap_handle.obj
 0001:00069535       ___acrt_execute_initializers 1006a535 f   libucrt:shared_initialization.obj
 0001:000695d8       ___acrt_execute_uninitializers 1006a5d8 f   libucrt:shared_initialization.obj
 0001:00069632       ??$?B$$A6AHI@Z@__crt_fast_encoded_nullptr_t@@QBEP6AHI@ZXZ 1006a632 f i libucrt:new_handler.obj
 0001:00069650       ??$__crt_fast_decode_pointer@P6AHI@Z@@YAP6AHI@ZQ6AHI@Z@Z 1006a650 f i libucrt:new_handler.obj
 0001:0006966b       ??$__crt_fast_encode_pointer@P6AHI@Z@@YAP6AHI@ZQ6AHI@Z@Z 1006a66b f i libucrt:new_handler.obj
 0001:00069691       ?_set_new_handler@@YAP6AHI@ZH@Z 1006a691 f   libucrt:new_handler.obj
 0001:000696b7       ?initialize@?$dual_state_global@P6AHI@Z@__crt_state_management@@QAEXQ6AHI@Z@Z 1006a6b7 f i libucrt:new_handler.obj
 0001:000696e6       ?value@?$dual_state_global@P6AHI@Z@__crt_state_management@@QAEAAP6AHI@ZXZ 1006a6e6 f i libucrt:new_handler.obj
 0001:000696e9       ___acrt_initialize_new_handler 1006a6e9 f   libucrt:new_handler.obj
 0001:000696fb       __callnewh                 1006a6fb f   libucrt:new_handler.obj
 0001:00069750       __query_new_handler        1006a750 f   libucrt:new_handler.obj
 0001:000697b6       __set_new_handler          1006a7b6 f   libucrt:new_handler.obj
 0001:0006982e       ?value@?$dual_state_global@J@__crt_state_management@@QAEAAJXZ 1006a82e f i libucrt:new_mode.obj
 0001:00069831       __query_new_mode           1006a831 f   libucrt:new_mode.obj
 0001:00069837       __set_new_mode             1006a837 f   libucrt:new_mode.obj
 0001:00069a1d       ___acrt_DownlevelLCIDToLocaleName 1006aa1d f   libucrt:lcidtoname_downlevel.obj
 0001:00069af1       ___acrt_DownlevelLocaleNameToLCID 1006aaf1 f   libucrt:lcidtoname_downlevel.obj
 0001:00069cd8       __commit                   1006acd8 f   libucrt:commit.obj
 0001:00069d76       ??$?RU__crt_lowio_handle_data@@@__crt_internal_free_policy@@QBEXQBU__crt_lowio_handle_data@@@Z 1006ad76 f i libucrt:osfinfo.obj
 0001:00069d8c       ??0?$__crt_unique_heap_ptr@U__crt_lowio_handle_data@@U__crt_internal_free_policy@@@@QAE@QAU__crt_lowio_handle_data@@@Z 1006ad8c f i libucrt:osfinfo.obj
 0001:00069da0       ??1?$__crt_unique_heap_ptr@U__crt_lowio_handle_data@@U__crt_internal_free_policy@@@@QAE@XZ 1006ada0 f i libucrt:osfinfo.obj
 0001:00069db6       ??B?$__crt_unique_heap_ptr@U__crt_lowio_handle_data@@U__crt_internal_free_policy@@@@QBE_NXZ 1006adb6 f i libucrt:osfinfo.obj
 0001:00069dbd       ?detach@?$__crt_unique_heap_ptr@U__crt_lowio_handle_data@@U__crt_internal_free_policy@@@@QAEPAU__crt_lowio_handle_data@@XZ 1006adbd f i libucrt:osfinfo.obj
 0001:00069dc3       ?get@?$__crt_unique_heap_ptr@U__crt_lowio_handle_data@@U__crt_internal_free_policy@@@@QBEPAU__crt_lowio_handle_data@@XZ 1006adc3 f i libucrt:osfinfo.obj
 0001:00069dc6       ?is_valid@?$__crt_unique_heap_ptr@U__crt_lowio_handle_data@@U__crt_internal_free_policy@@@@QBE_NXZ 1006adc6 f i libucrt:osfinfo.obj
 0001:00069dcd       ?release@?$__crt_unique_heap_ptr@U__crt_lowio_handle_data@@U__crt_internal_free_policy@@@@QAEXXZ 1006adcd f i libucrt:osfinfo.obj
 0001:00069de3       ___acrt_lowio_create_handle_array 1006ade3 f   libucrt:osfinfo.obj
 0001:00069e7b       ___acrt_lowio_destroy_handle_array 1006ae7b f   libucrt:osfinfo.obj
 0001:00069ebd       ___acrt_lowio_ensure_fh_exists 1006aebd f   libucrt:osfinfo.obj
 0001:00069f76       ___acrt_lowio_lock_fh      1006af76 f   libucrt:osfinfo.obj
 0001:00069fa1       ___acrt_lowio_set_os_handle 1006afa1 f   libucrt:osfinfo.obj
 0001:0006a05a       ___acrt_lowio_unlock_fh    1006b05a f   libucrt:osfinfo.obj
 0001:0006a085       __alloc_osfhnd             1006b085 f   libucrt:osfinfo.obj
 0001:0006a1d0       __free_osfhnd              1006b1d0 f   libucrt:osfinfo.obj
 0001:0006a285       __get_osfhandle            1006b285 f   libucrt:osfinfo.obj
 0001:0006a309       __open_osfhandle           1006b309 f   libucrt:osfinfo.obj
 0001:0006a458       ___iswcsym                 1006b458 f i libucrt:_wctype.obj
 0001:0006a487       ___iswcsymf                1006b487 f i libucrt:_wctype.obj
 0001:0006a4b6       __isleadbyte_l             1006b4b6 f i libucrt:_wctype.obj
 0001:0006a4fd       __iswalnum_l               1006b4fd f i libucrt:_wctype.obj
 0001:0006a518       __iswalpha_l               1006b518 f i libucrt:_wctype.obj
 0001:0006a533       __iswblank_l               1006b533 f i libucrt:_wctype.obj
 0001:0006a557       __iswcntrl_l               1006b557 f i libucrt:_wctype.obj
 0001:0006a56e       __iswcsym_l                1006b56e f i libucrt:_wctype.obj
 0001:0006a59d       __iswcsymf_l               1006b59d f i libucrt:_wctype.obj
 0001:0006a5cc       __iswdigit_l               1006b5cc f i libucrt:_wctype.obj
 0001:0006a5e3       __iswgraph_l               1006b5e3 f i libucrt:_wctype.obj
 0001:0006a5fe       __iswlower_l               1006b5fe f i libucrt:_wctype.obj
 0001:0006a615       __iswprint_l               1006b615 f i libucrt:_wctype.obj
 0001:0006a630       __iswpunct_l               1006b630 f i libucrt:_wctype.obj
 0001:0006a647       __iswspace_l               1006b647 f i libucrt:_wctype.obj
 0001:0006a65e       __iswupper_l               1006b65e f i libucrt:_wctype.obj
 0001:0006a675       __iswxdigit_l              1006b675 f i libucrt:_wctype.obj
 0001:0006a690       _isleadbyte                1006b690 f i libucrt:_wctype.obj
 0001:0006a6a7       _iswalnum                  1006b6a7 f i libucrt:_wctype.obj
 0001:0006a6c2       _iswalpha                  1006b6c2 f i libucrt:_wctype.obj
 0001:0006a6dd       _iswascii                  1006b6dd f i libucrt:_wctype.obj
 0001:0006a6f6       _iswblank                  1006b6f6 f i libucrt:_wctype.obj
 0001:0006a71a       _iswcntrl                  1006b71a f i libucrt:_wctype.obj
 0001:0006a731       _iswdigit                  1006b731 f i libucrt:_wctype.obj
 0001:0006a748       _iswgraph                  1006b748 f i libucrt:_wctype.obj
 0001:0006a763       _iswlower                  1006b763 f i libucrt:_wctype.obj
 0001:0006a77a       _iswprint                  1006b77a f i libucrt:_wctype.obj
 0001:0006a795       _iswpunct                  1006b795 f i libucrt:_wctype.obj
 0001:0006a7ac       _iswspace                  1006b7ac f i libucrt:_wctype.obj
 0001:0006a7c3       _iswupper                  1006b7c3 f i libucrt:_wctype.obj
 0001:0006a7da       _iswxdigit                 1006b7da f i libucrt:_wctype.obj
 0001:0006a7f5       ??0?$__crt_scoped_stack_ptr@_W@@QAE@U?$__crt_scoped_stack_ptr_tag@_W@@@Z 1006b7f5 f i libucrt:lcmapstringa.obj
 0001:0006a809       ??0?$__crt_scoped_stack_ptr_tag@_W@@QAE@QA_W@Z 1006b809 f i libucrt:lcmapstringa.obj
 0001:0006a81d       ??1?$__crt_scoped_stack_ptr@_W@@QAE@XZ 1006b81d f i libucrt:lcmapstringa.obj
 0001:0006a828       ??B?$__crt_scoped_stack_ptr@_W@@QBE_NXZ 1006b828 f i libucrt:lcmapstringa.obj
 0001:0006aa96       ?get@?$__crt_scoped_stack_ptr@_W@@QBEPA_WXZ 1006ba96 f i libucrt:lcmapstringa.obj
 0001:0006aa99       __MallocaComputeSize       1006ba99 f i libucrt:lcmapstringa.obj
 0001:0006aab0       __MarkAllocaS              1006bab0 f i libucrt:lcmapstringa.obj
 0001:0006aacb       ___acrt_LCMapStringA       1006bacb f   libucrt:lcmapstringa.obj
 0001:0006ab28       __freea_crt                1006bb28 f i libucrt:lcmapstringa.obj
 0001:0006ab87       ?__mbrtowc_utf8@__crt_mbstring@@YAIPA_WPBDIPAU_Mbstatet@@@Z 1006bb87 f   libucrt:mbrtowc.obj
 0001:0006abd9       ?__mbsrtowcs_utf8@__crt_mbstring@@YAIPA_WPAPBDIPAU_Mbstatet@@@Z 1006bbd9 f   libucrt:mbrtowc.obj
 0001:0006b0f6       _btowc                     1006c0f6 f   libucrt:mbrtowc.obj
 0001:0006b166       _mbrlen                    1006c166 f   libucrt:mbrtowc.obj
 0001:0006b1a7       _mbrtowc                   1006c1a7 f   libucrt:mbrtowc.obj
 0001:0006b20e       _mbsrtowcs                 1006c20e f   libucrt:mbrtowc.obj
 0001:0006b21b       _mbsrtowcs_s               1006c21b f   libucrt:mbrtowc.obj
 0001:0006b2e6       ??$?RG@__crt_internal_free_policy@@QBEXQBG@Z 1006c2e6 f i libucrt:initctype.obj
 0001:0006b2fc       ??$?RJ@__crt_internal_free_policy@@QBEXQBJ@Z 1006c2fc f i libucrt:initctype.obj
 0001:0006b312       ??0?$__crt_unique_heap_ptr@GU__crt_internal_free_policy@@@@QAE@QAG@Z 1006c312 f i libucrt:initctype.obj
 0001:0006b326       ??0?$__crt_unique_heap_ptr@JU__crt_internal_free_policy@@@@QAE@QAJ@Z 1006c326 f i libucrt:initctype.obj
 0001:0006b33a       ??1?$__crt_unique_heap_ptr@GU__crt_internal_free_policy@@@@QAE@XZ 1006c33a f i libucrt:initctype.obj
 0001:0006b350       ??1?$__crt_unique_heap_ptr@JU__crt_internal_free_policy@@@@QAE@XZ 1006c350 f i libucrt:initctype.obj
 0001:0006b366       ?detach@?$__crt_unique_heap_ptr@GU__crt_internal_free_policy@@@@QAEPAGXZ 1006c366 f i libucrt:initctype.obj
 0001:0006b36c       ?detach@?$__crt_unique_heap_ptr@JU__crt_internal_free_policy@@@@QAEPAJXZ 1006c36c f i libucrt:initctype.obj
 0001:0006b372       ?release@?$__crt_unique_heap_ptr@GU__crt_internal_free_policy@@@@QAEXXZ 1006c372 f i libucrt:initctype.obj
 0001:0006b388       ?release@?$__crt_unique_heap_ptr@JU__crt_internal_free_policy@@@@QAEXXZ 1006c388 f i libucrt:initctype.obj
 0001:0006b39e       ____lc_codepage_func       1006c39e f   libucrt:initctype.obj
 0001:0006b3ce       ____lc_collate_cp_func     1006c3ce f   libucrt:initctype.obj
 0001:0006b3fe       ____lc_locale_name_func    1006c3fe f   libucrt:initctype.obj
 0001:0006b431       ____mb_cur_max_func        1006c431 f   libucrt:initctype.obj
 0001:0006b461       ____mb_cur_max_l_func      1006c461 f   libucrt:initctype.obj
 0001:0006b480       ___acrt_locale_initialize_ctype 1006c480 f   libucrt:initctype.obj
 0001:0006b9c1       ___acrt_add_locale_ref     1006c9c1 f   libucrt:locale_refcounting.obj
 0001:0006ba5d       ___acrt_free_locale        1006ca5d f   libucrt:locale_refcounting.obj
 0001:0006bbf9       ___acrt_locale_add_lc_time_reference 1006cbf9 f   libucrt:locale_refcounting.obj
 0001:0006bc2c       ___acrt_locale_free_lc_time_if_unreferenced 1006cc2c f   libucrt:locale_refcounting.obj
 0001:0006bc68       ___acrt_locale_release_lc_time_reference 1006cc68 f   libucrt:locale_refcounting.obj
 0001:0006bc9b       ___acrt_release_locale_ref 1006cc9b f   libucrt:locale_refcounting.obj
 0001:0006bd3c       ___acrt_update_thread_locale_data 1006cd3c f   libucrt:locale_refcounting.obj
 0001:0006bdd0       __updatetlocinfoEx_nolock  1006cdd0 f   libucrt:locale_refcounting.obj
 0001:0006be34       ___acrt_fp_strflt_to_string 1006ce34 f   libucrt:_fptostr.obj
 0001:0006d7a0       ??8__crt_strtox@@YA_NABUbig_integer@0@0@Z 1006e7a0 f i libucrt:cfout.obj
 0001:0006d7f0       ??9__crt_strtox@@YA_NABUbig_integer@0@0@Z 1006e7f0 f i libucrt:cfout.obj
 0001:0006d840       ?is_zero@__crt_strtox@@YA_NABUbig_integer@1@@Z 1006e840 f i libucrt:cfout.obj
 0001:0006d860       ?make_big_integer_power_of_two@__crt_strtox@@YA?AUbig_integer@1@I@Z 1006e860 f i libucrt:cfout.obj
 0001:0006d8bf       ___acrt_fltout             1006e8bf f   libucrt:cfout.obj
 0001:0006f1aa       __isatty                   100701aa f   libucrt:isatty.obj
 0001:0006f215       ??$?RUlconv@@@__crt_internal_free_policy@@QBEXQBUlconv@@@Z 10070215 f i libucrt:initmon.obj
 0001:0006f22b       ??0?$__crt_unique_heap_ptr@Ulconv@@U__crt_internal_free_policy@@@@QAE@QAUlconv@@@Z 1007022b f i libucrt:initmon.obj
 0001:0006f23f       ??1?$__crt_unique_heap_ptr@Ulconv@@U__crt_internal_free_policy@@@@QAE@XZ 1007023f f i libucrt:initmon.obj
 0001:0006f255       ?detach@?$__crt_unique_heap_ptr@Ulconv@@U__crt_internal_free_policy@@@@QAEPAUlconv@@XZ 10070255 f i libucrt:initmon.obj
 0001:0006f25b       ?release@?$__crt_unique_heap_ptr@Ulconv@@U__crt_internal_free_policy@@@@QAEXXZ 1007025b f i libucrt:initmon.obj
 0001:0006f271       ___acrt_locale_free_monetary 10070271 f   libucrt:initmon.obj
 0001:0006f3ae       ___acrt_locale_initialize_monetary 100703ae f   libucrt:initmon.obj
 0001:0006f89b       ___acrt_locale_free_numeric 1007089b f   libucrt:initnum.obj
 0001:0006f91e       ___acrt_locale_initialize_numeric 1007091e f   libucrt:initnum.obj
 0001:0006fbf9       ??$?RU__crt_lc_time_data@@@__crt_internal_free_policy@@QBEXQBU__crt_lc_time_data@@@Z 10070bf9 f i libucrt:inittime.obj
 0001:0006fc99       ??0?$__crt_unique_heap_ptr@U__crt_lc_time_data@@U__crt_internal_free_policy@@@@QAE@QAU__crt_lc_time_data@@@Z 10070c99 f i libucrt:inittime.obj
 0001:0006fcad       ??1?$__crt_unique_heap_ptr@U__crt_lc_time_data@@U__crt_internal_free_policy@@@@QAE@XZ 10070cad f i libucrt:inittime.obj
 0001:0006fcc3       ??B?$__crt_unique_heap_ptr@U__crt_lc_time_data@@U__crt_internal_free_policy@@@@QBE_NXZ 10070cc3 f i libucrt:inittime.obj
 0001:0006fcca       ?detach@?$__crt_unique_heap_ptr@U__crt_lc_time_data@@U__crt_internal_free_policy@@@@QAEPAU__crt_lc_time_data@@XZ 10070cca f i libucrt:inittime.obj
 0001:0006fd16       ?get@?$__crt_unique_heap_ptr@U__crt_lc_time_data@@U__crt_internal_free_policy@@@@QBEPAU__crt_lc_time_data@@XZ 10070d16 f i libucrt:inittime.obj
 0001:000700af       ?is_valid@?$__crt_unique_heap_ptr@U__crt_lc_time_data@@U__crt_internal_free_policy@@@@QBE_NXZ 100710af f i libucrt:inittime.obj
 0001:000700b6       ?release@?$__crt_unique_heap_ptr@U__crt_lc_time_data@@U__crt_internal_free_policy@@@@QAEXXZ 100710b6 f i libucrt:inittime.obj
 0001:000700cc       ___acrt_locale_free_time   100710cc f   libucrt:inittime.obj
 0001:000701e9       ___acrt_locale_initialize_time 100711e9 f   libucrt:inittime.obj
 0001:00070381       _wcsncpy_s                 10071381 f   libucrt:wcsncpy_s.obj
 0001:0007038e       _wcscspn                   1007138e f   libucrt:wcscspn.obj
 0001:000703ff       _wcspbrk                   100713ff f   libucrt:wcspbrk.obj
 0001:00070460       __wcsicmp                  10071460 f   libucrt:wcsicmp.obj
 0001:00070511       __wcsicmp_l                10071511 f   libucrt:wcsicmp.obj
 0001:00070625       ___acrt_GetStringTypeA     10071625 f   libucrt:getstringtypea.obj
 0001:0007109a       ___acrt_get_qualified_locale 1007209a f   libucrt:get_qualified_locale.obj
 0001:00071c88       ___acrt_get_qualified_locale_downlevel 10072c88 f   libucrt:getqloc_downlevel.obj
 0001:00071efc       _localeconv                10072efc f   libucrt:localeconv.obj
 0001:00071f30       __wcsnicmp                 10072f30 f   libucrt:wcsnicmp.obj
 0001:0007200d       __wcsnicmp_l               1007300d f   libucrt:wcsnicmp.obj
 0001:00072149       __strnicmp                 10073149 f   libucrt:strnicmp.obj
 0001:000721d1       __strnicmp_l               100731d1 f   libucrt:strnicmp.obj
 0001:0007235a       ??$__vcrt_va_start_verify_argument_type@$$CBH@@YAXXZ 1007335a f i libucrt:open.obj
 0001:000726cb       ??$tsopen_nolock@PAHABQAHABQBDABHABHABHABH@?$__crt_char_traits@D@@SAH$$QAPAHABQAHABQBDABH333@Z 100736cb f i libucrt:open.obj
 0001:00072709       ??$tsopen_nolock@PAHABQAHABQB_WABHABHABHABH@?$__crt_char_traits@_W@@SAH$$QAPAHABQAHABQB_WABH333@Z 10073709 f i libucrt:open.obj
 0001:00072747       ??$tsopen_nolock@PAHPAHABQBDABHHABHH@?$__crt_char_traits@D@@SAH$$QAPAH0ABQBDABH$$QAH23@Z 10073747 f i libucrt:open.obj
 0001:00072785       ??$tsopen_nolock@PAHPAHABQB_WABHHABHH@?$__crt_char_traits@_W@@SAH$$QAPAH0ABQB_WABH$$QAH23@Z 10073785 f i libucrt:open.obj
 0001:00072f77       __open                     10073f77 f   libucrt:open.obj
 0001:00072f95       __sopen                    10073f95 f   libucrt:open.obj
 0001:00072fd7       __sopen_dispatch           10073fd7 f   libucrt:open.obj
 0001:00072fe4       __sopen_nolock             10073fe4 f   libucrt:open.obj
 0001:00073070       __sopen_s                  10074070 f   libucrt:open.obj
 0001:00073098       __wopen                    10074098 f   libucrt:open.obj
 0001:000730b6       __wsopen                   100740b6 f   libucrt:open.obj
 0001:000730f8       __wsopen_dispatch          100740f8 f   libucrt:open.obj
 0001:00073105       __wsopen_nolock            10074105 f   libucrt:open.obj
 0001:000734fc       __wsopen_s                 100744fc f   libucrt:open.obj
 0001:00073524       ___p__commode              10074524 f   libucrt:ncommode.obj
 0001:0007352a       ___acrt_stdio_allocate_buffer_nolock 1007452a f   libucrt:_getbuf.obj
 0001:000736a6       __putwch                   100746a6 f   libucrt:putwch.obj
 0001:000736e0       __putwch_nolock            100746e0 f   libucrt:putwch.obj
 0001:00073721       _nextafter                 10074721 f   libucrt:nextafter.obj
 0001:00073747       ___setfflag                10074747 f   libucrt:fp_flags.obj
 0001:00073761       __87except                 10074761 f   libucrt:87except.obj
 0001:000738ad       __frnd                     100748ad f   libucrt:frnd.obj
 0001:00073ad6       __mbstowcs_l               10074ad6 f   libucrt:mbstowcs.obj
 0001:00073ae3       __mbstowcs_s_l             10074ae3 f   libucrt:mbstowcs.obj
 0001:00073bfd       _mbstowcs                  10074bfd f   libucrt:mbstowcs.obj
 0001:00073c31       _mbstowcs_s                10074c31 f   libucrt:mbstowcs.obj
 0001:00073c59       ___acrt_OutputDebugStringA@4 10074c59 f   libucrt:outputdebugstringa.obj
 0001:00073ce6       ___acrt_GetStringTypeW     10074ce6 f   libucrt:getstringtypew.obj
 0001:00073d05       ??$__acrt_fenv_shift_bits@W4__acrt_fenv_abstract_control@@@@YA?AW4__acrt_fenv_abstract_control@@W40@0I@Z 10074d05 f i libucrt:_fenvutils.obj
 0001:00073d1b       ??$__acrt_fenv_shift_bits@W4__acrt_fenv_abstract_status@@@@YA?AW4__acrt_fenv_abstract_status@@W40@0I@Z 10074d1b f i libucrt:_fenvutils.obj
 0001:00073d31       ??$__acrt_fenv_translate_bit@W4__acrt_fenv_abstract_control@@W4__acrt_fenv_machine_sse_control@@@@YA?AW4__acrt_fenv_abstract_control@@W4__acrt_fenv_machine_sse_control@@0W40@1@Z 10074d31 f i libucrt:_fenvutils.obj
 0001:00073d4f       ??$__acrt_fenv_translate_bit@W4__acrt_fenv_abstract_control@@W4__acrt_fenv_machine_x87_control@@@@YA?AW4__acrt_fenv_abstract_control@@W4__acrt_fenv_machine_x87_control@@0W40@1@Z 10074d4f f i libucrt:_fenvutils.obj
 0001:00073d6d       ??$__acrt_fenv_translate_bit@W4__acrt_fenv_abstract_status@@W4__acrt_fenv_machine_sse_status@@@@YA?AW4__acrt_fenv_abstract_status@@W4__acrt_fenv_machine_sse_status@@0W40@1@Z 10074d6d f i libucrt:_fenvutils.obj
 0001:00073d87       ??$__acrt_fenv_translate_bit@W4__acrt_fenv_abstract_status@@W4__acrt_fenv_machine_x87_status@@@@YA?AW4__acrt_fenv_abstract_status@@W4__acrt_fenv_machine_x87_status@@0W40@1@Z 10074d87 f i libucrt:_fenvutils.obj
 0001:00073da1       ??$__acrt_fenv_translate_bit@W4__acrt_fenv_machine_sse_control@@W4__acrt_fenv_abstract_control@@@@YA?AW4__acrt_fenv_machine_sse_control@@W4__acrt_fenv_abstract_control@@0W40@1@Z 10074da1 f i libucrt:_fenvutils.obj
 0001:00073dbd       ??$__acrt_fenv_translate_bit@W4__acrt_fenv_machine_sse_status@@W4__acrt_fenv_abstract_status@@@@YA?AW4__acrt_fenv_machine_sse_status@@W4__acrt_fenv_abstract_status@@0W40@1@Z 10074dbd f i libucrt:_fenvutils.obj
 0001:00073dd7       ??$__acrt_fenv_translate_bit@W4__acrt_fenv_machine_x87_control@@W4__acrt_fenv_abstract_control@@@@YA?AW4__acrt_fenv_machine_x87_control@@W4__acrt_fenv_abstract_control@@0W40@1@Z 10074dd7 f i libucrt:_fenvutils.obj
 0001:00073df3       ??$__acrt_fenv_translate_bit@W4__acrt_fenv_machine_x87_status@@W4__acrt_fenv_abstract_status@@@@YA?AW4__acrt_fenv_machine_x87_status@@W4__acrt_fenv_abstract_status@@0W40@1@Z 10074df3 f i libucrt:_fenvutils.obj
 0001:00073e0d       ??$__acrt_fenv_unshift_bits@W4__acrt_fenv_abstract_control@@@@YA?AW4__acrt_fenv_abstract_control@@W40@0I@Z 10074e0d f i libucrt:_fenvutils.obj
 0001:00073e23       ??$__acrt_fenv_unshift_bits@W4__acrt_fenv_abstract_status@@@@YA?AW4__acrt_fenv_abstract_status@@W40@0I@Z 10074e23 f i libucrt:_fenvutils.obj
 0001:0007444e       ??I@YA?AW4__acrt_fenv_abstract_control@@W40@0@Z 1007544e f i libucrt:_fenvutils.obj
 0001:0007445e       ??I@YA?AW4__acrt_fenv_abstract_status@@W40@0@Z 1007545e f i libucrt:_fenvutils.obj
 0001:0007446e       ??I@YA?AW4__acrt_fenv_machine_sse_control@@W40@0@Z 1007546e f i libucrt:_fenvutils.obj
 0001:0007447e       ??I@YA?AW4__acrt_fenv_machine_sse_status@@W40@0@Z 1007547e f i libucrt:_fenvutils.obj
 0001:0007448e       ??I@YA?AW4__acrt_fenv_machine_x87_control@@W40@0@Z 1007548e f i libucrt:_fenvutils.obj
 0001:0007449e       ??I@YA?AW4__acrt_fenv_machine_x87_status@@W40@0@Z 1007549e f i libucrt:_fenvutils.obj
 0001:000744ae       ??U@YA?AW4__acrt_fenv_abstract_control@@W40@0@Z 100754ae f i libucrt:_fenvutils.obj
 0001:000744be       ??U@YA?AW4__acrt_fenv_abstract_status@@W40@0@Z 100754be f i libucrt:_fenvutils.obj
 0001:000744ce       ??U@YA?AW4__acrt_fenv_machine_sse_control@@W40@0@Z 100754ce f i libucrt:_fenvutils.obj
 0001:000744de       ??U@YA?AW4__acrt_fenv_machine_x87_control@@W40@0@Z 100754de f i libucrt:_fenvutils.obj
 0001:000744ee       ??_5@YAAAW4__acrt_fenv_abstract_control@@AAW40@W40@@Z 100754ee f i libucrt:_fenvutils.obj
 0001:00074500       ??_5@YAAAW4__acrt_fenv_abstract_status@@AAW40@W40@@Z 10075500 f i libucrt:_fenvutils.obj
 0001:00074512       ??_5@YAAAW4__acrt_fenv_machine_sse_control@@AAW40@W40@@Z 10075512 f i libucrt:_fenvutils.obj
 0001:00074527       ??_5@YAAAW4__acrt_fenv_machine_sse_status@@AAW40@W40@@Z 10075527 f i libucrt:_fenvutils.obj
 0001:00074539       ??_5@YAAAW4__acrt_fenv_machine_x87_control@@AAW40@W40@@Z 10075539 f i libucrt:_fenvutils.obj
 0001:0007454e       ??_5@YAAAW4__acrt_fenv_machine_x87_status@@AAW40@W40@@Z 1007554e f i libucrt:_fenvutils.obj
 0001:00074560       ?__acrt_fenv_shift_abstract_sse_control@@YA?AW4__acrt_fenv_abstract_control@@W41@@Z 10075560 f i libucrt:_fenvutils.obj
 0001:00074584       ?__acrt_fenv_shift_abstract_sse_status@@YA?AW4__acrt_fenv_abstract_status@@W41@@Z 10075584 f i libucrt:_fenvutils.obj
 0001:00074598       ?__acrt_fenv_shift_abstract_x87_control@@YA?AW4__acrt_fenv_abstract_control@@W41@@Z 10075598 f i libucrt:_fenvutils.obj
 0001:000745bc       ?__acrt_fenv_shift_abstract_x87_status@@YA?AW4__acrt_fenv_abstract_status@@W41@@Z 100755bc f i libucrt:_fenvutils.obj
 0001:000745d0       ?__acrt_fenv_unshift_abstract_sse_control@@YA?AW4__acrt_fenv_abstract_control@@W41@@Z 100755d0 f i libucrt:_fenvutils.obj
 0001:000745f6       ?__acrt_fenv_unshift_abstract_sse_status@@YA?AW4__acrt_fenv_abstract_status@@W41@@Z 100755f6 f i libucrt:_fenvutils.obj
 0001:0007460a       ?__acrt_fenv_unshift_abstract_x87_control@@YA?AW4__acrt_fenv_abstract_control@@W41@@Z 1007560a f i libucrt:_fenvutils.obj
 0001:00074630       ?__acrt_fenv_unshift_abstract_x87_status@@YA?AW4__acrt_fenv_abstract_status@@W41@@Z 10075630 f i libucrt:_fenvutils.obj
 0001:00074ce7       ___acrt_fenv_expand_round_control 10075ce7 f   libucrt:_fenvutils.obj
 0001:00074d2a       ___acrt_fenv_get_common_round_control 10075d2a f   libucrt:_fenvutils.obj
 0001:00074d54       ___acrt_fenv_get_control   10075d54 f   libucrt:_fenvutils.obj
 0001:00074df6       ___acrt_fenv_get_fp_status_word_from_exception_mask 10075df6 f   libucrt:_fenvutils.obj
 0001:00074e16       ___acrt_fenv_get_status    10075e16 f   libucrt:_fenvutils.obj
 0001:00074f08       ___acrt_fenv_set_control   10075f08 f   libucrt:_fenvutils.obj
 0001:00074f8c       ___acrt_fenv_set_status    10075f8c f   libucrt:_fenvutils.obj
 0001:000751e0       _qsort                     100761e0 f   libucrt:qsort.obj
 0001:00075811       _strncpy_s                 10076811 f   libucrt:strncpy_s.obj
 0001:00075820       _strpbrk                   10076820 f   libucrt:strpbrk.obj
 0001:00075870       ??$__acrt_convert_wcs_mbs@D_W$$A6AIPA_WPBDIPAU__crt_locale_pointers@@@ZU__crt_win32_buffer_internal_dynamic_resizing@@@@YAHQBDAAV?$__crt_win32_buffer@_WU__crt_win32_buffer_internal_dynamic_resizing@@@@A6AIPA_WPBDIPAU__crt_locale_pointers@@@Z4@Z 10076870 f i libucrt:findfirstfileexa.obj
 0001:00075939       ??$__acrt_mbs_to_wcs@U__crt_win32_buffer_internal_dynamic_resizing@@@@YAHQBDAAV?$__crt_win32_buffer@_WU__crt_win32_buffer_internal_dynamic_resizing@@@@PAU__crt_locale_pointers@@@Z 10076939 f i libucrt:findfirstfileexa.obj
 0001:0007595d       ?set_to_nullptr@?$__crt_win32_buffer@_WU__crt_win32_buffer_internal_dynamic_resizing@@@@QAEXXZ 1007695d f i libucrt:findfirstfileexa.obj
 0001:00075979       ___acrt_FindFirstFileExA   10076979 f   libucrt:findfirstfileexa.obj
 0001:000759f8       ??$?0$0BAE@@?$__crt_win32_buffer@DU__crt_win32_buffer_no_resizing@@@@QAE@AAY0BAE@D@Z 100769f8 f i libucrt:findnextfilea.obj
 0001:00075a27       ??$?0$0O@@?$__crt_win32_buffer@DU__crt_win32_buffer_no_resizing@@@@QAE@AAY0O@D@Z 10076a27 f i libucrt:findnextfilea.obj
 0001:00075a54       ??$__acrt_convert_wcs_mbs@_WD$$A6AIPADPB_WIPAU__crt_locale_pointers@@@ZU__crt_win32_buffer_no_resizing@@@@YAHQB_WAAV?$__crt_win32_buffer@DU__crt_win32_buffer_no_resizing@@@@A6AIPADPB_WIPAU__crt_locale_pointers@@@Z4@Z 10076a54 f i libucrt:findnextfilea.obj
 0001:00075b1e       ??$__acrt_wcs_to_mbs@U__crt_win32_buffer_no_resizing@@@@YAHQB_WAAV?$__crt_win32_buffer@DU__crt_win32_buffer_no_resizing@@@@PAU__crt_locale_pointers@@@Z 10076b1e f i libucrt:findnextfilea.obj
 0001:00075b42       ??1?$__crt_win32_buffer@DU__crt_win32_buffer_no_resizing@@@@QAE@XZ 10076b42 f i libucrt:findnextfilea.obj
 0001:00075b4f       ?_deallocate@?$__crt_win32_buffer@DU__crt_win32_buffer_no_resizing@@@@AAEXXZ 10076b4f f i libucrt:findnextfilea.obj
 0001:00075b5c       ?allocate@?$__crt_win32_buffer@DU__crt_win32_buffer_no_resizing@@@@QAEHI@Z 10076b5c f i libucrt:findnextfilea.obj
 0001:00075b8c       ?allocate@__crt_win32_buffer_no_resizing@@SAHQAPAXIABV__crt_win32_buffer_empty_debug_info@@@Z 10076b8c f i libucrt:findnextfilea.obj
 0001:00075b9c       ?capacity@?$__crt_win32_buffer@DU__crt_win32_buffer_no_resizing@@@@QBEIXZ 10076b9c f i libucrt:findnextfilea.obj
 0001:00075ba0       ?data@?$__crt_win32_buffer@DU__crt_win32_buffer_no_resizing@@@@QAEPADXZ 10076ba0 f i libucrt:findnextfilea.obj
 0001:00075ba4       ?deallocate@__crt_win32_buffer_no_resizing@@SAXQAXABV__crt_win32_buffer_empty_debug_info@@@Z 10076ba4 f i libucrt:findnextfilea.obj
 0001:00075ba5       ?debug_info@?$__crt_win32_buffer@DU__crt_win32_buffer_no_resizing@@@@QBEABV__crt_win32_buffer_empty_debug_info@@XZ 10076ba5 f i libucrt:findnextfilea.obj
 0001:00075ba8       ?set_to_nullptr@?$__crt_win32_buffer@DU__crt_win32_buffer_no_resizing@@@@QAEXXZ 10076ba8 f i libucrt:findnextfilea.obj
 0001:00075bc1       ?size@?$__crt_win32_buffer@DU__crt_win32_buffer_no_resizing@@@@QAEXI@Z 10076bc1 f i libucrt:findnextfilea.obj
 0001:00075bd3       ___acrt_FindNextFileA      10076bd3 f   libucrt:findnextfilea.obj
 0001:00075d64       __mbsdec                   10076d64 f   libucrt:mbsdec.obj
 0001:00075d80       __mbsdec_l                 10076d80 f   libucrt:mbsdec.obj
 0001:00075e44       __wcsnicoll                10076e44 f   libucrt:wcsnicol.obj
 0001:00075f3c       __wcsnicoll_l              10076f3c f   libucrt:wcsnicol.obj
 0001:000760a1       __strnicoll                100770a1 f   libucrt:strnicol.obj
 0001:000760d4       __strnicoll_l              100770d4 f   libucrt:strnicol.obj
 0001:000761d0       ___acrt_SetEnvironmentVariableA 100771d0 f   libucrt:setenvironmentvariablea.obj
 0001:0007629f       __msize                    1007729f f   libucrt:msize.obj
 0001:000762ac       __msize_base               100772ac f   libucrt:msize.obj
 0001:000762eb       ___strncnt                 100772eb f   libucrt:strncnt.obj
 0001:0007630e       ?__mbrtoc32_utf8@__crt_mbstring@@YAIPA_UPBDIPAU_Mbstatet@@@Z 1007730e f   libucrt:mbrtoc32.obj
 0001:0007652f       ?reset_and_return@__crt_mbstring@@YAIIPAU_Mbstatet@@@Z 1007752f f i libucrt:mbrtoc32.obj
 0001:00076548       ?return_illegal_sequence@__crt_mbstring@@YAIPAU_Mbstatet@@@Z 10077548 f i libucrt:mbrtoc32.obj
 0001:0007656e       _mbrtoc32                  1007756e f   libucrt:mbrtoc32.obj
 0001:00076694       ___acrt_GetLocaleInfoA     10077694 f   libucrt:getlocaleinfoa.obj
 0001:000768b2       _fegetenv                  100778b2 f   libucrt:fegetenv.obj
 0001:000768d6       _fesetenv                  100778d6 f   libucrt:fesetenv.obj
 0001:00076936       _feholdexcept              10077936 f   libucrt:feholdexcept.obj
 0001:000769a0       __CIlog10                  100779a0 f   libucrt:log10_impl.obj
 0001:000769db       __CIlog10_default          100779db f   libucrt:log10_impl.obj
 0001:000769ef       __log10_default            100779ef     libucrt:log10_impl.obj
 0001:00076af4       __towlower_l               10077af4 f   libucrt:towlower.obj
 0001:00076bef       _towlower                  10077bef f   libucrt:towlower.obj
 0001:00076c10       ___ascii_strnicmp          10077c10 f   libucrt:_strnicm.obj
 0001:00076c89       ??$__crt_interlocked_read@H@@YAHPDH@Z 10077c89 f i libucrt:setmode.obj
 0001:00076c98       ?value@?$dual_state_global@H@__crt_state_management@@QAEAAHXZ 10077c98 f i libucrt:setmode.obj
 0001:00076c9b       __get_fmode                10077c9b f   libucrt:setmode.obj
 0001:00076cd2       __set_fmode                10077cd2 f   libucrt:setmode.obj
 0001:00076d1e       __setmode                  10077d1e f   libucrt:setmode.obj
 0001:00076e66       __setmode_nolock           10077e66 f   libucrt:setmode.obj
 0001:000770f7       __chsize                   100780f7 f   libucrt:chsize.obj
 0001:0007711a       __chsize_nolock            1007811a f   libucrt:chsize.obj
 0001:0007730f       __chsize_s                 1007830f f   libucrt:chsize.obj
 0001:000773e7       __umask                    100783e7 f   libucrt:umask.obj
 0001:00077415       __umask_s                  10078415 f   libucrt:umask.obj
 0001:00077538       ___dcrt_lowio_ensure_console_output_initialized 10078538 f   libucrt:initcon.obj
 0001:0007755e       ___dcrt_terminate_console_output 1007855e f   libucrt:initcon.obj
 0001:0007757a       ___dcrt_write_console      1007857a f   libucrt:initcon.obj
 0001:000775e4       _nexttoward                100785e4 f   libucrt:nexttoward.obj
 0001:00077b2c       __wcstombs_l               10078b2c f   libucrt:wcstombs.obj
 0001:00077b39       __wcstombs_s_l             10078b39 f   libucrt:wcstombs.obj
 0001:00077c39       _wcstombs                  10078c39 f   libucrt:wcstombs.obj
 0001:00077c59       _wcstombs_s                10078c59 f   libucrt:wcstombs.obj
 0001:00077c81       ___acrt_CompareStringW     10078c81 f   libucrt:comparestringw.obj
 0001:00078018       ___acrt_CompareStringA     10079018 f   libucrt:comparestringa.obj
 0001:00078207       ___control87_2             10079207 f   libucrt:ieee87.obj
 0001:000787d3       ___fpreset_sse2            100797d3 f   libucrt:ieee87.obj
 0001:00078a1c       __clearfp                  10079a1c f   libucrt:ieee87.obj
 0001:00078b34       __control87                10079b34 f   libucrt:ieee87.obj
 0001:00078ef2       __controlfp                10079ef2 f   libucrt:ieee87.obj
 0001:00078f12       __fpreset                  10079f12 f   libucrt:ieee87.obj
 0001:00079015       __set_controlfp            1007a015 f   libucrt:ieee87.obj
 0001:000790ab       __statusfp                 1007a0ab f   libucrt:ieee87.obj
 0001:0007916f       __statusfp2                1007a16f f   libucrt:ieee87.obj
 0001:000791f0       __CIlog10_pentium4         1007a1f0 f   libucrt:log10_pentium4.obj
 0001:00079208       __log10_pentium4           1007a208     libucrt:log10_pentium4.obj
 0001:00079550       __fFEXP                    1007a550 f   libucrt:87tran.obj
 0001:000795a7       __rtinfpopse               1007a5a7     libucrt:87tran.obj
 0001:000795a9       __rtinfnpopse              1007a5a9     libucrt:87tran.obj
 0001:000795b9       __fFLN                     1007a5b9     libucrt:87tran.obj
 0001:0007966e       __rtinfpop                 1007a66e     libucrt:87tran.obj
 0001:00079670       __rtinfnpop                1007a670     libucrt:87tran.obj
 0001:00079680       __rtforexpinf              1007a680 f   libucrt:87tran.obj
 0001:0007968d       __ffexpm1                  1007a68d     libucrt:87tran.obj
 0001:000797c0       __twoToTOS                 1007a7c0 f   libucrt:common.obj
 0001:000797d5       __load_CW                  1007a7d5 f   libucrt:common.obj
 0001:000797ec       __convertTOStoQNaN         1007a7ec f   libucrt:common.obj
 0001:00079805       __fload_withFB             1007a805 f   libucrt:common.obj
 0001:00079848       __checkTOS_withFB          1007a848 f   libucrt:common.obj
 0001:0007985e       __fast_exit                1007a85e f   libucrt:common.obj
 0001:0007986b       __math_exit                1007a86b f   libucrt:common.obj
 0001:00079895       __check_overflow_exit      1007a895 f   libucrt:common.obj
 0001:000798a9       __check_range_exit         1007a8a9 f   libucrt:common.obj
 0001:000799b0       __startTwoArgErrorHandling 1007a9b0 f   libucrt:genexcep.obj
 0001:000799c7       __startOneArgErrorHandling 1007a9c7 f   libucrt:genexcep.obj
 0001:00079a17       ___acrt_LCMapStringW       1007aa17 f   libucrt:lcmapstringw.obj
 0001:00079a64       ___p__fmode                1007aa64 f   libucrt:txtmode.obj
 0001:00079b00       __d_int                    1007ab00 f   libucrt:_test.obj
 0001:00079c4a       __dtest                    1007ac4a f   libucrt:_test.obj
 0001:00079cc7       __fd_int                   1007acc7 f   libucrt:_test.obj
 0001:00079dc9       __fdtest                   1007adc9 f   libucrt:_test.obj
 0001:00079e2a       __fperrraise               1007ae2a f   libucrt:_test.obj
 0001:00079e55       __ld_int                   1007ae55 f   libucrt:_test.obj
 0001:00079e62       __ldtest                   1007ae62 f   libucrt:_test.obj
 0001:00079e6f       ?__wcsrtombs_utf8@__crt_mbstring@@YAIPADPAPB_WIPAU_Mbstatet@@@Z 1007ae6f f   libucrt:wcrtomb.obj
 0001:0007a319       _wcrtomb                   1007b319 f   libucrt:wcrtomb.obj
 0001:0007a356       _wcrtomb_s                 1007b356 f   libucrt:wcrtomb.obj
 0001:0007a3ed       _wcsrtombs                 1007b3ed f   libucrt:wcrtomb.obj
 0001:0007a3fa       _wcsrtombs_s               1007b3fa f   libucrt:wcrtomb.obj
 0001:0007a4b9       _wctob                     1007b4b9 f   libucrt:wcrtomb.obj
 0001:0007a52d       __controlfp_s              1007b52d f   libucrt:contrlfp.obj
 0001:0007a5a3       __d_inttype                1007b5a3 f   libucrt:powhlp.obj
 0001:0007a627       __powhlp                   1007b627 f   libucrt:powhlp.obj
 0001:0007a79c       ??_4@YAAAW4__acrt_fenv_abstract_status@@AAW40@W40@@Z 1007b79c f i libucrt:fegetexceptflag.obj
 0001:0007a7ae       _fegetexceptflag           1007b7ae f   libucrt:fegetexceptflag.obj
 0001:0007a7eb       ??S@YA?AW4__acrt_fenv_abstract_status@@W40@@Z 1007b7eb f i libucrt:fesetexceptflag.obj
 0001:0007a7fa       _fesetexceptflag           1007b7fa f   libucrt:fesetexceptflag.obj
 0001:0007a869       ?__c16rtomb_utf8@__crt_mbstring@@YAIPAD_SPAU_Mbstatet@@@Z 1007b869 f   libucrt:c16rtomb.obj
 0001:0007a9c1       _c16rtomb                  1007b9c1 f   libucrt:c16rtomb.obj
 0001:0007a9ce       _fetestexcept              1007b9ce f   libucrt:fetestexcept.obj
 0001:0007a9f8       ?__c32rtomb_utf8@__crt_mbstring@@YAIPAD_UPAU_Mbstatet@@@Z 1007b9f8 f   libucrt:c32rtomb.obj
 0001:0007aad2       _c32rtomb                  1007bad2 f   libucrt:c32rtomb.obj
 0001:0007aae0       __FindPESection            1007bae0 f   LIBCMT:pesect.obj
 0001:0007ab40       __IsNonwritableInCurrentImage 1007bb40 f   LIBCMT:pesect.obj
 0001:0007ac30       __ValidateImageBase        1007bc30 f   LIBCMT:pesect.obj
 0001:0007ac6f       __EH_epilog3               1007bc6f f   LIBCMT:ehprolg3.obj
 0001:0007ac89       __EH_epilog3_GS            1007bc89 f   LIBCMT:ehprolg3.obj
 0001:0007ac9e       __EH_epilog3_catch_GS      1007bc9e f   LIBCMT:ehprolg3.obj
 0001:0007acb3       __EH_prolog3               1007bcb3 f   LIBCMT:ehprolg3.obj
 0001:0007acf4       __EH_prolog3_GS            1007bcf4 f   LIBCMT:ehprolg3.obj
 0001:0007ad38       __EH_prolog3_catch         1007bd38 f   LIBCMT:ehprolg3.obj
 0001:0007ad7c       __EH_prolog3_catch_GS      1007bd7c f   LIBCMT:ehprolg3.obj
 0001:0007add0       __aulldvrm                 1007bdd0 f   LIBCMT:ulldvrm.obj
 0001:0007ae8a       ??1type_info@@UAE@XZ       1007be8a f   LIBCMT:std_type_info_static.obj
 0001:0007ae91       ??_Gtype_info@@UAEPAXI@Z   1007be91 f i LIBCMT:std_type_info_static.obj
 0001:0007ae91       ??_Etype_info@@UAEPAXI@Z   1007be91 f i LIBCMT:std_type_info_static.obj
 0001:0007aebc       ??3@YAXPAXI@Z              1007bebc f   LIBCMT:delete_scalar_size.obj
 0001:0007aed0       __SEH_prolog4_GS           1007bed0 f   LIBCMT:sehprolg4gs.obj
 0001:0007af19       __SEH_epilog4_GS           1007bf19 f   LIBCMT:sehprolg4gs.obj
 0001:0007af40       __allmul                   1007bf40 f   LIBCMT:llmul.obj
 0001:0007af90       __allshl                   1007bf90 f   LIBCMT:llshl.obj
 0001:0007afc0       __aullshr                  1007bfc0 f   LIBCMT:ullshr.obj
 0001:0007aff0       __alldvrm                  1007bff0 f   LIBCMT:lldvrm.obj
 0001:0007b110       __alloca_probe             1007c110 f   LIBCMT:chkstk.obj
 0001:0007b110       __chkstk                   1007c110 f   LIBCMT:chkstk.obj
 0001:0007b150       __alloca_probe_16          1007c150 f   LIBCMT:alloca16.obj
 0001:0007b166       __alloca_probe_8           1007c166     LIBCMT:alloca16.obj
 0001:0007b190       __ftol2_sse                1007c190 f   LIBCMT:ftol2.obj
 0001:0007b199       __ftol2_pentium4           1007c199 f   LIBCMT:ftol2.obj
 0001:0007b1ac       __ftol2_sse_excpt          1007c1ac f   LIBCMT:ftol2.obj
 0001:0007b1d0       __ftol2                    1007c1d0 f   LIBCMT:ftol2.obj
 0001:0007b272       __initialize_default_precision 1007c272 f   LIBCMT:default_precision.obj
 0001:0007b29b       ??3@YAXPAX@Z               1007c29b f   LIBCMT:delete_scalar.obj
 0001:0007b2a0       _InterlockedPushEntrySList@8 1007c2a0 f   kernel32:KERNEL32.dll
 0001:0007b2a6       _InterlockedFlushSList@4   1007c2a6 f   kernel32:KERNEL32.dll
 0001:0007b2ac       _RtlUnwind@16              1007c2ac f   kernel32:KERNEL32.dll
 0001:0007b2b2       _GetLastError@0            1007c2b2 f   kernel32:KERNEL32.dll
 0001:0007b2b8       _SetLastError@4            1007c2b8 f   kernel32:KERNEL32.dll
 0001:0007b2be       _EnterCriticalSection@4    1007c2be f   kernel32:KERNEL32.dll
 0001:0007b2c4       _LeaveCriticalSection@4    1007c2c4 f   kernel32:KERNEL32.dll
 0001:0007b2ca       _DeleteCriticalSection@4   1007c2ca f   kernel32:KERNEL32.dll
 0001:0007b2d0       _InitializeCriticalSectionAndSpinCount@8 1007c2d0 f   kernel32:KERNEL32.dll
 0001:0007b2d6       _TlsAlloc@0                1007c2d6 f   kernel32:KERNEL32.dll
 0001:0007b2dc       _TlsGetValue@4             1007c2dc f   kernel32:KERNEL32.dll
 0001:0007b2e2       _TlsSetValue@8             1007c2e2 f   kernel32:KERNEL32.dll
 0001:0007b2e8       _TlsFree@4                 1007c2e8 f   kernel32:KERNEL32.dll
 0001:0007b2ee       _FreeLibrary@4             1007c2ee f   kernel32:KERNEL32.dll
 0001:0007b2f4       _LoadLibraryExW@12         1007c2f4 f   kernel32:KERNEL32.dll
 0001:0007b2fa       _EncodePointer@4           1007c2fa f   kernel32:KERNEL32.dll
 0001:0007b300       _RaiseException@16         1007c300 f   kernel32:KERNEL32.dll
 0001:0007b306       _ExitProcess@4             1007c306 f   kernel32:KERNEL32.dll
 0001:0007b30c       _GetModuleHandleExW@12     1007c30c f   kernel32:KERNEL32.dll
 0001:0007b312       _GetStdHandle@4            1007c312 f   kernel32:KERNEL32.dll
 0001:0007b318       _GetFileType@4             1007c318 f   kernel32:KERNEL32.dll
 0001:0007b31e       _GetModuleFileNameW@12     1007c31e f   kernel32:KERNEL32.dll
 0001:0007b324       _WriteConsoleW@20          1007c324 f   kernel32:KERNEL32.dll
 0001:0007b32a       _HeapAlloc@12              1007c32a f   kernel32:KERNEL32.dll
 0001:0007b330       _HeapFree@12               1007c330 f   kernel32:KERNEL32.dll
 0001:0007b336       _GetDateFormatW@24         1007c336 f   kernel32:KERNEL32.dll
 0001:0007b33c       _GetTimeFormatW@24         1007c33c f   kernel32:KERNEL32.dll
 0001:0007b342       _CompareStringW@24         1007c342 f   kernel32:KERNEL32.dll
 0001:0007b348       _LCMapStringW@24           1007c348 f   kernel32:KERNEL32.dll
 0001:0007b34e       _GetLocaleInfoW@16         1007c34e f   kernel32:KERNEL32.dll
 0001:0007b354       _IsValidLocale@8           1007c354 f   kernel32:KERNEL32.dll
 0001:0007b35a       _GetUserDefaultLCID@0      1007c35a f   kernel32:KERNEL32.dll
 0001:0007b360       _EnumSystemLocalesW@8      1007c360 f   kernel32:KERNEL32.dll
 0001:0007b366       _GetCurrentThread@0        1007c366 f   kernel32:KERNEL32.dll
 0001:0007b36c       _HeapReAlloc@16            1007c36c f   kernel32:KERNEL32.dll
 0001:0007b372       _CloseHandle@4             1007c372 f   kernel32:KERNEL32.dll
 0001:0007b378       _ReadFile@20               1007c378 f   kernel32:KERNEL32.dll
 0001:0007b37e       _GetConsoleMode@8          1007c37e f   kernel32:KERNEL32.dll
 0001:0007b384       _ReadConsoleW@20           1007c384 f   kernel32:KERNEL32.dll
 0001:0007b38a       _WriteFile@20              1007c38a f   kernel32:KERNEL32.dll
 0001:0007b390       _GetConsoleCP@0            1007c390 f   kernel32:KERNEL32.dll
 0001:0007b396       _MultiByteToWideChar@24    1007c396 f   kernel32:KERNEL32.dll
 0001:0007b39c       _DeleteFileW@4             1007c39c f   kernel32:KERNEL32.dll
 0001:0007b3a2       _SetFilePointerEx@20       1007c3a2 f   kernel32:KERNEL32.dll
 0001:0007b3a8       _DecodePointer@4           1007c3a8 f   kernel32:KERNEL32.dll
 0001:0007b3ae       _OutputDebugStringW@4      1007c3ae f   kernel32:KERNEL32.dll
 0001:0007b3b4       _SetConsoleCtrlHandler@8   1007c3b4 f   kernel32:KERNEL32.dll
 0001:0007b3ba       _FindClose@4               1007c3ba f   kernel32:KERNEL32.dll
 0001:0007b3c0       _FindFirstFileExW@24       1007c3c0 f   kernel32:KERNEL32.dll
 0001:0007b3c6       _FindNextFileW@8           1007c3c6 f   kernel32:KERNEL32.dll
 0001:0007b3cc       _IsValidCodePage@4         1007c3cc f   kernel32:KERNEL32.dll
 0001:0007b3d2       _GetACP@0                  1007c3d2 f   kernel32:KERNEL32.dll
 0001:0007b3d8       _GetOEMCP@0                1007c3d8 f   kernel32:KERNEL32.dll
 0001:0007b3de       _GetCPInfo@8               1007c3de f   kernel32:KERNEL32.dll
 0001:0007b3e4       _GetCommandLineA@0         1007c3e4 f   kernel32:KERNEL32.dll
 0001:0007b3ea       _GetCommandLineW@0         1007c3ea f   kernel32:KERNEL32.dll
 0001:0007b3f0       _WideCharToMultiByte@32    1007c3f0 f   kernel32:KERNEL32.dll
 0001:0007b3f6       _GetEnvironmentStringsW@0  1007c3f6 f   kernel32:KERNEL32.dll
 0001:0007b3fc       _FreeEnvironmentStringsW@4 1007c3fc f   kernel32:KERNEL32.dll
 0001:0007b402       _SetEnvironmentVariableW@8 1007c402 f   kernel32:KERNEL32.dll
 0001:0007b408       _GetProcessHeap@0          1007c408 f   kernel32:KERNEL32.dll
 0001:0007b40e       _FlushFileBuffers@4        1007c40e f   kernel32:KERNEL32.dll
 0001:0007b414       _SetStdHandle@8            1007c414 f   kernel32:KERNEL32.dll
 0001:0007b41a       _GetStringTypeW@16         1007c41a f   kernel32:KERNEL32.dll
 0001:0007b420       _CreateFileW@28            1007c420 f   kernel32:KERNEL32.dll
 0001:0007b426       _HeapSize@12               1007c426 f   kernel32:KERNEL32.dll
 0001:0007b42c       _SetEndOfFile@4            1007c42c f   kernel32:KERNEL32.dll
 0001:0007b440       _strrchr                   1007c440 f   libvcruntime:strrchr.obj
 0001:0007b6f5       _memcmp                    1007c6f5 f   libvcruntime:memcmp.obj
 0001:0007dbda       _wcschr                    1007ebda f   libvcruntime:wcschr.obj
 0002:00000000       ___xc_a                    10084000     LIBCMT:initializers.obj
 0002:00000104       ___xc_z                    10084104     LIBCMT:initializers.obj
 0002:00000208       ___xi_a                    10084208     LIBCMT:initializers.obj
 0002:0000030c       ___acrt_stdio_initializer  1008430c     libucrt:stdio_initializer.obj
 0002:00000310       ___acrt_tran_sse2_initializer 10084310     libucrt:sse2_initializer.obj
 0002:00000314       ___acrt_multibyte_initializer 10084314     libucrt:multibyte_initializer.obj
 0002:0000041c       ___xi_z                    1008441c     LIBCMT:initializers.obj
 0002:00000520       ___xp_a                    10084520     LIBCMT:initializers.obj
 0002:00000624       ___acrt_locale_terminator  10084624     libucrt:locale_initializer.obj
 0002:00000628       ___dcrt_console_output_terminator 10084628     libucrt:console_output_initializer.obj
 0002:00000730       ___acrt_stdio_terminator   10084730     libucrt:stdio_initializer.obj
 0002:00000834       ___xp_z                    10084834     LIBCMT:initializers.obj
 0002:00000938       ___xt_a                    10084938     LIBCMT:initializers.obj
 0002:00000a3c       ___xt_z                    10084a3c     LIBCMT:initializers.obj
 0002:00000b40       _ptsetfilename             10084b40     xpctarget.obj
 0002:00000b44       _xmlfile                   10084b44     xpctarget.obj
 0002:00000b4c       ??_C@_0L@CONNIHKL@hil_tuning@ 10084b4c     xpctarget.obj
 0002:00000b5c       ??_C@_03COLHFAIP@6?48@     10084b5c     xpctarget.obj
 0002:00000b60       ??_C@_01DNKMNLPK@?$HM@     10084b60     xpctarget.obj
 0002:00000b68       __real@3fb999999999999a    10084b68     xpctarget.obj
 0002:00000b78       __real@408f400000000000    10084b78     xpctarget.obj
 0002:00000b88       _hil_tuning_BIOMAP         10084b88     appmappingData.obj
 0002:000010d4       _hil_tuning_dtmap          100850d4     appmappingData.obj
 0002:000010f8       _hil_tuning_LBLMAP         100850f8     appmappingData.obj
 0002:00001648       _hil_tuning_SIDMAP         10085648     appmappingData.obj
 0002:00001b98       _hil_tuning_SBIO           10085b98     appmappingData.obj
 0002:00001d60       _hil_tuning_SLBL           10085d60     appmappingData.obj
 0002:00001f28       _hil_tuning_PTIDSMAP       10085f28     appmappingData.obj
 0002:00002268       _hil_tuning_PTNAMESMAP     10086268     appmappingData.obj
 0002:000025a8       _hil_tuning_SPTMAP         100865a8     appmappingData.obj
 0002:00002748       _appInfo                   10086748     appmappingData.obj
 0002:00002d30       ??_C@_00CNPNBAHC@@         10086d30     appmappingData.obj
 0002:00002d38       __real@3cb0000000000000    10086d38     rt_matrx.obj
 0002:00002d48       __real@3fe0000000000000    10086d48     rt_matrx.obj
 0002:00002d58       __real@3ff0000000000000    10086d58     rt_matrx.obj
 0002:000035c8       ??_C@_0DJ@FHKINPLE@Unexpected?5itemKind?5?$DN?5DATA_ITEM@ 100875c8     rt_logging.obj
 0002:0000360c       ??_C@_0DA@IEHFPFCJ@Unexpected?5itemKind?$DN?$CFd?5in?5rt_Pr@ 1008760c     rt_logging.obj
 0002:00003648       ??_C@_0DA@IFLHJPBO@Unexpected?5itemKind?$DN?$CFd?5in?5rt_Pr@ 10087648     rt_logging.obj
 0002:00003684       ??_C@_0DA@IAPIIJJL@Unexpected?5itemKind?$DN?$CFd?5in?5rt_Pr@ 10087684     rt_logging.obj
 0002:000036c0       ??_C@_0BE@LCIGPJIG@MATLAB?55?40?5MAT?9file@ 100876c0     rt_logging.obj
 0002:000036d8       ??_C@_0FB@PCJEAJIB@?$CK?$CK?$CK?5Log?5variable?5?$CFs?5has?5wrapped@ 100876d8     rt_logging.obj
 0002:00003740       ??_C@_0MG@NKMLMOGF@?$CK?$CK?$CK?5To?5avoid?5wrapping?0?5explicit@ 10087740     rt_logging.obj
 0002:00003830       ??_C@_0N@IPAEOLLP@_rtw_tmw?4tmw@ 10087830     rt_logging.obj
 0002:00003840       ??_C@_04HDOCAJNK@?$CFs?$CFs@ 10087840     rt_logging.obj
 0002:00003848       ??_C@_03ELIABIOC@w?$CLb@   10087848     rt_logging.obj
 0002:0000384c       ??_C@_0BF@JPILDDFA@?$CK?$CK?$CK?5Error?5opening?5?$CFs@ 1008784c     rt_logging.obj
 0002:00003868       ??_C@_0BK@EEMDELA@unable?5to?5open?5data?5file?6@ 10087868     rt_logging.obj
 0002:00003888       ??_C@_04CGFJFPFD@none@     10087888     rt_logging.obj
 0002:00003890       ??_C@_0EE@LCGFPNON@?$CK?$CK?$CK?5Error?5creating?5signals?5stru@ 10087890     rt_logging.obj
 0002:000038e4       ??_C@_0CE@NHECEDMK@?$CK?$CK?$CK?5Error?5creating?5log?5variable@ 100878e4     rt_logging.obj
 0002:00003910       ??_C@_0DB@IOCGKAGH@?$CK?$CK?$CK?5Errors?5occurred?5when?5starti@ 10087910     rt_logging.obj
 0002:0000394c       ??_C@_0BO@BBLOGEBK@?$CK?$CK?$CK?5Memory?5allocation?5error?4?6@ 1008794c     rt_logging.obj
 0002:00003970       ??_C@_0N@LGFBAGEL@?5?$CIreal?5part?$CJ@ 10087970     rt_logging.obj
 0002:00003980       ??_C@_0KH@CGNMHNFE@?5?5?5?5varName?5?5?5?5?5?5?5?5?5?5?$DN?5?$CFs?$CFs?6?5?5?5@ 10087980     rt_logging.obj
 0002:00003a48       ??_C@_0LE@OALKKEFM@?5?5?5?5varName?5?5?5?5?5?5?5?5?5?5?$DN?5?$CFs?5?$CIcomp@ 10087a48     rt_logging.obj
 0002:00003b20       ??_C@_0KF@JDDLEOKO@?5?5?5?5varName?5?5?5?5?5?5?5?5?5?5?$DN?5?$CFs?6?5?5?5?5n@ 10087b20     rt_logging.obj
 0002:00003be8       ??_C@_0DP@HPDMIOFM@?$CK?$CK?$CK?5Using?5a?5default?5buffer?5of?5s@ 10087be8     rt_logging.obj
 0002:00003c38       ??_C@_0KE@JEFOLKNF@?6?$CK?$CK?$CK?5Memory?5required?5to?5log?5var@ 10087c38     rt_logging.obj
 0002:00003d00       ??_C@_0JP@DKLMHCBI@?$CK?$CK?$CK?5Details?3?6?5?5?5?5?5?5?5varName?5?5?5?5@ 10087d00     rt_logging.obj
 0002:00003dc0       ??_C@_0CM@CAMILBED@?$CK?$CK?$CK?5Error?5allocating?5memory?5for@ 10087dc0     rt_logging.obj
 0002:00003df4       ??_C@_0DF@BBCNMOPM@?$CK?$CK?$CK?5Error?5allocating?5memory?5for@ 10087df4     rt_logging.obj
 0002:00003e38       ??_C@_0JP@DBCLPCCI@?$CK?$CK?$CK?5Details?3?6?5?5?5?5?5?5?5varName?5?5?5?5@ 10087e38     rt_logging.obj
 0002:00003ef8       ??_C@_0FK@DPGAOBGA@?$CK?$CK?$CK?5Error?5allocating?5memory?5for@ 10087ef8     rt_logging.obj
 0002:00003f64       ??_C@_0BI@GGDNPHLJ@?$CK?$CK?$CK?5Error?5writing?5to?5?$CFs@ 10087f64     rt_logging.obj
 0002:00003f80       ??_C@_0CB@IBGJGELG@?$CK?$CK?$CK?5Error?5writing?5?$CFs?5due?5to?3?5?$CFs@ 10087f80     rt_logging.obj
 0002:00003fa8       ??_C@_0CN@FLMCHCPB@?$CK?$CK?$CK?5Error?5writing?5log?5variable?5@ 10087fa8     rt_logging.obj
 0002:00003fe0       ??_C@_0DH@GAJCNOJP@?$CK?$CK?$CK?5Error?5writing?5structure?5log@ 10087fe0     rt_logging.obj
 0002:00004024       ??_C@_0BD@POEALECL@?$CK?$CK?5created?5?$CFs?5?$CK?$CK?6?6@ 10088024     rt_logging.obj
 0002:00004040       __real@4020000000000000    10088040     rt_logging.obj
 0002:00004050       __real@41dfffffffc00000    10088050     rt_logging.obj
 0002:00004060       __real@41efffffffe00000    10088060     rt_logging.obj
 0002:00004070       __real@4330000000000000    10088070     rt_logging.obj
 0002:00004080       __real@8000000000000000    10088080     rt_logging.obj
 0002:00004090       __real@bfbf9add3afd2773    10088090     rt_logging.obj
 0002:000040a0       __real@bff0000000000000    100880a0     rt_logging.obj
 0002:000040b0       __real@c000000000000000    100880b0     rt_logging.obj
 0002:000040c0       __xmm@20202020202020202020202020202020 100880c0     rt_logging.obj
 0002:000040e0       __xmm@41f00000000000000000000000000000 100880e0     rt_logging.obj
 0002:000040f4       _hil_tuning_M              100880f4     hil_tuning.obj
 0002:000040f8       ??_C@_0BC@OJJPBDHH@FixedStepDiscrete@ 100880f8     hil_tuning.obj
 0002:00004110       ??_C@_04EPKDLPPB@tout@     10088110     hil_tuning.obj
 0002:00004118       ??_C@_03HBFGMJOD@rt_@      10088118     hil_tuning.obj
 0002:0000411c       ??_C@_0O@IGJILCBD@UDP?5Configure@ 1008811c     hil_tuning.obj
 0002:0000412c       ??_C@_0BJ@LOFONGGD@hil_tuning?1UDP?5Configure@ 1008812c     hil_tuning.obj
 0002:0000414c       ??_C@_0M@GCGBFLLD@UDP?5Receive@ 1008814c     hil_tuning.obj
 0002:0000415c       ??_C@_0BH@MFCHJBCB@hil_tuning?1UDP?5Receive@ 1008815c     hil_tuning.obj
 0002:00004178       ??_C@_0O@MCJDFIKD@ASCII?5Decode?5@ 10088178     hil_tuning.obj
 0002:00004188       ??_C@_0BJ@PKFFDMND@hil_tuning?1ASCII?5Decode?5@ 10088188     hil_tuning.obj
 0002:000041a8       ??_C@_0P@OIHMDNGO@ASCII?5Encode?52@ 100881a8     hil_tuning.obj
 0002:000041bc       ??_C@_0BK@LIEBIKDG@hil_tuning?1ASCII?5Encode?52@ 100881bc     hil_tuning.obj
 0002:000041dc       ??_C@_08JIAODFFN@UDP?5Send@ 100881dc     hil_tuning.obj
 0002:000041e8       ??_C@_0BE@PHBDBAGA@hil_tuning?1UDP?5Send@ 100881e8     hil_tuning.obj
 0002:00004200       __real@3f50624dd2f1a9fc    10088200     hil_tuning.obj
 0002:00004210       __real@41f0000000000000    10088210     hil_tuning.obj
 0002:00004220       __xmm@000004e200000070000000a600000002 10088220     hil_tuning.obj
 0002:00004240       __xmm@3f50624dd2f1a9fc0000000000000000 10088240     hil_tuning.obj
 0002:00004260       __xmm@7fffffffffffffff7fffffffffffffff 10088260     hil_tuning.obj
 0002:00004280       __xmm@80000000000000008000000000000000 10088280     hil_tuning.obj
 0002:00005c8c       ??_C@_09LKEICJMG@Constant3@ 10089c8c     hil_tuning_capi.obj
 0002:00005c98       ??_C@_0BB@KKKHCGND@ASCII?5Decode?5?1p1@ 10089c98     hil_tuning_capi.obj
 0002:00005cac       ??_C@_0BB@IBIKHFBA@ASCII?5Decode?5?1p2@ 10089cac     hil_tuning_capi.obj
 0002:00005cc0       ??_C@_0BB@JIJBEEFB@ASCII?5Decode?5?1p3@ 10089cc0     hil_tuning_capi.obj
 0002:00005cd4       ??_C@_0BB@NHNANCJG@ASCII?5Decode?5?1p4@ 10089cd4     hil_tuning_capi.obj
 0002:00005ce8       ??_C@_0BB@MOMLODNH@ASCII?5Decode?5?1p5@ 10089ce8     hil_tuning_capi.obj
 0002:00005cfc       ??_C@_0BB@OFOGLABE@ASCII?5Decode?5?1p6@ 10089cfc     hil_tuning_capi.obj
 0002:00005d10       ??_C@_0BB@PMPNIBFF@ASCII?5Decode?5?1p7@ 10089d10     hil_tuning_capi.obj
 0002:00005d24       ??_C@_0BB@HLGFJNJK@ASCII?5Decode?5?1p8@ 10089d24     hil_tuning_capi.obj
 0002:00005d38       ??_C@_0BB@GCHOKMNL@ASCII?5Decode?5?1p9@ 10089d38     hil_tuning_capi.obj
 0002:00005d4c       ??_C@_0BC@MADGBCLL@ASCII?5Decode?5?1p10@ 10089d4c     hil_tuning_capi.obj
 0002:00005d64       ??_C@_0BC@NJCNCDPK@ASCII?5Decode?5?1p11@ 10089d64     hil_tuning_capi.obj
 0002:00005d7c       ??_C@_0BC@PCAAHADJ@ASCII?5Decode?5?1p12@ 10089d7c     hil_tuning_capi.obj
 0002:00005d94       ??_C@_0P@MOBPEFPA@UDP?5Receive?1p1@ 10089d94     hil_tuning_capi.obj
 0002:00005da8       ??_C@_0P@OFDCBGDD@UDP?5Receive?1p2@ 10089da8     hil_tuning_capi.obj
 0002:00005dbc       ??_C@_0BG@DCNIMMDG@Left?5Abduction1?1Clock@ 10089dbc     hil_tuning_capi.obj
 0002:00005dd8       ??_C@_0BH@CEIGBIBI@Left?5Abduction1?1Output@ 10089dd8     hil_tuning_capi.obj
 0002:00005df4       ??_C@_0BP@OJDNNMIL@Left?5Abduction1?1Look?9Up?5Table1@ 10089df4     hil_tuning_capi.obj
 0002:00005e1c       ??_C@_0BO@DHINEGDJ@Left?5Abduction1?1Math?5Function@ 10089e1c     hil_tuning_capi.obj
 0002:00005e40       ??_C@_0BE@FLGLBGL@Left?5Abduction1?1Sum@ 10089e40     hil_tuning_capi.obj
 0002:00005e58       ??_C@_0BI@MFNEDHOM@Left?5Ankle?5Twist1?1Clock@ 10089e58     hil_tuning_capi.obj
 0002:00005e74       ??_C@_0BJ@ECHHCPCJ@Left?5Ankle?5Twist1?1Output@ 10089e74     hil_tuning_capi.obj
 0002:00005e94       ??_C@_0CB@FCCFMOF@Left?5Ankle?5Twist1?1Look?9Up?5Table@ 10089e94     hil_tuning_capi.obj
 0002:00005ebc       ??_C@_0CA@ELPPAOPI@Left?5Ankle?5Twist1?1Math?5Function@ 10089ebc     hil_tuning_capi.obj
 0002:00005ee4       ??_C@_0BG@MCDHMCPM@Left?5Ankle?5Twist1?1Sum@ 10089ee4     hil_tuning_capi.obj
 0002:00005f00       ??_C@_0BC@JHKMLPCH@Left?5Ankle1?1Clock@ 10089f00     hil_tuning_capi.obj
 0002:00005f18       ??_C@_0BD@EOJDEMJJ@Left?5Ankle1?1Output@ 10089f18     hil_tuning_capi.obj
 0002:00005f30       ??_C@_0BL@CBKPGIKP@Left?5Ankle1?1Look?9Up?5Table1@ 10089f30     hil_tuning_capi.obj
 0002:00005f50       ??_C@_0BK@HCGIOCAL@Left?5Ankle1?1Math?5Function@ 10089f50     hil_tuning_capi.obj
 0002:00005f70       ??_C@_0BA@HCLACLGG@Left?5Ankle1?1Sum@ 10089f70     hil_tuning_capi.obj
 0002:00005f84       ??_C@_0BA@EGFJKPBI@Left?5Hip1?1Clock@ 10089f84     hil_tuning_capi.obj
 0002:00005f98       ??_C@_0BB@PICEJELE@Left?5Hip1?1Output@ 10089f98     hil_tuning_capi.obj
 0002:00005fac       ??_C@_0BJ@EDLIIMHD@Left?5Hip1?1Look?9Up?5Table1@ 10089fac     hil_tuning_capi.obj
 0002:00005fcc       ??_C@_0BI@LIJBOBFH@Left?5Hip1?1Math?5Function@ 10089fcc     hil_tuning_capi.obj
 0002:00005fe8       ??_C@_0O@BPNNLIE@Left?5Hip1?1Sum@ 10089fe8     hil_tuning_capi.obj
 0002:00005ff8       ??_C@_0BB@PFAHMIIL@Left?5Knee1?1Clock@ 10089ff8     hil_tuning_capi.obj
 0002:0000600c       ??_C@_0BC@JBJBAICN@Left?5Knee1?1Output@ 1008a00c     hil_tuning_capi.obj
 0002:00006024       ??_C@_0BK@IFDKKIBL@Left?5Knee1?1Look?9Up?5Table1@ 1008a024     hil_tuning_capi.obj
 0002:00006044       ??_C@_0BJ@DGGMDLGN@Left?5Knee1?1Math?5Function@ 1008a044     hil_tuning_capi.obj
 0002:00006064       ??_C@_0P@MEICOHCG@Left?5Knee1?1Sum@ 1008a064     hil_tuning_capi.obj
 0002:00006078       ??_C@_0BF@KIJMCBII@Left?5Rotation1?1Clock@ 1008a078     hil_tuning_capi.obj
 0002:00006094       ??_C@_0BG@IMFMCHO@Left?5Rotation1?1Output@ 1008a094     hil_tuning_capi.obj
 0002:000060b0       ??_C@_0BO@HNPHJDHL@Left?5Rotation1?1Look?9Up?5Table1@ 1008a0b0     hil_tuning_capi.obj
 0002:000060d4       ??_C@_0BN@JJPJDCLA@Left?5Rotation1?1Math?5Function@ 1008a0d4     hil_tuning_capi.obj
 0002:000060f8       ??_C@_0BD@IPPCFFDE@Left?5Rotation1?1Sum@ 1008a0f8     hil_tuning_capi.obj
 0002:00006110       ??_C@_0BH@DPFFDKBO@Right?5Abduction1?1Clock@ 1008a110     hil_tuning_capi.obj
 0002:0000612c       ??_C@_0BI@BBDODNBE@Right?5Abduction1?1Output@ 1008a12c     hil_tuning_capi.obj
 0002:00006148       ??_C@_0CA@LMEPHJBB@Right?5Abduction1?1Look?9Up?5Table1@ 1008a148     hil_tuning_capi.obj
 0002:00006170       ??_C@_0BP@EAAOPDIO@Right?5Abduction1?1Math?5Function@ 1008a170     hil_tuning_capi.obj
 0002:00006198       ??_C@_0BF@EMEJCFGB@Right?5Abduction1?1Sum@ 1008a198     hil_tuning_capi.obj
 0002:000061b4       ??_C@_0BJ@MMFHMDOC@Right?5Ankle?5Twist1?1Clock@ 1008a1b4     hil_tuning_capi.obj
 0002:000061d4       ??_C@_0BK@KFMGIBNK@Right?5Ankle?5Twist1?1Output@ 1008a1d4     hil_tuning_capi.obj
 0002:000061f4       ??_C@_0CC@CIDADMGA@Right?5Ankle?5Twist1?1Look?9Up?5Tabl@ 1008a1f4     hil_tuning_capi.obj
 0002:0000621c       ??_C@_0CB@FLHAAGAH@Right?5Ankle?5Twist1?1Math?5Functio@ 1008a21c     hil_tuning_capi.obj
 0002:00006244       ??_C@_0BH@MPLKDENE@Right?5Ankle?5Twist1?1Sum@ 1008a244     hil_tuning_capi.obj
 0002:00006260       ??_C@_0BD@ENEDNHGN@Right?5Ankle1?1Clock@ 1008a260     hil_tuning_capi.obj
 0002:00006278       ??_C@_0BE@NIEAALHP@Right?5Ankle1?1Output@ 1008a278     hil_tuning_capi.obj
 0002:00006290       ??_C@_0BM@CPFALDIP@Right?5Ankle1?1Look?9Up?5Table1@ 1008a290     hil_tuning_capi.obj
 0002:000062b4       ??_C@_0BL@FGDLPAAD@Right?5Ankle1?1Math?5Function@ 1008a2b4     hil_tuning_capi.obj
 0002:000062d4       ??_C@_0BB@MHLELPLK@Right?5Ankle1?1Sum@ 1008a2d4     hil_tuning_capi.obj
 0002:000062e8       ??_C@_0BB@PDFNDLME@Right?5Hip1?1Clock@ 1008a2e8     hil_tuning_capi.obj
 0002:000062fc       ??_C@_0BC@HHPEAONP@Right?5Hip1?1Output@ 1008a2fc     hil_tuning_capi.obj
 0002:00006314       ??_C@_0BK@KEAJCCIA@Right?5Hip1?1Look?9Up?5Table1@ 1008a314     hil_tuning_capi.obj
 0002:00006334       ??_C@_0BJ@LBBCBFFJ@Right?5Hip1?1Math?5Function@ 1008a334     hil_tuning_capi.obj
 0002:00006354       ??_C@_0P@OBCAIEOH@Right?5Hip1?1Sum@ 1008a354     hil_tuning_capi.obj
 0002:00006368       ??_C@_0BC@HKNHFCOA@Right?5Knee1?1Clock@ 1008a368     hil_tuning_capi.obj
 0002:00006380       ??_C@_0BD@ELHOGAGH@Right?5Knee1?1Output@ 1008a380     hil_tuning_capi.obj
 0002:00006398       ??_C@_0BL@KBGJLKBD@Right?5Knee1?1Look?9Up?5Table1@ 1008a398     hil_tuning_capi.obj
 0002:000063b8       ??_C@_0BK@NBNNJFJO@Right?5Knee1?1Math?5Function@ 1008a3b8     hil_tuning_capi.obj
 0002:000063d8       ??_C@_0BA@BANJAKJL@Right?5Knee1?1Sum@ 1008a3d8     hil_tuning_capi.obj
 0002:000063ec       ??_C@_0BG@EIAADHAC@Right?5Rotation1?1Clock@ 1008a3ec     hil_tuning_capi.obj
 0002:00006408       ??_C@_0BH@FEIDEFG@Right?5Rotation1?1Output@ 1008a408     hil_tuning_capi.obj
 0002:00006424       ??_C@_0BP@KHECGMM@Right?5Rotation1?1Look?9Up?5Table1@ 1008a424     hil_tuning_capi.obj
 0002:0000644c       ??_C@_0BO@BNHMBDLB@Right?5Rotation1?1Math?5Function@ 1008a44c     hil_tuning_capi.obj
 0002:00006470       ??_C@_0BE@BJCBBCNC@Right?5Rotation1?1Sum@ 1008a470     hil_tuning_capi.obj
 0002:00006488       ??_C@_0CA@EBCNJBOK@Subsystem1?1Data?5Type?5Conversion@ 1008a488     hil_tuning_capi.obj
 0002:000064b0       ??_C@_0BA@PMMHJHJN@Subsystem1?1Gain@ 1008a4b0     hil_tuning_capi.obj
 0002:000064c4       ??_C@_0P@ECBLEOHO@Subsystem1?1Add@ 1008a4c4     hil_tuning_capi.obj
 0002:000064d8       ??_C@_0CB@CELIMMLM@Subsystem10?1Data?5Type?5Conversio@ 1008a4d8     hil_tuning_capi.obj
 0002:00006500       ??_C@_0BB@IOHHOLJJ@Subsystem10?1Gain@ 1008a500     hil_tuning_capi.obj
 0002:00006514       ??_C@_0BA@PFAAMPLI@Subsystem10?1Add@ 1008a514     hil_tuning_capi.obj
 0002:00006528       ??_C@_0CB@LPMLCGGI@Subsystem11?1Data?5Type?5Conversio@ 1008a528     hil_tuning_capi.obj
 0002:00006550       ??_C@_0BB@CIAAOACN@Subsystem11?1Gain@ 1008a550     hil_tuning_capi.obj
 0002:00006564       ??_C@_0BA@DOFMBMBN@Subsystem11?1Add@ 1008a564     hil_tuning_capi.obj
 0002:00006578       ??_C@_0CB@MJCOBPFF@Subsystem12?1Data?5Type?5Conversio@ 1008a578     hil_tuning_capi.obj
 0002:000065a0       ??_C@_0BB@BJOIPKLA@Subsystem12?1Gain@ 1008a5a0     hil_tuning_capi.obj
 0002:000065b4       ??_C@_0BA@LIMIGOLD@Subsystem12?1Add@ 1008a5b4     hil_tuning_capi.obj
 0002:000065c8       ??_C@_0CA@DHMIKINH@Subsystem2?1Data?5Type?5Conversion@ 1008a5c8     hil_tuning_capi.obj
 0002:000065f0       ??_C@_0BA@MNCPINAA@Subsystem2?1Gain@ 1008a5f0     hil_tuning_capi.obj
 0002:00006604       ??_C@_0P@MEIPDMNA@Subsystem2?1Add@ 1008a604     hil_tuning_capi.obj
 0002:00006618       ??_C@_0CA@KMLLECAD@Subsystem3?1Data?5Type?5Conversion@ 1008a618     hil_tuning_capi.obj
 0002:00006640       ??_C@_0BA@GLFIIGLE@Subsystem3?1Gain@ 1008a640     hil_tuning_capi.obj
 0002:00006654       ??_C@_0P@PNDOPHF@Subsystem3?1Add@ 1008a654     hil_tuning_capi.obj
 0002:00006668       ??_C@_0CA@NKACNKKN@Subsystem4?1Data?5Type?5Conversion@ 1008a668     hil_tuning_capi.obj
 0002:00006690       ??_C@_0BA@KOPPLIDK@Subsystem4?1Gain@ 1008a690     hil_tuning_capi.obj
 0002:000066a4       ??_C@_0P@BCNGNPMN@Subsystem4?1Add@ 1008a6a4     hil_tuning_capi.obj
 0002:000066b8       ??_C@_0CA@EBHBDAHJ@Subsystem5?1Data?5Type?5Conversion@ 1008a6b8     hil_tuning_capi.obj
 0002:000066e0       ??_C@_0BA@IIILDIO@Subsystem5?1Gain@ 1008a6e0     hil_tuning_capi.obj
 0002:000066f4       ??_C@_0P@NJIKAMGI@Subsystem5?1Add@ 1008a6f4     hil_tuning_capi.obj
 0002:00006708       ??_C@_0CA@DHJEAJEE@Subsystem6?1Data?5Type?5Conversion@ 1008a708     hil_tuning_capi.obj
 0002:00006730       ??_C@_0BA@DJGAKJBD@Subsystem6?1Gain@ 1008a730     hil_tuning_capi.obj
 0002:00006744       ??_C@_0P@FPBOHOMG@Subsystem6?1Add@ 1008a744     hil_tuning_capi.obj
 0002:00006758       ??_C@_0CA@KMOHODJA@Subsystem7?1Data?5Type?5Conversion@ 1008a758     hil_tuning_capi.obj
 0002:00006780       ??_C@_0BA@JPBHKCKH@Subsystem7?1Gain@ 1008a780     hil_tuning_capi.obj
 0002:00006794       ??_C@_0P@JEECKNGD@Subsystem7?1Add@ 1008a794     hil_tuning_capi.obj
 0002:000067a8       ??_C@_0CA@NKOHDIBI@Subsystem8?1Data?5Type?5Conversion@ 1008a7a8     hil_tuning_capi.obj
 0002:000067d0       ??_C@_0BA@GJFPNCEO@Subsystem8?1Gain@ 1008a7d0     hil_tuning_capi.obj
 0002:000067e4       ??_C@_0P@GFBEBPLG@Subsystem8?1Add@ 1008a7e4     hil_tuning_capi.obj
 0002:000067f8       ??_C@_0CA@EBJENCMM@Subsystem9?1Data?5Type?5Conversion@ 1008a7f8     hil_tuning_capi.obj
 0002:00006820       ??_C@_0BA@MPCINJPK@Subsystem9?1Gain@ 1008a820     hil_tuning_capi.obj
 0002:00006834       ??_C@_0P@KOEIMMBD@Subsystem9?1Add@ 1008a834     hil_tuning_capi.obj
 0002:00006848       ??_C@_05LPIJGKJ@Value@     1008a848     hil_tuning_capi.obj
 0002:00006850       ??_C@_0P@CPEHNNHL@abduction_tune@ 1008a850     hil_tuning_capi.obj
 0002:00006864       ??_C@_0L@LNFICPKM@ankle_tune@ 1008a864     hil_tuning_capi.obj
 0002:00006874       ??_C@_0BB@NLLPIHGF@ankle_twist_tune@ 1008a874     hil_tuning_capi.obj
 0002:00006888       ??_C@_08CKCJHGBN@hip_tune@ 1008a888     hil_tuning_capi.obj
 0002:00006894       ??_C@_09BHPOCKOO@knee_tune@ 1008a894     hil_tuning_capi.obj
 0002:000068a0       ??_C@_0O@JAFIEPDB@rotation_tune@ 1008a8a0     hil_tuning_capi.obj
 0002:000068b0       ??_C@_02KKFPAPOP@P1@       1008a8b0     hil_tuning_capi.obj
 0002:000068b4       ??_C@_02IBHCFMCM@P2@       1008a8b4     hil_tuning_capi.obj
 0002:000068b8       ??_C@_02JIGJGNGN@P3@       1008a8b8     hil_tuning_capi.obj
 0002:000068bc       ??_C@_02NHCIPLKK@P4@       1008a8bc     hil_tuning_capi.obj
 0002:000068c0       ??_C@_02MODDMKOL@P5@       1008a8c0     hil_tuning_capi.obj
 0002:000068c4       ??_C@_02HLJNLEKG@P8@       1008a8c4     hil_tuning_capi.obj
 0002:000068c8       ??_C@_02GCIGIFOH@P9@       1008a8c8     hil_tuning_capi.obj
 0002:000068cc       ??_C@_03OPFJJGBF@P10@      1008a8cc     hil_tuning_capi.obj
 0002:000068d0       ??_C@_03PGECKHFE@P11@      1008a8d0     hil_tuning_capi.obj
 0002:000068d4       ??_C@_03NNGPPEJH@P12@      1008a8d4     hil_tuning_capi.obj
 0002:000068d8       ??_C@_02OFBOJJCI@P6@       1008a8d8     hil_tuning_capi.obj
 0002:000068dc       ??_C@_02PMAFKIGJ@P7@       1008a8dc     hil_tuning_capi.obj
 0002:000068e0       ??_C@_0BJ@IMLPJPJF@Left?5Abduction1?1Constant@ 1008a8e0     hil_tuning_capi.obj
 0002:00006900       ??_C@_0BJ@GCDCIOIA@BreakpointsForDimension1@ 1008a900     hil_tuning_capi.obj
 0002:00006920       ??_C@_0BL@PCFPFLNJ@Left?5Ankle?5Twist1?1Constant@ 1008a920     hil_tuning_capi.obj
 0002:00006940       ??_C@_0BF@MCCBMJGH@Left?5Ankle1?1Constant@ 1008a940     hil_tuning_capi.obj
 0002:0000695c       ??_C@_0BD@GKADHPNJ@Left?5Hip1?1Constant@ 1008a95c     hil_tuning_capi.obj
 0002:00006974       ??_C@_0BE@DDDJPIFA@Left?5Knee1?1Constant@ 1008a974     hil_tuning_capi.obj
 0002:0000698c       ??_C@_0BI@NJBOEEDN@Left?5Rotation1?1Constant@ 1008a98c     hil_tuning_capi.obj
 0002:000069a8       ??_C@_0BK@GLAODBGG@Right?5Abduction1?1Constant@ 1008a9a8     hil_tuning_capi.obj
 0002:000069c8       ??_C@_0BM@PMKAIAPJ@Right?5Ankle?5Twist1?1Constant@ 1008a9c8     hil_tuning_capi.obj
 0002:000069ec       ??_C@_0BG@CCLNNPON@Right?5Ankle1?1Constant@ 1008a9ec     hil_tuning_capi.obj
 0002:00006a08       ??_C@_0BE@PMNADIDP@Right?5Hip1?1Constant@ 1008aa08     hil_tuning_capi.obj
 0002:00006a20       ??_C@_0BF@HKMGGMFK@Right?5Knee1?1Constant@ 1008aa20     hil_tuning_capi.obj
 0002:00006a3c       ??_C@_0BJ@NAJNLADD@Right?5Rotation1?1Constant@ 1008aa3c     hil_tuning_capi.obj
 0002:00006a5c       ??_C@_0BE@DDJNIIPG@Subsystem1?1Constant@ 1008aa5c     hil_tuning_capi.obj
 0002:00006a74       ??_C@_04OMOMKKFL@Gain@     1008aa74     hil_tuning_capi.obj
 0002:00006a7c       ??_C@_0BF@LLNKDADN@Subsystem10?1Constant@ 1008aa7c     hil_tuning_capi.obj
 0002:00006a98       ??_C@_0BG@JOIOJBJD@Subsystem10?1Constant1@ 1008aa98     hil_tuning_capi.obj
 0002:00006ab4       ??_C@_0BF@HKFEOPPN@Subsystem11?1Constant@ 1008aab4     hil_tuning_capi.obj
 0002:00006ad0       ??_C@_0BF@ODLGIJPM@Subsystem12?1Constant@ 1008aad0     hil_tuning_capi.obj
 0002:00006aec       ??_C@_0BG@HCLFAPAM@Subsystem12?1Constant1@ 1008aaec     hil_tuning_capi.obj
 0002:00006b08       ??_C@_0BE@KKHPOOPH@Subsystem2?1Constant@ 1008ab08     hil_tuning_capi.obj
 0002:00006b20       ??_C@_0BE@GLPBDBDH@Subsystem3?1Constant@ 1008ab20     hil_tuning_capi.obj
 0002:00006b38       ??_C@_0BF@HOILFDIM@Subsystem3?1Constant1@ 1008ab38     hil_tuning_capi.obj
 0002:00006b54       ??_C@_0BE@ECMKCELE@Subsystem4?1Constant@ 1008ab54     hil_tuning_capi.obj
 0002:00006b6c       ??_C@_0BF@KBDLKAD@Subsystem4?1Constant1@ 1008ab6c     hil_tuning_capi.obj
 0002:00006b88       ??_C@_0BE@IDEEPLHE@Subsystem5?1Constant@ 1008ab88     hil_tuning_capi.obj
 0002:00006ba0       ??_C@_0BF@JBLGPGGM@Subsystem5?1Constant1@ 1008aba0     hil_tuning_capi.obj
 0002:00006bbc       ??_C@_0BE@BKKGJNHF@Subsystem6?1Constant@ 1008abbc     hil_tuning_capi.obj
 0002:00006bd4       ??_C@_0BE@NLCIECLF@Subsystem7?1Constant@ 1008abd4     hil_tuning_capi.obj
 0002:00006bec       ??_C@_0BE@EINALGHD@Subsystem8?1Constant@ 1008abec     hil_tuning_capi.obj
 0002:00006c04       ??_C@_0BE@IJFOGJLD@Subsystem9?1Constant@ 1008ac04     hil_tuning_capi.obj
 0002:00006c1c       ??_C@_0BF@JELMLLON@Subsystem9?1Constant1@ 1008ac1c     hil_tuning_capi.obj
 0002:00006c38       ??_C@_0P@JPCNLJFG@left_abduction@ 1008ac38     hil_tuning_capi.obj
 0002:00006c4c       ??_C@_0L@HLEMLDLF@left_ankle@ 1008ac4c     hil_tuning_capi.obj
 0002:00006c5c       ??_C@_08GPJHAPJJ@left_hip@ 1008ac5c     hil_tuning_capi.obj
 0002:00006c68       ??_C@_09FBKMAAPP@left_knee@ 1008ac68     hil_tuning_capi.obj
 0002:00006c74       ??_C@_0BA@NLBBHBNC@left_knee_twist@ 1008ac74     hil_tuning_capi.obj
 0002:00006c88       ??_C@_0O@KEKDIBBM@left_rotation@ 1008ac88     hil_tuning_capi.obj
 0002:00006c98       ??_C@_0BA@NEIMBBAI@right_abduction@ 1008ac98     hil_tuning_capi.obj
 0002:00006cac       ??_C@_0M@BOAPHMLA@right_ankle@ 1008acac     hil_tuning_capi.obj
 0002:00006cbc       ??_C@_09MACFBPIL@right_hip@ 1008acbc     hil_tuning_capi.obj
 0002:00006cc8       ??_C@_0L@KCLKMDKH@right_knee@ 1008acc8     hil_tuning_capi.obj
 0002:00006cd8       ??_C@_0BB@FHIJKMIJ@right_knee_twist@ 1008acd8     hil_tuning_capi.obj
 0002:00006cec       ??_C@_0P@BNPJIDJ@right_rotation@ 1008acec     hil_tuning_capi.obj
 0002:00006d00       ??_C@_06BNJCAIGJ@double@   1008ad00     hil_tuning_capi.obj
 0002:00006d08       ??_C@_06CNMIJIPB@real_T@   1008ad08     hil_tuning_capi.obj
 0002:00006d10       ??_C@_0N@OFHMGPAL@unsigned?5int@ 1008ad10     hil_tuning_capi.obj
 0002:00006d20       ??_C@_08CCMIKNJF@uint32_T@ 1008ad20     hil_tuning_capi.obj
 0002:00006d2c       ??_C@_0O@PPAIJIHF@unsigned?5char@ 1008ad2c     hil_tuning_capi.obj
 0002:00006d3c       ??_C@_07NCEHLPOC@uint8_T@  1008ad3c     hil_tuning_capi.obj
 0002:00006d48       ??_C@_05KNFBNCOH@float@    1008ad48     hil_tuning_capi.obj
 0002:00006d50       ??_C@_0DL@PGGFBBLM@Error?3?5task?5ID?5?$CFd?5is?5out?5of?5ran@ 1008ad50     hil_tuning_xcp_TET.obj
 0002:00006d98       __real@3e112e0be826d695    1008ad98     hil_tuning_xcp_TET.obj
 0002:00006da8       __real@3f847ae147ae147b    1008ada8     hil_tuning_xcp_TET.obj
 0002:00006db8       __real@3fefae147ae147ae    1008adb8     hil_tuning_xcp_TET.obj
 0002:00006dc4       _serialfifoground          1008adc4     xpc_datatype_ground.obj
 0002:00006dd0       _bcmsg1553ground           1008add0     xpc_datatype_ground.obj
 0002:00006de0       _bcstatground              1008ade0     xpc_datatype_ground.obj
 0002:00006df8       _bmmsg1553ground           1008adf8     xpc_datatype_ground.obj
 0002:00006e34       ??_C@_0BI@INNPNFJN@Memory?5Allocation?5Error@ 1008ae34     rtw_modelmap_utils.obj
 0002:00006e50       ??_C@_1HC@PKAJIAEN@?$AAC?$AA?3?$AA?2?$AAP?$AAR?$AAO?$AAG?$AAR?$AAA?$AA?$HO?$AA1?$AA?2?$AAM?$AAA?$AAT@ 1008ae50     rtw_modelmap_utils.obj
 0002:00006ed8       ??_C@_1CI@OEAJCJND@?$AAj?$AA?5?$AA?$DN?$AA?$DN?$AA?5?$AAe?$AAn?$AAc?$AAo?$AAd?$AAe?$AAd?$AAP?$AAa?$AAt@ 1008aed8     rtw_modelmap_utils.obj
 0002:00006f08       ??_C@_1DC@NFAOIFKB@?$AAe?$AAn?$AAc?$AAo?$AAd?$AAe?$AAd?$AAP?$AAa?$AAt?$AAh?$AA?$FL?$AAj?$AA?9?$AA1@ 1008af08     rtw_modelmap_utils.obj
 0002:00006f44       ??_C@_1DI@FLNJGPEE@?$AAs?$AAi?$AAg?$AAC?$AAo?$AAm?$AAp?$AAl?$AAe?$AAx?$AAi?$AAt?$AAy?$AA?$FL?$AA?$CK@ 1008af44     rtw_modelmap_utils.obj
 0002:00006f88       ??_C@_1KI@OFELMGBG@?$AA?$CI?$AA?$CI?$AA?$CI?$AAd?$AAa?$AAt?$AAa?$AAT?$AAy?$AAp?$AAe?$AAM?$AAa?$AAp?$AA?$CJ@ 1008af88     rtw_modelmap_utils.obj
 0002:00007054       ??_C@_1DA@ILCMPHNE@?$AAf?$AAu?$AAl?$AAl?$AAP?$AAa?$AAt?$AAh?$AA?5?$AA?$CB?$AA?$DN?$AA?5?$AA?$CI?$AA?$CI?$AAv@ 1008b054     rtw_modelmap_utils.obj
 0002:00007090       ??_C@_1CI@OEPPFCCA@?$AAp?$AAa?$AAt?$AAh?$AA?5?$AA?$CB?$AA?$DN?$AA?5?$AA?$CI?$AA?$CI?$AAv?$AAo?$AAi?$AAd?$AA?5@ 1008b090     rtw_modelmap_utils.obj
 0002:000070c0       ??_C@_1FK@GLJIMFHB@?$AA?$CI?$AA?$CI?$AAm?$AAm?$AAi?$AA?$CJ?$AA?9?$AA?$DO?$AAI?$AAn?$AAs?$AAt?$AAa?$AAn?$AAc@ 1008b0c0     rtw_modelmap_utils.obj
 0002:0000712c       ??_C@_1DG@HPCJGNCE@?$AAm?$AAm?$AAi?$AAP?$AAa?$AAt?$AAh?$AA?$FL?$AAp?$AAa?$AAt?$AAh?$AAL?$AAe?$AAn@ 1008b12c     rtw_modelmap_utils.obj
 0002:0000716c       ??_C@_1DM@DBAOGGOO@?$AAm?$AAm?$AAi?$AAP?$AAa?$AAt?$AAh?$AA?$FL?$AAm?$AAm?$AAi?$AAP?$AAa?$AAt?$AAh@ 1008b16c     rtw_modelmap_utils.obj
 0002:000071b4       ??_C@_1DC@LHIAKAFE@?$AAb?$AAl?$AAo?$AAc?$AAk?$AAP?$AAa?$AAt?$AAh?$AA?5?$AA?$CB?$AA?$DN?$AA?5?$AA?$CI?$AA?$CI@ 1008b1b4     rtw_modelmap_utils.obj
 0002:000071f0       ??_C@_1GI@KIEJKPGC@?$AAf?$AAu?$AAl?$AAl?$AAS?$AAt?$AAa?$AAt?$AAe?$AAB?$AAl?$AAo?$AAc?$AAk?$AAP@ 1008b1f0     rtw_modelmap_utils.obj
 0002:00007270       ??_C@_1EE@DNPIBJHC@?$AA?$CI?$AA?$CI?$AAd?$AAi?$AAm?$AAM?$AAa?$AAp?$AA?$CJ?$AA?$FL?$AA?$CI?$AAm?$AAa?$AAp?$AAI@ 1008b270     rtw_modelmap_utils.obj
 0002:000072c4       ??_C@_06JFOKFOED@CSTATE@   1008b2c4     rtw_modelmap_utils.obj
 0002:000072cc       ??_C@_06FAENGAMN@DSTATE@   1008b2cc     rtw_modelmap_utils.obj
 0002:000072d4       ??_C@_1BI@LEBJNOGG@?$AAc?$AAs?$AAv?$AAI?$AAd?$AAx?$AA?5?$AA?$DO?$AA?$DN?$AA?5?$AA0@ 1008b2d4     rtw_modelmap_utils.obj
 0002:000072f0       ??_C@_1BA@KDMGHCHP@?$AAT?$AAI?$AAD?$AA?$DN?$AA?$DN?$AA?9?$AA1@ 1008b2f0     rtw_modelmap_utils.obj
 0002:00007304       ??_C@_1DM@DHGKBPCE@?$AAs?$AAi?$AAg?$AAP?$AAa?$AAt?$AAh?$AA?$FL?$AAs?$AAi?$AAg?$AAP?$AAa?$AAt?$AAh@ 1008b304     rtw_modelmap_utils.obj
 0002:00007350       ??_C@_0ED@LKHIFFLC@Wrong?5number?5of?5input?5arguments@ 1008b350     asciidecode.obj
 0002:000073a0       ??_C@_0CP@GNPFCBGC@Number?5of?5variables?5argument?5mu@ 1008b3a0     asciidecode.obj
 0002:000073d8       ??_C@_0DE@JPPPAPBN@ASCII?5Decode?3?5Unable?5to?5allocat@ 1008b3d8     asciidecode.obj
 0002:00007418       ??_C@_0BI@MKEHIOKD@error?5in?5format?5string?6@ 1008b418     asciidecode.obj
 0002:00007434       ??_C@_0CD@HPFDKADH@RS232?5Send?1Rec?3?5receive?5data?5er@ 1008b434     asciidecode.obj
 0002:00007460       ??_C@_0DO@FPEMOPIN@Converted?5string?5length?5exceeds@ 1008b460     asciiencode.obj
 0002:000074ac       ??_C@_0CC@HOBPNJNM@Error?5getting?5board?5configurati@ 1008b4ac     slrtIPConfig.obj
 0002:000074d4       ??_C@_0CB@NBMNJKGH@Error?5?$CFs?5initializing?5interface@ 1008b4d4     slrtIPConfig.obj
 0002:000074fc       ??_C@_0DP@MDFBBNI@Ethernet?5interface?5not?5found?5at@ 1008b4fc     slrtIPConfig.obj
 0002:00007548       ??_C@_0GJ@FCKIJHNC@Device?5at?5PCI?5Bus?3?$CFd?5Slot?3?$CFd?5Fu@ 1008b548     slrtIPConfig.obj
 0002:000075c8       ??_C@_0DE@CBCIHBDI@Error?5setting?5IP?5address?0?5inter@ 1008b5c8     slrtIPConfig.obj
 0002:00007608       ??_C@_0BM@CGPFMAHK@Error?5?$CFd?5setting?5IP?5address@ 1008b608     slrtIPConfig.obj
 0002:00007630       ??_C@_0EK@BBEACNDD@IP?5address?5already?5in?5use?5for?5c@ 1008b630     slrtIPConfig.obj
 0002:00007688       ??_C@_0EH@FMJBALDK@Subnet?5already?5in?5use?5for?5commu@ 1008b688     slrtIPConfig.obj
 0002:000076e0       ??_C@_0BI@JGFKGBGL@Invalid?5gateway?5address@ 1008b6e0     slrtIPConfig.obj
 0002:000076fc       ??_C@_0BM@EPGFEMO@Error?5?$CFs?5setting?5IP?5address@ 1008b6fc     slrtIPConfig.obj
 0002:00007720       ??_C@_0CF@JGOPHNAL@Invalid?5multicast?5IP?5address?5or@ 1008b720     slrtIPConfig.obj
 0002:0000774c       ??_C@_0CA@MMGIOPJH@Error?5?$CFs?5adding?5multicast?5route@ 1008b74c     slrtIPConfig.obj
 0002:00007774       ??_C@_0BJ@EOBAMGKI@Error?5closing?5device?3?5?$CFs@ 1008b774     slrtIPConfig.obj
 0002:00007794       ??_C@_0BP@LNHNEODM@Invalid?5local?5port?5for?5receive@ 1008b794     slrtUDPReceive.obj
 0002:000077bc       ??_C@_0BJ@DMMKJICG@UDP?5Initialize?5error?3?5?$CFs@ 1008b7bc     slrtUDPReceive.obj
 0002:000077dc       ??_C@_0BF@CNHBOFGC@UDP?5Initialize?5error@ 1008b7dc     slrtUDPReceive.obj
 0002:000077f8       ??_C@_0CB@GLIGAFEB@Invalid?5multicast?5group?5address@ 1008b7f8     slrtUDPReceive.obj
 0002:00007820       ??_C@_0CD@FIGFIJJN@UDP?5add?5multicast?5member?5error?3@ 1008b820     slrtUDPReceive.obj
 0002:0000784c       ??_C@_0CF@EDEKNHFK@Error?5checking?5socket?5I?1O?5statu@ 1008b84c     slrtUDPReceive.obj
 0002:00007878       ??_C@_0BG@DLJKGPE@UDP?5receive?5error?3?5?$CFs@ 1008b878     slrtUDPReceive.obj
 0002:00007894       ??_C@_0CJ@GAKAOIGG@Data?5port?5width?5exceeds?5maximum@ 1008b894     slrtUDPSend.obj
 0002:000078c8       ??_C@_0DI@ICMDLECJ@Route?5to?5?$CFs?5is?5not?5available?0?5n@ 1008b8c8     slrtUDPSend.obj
 0002:0000790c       ??_C@_0BJ@JMOBKMKG@Warning?3?5block?5?8?$CFs?8?3?5?$CFs?6@ 1008b90c     slrtUDPSend.obj
 0002:0000792c       ??_C@_0BD@KCHFJACO@UDP?5send?5error?3?5?$CFs@ 1008b92c     slrtUDPSend.obj
 0002:00007944       ??_C@_0BK@EBKJELMI@maxfunc?5?$DN?5?$CFd?5at?5?$FL?$CFd?0?5?$CFd?$FN?6@ 1008b944     xpcruntime:xpcimports.obj
 0002:00007964       ??_C@_0CC@DMFKNLL@VendorId?5?$DN?50x?$CFx?0?5DeviceId?5?$DN?50x?$CF@ 1008b964     xpcruntime:xpcimports.obj
 0002:0000798c       ??_C@_0DH@OHCBLNMG@Subsystem?5Device?5ID?5?$DN?50x?$CFx?6Subs@ 1008b98c     xpcruntime:xpcimports.obj
 0002:000079d0       ??_C@_0BD@MMMMEFCM@Class?5Code?5?$DN?50x?$CFx?6@ 1008b9d0     xpcruntime:xpcimports.obj
 0002:000079e8       ??_C@_0BE@OLDDDNHM@InterruptLine?5?$DN?5?$CFd?6@ 1008b9e8     xpcruntime:xpcimports.obj
 0002:00007a00       ??_C@_0CE@IBMFFAPN@bus?5?$DN?5?$CFd?0?5slot?5?$DN?5?$CFd?0?5function?5?$DN@ 1008ba00     xpcruntime:xpcimports.obj
 0002:00007a2c       ??_C@_0CE@DGLLGDFH@?5?5?5?5Phys?5?5?5Virtual?5?5?5Length?5IO?1@ 1008ba2c     xpcruntime:xpcimports.obj
 0002:00007a58       ??_C@_0BI@FEOPLEMG@?$CF08x?5?$CF08x?5?$CF08x?5?5?5?5?5?5?$CFc?6@ 1008ba58     xpcruntime:xpcimports.obj
 0002:00007a74       ??_C@_0BB@BNNCEDPC@rl32eScopeExists@ 1008ba74     xpcruntime:xpcimports.obj
 0002:00007a88       ??_C@_0BM@FJBFEGFG@rl32eScopeExists?5not?5found?6@ 1008ba88     xpcruntime:xpcimports.obj
 0002:00007aac       ??_C@_0O@BNNGKJEA@rl32eDefScope@ 1008baac     xpcruntime:xpcimports.obj
 0002:00007abc       ??_C@_0BJ@CDNOENKA@rl32eDefScope?5not?5found?6@ 1008babc     xpcruntime:xpcimports.obj
 0002:00007adc       ??_C@_0P@CKNKILDP@rl32eAddSignal@ 1008badc     xpcruntime:xpcimports.obj
 0002:00007af0       ??_C@_0BK@GMJAJBAI@rl32eAddSignal?5not?5found?6@ 1008baf0     xpcruntime:xpcimports.obj
 0002:00007b10       ??_C@_0BB@LDMIHGCE@rl32eGetSignalNo@ 1008bb10     xpcruntime:xpcimports.obj
 0002:00007b24       ??_C@_0BM@LGAMBAID@rl32eGetSignalNo?5not?5found?6@ 1008bb24     xpcruntime:xpcimports.obj
 0002:00007b48       ??_C@_0O@CFDGALBP@rl32eSetScope@ 1008bb48     xpcruntime:xpcimports.obj
 0002:00007b58       ??_C@_0BJ@JCLHHIN@rl32eSetScope?5not?5found?6@ 1008bb58     xpcruntime:xpcimports.obj
 0002:00007b78       ??_C@_0P@IKMCBMHH@xpceFSScopeSet@ 1008bb78     xpcruntime:xpcimports.obj
 0002:00007b8c       ??_C@_0BK@JODJPNNH@xpceFSScopeSet?5not?5found?6@ 1008bb8c     xpcruntime:xpcimports.obj
 0002:00007bac       ??_C@_0BE@DLACEEJM@rl32eSetTargetScope@ 1008bbac     xpcruntime:xpcimports.obj
 0002:00007bc4       ??_C@_0BP@JCHFMKPJ@rl32eSetTargetScope?5not?5found?6@ 1008bbc4     xpcruntime:xpcimports.obj
 0002:00007bec       ??_C@_0BJ@LIDLNDHC@rl32eSetTargetScopeSigFt@ 1008bbec     xpcruntime:xpcimports.obj
 0002:00007c0c       ??_C@_0CE@JLGHCFHI@rl32eSetTargetScopeSigFt?5not?5fo@ 1008bc0c     xpcruntime:xpcimports.obj
 0002:00007c38       ??_C@_0BI@JAPOIDNG@rl32eRestartAcquisition@ 1008bc38     xpcruntime:xpcimports.obj
 0002:00007c54       ??_C@_0CD@LLBEFFBO@rl32eRestartAcquisition?5not?5fou@ 1008bc54     xpcruntime:xpcimports.obj
 0002:00007c80       ??_C@_0P@IEIIADJB@xpceScopeAcqOK@ 1008bc80     xpcruntime:xpcimports.obj
 0002:00007c94       ??_C@_0BK@NJCKNFPN@xpceScopeAcqOK?5not?5found?6@ 1008bc94     xpcruntime:xpcimports.obj
 0002:00007cb4       ??_C@_0BA@IJINKAHF@xpceRegisterISR@ 1008bcb4     xpcruntime:xpcimports.obj
 0002:00007cc8       ??_C@_0BL@NNDLOEJE@xpceRegisterISR?5not?5found?6@ 1008bcc8     xpcruntime:xpcimports.obj
 0002:00007ce8       ??_C@_0BC@NLBADGKF@xpceDeRegisterISR@ 1008bce8     xpcruntime:xpcimports.obj
 0002:00007d00       ??_C@_0BN@DCAIKFFD@xpceDeRegisterISR?5not?5found?6@ 1008bd00     xpcruntime:xpcimports.obj
 0002:00007d24       ??_C@_07JPMEPILD@xpcInpB@  1008bd24     xpcruntime:xpcimports.obj
 0002:00007d30       ??_C@_0BD@PGABEJOL@xpcInpB?5not?5found?6@ 1008bd30     xpcruntime:xpcimports.obj
 0002:00007d48       ??_C@_07KIHBBOKH@xpcInpW@  1008bd48     xpcruntime:xpcimports.obj
 0002:00007d54       ??_C@_0BD@FPCJFMCC@xpcInpW?5not?5found?6@ 1008bd54     xpcruntime:xpcimports.obj
 0002:00007d6c       ??_C@_08KDIAJBOP@xpcInpDW@ 1008bd6c     xpcruntime:xpcimports.obj
 0002:00007d78       ??_C@_0BE@PIELDNIL@xpcInpDW?5not?5found?6@ 1008bd78     xpcruntime:xpcimports.obj
 0002:00007d90       ??_C@_08PJFMOIGO@xpcOutpB@ 1008bd90     xpcruntime:xpcimports.obj
 0002:00007d9c       ??_C@_0BE@HCKNCEKF@xpcOutpB?5not?5found?6@ 1008bd9c     xpcruntime:xpcimports.obj
 0002:00007db4       ??_C@_08MOOJAOHK@xpcOutpW@ 1008bdb4     xpcruntime:xpcimports.obj
 0002:00007dc0       ??_C@_0BE@NLIFDBGM@xpcOutpW?5not?5found?6@ 1008bdc0     xpcruntime:xpcimports.obj
 0002:00007dd8       ??_C@_09FLIEKHJG@xpcOutpDW@ 1008bdd8     xpcruntime:xpcimports.obj
 0002:00007de4       ??_C@_0BF@GJKLPNHB@xpcOutpDW?5not?5found?6@ 1008bde4     xpcruntime:xpcimports.obj
 0002:00007e00       ??_C@_0BH@EHOLELHH@xpcReserveMemoryRegion@ 1008be00     xpcruntime:xpcimports.obj
 0002:00007e1c       ??_C@_0CC@KAAAGPI@xpcReserveMemoryRegion?5not?5foun@ 1008be1c     xpcruntime:xpcimports.obj
 0002:00007e44       ??_C@_0BA@JGPMHGAF@rl32eShowPCIDev@ 1008be44     xpcruntime:xpcimports.obj
 0002:00007e58       ??_C@_0BL@DDFFLNHI@rl32eShowPCIDev?5not?5found?6@ 1008be58     xpcruntime:xpcimports.obj
 0002:00007e78       ??_C@_0BB@KBCOJPFB@rl32eShowPCIInfo@ 1008be78     xpcruntime:xpcimports.obj
 0002:00007e8c       ??_C@_0BM@IFDMAGLO@rl32eShowPCIInfo?5not?5found?6@ 1008be8c     xpcruntime:xpcimports.obj
 0002:00007eb0       ??_C@_0BA@BGPAADB@rl32eGetPCIInfo@ 1008beb0     xpcruntime:xpcimports.obj
 0002:00007ec4       ??_C@_0BL@IGOMLDCK@rl32eGetPCIInfo?5not?5found?6@ 1008bec4     xpcruntime:xpcimports.obj
 0002:00007ee4       ??_C@_0BG@NJPFKFDP@rl32eGetPCIInfoAtSlot@ 1008bee4     xpcruntime:xpcimports.obj
 0002:00007f00       ??_C@_0CB@BBKIPMLA@rl32eGetPCIInfoAtSlot?5not?5found@ 1008bf00     xpcruntime:xpcimports.obj
 0002:00007f28       ??_C@_0BH@OKBOPNFG@xpceAssignPCIInterrupt@ 1008bf28     xpcruntime:xpcimports.obj
 0002:00007f44       ??_C@_0CC@CDNDNJBJ@xpceAssignPCIInterrupt?5not?5foun@ 1008bf44     xpcruntime:xpcimports.obj
 0002:00007f6c       ??_C@_0BD@PCKOKHO@xpceGetSignalValue@ 1008bf6c     xpcruntime:xpcimports.obj
 0002:00007f84       ??_C@_0BO@GCBDJHMB@xpceGetSignalValue?5not?5found?6@ 1008bf84     xpcruntime:xpcimports.obj
 0002:00007fa8       ??_C@_0BB@BJONJAGA@xpceSetParameter@ 1008bfa8     xpcruntime:xpcimports.obj
 0002:00007fbc       ??_C@_0BM@BJIKDLHA@xpceSetParameter?5not?5found?6@ 1008bfbc     xpcruntime:xpcimports.obj
 0002:00007fe0       ??_C@_0BB@GNFDFMCM@xpceGetParameter@ 1008bfe0     xpcruntime:xpcimports.obj
 0002:00007ff4       ??_C@_0BM@POHNKBC@xpceGetParameter?5not?5found?6@ 1008bff4     xpcruntime:xpcimports.obj
 0002:00008018       ??_C@_0BB@CEIJLFCD@xpceGetParamDims@ 1008c018     xpcruntime:xpcimports.obj
 0002:0000802c       ??_C@_0BM@OABDBKAO@xpceGetParamDims?5not?5found?6@ 1008c02c     xpcruntime:xpcimports.obj
 0002:00008050       ??_C@_0L@OCBLLHBM@xpceGetTET@ 1008c050     xpcruntime:xpcimports.obj
 0002:00008060       ??_C@_0BG@HNOFBOB@xpceGetTET?5not?5found?6@ 1008c060     xpcruntime:xpcimports.obj
 0002:0000807c       ??_C@_0P@OKGNGAGH@xpcIsModelInit@ 1008c07c     xpcruntime:xpcimports.obj
 0002:00008090       ??_C@_0BK@DHEMLBIM@xpcIsModelInit?5not?5found?6@ 1008c090     xpcruntime:xpcimports.obj
 0002:000080b0       ??_C@_0BH@KJJLCAOJ@xpcAllocPhysicalMemory@ 1008c0b0     xpcruntime:xpcimports.obj
 0002:000080cc       ??_C@_0CC@MOJPNHKL@xpcAllocPhysicalMemory?5not?5foun@ 1008c0cc     xpcruntime:xpcimports.obj
 0002:000080f4       ??_C@_0BG@CBNPGAEL@xpcFreePhysicalMemory@ 1008c0f4     xpcruntime:xpcimports.obj
 0002:00008110       ??_C@_0CB@PKJEBPOG@xpcFreePhysicalMemory?5not?5found@ 1008c110     xpcruntime:xpcimports.obj
 0002:00008138       ??_C@_0BC@JGKNLICL@xpcGetElapsedTime@ 1008c138     xpcruntime:xpcimports.obj
 0002:00008150       ??_C@_0BN@OEOAHCIO@xpcGetElapsedTime?5not?5found?6@ 1008c150     xpcruntime:xpcimports.obj
 0002:00008174       ??_C@_0M@ICBLMODA@xpcBusyWait@ 1008c174     xpcruntime:xpcimports.obj
 0002:00008184       ??_C@_0BH@FBOPECBI@xpcBusyWait?5not?5found?6@ 1008c184     xpcruntime:xpcimports.obj
 0002:000081a0       ??_C@_0N@LKKJEKKA@TBCreateSpin@ 1008c1a0     xpcruntime:xpcimports.obj
 0002:000081b0       ??_C@_0BI@FHKMLKOE@TBCreateSpin?5not?5found?6@ 1008c1b0     xpcruntime:xpcimports.obj
 0002:000081cc       ??_C@_0N@HOAJHNBD@TBDeleteSpin@ 1008c1cc     xpcruntime:xpcimports.obj
 0002:000081dc       ??_C@_0BI@BKCPAAG@TBDeleteSpin?5not?5found?6@ 1008c1dc     xpcruntime:xpcimports.obj
 0002:000081f8       ??_C@_0P@DAHDDBJG@TBTakeSpinFast@ 1008c1f8     xpcruntime:xpcimports.obj
 0002:0000820c       ??_C@_0BK@NKAIBHGB@TBTakeSpinFast?5not?5found?6@ 1008c20c     xpcruntime:xpcimports.obj
 0002:0000822c       ??_C@_0P@FKNAAELA@TBGiveSpinFast@ 1008c22c     xpcruntime:xpcimports.obj
 0002:00008240       ??_C@_0BK@KGPJBJND@TBGiveSpinFast?5not?5found?6@ 1008c240     xpcruntime:xpcimports.obj
 0002:00008260       ??_C@_0BE@IIGBFDHK@xpceCreateSemaphore@ 1008c260     xpcruntime:xpcimports.obj
 0002:00008278       ??_C@_0BP@KFBAFFKJ@xpceCreateSemaphore?5not?5found?6@ 1008c278     xpcruntime:xpcimports.obj
 0002:000082a0       ??_C@_0BC@IFNIONKJ@xpceWaitSemaphore@ 1008c2a0     xpcruntime:xpcimports.obj
 0002:000082b8       ??_C@_0BN@NMFAADIO@xpceWaitSemaphore?5not?5found?6@ 1008c2b8     xpcruntime:xpcimports.obj
 0002:000082dc       ??_C@_0BE@NNDIOBKE@xpceSignalSemaphore@ 1008c2dc     xpcruntime:xpcimports.obj
 0002:000082f4       ??_C@_0BP@LBANMHJP@xpceSignalSemaphore?5not?5found?6@ 1008c2f4     xpcruntime:xpcimports.obj
 0002:0000831c       ??_C@_0BE@MEBEKOIM@xpceDeleteSemaphore@ 1008c31c     xpcruntime:xpcimports.obj
 0002:00008334       ??_C@_0BP@OFNCKOJH@xpceDeleteSemaphore?5not?5found?6@ 1008c334     xpcruntime:xpcimports.obj
 0002:0000835c       ??_C@_0BD@MFNDMBOF@FindUsbVideoDevice@ 1008c35c     xpcruntime:xpcimports.obj
 0002:00008374       ??_C@_0BO@POKLDHMI@FindUsbVideoDevice?5not?5found?6@ 1008c374     xpcruntime:xpcimports.obj
 0002:00008398       ??_C@_0BA@PLPAPNAB@GetVideoConfigs@ 1008c398     xpcruntime:xpcimports.obj
 0002:000083ac       ??_C@_0BL@DALDHKHC@GetVideoConfigs?5not?5found?6@ 1008c3ac     xpcruntime:xpcimports.obj
 0002:000083cc       ??_C@_0L@GBAEMHMH@StartVideo@ 1008c3cc     xpcruntime:xpcimports.obj
 0002:000083dc       ??_C@_0BG@HDCELEBP@StartVideo?5not?5found?6@ 1008c3dc     xpcruntime:xpcimports.obj
 0002:000083f8       ??_C@_0BA@FDNPOCLN@ReadFrameBuffer@ 1008c3f8     xpcruntime:xpcimports.obj
 0002:0000840c       ??_C@_0BL@JHGHPNBI@ReadFrameBuffer?5not?5found?6@ 1008c40c     xpcruntime:xpcimports.obj
 0002:0000842c       ??_C@_09FAHCLKAG@StopVideo@ 1008c42c     xpcruntime:xpcimports.obj
 0002:00008438       ??_C@_0BF@NKGKKADL@StopVideo?5not?5found?6@ 1008c438     xpcruntime:xpcimports.obj
 0002:00008454       ??_C@_0O@MCPKDLLL@ConvertUImage@ 1008c454     xpcruntime:xpcimports.obj
 0002:00008464       ??_C@_0BJ@PHJKOAFL@ConvertUImage?5not?5found?6@ 1008c464     xpcruntime:xpcimports.obj
 0002:00008484       ??_C@_0BD@NKCBPBJJ@CreateVideoDisplay@ 1008c484     xpcruntime:xpcimports.obj
 0002:0000849c       ??_C@_0BO@HPPLLNFP@CreateVideoDisplay?5not?5found?6@ 1008c49c     xpcruntime:xpcimports.obj
 0002:000084c0       ??_C@_0BE@KJCKGPHA@DestroyVideoDisplay@ 1008c4c0     xpcruntime:xpcimports.obj
 0002:000084d8       ??_C@_0BP@FMGLJAIJ@DestroyVideoDisplay?5not?5found?6@ 1008c4d8     xpcruntime:xpcimports.obj
 0002:00008500       ??_C@_0BC@HCMIMIDN@StartVideoDisplay@ 1008c500     xpcruntime:xpcimports.obj
 0002:00008518       ??_C@_0BN@EFIEBGOO@StartVideoDisplay?5not?5found?6@ 1008c518     xpcruntime:xpcimports.obj
 0002:0000853c       ??_C@_0BB@JBBLMILG@StopVideoDisplay@ 1008c53c     xpcruntime:xpcimports.obj
 0002:00008550       ??_C@_0BM@DBJBPLEL@StopVideoDisplay?5not?5found?6@ 1008c550     xpcruntime:xpcimports.obj
 0002:00008574       ??_C@_0M@MFJEGMHC@StreamVideo@ 1008c574     xpcruntime:xpcimports.obj
 0002:00008584       ??_C@_0BH@OINCDMLA@StreamVideo?5not?5found?6@ 1008c584     xpcruntime:xpcimports.obj
 0002:000085a0       ??_C@_0N@IGGLCIGE@xpceaddEvent@ 1008c5a0     xpcruntime:xpcimports.obj
 0002:000085b0       ??_C@_0BI@NHJNFMKH@xpceaddEvent?5not?5found?6@ 1008c5b0     xpcruntime:xpcimports.obj
 0002:000085cc       ??_C@_0BC@MLJODBHJ@slrtStartProfiler@ 1008c5cc     xpcruntime:xpcimports.obj
 0002:000085e4       ??_C@_0BN@HLNCOKA@slrtStartProfiler?5not?5found?6@ 1008c5e4     xpcruntime:xpcimports.obj
 0002:00008608       ??_C@_0BB@ONJONMCD@slrtStopProfiler@ 1008c608     xpcruntime:xpcimports.obj
 0002:0000861c       ??_C@_0BM@GAKJEGBA@slrtStopProfiler?5not?5found?6@ 1008c61c     xpcruntime:xpcimports.obj
 0002:00008640       ??_C@_0BF@EILBHBBF@slrtGetProfilerState@ 1008c640     xpcruntime:xpcimports.obj
 0002:0000865c       ??_C@_0CA@EDDFOCLE@slrtGetProfilerState?5not?5found?6@ 1008c65c     xpcruntime:xpcimports.obj
 0002:00008684       ??_C@_0BB@HDPOIJAB@xpceDAQPostEvent@ 1008c684     xpcruntime:xpcimports.obj
 0002:00008698       ??_C@_0BM@IHANBKGN@xpceDAQPostEvent?5not?5found?6@ 1008c698     xpcruntime:xpcimports.obj
 0002:000086bc       ??_C@_0BH@MBACMOD@xpceDAQUpdateTimeStamp@ 1008c6bc     xpcruntime:xpcimports.obj
 0002:000086d8       ??_C@_0CC@DAKBBINL@xpceDAQUpdateTimeStamp?5not?5foun@ 1008c6d8     xpcruntime:xpcimports.obj
 0002:00008700       ??_C@_0BD@HLALHPHI@slrtRegisterSignal@ 1008c700     xpcruntime:xpcimports.obj
 0002:00008718       ??_C@_0BO@BALEBHKF@slrtRegisterSignal?5not?5found?6@ 1008c718     xpcruntime:xpcimports.obj
 0002:0000873c       ??_C@_0O@DKILEOIJ@slrtLogSignal@ 1008c73c     xpcruntime:xpcimports.obj
 0002:0000874c       ??_C@_0BJ@FMKKIEDD@slrtLogSignal?5not?5found?6@ 1008c74c     xpcruntime:xpcimports.obj
 0002:0000876c       ??_C@_0BG@CCHICKPN@slrteSetStepSizeDelta@ 1008c76c     xpcruntime:xpcimports.obj
 0002:00008788       ??_C@_0CB@MKHINEIJ@slrteSetStepSizeDelta?5not?5found@ 1008c788     xpcruntime:xpcimports.obj
 0002:000087b0       ??_C@_0BI@CLNBLDKJ@slrteGetCurrentStepSize@ 1008c7b0     xpcruntime:xpcimports.obj
 0002:000087cc       ??_C@_0CD@GIOJPGJA@slrteGetCurrentStepSize?5not?5fou@ 1008c7cc     xpcruntime:xpcimports.obj
 0002:000087f8       ??_C@_0BE@FCLCBOC@registerPTPTimeRead@ 1008c7f8     xpcruntime:xpcimports.obj
 0002:00008810       ??_C@_0BP@LHPKAJIP@registerPTPTimeRead?5not?5found?6@ 1008c810     xpcruntime:xpcimports.obj
 0002:00008838       ??_C@_0BG@KIGCDDJI@unRegisterPTPTimeRead@ 1008c838     xpcruntime:xpcimports.obj
 0002:00008854       ??_C@_0CB@MLFFBFCM@unRegisterPTPTimeRead?5not?5found@ 1008c854     xpcruntime:xpcimports.obj
 0002:0000887c       ??_C@_0BB@IPMDDBHK@slTestInitialize@ 1008c87c     xpcruntime:xpcimports.obj
 0002:00008890       ??_C@_0BM@LAJFCCJH@slTestInitialize?5not?5found?6@ 1008c890     xpcruntime:xpcimports.obj
 0002:000088b4       ??_C@_0BF@OOMPMEBC@slTestLogAssessments@ 1008c8b4     xpcruntime:xpcimports.obj
 0002:000088d0       ??_C@_0CA@FGJCEBAG@slTestLogAssessments?5not?5found?6@ 1008c8d0     xpcruntime:xpcimports.obj
 0002:000088f8       ??_C@_0BB@HJHKONHO@slTestEvalOnFail@ 1008c8f8     xpcruntime:xpcimports.obj
 0002:0000890c       ??_C@_0BM@JIKCFFNJ@slTestEvalOnFail?5not?5found?6@ 1008c90c     xpcruntime:xpcimports.obj
 0002:00008930       ??_C@_0BA@LBHLABFP@slTestTerminate@ 1008c930     xpcruntime:xpcimports.obj
 0002:00008944       ??_C@_0BL@EMFGKAPA@slTestTerminate?5not?5found?6@ 1008c944     xpcruntime:xpcimports.obj
 0002:00008964       ??_C@_0BE@JPNPBBEO@slTestRegAssessment@ 1008c964     xpcruntime:xpcimports.obj
 0002:0000897c       ??_C@_0BP@FBDEJJJH@slTestRegAssessment?5not?5found?6@ 1008c97c     xpcruntime:xpcimports.obj
 0002:000089a4       ??_C@_0O@NCLGDNIB@slrteSetupMSI@ 1008c9a4     xpcruntime:xpcimports.obj
 0002:000089b4       ??_C@_0BJ@HEFMECLM@slrteSetupMSI?5not?5found?6@ 1008c9b4     xpcruntime:xpcimports.obj
 0002:000089d4       ??_C@_0BH@BPOLALHD@slrtGetCRBScratchSpace@ 1008c9d4     xpcruntime:xpcimports.obj
 0002:000089f0       ??_C@_0CC@KCKAJKKJ@slrtGetCRBScratchSpace?5not?5foun@ 1008c9f0     xpcruntime:xpcimports.obj
 0002:00008a18       ??_C@_0BC@MKFDAKOL@slrtGetSgCRBSpace@ 1008ca18     xpcruntime:xpcimports.obj
 0002:00008a30       ??_C@_0BN@JDPHPLHL@slrtGetSgCRBSpace?5not?5found?6@ 1008ca30     xpcruntime:xpcimports.obj
 0002:00008a54       ??_C@_0P@EPAPKLIF@slrtfsOpenFile@ 1008ca54     xpcruntime:xpcimports.obj
 0002:00008a68       ??_C@_0BK@FIHCBOHG@slrtfsOpenFile?5not?5found?6@ 1008ca68     xpcruntime:xpcimports.obj
 0002:00008a88       ??_C@_0BA@LILAFDDL@slrtfsCloseFile@ 1008ca88     xpcruntime:xpcimports.obj
 0002:00008a9c       ??_C@_0BL@DEGHJFIB@slrtfsCloseFile?5not?5found?6@ 1008ca9c     xpcruntime:xpcimports.obj
 0002:00008abc       ??_C@_0BC@OKMJDIEH@slrtfsWriteToFile@ 1008cabc     xpcruntime:xpcimports.obj
 0002:00008ad4       ??_C@_0BN@KCFLCLAH@slrtfsWriteToFile?5not?5found?6@ 1008cad4     xpcruntime:xpcimports.obj
 0002:00008af8       ??_C@_0BK@GIPNFFFF@slrtfsGetFileErrorMessage@ 1008caf8     xpcruntime:xpcimports.obj
 0002:00008b18       ??_C@_0CF@BCBLMKLE@slrtfsGetFileErrorMessage?5not?5f@ 1008cb18     xpcruntime:xpcimports.obj
 0002:00008b44       ??_C@_0BD@ICBOKMK@slrtfsGetFileError@ 1008cb44     xpcruntime:xpcimports.obj
 0002:00008b5c       ??_C@_0BO@FNBANAE@slrtfsGetFileError?5not?5found?6@ 1008cb5c     xpcruntime:xpcimports.obj
 0002:00008b80       ??_C@_0BE@PPAJMHJP@slrtfsOpenFileAsync@ 1008cb80     xpcruntime:xpcimports.obj
 0002:00008b98       ??_C@_0BP@HKBMMJOK@slrtfsOpenFileAsync?5not?5found?6@ 1008cb98     xpcruntime:xpcimports.obj
 0002:00008bc0       ??_C@_0BF@IGNDIBPF@slrtfsCloseFileAsync@ 1008cbc0     xpcruntime:xpcimports.obj
 0002:00008bdc       ??_C@_0CA@GJPFDBKN@slrtfsCloseFileAsync?5not?5found?6@ 1008cbdc     xpcruntime:xpcimports.obj
 0002:00008c04       ??_C@_0BE@IOLEBNB@slrtfsGetFileStatus@ 1008cc04     xpcruntime:xpcimports.obj
 0002:00008c1c       ??_C@_0BP@PEFHDGHL@slrtfsGetFileStatus?5not?5found?6@ 1008cc1c     xpcruntime:xpcimports.obj
 0002:00008c44       ??_C@_0M@HKIJIMG@slrtfsFread@ 1008cc44     xpcruntime:xpcimports.obj
 0002:00008c54       ??_C@_0BH@OOKBGONO@slrtfsFread?5not?5found?6@ 1008cc54     xpcruntime:xpcimports.obj
 0002:00008c70       ??_C@_0BE@OGCMPLAP@slrtGetDefaultDrive@ 1008cc70     xpcruntime:xpcimports.obj
 0002:00008c88       ??_C@_0BP@HKFGLHOE@slrtGetDefaultDrive?5not?5found?6@ 1008cc88     xpcruntime:xpcimports.obj
 0002:00008cb0       ??_C@_0N@NAJIKFFI@slrtLogEvent@ 1008ccb0     xpcruntime:xpcimports.obj
 0002:00008cc0       ??_C@_0BI@NKCEACND@slrtLogEvent?5not?5found?6@ 1008ccc0     xpcruntime:xpcimports.obj
 0002:00008cdc       ??_C@_0N@IDKFJOHI@getlasterror@ 1008ccdc     xpcruntime:xpcimports.obj
 0002:00008cec       ??_C@_0BI@MIHMCHGL@getlasterror?5not?5found?6@ 1008ccec     xpcruntime:xpcimports.obj
 0002:00008d08       ??_C@_0P@OKHGKJKN@geterrorstring@ 1008cd08     xpcruntime:xpcimports.obj
 0002:00008d1c       ??_C@_0BK@NOHFDMLP@geterrorstring?5not?5found?6@ 1008cd1c     xpcruntime:xpcimports.obj
 0002:00008d3c       ??_C@_0BD@HNFFKMGJ@slrtGetCPUTCelsius@ 1008cd3c     xpcruntime:xpcimports.obj
 0002:00008d54       ??_C@_0BO@LHBFKLIH@slrtGetCPUTCelsius?5not?5found?6@ 1008cd54     xpcruntime:xpcimports.obj
 0002:00008d78       ??_C@_0M@OONCNCLM@slrtWarning@ 1008cd78     xpcruntime:xpcimports.obj
 0002:00008d88       ??_C@_0BH@ICKGIEMB@slrtWarning?5not?5found?6@ 1008cd88     xpcruntime:xpcimports.obj
 0002:00008da4       ??_C@_0M@JACEPOPN@registerNIC@ 1008cda4     xpcruntime:xpcimports.obj
 0002:00008db4       ??_C@_0BH@JMDHJIAC@registerNIC?5not?5found?6@ 1008cdb4     xpcruntime:xpcimports.obj
 0002:00008dd0       ??_C@_0M@KBKHECFH@NICSetIface@ 1008cdd0     xpcruntime:xpcimports.obj
 0002:00008de0       ??_C@_0BH@NJAHOBA@NICSetIface?5not?5found?6@ 1008cde0     xpcruntime:xpcimports.obj
 0002:00008dfc       ??_C@_0M@FAILFBCK@NICGetIface@ 1008cdfc     xpcruntime:xpcimports.obj
 0002:00008e0c       ??_C@_0BH@KDLLDOGM@NICGetIface?5not?5found?6@ 1008ce0c     xpcruntime:xpcimports.obj
 0002:00008e28       ??_C@_0L@JNFPDPO@releaseNIC@ 1008ce28     xpcruntime:xpcimports.obj
 0002:00008e38       ??_C@_0BG@EBGJANLA@releaseNIC?5not?5found?6@ 1008ce38     xpcruntime:xpcimports.obj
 0002:00008e54       ??_C@_0BC@HLDKJAG@SetIPTASKPriority@ 1008ce54     xpcruntime:xpcimports.obj
 0002:00008e6c       ??_C@_0BN@OGKMHHAE@SetIPTASKPriority?5not?5found?6@ 1008ce6c     xpcruntime:xpcimports.obj
 0002:00008e90       ??_C@_0O@LHENMBDD@OpenInterface@ 1008ce90     xpcruntime:xpcimports.obj
 0002:00008ea0       ??_C@_0BJ@PFGDBKHB@OpenInterface?5not?5found?6@ 1008cea0     xpcruntime:xpcimports.obj
 0002:00008ec0       ??_C@_0P@IINFELKD@CloseInterface@ 1008cec0     xpcruntime:xpcimports.obj
 0002:00008ed4       ??_C@_0BK@PAPDNDBK@CloseInterface?5not?5found?6@ 1008ced4     xpcruntime:xpcimports.obj
 0002:00008ef4       ??_C@_05LEFIAAOI@SetIP@    1008cef4     xpcruntime:xpcimports.obj
 0002:00008efc       ??_C@_0BB@CGLIBAMM@SetIP?5not?5found?6@ 1008cefc     xpcruntime:xpcimports.obj
 0002:00008f10       ??_C@_0BA@HIJJHHMD@AddGatewayRoute@ 1008cf10     xpcruntime:xpcimports.obj
 0002:00008f24       ??_C@_0BL@BFCFMDMN@AddGatewayRoute?5not?5found?6@ 1008cf24     xpcruntime:xpcimports.obj
 0002:00008f44       ??_C@_0BC@OGIEOMEH@AddMulticastRoute@ 1008cf44     xpcruntime:xpcimports.obj
 0002:00008f5c       ??_C@_0BN@IMNDPFCL@AddMulticastRoute?5not?5found?6@ 1008cf5c     xpcruntime:xpcimports.obj
 0002:00008f80       ??_C@_0M@PHMABFPI@DeleteRoute@ 1008cf80     xpcruntime:xpcimports.obj
 0002:00008f90       ??_C@_0BH@JPJGLLID@DeleteRoute?5not?5found?6@ 1008cf90     xpcruntime:xpcimports.obj
 0002:00008fac       ??_C@_0BA@FCDIMKIJ@GetHostTarIPAdd@ 1008cfac     xpcruntime:xpcimports.obj
 0002:00008fc0       ??_C@_0BL@MBKDGKBO@GetHostTarIPAdd?5not?5found?6@ 1008cfc0     xpcruntime:xpcimports.obj
 0002:00008fe0       ??_C@_0M@HPMIPIBI@GetDCUUsage@ 1008cfe0     xpcruntime:xpcimports.obj
 0002:00008ff0       ??_C@_0BH@EBLJKCJC@GetDCUUsage?5not?5found?6@ 1008cff0     xpcruntime:xpcimports.obj
 0002:0000900c       ??_C@_06MPKMECK@accept@    1008d00c     xpcruntime:xpcimports.obj
 0002:00009014       ??_C@_0BC@GBGIEMNO@accept?5not?5found?6@ 1008d014     xpcruntime:xpcimports.obj
 0002:0000902c       ??_C@_04NPNJNMMP@bind@     1008d02c     xpcruntime:xpcimports.obj
 0002:00009034       ??_C@_0BA@DAJNENLO@bind?5not?5found?6@ 1008d034     xpcruntime:xpcimports.obj
 0002:00009048       ??_C@_0L@CKHNIFCM@setsockopt@ 1008d048     xpcruntime:xpcimports.obj
 0002:00009058       ??_C@_0BG@MFIIOMFE@setsockopt?5not?5found?6@ 1008d058     xpcruntime:xpcimports.obj
 0002:00009074       ??_C@_0M@ODDJDCDK@closesocket@ 1008d074     xpcruntime:xpcimports.obj
 0002:00009084       ??_C@_0BH@JHGHMIL@closesocket?5not?5found?6@ 1008d084     xpcruntime:xpcimports.obj
 0002:000090a0       ??_C@_07KAIBNCHO@connect@  1008d0a0     xpcruntime:xpcimports.obj
 0002:000090ac       ??_C@_0BD@MKLLMBM@connect?5not?5found?6@ 1008d0ac     xpcruntime:xpcimports.obj
 0002:000090c4       ??_C@_0M@PBPOCKDG@ioctlsocket@ 1008d0c4     xpcruntime:xpcimports.obj
 0002:000090d4       ??_C@_0BH@NFCNHHIH@ioctlsocket?5not?5found?6@ 1008d0d4     xpcruntime:xpcimports.obj
 0002:000090f0       ??_C@_06OODDLKLE@listen@   1008d0f0     xpcruntime:xpcimports.obj
 0002:000090f8       ??_C@_0BC@NHBILEKI@listen?5not?5found?6@ 1008d0f8     xpcruntime:xpcimports.obj
 0002:00009110       ??_C@_08HMBBGFHE@recvfrom@ 1008d110     xpcruntime:xpcimports.obj
 0002:0000911c       ??_C@_0BE@BJAJFFLF@recvfrom?5not?5found?6@ 1008d11c     xpcruntime:xpcimports.obj
 0002:00009134       ??_C@_06MEPBGKEC@sendto@   1008d134     xpcruntime:xpcimports.obj
 0002:0000913c       ??_C@_0BC@BHPIMDJO@sendto?5not?5found?6@ 1008d13c     xpcruntime:xpcimports.obj
 0002:00009154       ??_C@_09JKBDEEOB@inet_addr@ 1008d154     xpcruntime:xpcimports.obj
 0002:00009160       ??_C@_0BF@HKJPGECN@inet_addr?5not?5found?6@ 1008d160     xpcruntime:xpcimports.obj
 0002:0000917c       ??_C@_06HBELJPBO@socket@   1008d17c     xpcruntime:xpcimports.obj
 0002:00009184       ??_C@_0BC@NAGFFJGA@socket?5not?5found?6@ 1008d184     xpcruntime:xpcimports.obj
 0002:0000919c       ??_C@_09ICJIFGNC@GetSocket@ 1008d19c     xpcruntime:xpcimports.obj
 0002:000091a8       ??_C@_0BF@KDBCKMOJ@GetSocket?5not?5found?6@ 1008d1a8     xpcruntime:xpcimports.obj
 0002:000091c4       ??_C@_0P@KJEGJMJI@GetSocketState@ 1008d1c4     xpcruntime:xpcimports.obj
 0002:000091d8       ??_C@_0BK@IALBJHEB@GetSocketState?5not?5found?6@ 1008d1d8     xpcruntime:xpcimports.obj
 0002:000091f8       ??_C@_0L@MEAJHNHB@SocketSend@ 1008d1f8     xpcruntime:xpcimports.obj
 0002:00009208       ??_C@_0BG@EOCMBFJA@SocketSend?5not?5found?6@ 1008d208     xpcruntime:xpcimports.obj
 0002:00009224       ??_C@_0O@PFPCLEMF@SocketReceive@ 1008d224     xpcruntime:xpcimports.obj
 0002:00009234       ??_C@_0BJ@HIBADDFO@SocketReceive?5not?5found?6@ 1008d234     xpcruntime:xpcimports.obj
 0002:00009254       ??_C@_0BD@OOGFNAIK@CreateServerSocket@ 1008d254     xpcruntime:xpcimports.obj
 0002:0000926c       ??_C@_0BO@GKIJHIPH@CreateServerSocket?5not?5found?6@ 1008d26c     xpcruntime:xpcimports.obj
 0002:00009290       ??_C@_0BB@KGHJGFFO@OpenServerListen@ 1008d290     xpcruntime:xpcimports.obj
 0002:000092a4       ??_C@_0BM@NFMMLIO@OpenServerListen?5not?5found?6@ 1008d2a4     xpcruntime:xpcimports.obj
 0002:000092c8       ??_C@_0BE@BAJLDJAH@ConnectServerSocket@ 1008d2c8     xpcruntime:xpcimports.obj
 0002:000092e0       ??_C@_0BP@KJNODIKE@ConnectServerSocket?5not?5found?6@ 1008d2e0     xpcruntime:xpcimports.obj
 0002:00009308       ??_C@_0BC@PLKKJDIM@CloseServerSocket@ 1008d308     xpcruntime:xpcimports.obj
 0002:00009320       ??_C@_0BN@KEJEPNMB@CloseServerSocket?5not?5found?6@ 1008d320     xpcruntime:xpcimports.obj
 0002:00009344       ??_C@_0BC@IHMNIGFJ@ResetServerSocket@ 1008d344     xpcruntime:xpcimports.obj
 0002:0000935c       ??_C@_0BN@NIOGJLCG@ResetServerSocket?5not?5found?6@ 1008d35c     xpcruntime:xpcimports.obj
 0002:00009380       ??_C@_0BD@MCLPKCPP@CreateClientSocket@ 1008d380     xpcruntime:xpcimports.obj
 0002:00009398       ??_C@_0BO@DILAGPFN@CreateClientSocket?5not?5found?6@ 1008d398     xpcruntime:xpcimports.obj
 0002:000093bc       ??_C@_0BB@DAPKNNLG@BindClientSocket@ 1008d3bc     xpcruntime:xpcimports.obj
 0002:000093d0       ??_C@_0BM@LLLMMDFN@BindClientSocket?5not?5found?6@ 1008d3d0     xpcruntime:xpcimports.obj
 0002:000093f4       ??_C@_0BE@DMEBELHC@ConnectClientSocket@ 1008d3f4     xpcruntime:xpcimports.obj
 0002:0000940c       ??_C@_0BP@PLOHCPAO@ConnectClientSocket?5not?5found?6@ 1008d40c     xpcruntime:xpcimports.obj
 0002:00009434       ??_C@_0BC@NHHAOBPJ@CloseClientSocket@ 1008d434     xpcruntime:xpcimports.obj
 0002:0000944c       ??_C@_0BN@PGKNOKGL@CloseClientSocket?5not?5found?6@ 1008d44c     xpcruntime:xpcimports.obj
 0002:00009470       ??_C@_0BC@KLBHPECM@ResetClientSocket@ 1008d470     xpcruntime:xpcimports.obj
 0002:00009488       ??_C@_0BN@IKNPIMIM@ResetClientSocket?5not?5found?6@ 1008d488     xpcruntime:xpcimports.obj
 0002:000094ac       ??_C@_0M@IJOPFCCE@UDPOpenSend@ 1008d4ac     xpcruntime:xpcimports.obj
 0002:000094bc       ??_C@_0BH@CCHBDPG@UDPOpenSend?5not?5found?6@ 1008d4bc     xpcruntime:xpcimports.obj
 0002:000094d8       ??_C@_0P@MEPACHPD@UDPOpenReceive@ 1008d4d8     xpcruntime:xpcimports.obj
 0002:000094ec       ??_C@_0BK@PFMCPKIO@UDPOpenReceive?5not?5found?6@ 1008d4ec     xpcruntime:xpcimports.obj
 0002:0000950c       ??_C@_0BK@BGNLEHGA@UDPAddMulticastMembership@ 1008d50c     xpcruntime:xpcimports.obj
 0002:0000952c       ??_C@_0CF@CAEMAELE@UDPAddMulticastMembership?5not?5f@ 1008d52c     xpcruntime:xpcimports.obj
 0002:00009558       ??_C@_0N@NMMOLOEM@UDPCloseSend@ 1008d558     xpcruntime:xpcimports.obj
 0002:00009568       ??_C@_0BI@ENKCOCDG@UDPCloseSend?5not?5found?6@ 1008d568     xpcruntime:xpcimports.obj
 0002:00009584       ??_C@_0BA@DMJGBBIA@UDPCloseReceive@ 1008d584     xpcruntime:xpcimports.obj
 0002:00009598       ??_C@_0BL@PEBIMLNC@UDPCloseReceive?5not?5found?6@ 1008d598     xpcruntime:xpcimports.obj
 0002:000095b8       ??_C@_0P@NPOCJKPL@registerDFTask@ 1008d5b8     xpcruntime:xpcimports.obj
 0002:000095cc       ??_C@_0BK@JHOOFMMI@registerDFTask?5not?5found?6@ 1008d5cc     xpcruntime:xpcimports.obj
 0002:000095ec       ??_C@_0BB@ICCLEIPB@deregisterDFTask@ 1008d5ec     xpcruntime:xpcimports.obj
 0002:00009600       ??_C@_0BM@PEOCAIDM@deregisterDFTask?5not?5found?6@ 1008d600     xpcruntime:xpcimports.obj
 0002:00009624       ??_C@_0O@PHHDMOJH@triggerDFTask@ 1008d624     xpcruntime:xpcimports.obj
 0002:00009634       ??_C@_0BJ@IKKCFBJL@triggerDFTask?5not?5found?6@ 1008d634     xpcruntime:xpcimports.obj
 0002:00009654       ??_C@_0O@IAHKGBOC@waitForDFTask@ 1008d654     xpcruntime:xpcimports.obj
 0002:00009664       ??_C@_0BJ@FHLCNAKE@waitForDFTask?5not?5found?6@ 1008d664     xpcruntime:xpcimports.obj
 0002:00009738       __pDefaultRawDllMain       1008d738     LIBCMT:dll_dllmain.obj
 0002:00009738       __pRawDllMain              1008d738     LIBCMT:dll_dllmain.obj
 0002:00009930       ??_C@_08EHJDFFNH@__based?$CI@ 1008d930     libvcruntime:undname.obj
 0002:0000993c       ??_C@_07KOLFKCDI@__cdecl@  1008d93c     libvcruntime:undname.obj
 0002:00009948       ??_C@_08GHMPAG@__pascal@   1008d948     libvcruntime:undname.obj
 0002:00009954       ??_C@_09IFJBGAPI@__stdcall@ 1008d954     libvcruntime:undname.obj
 0002:00009960       ??_C@_0L@NPHFGOKO@__thiscall@ 1008d960     libvcruntime:undname.obj
 0002:00009970       ??_C@_0L@JMKHOMEK@__fastcall@ 1008d970     libvcruntime:undname.obj
 0002:00009980       ??_C@_0N@BCKKPABJ@__vectorcall@ 1008d980     libvcruntime:undname.obj
 0002:00009990       ??_C@_09HIJEGCPM@__clrcall@ 1008d990     libvcruntime:undname.obj
 0002:0000999c       ??_C@_06GHPCKEAG@__eabi@   1008d99c     libvcruntime:undname.obj
 0002:000099a4       ??_C@_09IOPIDJLG@__swift_1@ 1008d9a4     libvcruntime:undname.obj
 0002:000099b0       ??_C@_09KFNFGKHF@__swift_2@ 1008d9b0     libvcruntime:undname.obj
 0002:000099bc       ??_C@_07JOMMBBKO@__ptr64@  1008d9bc     libvcruntime:undname.obj
 0002:000099c8       ??_C@_0L@PILCLIHE@__restrict@ 1008d9c8     libvcruntime:undname.obj
 0002:000099d8       ??_C@_0M@GFIIJFMG@__unaligned@ 1008d9d8     libvcruntime:undname.obj
 0002:000099e8       ??_C@_09DHDLOLLB@restrict?$CI@ 1008d9e8     libvcruntime:undname.obj
 0002:000099f4       ??_C@_04NIHEBCM@?5new@     1008d9f4     libvcruntime:undname.obj
 0002:000099fc       ??_C@_07FPCDHGMM@?5delete@ 1008d9fc     libvcruntime:undname.obj
 0002:00009a08       ??_C@_01NEMOKFLO@?$DN@     1008da08     libvcruntime:undname.obj
 0002:00009a0c       ??_C@_02GPIOPFAK@?$DO?$DO@ 1008da0c     libvcruntime:undname.obj
 0002:00009a10       ??_C@_02FODMEDOG@?$DM?$DM@ 1008da10     libvcruntime:undname.obj
 0002:00009a14       ??_C@_01DCLJPIOD@?$CB@     1008da14     libvcruntime:undname.obj
 0002:00009a18       ??_C@_02EGOFBIJA@?$DN?$DN@ 1008da18     libvcruntime:undname.obj
 0002:00009a1c       ??_C@_02FDNJECIE@?$CB?$DN@ 1008da1c     libvcruntime:undname.obj
 0002:00009a20       ??_C@_02GPECMEKF@?$FL?$FN@ 1008da20     libvcruntime:undname.obj
 0002:00009a24       ??_C@_08LHJFAFGD@operator@ 1008da24     libvcruntime:undname.obj
 0002:00009a30       ??_C@_02HBOOOICD@?9?$DO@   1008da30     libvcruntime:undname.obj
 0002:00009a34       ??_C@_01NBENCBCI@?$CK@     1008da34     libvcruntime:undname.obj
 0002:00009a38       ??_C@_02ECNGHCIF@?$CL?$CL@ 1008da38     libvcruntime:undname.obj
 0002:00009a3c       ??_C@_02BAABKJLB@?9?9@     1008da3c     libvcruntime:undname.obj
 0002:00009a40       ??_C@_01JOAMLHOP@?9@       1008da40     libvcruntime:undname.obj
 0002:00009a44       ??_C@_01MIFGBAGJ@?$CL@     1008da44     libvcruntime:undname.obj
 0002:00009a48       ??_C@_01HNPIGOCE@?$CG@     1008da48     libvcruntime:undname.obj
 0002:00009a4c       ??_C@_03MNHNFDLC@?9?$DO?$CK@ 1008da4c     libvcruntime:undname.obj
 0002:00009a50       ??_C@_01KMDKNFGN@?1@       1008da50     libvcruntime:undname.obj
 0002:00009a54       ??_C@_01FGNFDNOH@?$CF@     1008da54     libvcruntime:undname.obj
 0002:00009a58       ??_C@_01MNNFJEPP@?$DM@     1008da58     libvcruntime:undname.obj
 0002:00009a5c       ??_C@_02EHCHHCKH@?$DM?$DN@ 1008da5c     libvcruntime:undname.obj
 0002:00009a60       ??_C@_01PPODPGHN@?$DO@     1008da60     libvcruntime:undname.obj
 0002:00009a64       ??_C@_02EEKDKGMJ@?$DO?$DN@ 1008da64     libvcruntime:undname.obj
 0002:00009a68       ??_C@_01IHBHIGKO@?0@       1008da68     libvcruntime:undname.obj
 0002:00009a6c       ??_C@_02HCKGKOFO@?$CI?$CJ@ 1008da6c     libvcruntime:undname.obj
 0002:00009a70       ??_C@_01PJKLJHI@?$HO@      1008da70     libvcruntime:undname.obj
 0002:00009a74       ??_C@_01JKBOJNNK@?$FO@     1008da74     libvcruntime:undname.obj
 0002:00009a78       ??_C@_02PPKAJPJL@?$CG?$CG@ 1008da78     libvcruntime:undname.obj
 0002:00009a7c       ??_C@_02NONPIBCD@?$HM?$HM@ 1008da7c     libvcruntime:undname.obj
 0002:00009a80       ??_C@_02FPIMKNGF@?$CK?$DN@ 1008da80     libvcruntime:undname.obj
 0002:00009a84       ??_C@_02FOEOMHFC@?$CL?$DN@ 1008da84     libvcruntime:undname.obj
 0002:00009a88       ??_C@_02FKMDLLOA@?9?$DN@   1008da88     libvcruntime:undname.obj
 0002:00009a8c       ??_C@_02FJEHGPIO@?1?$DN@   1008da8c     libvcruntime:undname.obj
 0002:00009a90       ??_C@_02FENAOKFI@?$CF?$DN@ 1008da90     libvcruntime:undname.obj
 0002:00009a94       ??_C@_03IKFCCPFF@?$DO?$DO?$DN@ 1008da94     libvcruntime:undname.obj
 0002:00009a98       ??_C@_03CDNPDDLA@?$DM?$DM?$DN@ 1008da98     libvcruntime:undname.obj
 0002:00009a9c       ??_C@_02FGJGFEAB@?$CG?$DN@ 1008da9c     libvcruntime:undname.obj
 0002:00009aa0       ??_C@_02DHLNPPGH@?$HM?$DN@ 1008daa0     libvcruntime:undname.obj
 0002:00009aa4       ??_C@_02MHEGNOJ@?$FO?$DN@  1008daa4     libvcruntime:undname.obj
 0002:00009aa8       ??_C@_09IFPLHPGF@?$GAvftable?8@ 1008daa8     libvcruntime:undname.obj
 0002:00009ab4       ??_C@_09BLBHBJP@?$GAvbtable?8@ 1008dab4     libvcruntime:undname.obj
 0002:00009ac0       ??_C@_07FEEIOKP@?$GAvcall?8@ 1008dac0     libvcruntime:undname.obj
 0002:00009acc       ??_C@_08LLFFHHDJ@?$GAtypeof?8@ 1008dacc     libvcruntime:undname.obj
 0002:00009ad8       ??_C@_0BF@KDPPACIK@?$GAlocal?5static?5guard?8@ 1008dad8     libvcruntime:undname.obj
 0002:00009af4       ??_C@_08OBABFOLI@?$GAstring?8@ 1008daf4     libvcruntime:undname.obj
 0002:00009b00       ??_C@_0BD@JDLKDPAB@?$GAvbase?5destructor?8@ 1008db00     libvcruntime:undname.obj
 0002:00009b18       ??_C@_0BN@DEGPLNFK@?$GAvector?5deleting?5destructor?8@ 1008db18     libvcruntime:undname.obj
 0002:00009b3c       ??_C@_0BO@OBMKPJIG@?$GAdefault?5constructor?5closure?8@ 1008db3c     libvcruntime:undname.obj
 0002:00009b60       ??_C@_0BN@IMDCHIKM@?$GAscalar?5deleting?5destructor?8@ 1008db60     libvcruntime:undname.obj
 0002:00009b84       ??_C@_0BO@PFGOCPJJ@?$GAvector?5constructor?5iterator?8@ 1008db84     libvcruntime:undname.obj
 0002:00009ba8       ??_C@_0BN@LFPFMEDL@?$GAvector?5destructor?5iterator?8@ 1008dba8     libvcruntime:undname.obj
 0002:00009bcc       ??_C@_0CE@IKBNEHA@?$GAvector?5vbase?5constructor?5itera@ 1008dbcc     libvcruntime:undname.obj
 0002:00009bf8       ??_C@_0BL@NILFHHPC@?$GAvirtual?5displacement?5map?8@ 1008dbf8     libvcruntime:undname.obj
 0002:00009c18       ??_C@_0CB@JONCMFFK@?$GAeh?5vector?5constructor?5iterator@ 1008dc18     libvcruntime:undname.obj
 0002:00009c40       ??_C@_0CA@GCEOPDGL@?$GAeh?5vector?5destructor?5iterator?8@ 1008dc40     libvcruntime:undname.obj
 0002:00009c68       ??_C@_0CH@OOJPLCPH@?$GAeh?5vector?5vbase?5constructor?5it@ 1008dc68     libvcruntime:undname.obj
 0002:00009c98       ??_C@_0BL@LLKPOHJI@?$GAcopy?5constructor?5closure?8@ 1008dc98     libvcruntime:undname.obj
 0002:00009cb8       ??_C@_0BA@KBCDOMBN@?$GAudt?5returning?8@ 1008dcb8     libvcruntime:undname.obj
 0002:00009ccc       ??_C@_03KLGMFNMG@?$GAEH@   1008dccc     libvcruntime:undname.obj
 0002:00009cd0       ??_C@_05KHLCHHI@?$GARTTI@  1008dcd0     libvcruntime:undname.obj
 0002:00009cd8       ??_C@_0BA@KKLDJDLB@?$GAlocal?5vftable?8@ 1008dcd8     libvcruntime:undname.obj
 0002:00009cec       ??_C@_0CE@IIHCMGGL@?$GAlocal?5vftable?5constructor?5clos@ 1008dcec     libvcruntime:undname.obj
 0002:00009d18       ??_C@_06FHBGPFGH@?5new?$FL?$FN@ 1008dd18     libvcruntime:undname.obj
 0002:00009d20       ??_C@_09LBNFPBCA@?5delete?$FL?$FN@ 1008dd20     libvcruntime:undname.obj
 0002:00009d2c       ??_C@_0P@HJKNJFNN@?$GAomni?5callsig?8@ 1008dd2c     libvcruntime:undname.obj
 0002:00009d40       ??_C@_0BL@CNOONJFP@?$GAplacement?5delete?5closure?8@ 1008dd40     libvcruntime:undname.obj
 0002:00009d60       ??_C@_0BN@CKNJLHMB@?$GAplacement?5delete?$FL?$FN?5closure?8@ 1008dd60     libvcruntime:undname.obj
 0002:00009d84       ??_C@_0CG@CFDHKGGD@?$GAmanaged?5vector?5constructor?5ite@ 1008dd84     libvcruntime:undname.obj
 0002:00009db4       ??_C@_0CF@IMGKMJNO@?$GAmanaged?5vector?5destructor?5iter@ 1008ddb4     libvcruntime:undname.obj
 0002:00009de0       ??_C@_0CG@HLDDJMAG@?$GAeh?5vector?5copy?5constructor?5ite@ 1008dde0     libvcruntime:undname.obj
 0002:00009e10       ??_C@_0CM@FCBBDIGB@?$GAeh?5vector?5vbase?5copy?5construct@ 1008de10     libvcruntime:undname.obj
 0002:00009e44       ??_C@_0BL@CLIPGLGB@?$GAdynamic?5initializer?5for?5?8@ 1008de44     libvcruntime:undname.obj
 0002:00009e64       ??_C@_0CB@PDBIFEP@?$GAdynamic?5atexit?5destructor?5for?5@ 1008de64     libvcruntime:undname.obj
 0002:00009e8c       ??_C@_0CD@CGAJBKEJ@?$GAvector?5copy?5constructor?5iterat@ 1008de8c     libvcruntime:undname.obj
 0002:00009eb8       ??_C@_0CJ@GJELGAMM@?$GAvector?5vbase?5copy?5constructor?5@ 1008deb8     libvcruntime:undname.obj
 0002:00009eec       ??_C@_0CL@FGIJHLCE@?$GAmanaged?5vector?5copy?5constructo@ 1008deec     libvcruntime:undname.obj
 0002:00009f20       ??_C@_0BM@PMGGMLDN@?$GAlocal?5static?5thread?5guard?8@ 1008df20     libvcruntime:undname.obj
 0002:00009f44       ??_C@_0N@BDNMDMOL@operator?5?$CC?$CC?5@ 1008df44     libvcruntime:undname.obj
 0002:00009f54       ??_C@_0BC@GGEBGALA@operator?5co_await@ 1008df54     libvcruntime:undname.obj
 0002:00009f6c       ??_C@_0BC@DAFEJGAK@?5Type?5Descriptor?8@ 1008df6c     libvcruntime:undname.obj
 0002:00009f84       ??_C@_0BM@LDKODKLH@?5Base?5Class?5Descriptor?5at?5?$CI@ 1008df84     libvcruntime:undname.obj
 0002:00009fa8       ??_C@_0BD@LGICGFMM@?5Base?5Class?5Array?8@ 1008dfa8     libvcruntime:undname.obj
 0002:00009fc0       ??_C@_0BN@MECKDCOJ@?5Class?5Hierarchy?5Descriptor?8@ 1008dfc0     libvcruntime:undname.obj
 0002:00009fe4       ??_C@_0BK@CFCOFLF@?5Complete?5Object?5Locator?8@ 1008dfe4     libvcruntime:undname.obj
 0002:0000a004       ??_C@_04HEJADOOB@CV?3?5@   1008e004     libvcruntime:undname.obj
 0002:0000a00c       ??_C@_02MOLJINC@?3?3@      1008e00c     libvcruntime:undname.obj
 0002:0000a010       ??_C@_0BE@JAEOCHPE@template?9parameter?9@ 1008e010     libvcruntime:undname.obj
 0002:0000a028       ??_C@_0O@KHGCOMHP@generic?9type?9@ 1008e028     libvcruntime:undname.obj
 0002:0000a038       ??_C@_01NLNLIGKH@?$GA@     1008e038     libvcruntime:undname.obj
 0002:0000a03c       ??_C@_01GEODFPGF@?8@       1008e03c     libvcruntime:undname.obj
 0002:0000a040       ??_C@_0BG@JNJLAMPM@?$GAanonymous?5namespace?8@ 1008e040     libvcruntime:undname.obj
 0002:0000a05c       ??_C@_02OHHJMEON@?8?8@     1008e05c     libvcruntime:undname.obj
 0002:0000a060       ??_C@_0BN@IBLMMFAP@?$GAnon?9type?9template?9parameter@ 1008e060     libvcruntime:undname.obj
 0002:0000a084       ??_C@_04GKJNKENE@void@     1008e084     libvcruntime:undname.obj
 0002:0000a08c       ??_C@_0BE@EODMJLIF@?$GAtemplate?9parameter@ 1008e08c     libvcruntime:undname.obj
 0002:0000a0a4       ??_C@_03KHICJKCI@?4?4?4@   1008e0a4     libvcruntime:undname.obj
 0002:0000a0a8       ??_C@_04HIBGFPH@NULL@      1008e0a8     libvcruntime:undname.obj
 0002:0000a0b0       ??_C@_02DPKJAMEF@?$CFd@    1008e0b0     libvcruntime:undname.obj
 0002:0000a0b4       ??_C@_0BK@IHCCFNEL@?$GAtemplate?9type?9parameter?9@ 1008e0b4     libvcruntime:undname.obj
 0002:0000a0d4       ??_C@_0BK@OFCNNNKO@?$GAgeneric?9class?9parameter?9@ 1008e0d4     libvcruntime:undname.obj
 0002:0000a0f4       ??_C@_0BL@NGJBLFIL@?$GAgeneric?9method?9parameter?9@ 1008e0f4     libvcruntime:undname.obj
 0002:0000a114       ??_C@_03OPGICMGF@?$HN?8?5@ 1008e114     libvcruntime:undname.obj
 0002:0000a118       ??_C@_02IGFCGPIL@?$HN?8@   1008e118     libvcruntime:undname.obj
 0002:0000a11c       ??_C@_01CLKCMJKC@?5@       1008e11c     libvcruntime:undname.obj
 0002:0000a120       ??_C@_0N@CBHHHENL@?$GAvtordispex?$HL@ 1008e120     libvcruntime:undname.obj
 0002:0000a130       ??_C@_0L@GHPFDFH@?$GAvtordisp?$HL@ 1008e130     libvcruntime:undname.obj
 0002:0000a140       ??_C@_0L@HNGCOGAE@?$GAadjustor?$HL@ 1008e140     libvcruntime:undname.obj
 0002:0000a150       ??_C@_0CB@KJDOOODE@?$GAlocal?5static?5destructor?5helper@ 1008e150     libvcruntime:undname.obj
 0002:0000a178       ??_C@_0DB@ILEFOCIJ@?$GAtemplate?5static?5data?5member?5co@ 1008e178     libvcruntime:undname.obj
 0002:0000a1b4       ??_C@_0DA@HGFJFBBE@?$GAtemplate?5static?5data?5member?5de@ 1008e1b4     libvcruntime:undname.obj
 0002:0000a1f0       ??_C@_07PGOEDBHP@static?5@ 1008e1f0     libvcruntime:undname.obj
 0002:0000a1fc       ??_C@_08NIEOINHE@virtual?5@ 1008e1fc     libvcruntime:undname.obj
 0002:0000a208       ??_C@_09LAPHOOG@private?3?5@ 1008e208     libvcruntime:undname.obj
 0002:0000a214       ??_C@_0M@GAIFPFIP@protected?3?5@ 1008e214     libvcruntime:undname.obj
 0002:0000a224       ??_C@_08GPDDCMKI@public?3?5@ 1008e224     libvcruntime:undname.obj
 0002:0000a230       ??_C@_08KJLFOPNE@?$FLthunk?$FN?3@ 1008e230     libvcruntime:undname.obj
 0002:0000a23c       ??_C@_0M@DHNBOJMP@extern?5?$CCC?$CC?5@ 1008e23c     libvcruntime:undname.obj
 0002:0000a24c       ??_C@_02KCKGHPCA@?$CJ?5@   1008e24c     libvcruntime:undname.obj
 0002:0000a250       ??_C@_05CIHEBHNO@char?5@   1008e250     libvcruntime:undname.obj
 0002:0000a258       ??_C@_06EHJMALKF@short?5@  1008e258     libvcruntime:undname.obj
 0002:0000a260       ??_C@_04LAHKHJMA@int?5@    1008e260     libvcruntime:undname.obj
 0002:0000a268       ??_C@_05CJIMAING@long?5@   1008e268     libvcruntime:undname.obj
 0002:0000a270       ??_C@_09EBBEKKIH@unsigned?5@ 1008e270     libvcruntime:undname.obj
 0002:0000a27c       ??_C@_05BEFAKPML@void?5@   1008e27c     libvcruntime:undname.obj
 0002:0000a284       ??_C@_08PABEKFH@volatile@  1008e284     libvcruntime:undname.obj
